
.\build\gcc/stm32-qemu.elf:     file format elf32-littlearm


Disassembly of section .isr_vector:

08000000 <g_pfnVectors>:
 8000000:	200099a0 	andcs	r9, r0, r0, lsr #19
 8000004:	0800343d 	stmdaeq	r0, {r0, r2, r3, r4, r5, sl, ip, sp}
 8000008:	08000755 	stmdaeq	r0, {r0, r2, r4, r6, r8, r9, sl}
 800000c:	080001d1 	stmdaeq	r0, {r0, r4, r6, r7, r8}
 8000010:	08000769 	stmdaeq	r0, {r0, r3, r5, r6, r8, r9, sl}
 8000014:	0800077d 	stmdaeq	r0, {r0, r2, r3, r4, r5, r6, r8, r9, sl}
 8000018:	08000791 	stmdaeq	r0, {r0, r4, r7, r8, r9, sl}
	...
 800002c:	080007a5 	stmdaeq	r0, {r0, r2, r5, r7, r8, r9, sl}
 8000030:	080007ad 	stmdaeq	r0, {r0, r2, r3, r5, r7, r8, r9, sl}
 8000034:	00000000 	andeq	r0, r0, r0
 8000038:	080007af 	stmdaeq	r0, {r0, r1, r2, r3, r5, r7, r8, r9, sl}
 800003c:	080007b7 	stmdaeq	r0, {r0, r1, r2, r4, r5, r7, r8, r9, sl}
 8000040:	0800348d 	stmdaeq	r0, {r0, r2, r3, r7, sl, ip, sp}
 8000044:	0800348d 	stmdaeq	r0, {r0, r2, r3, r7, sl, ip, sp}
 8000048:	0800348d 	stmdaeq	r0, {r0, r2, r3, r7, sl, ip, sp}
 800004c:	0800348d 	stmdaeq	r0, {r0, r2, r3, r7, sl, ip, sp}
 8000050:	0800348d 	stmdaeq	r0, {r0, r2, r3, r7, sl, ip, sp}
 8000054:	0800348d 	stmdaeq	r0, {r0, r2, r3, r7, sl, ip, sp}
 8000058:	0800348d 	stmdaeq	r0, {r0, r2, r3, r7, sl, ip, sp}
 800005c:	0800348d 	stmdaeq	r0, {r0, r2, r3, r7, sl, ip, sp}
 8000060:	0800348d 	stmdaeq	r0, {r0, r2, r3, r7, sl, ip, sp}
 8000064:	0800348d 	stmdaeq	r0, {r0, r2, r3, r7, sl, ip, sp}
 8000068:	0800348d 	stmdaeq	r0, {r0, r2, r3, r7, sl, ip, sp}
 800006c:	0800348d 	stmdaeq	r0, {r0, r2, r3, r7, sl, ip, sp}
 8000070:	0800348d 	stmdaeq	r0, {r0, r2, r3, r7, sl, ip, sp}
 8000074:	0800348d 	stmdaeq	r0, {r0, r2, r3, r7, sl, ip, sp}
 8000078:	0800348d 	stmdaeq	r0, {r0, r2, r3, r7, sl, ip, sp}
 800007c:	0800348d 	stmdaeq	r0, {r0, r2, r3, r7, sl, ip, sp}
 8000080:	0800348d 	stmdaeq	r0, {r0, r2, r3, r7, sl, ip, sp}
 8000084:	0800348d 	stmdaeq	r0, {r0, r2, r3, r7, sl, ip, sp}
 8000088:	0800348d 	stmdaeq	r0, {r0, r2, r3, r7, sl, ip, sp}
 800008c:	0800348d 	stmdaeq	r0, {r0, r2, r3, r7, sl, ip, sp}
 8000090:	0800348d 	stmdaeq	r0, {r0, r2, r3, r7, sl, ip, sp}
 8000094:	0800348d 	stmdaeq	r0, {r0, r2, r3, r7, sl, ip, sp}
 8000098:	0800348d 	stmdaeq	r0, {r0, r2, r3, r7, sl, ip, sp}
 800009c:	0800348d 	stmdaeq	r0, {r0, r2, r3, r7, sl, ip, sp}
 80000a0:	0800348d 	stmdaeq	r0, {r0, r2, r3, r7, sl, ip, sp}
 80000a4:	0800348d 	stmdaeq	r0, {r0, r2, r3, r7, sl, ip, sp}
 80000a8:	0800348d 	stmdaeq	r0, {r0, r2, r3, r7, sl, ip, sp}
 80000ac:	0800348d 	stmdaeq	r0, {r0, r2, r3, r7, sl, ip, sp}
 80000b0:	0800348d 	stmdaeq	r0, {r0, r2, r3, r7, sl, ip, sp}
 80000b4:	0800348d 	stmdaeq	r0, {r0, r2, r3, r7, sl, ip, sp}
 80000b8:	0800348d 	stmdaeq	r0, {r0, r2, r3, r7, sl, ip, sp}
 80000bc:	0800348d 	stmdaeq	r0, {r0, r2, r3, r7, sl, ip, sp}
 80000c0:	0800348d 	stmdaeq	r0, {r0, r2, r3, r7, sl, ip, sp}
 80000c4:	0800348d 	stmdaeq	r0, {r0, r2, r3, r7, sl, ip, sp}
 80000c8:	0800348d 	stmdaeq	r0, {r0, r2, r3, r7, sl, ip, sp}
 80000cc:	0800348d 	stmdaeq	r0, {r0, r2, r3, r7, sl, ip, sp}
 80000d0:	0800348d 	stmdaeq	r0, {r0, r2, r3, r7, sl, ip, sp}
 80000d4:	080007cd 	stmdaeq	r0, {r0, r2, r3, r6, r7, r8, r9, sl}
 80000d8:	0800348d 	stmdaeq	r0, {r0, r2, r3, r7, sl, ip, sp}
 80000dc:	0800348d 	stmdaeq	r0, {r0, r2, r3, r7, sl, ip, sp}
 80000e0:	0800348d 	stmdaeq	r0, {r0, r2, r3, r7, sl, ip, sp}
 80000e4:	0800348d 	stmdaeq	r0, {r0, r2, r3, r7, sl, ip, sp}
 80000e8:	0800348d 	stmdaeq	r0, {r0, r2, r3, r7, sl, ip, sp}
 80000ec:	0800348d 	stmdaeq	r0, {r0, r2, r3, r7, sl, ip, sp}
 80000f0:	0800348d 	stmdaeq	r0, {r0, r2, r3, r7, sl, ip, sp}
 80000f4:	0800348d 	stmdaeq	r0, {r0, r2, r3, r7, sl, ip, sp}
 80000f8:	0800348d 	stmdaeq	r0, {r0, r2, r3, r7, sl, ip, sp}
 80000fc:	0800348d 	stmdaeq	r0, {r0, r2, r3, r7, sl, ip, sp}
 8000100:	0800348d 	stmdaeq	r0, {r0, r2, r3, r7, sl, ip, sp}
 8000104:	0800348d 	stmdaeq	r0, {r0, r2, r3, r7, sl, ip, sp}
 8000108:	0800348d 	stmdaeq	r0, {r0, r2, r3, r7, sl, ip, sp}
 800010c:	0800348d 	stmdaeq	r0, {r0, r2, r3, r7, sl, ip, sp}
 8000110:	0800348d 	stmdaeq	r0, {r0, r2, r3, r7, sl, ip, sp}
 8000114:	0800348d 	stmdaeq	r0, {r0, r2, r3, r7, sl, ip, sp}
 8000118:	0800348d 	stmdaeq	r0, {r0, r2, r3, r7, sl, ip, sp}
 800011c:	0800348d 	stmdaeq	r0, {r0, r2, r3, r7, sl, ip, sp}
 8000120:	0800348d 	stmdaeq	r0, {r0, r2, r3, r7, sl, ip, sp}
 8000124:	0800348d 	stmdaeq	r0, {r0, r2, r3, r7, sl, ip, sp}
 8000128:	0800348d 	stmdaeq	r0, {r0, r2, r3, r7, sl, ip, sp}
 800012c:	0800348d 	stmdaeq	r0, {r0, r2, r3, r7, sl, ip, sp}
 8000130:	0800348d 	stmdaeq	r0, {r0, r2, r3, r7, sl, ip, sp}
	...
 800013c:	0800348d 	stmdaeq	r0, {r0, r2, r3, r7, sl, ip, sp}
 8000140:	0800348d 	stmdaeq	r0, {r0, r2, r3, r7, sl, ip, sp}
 8000144:	0800348d 	stmdaeq	r0, {r0, r2, r3, r7, sl, ip, sp}
 8000148:	0800348d 	stmdaeq	r0, {r0, r2, r3, r7, sl, ip, sp}
 800014c:	0800348d 	stmdaeq	r0, {r0, r2, r3, r7, sl, ip, sp}
 8000150:	0800348d 	stmdaeq	r0, {r0, r2, r3, r7, sl, ip, sp}
 8000154:	0800348d 	stmdaeq	r0, {r0, r2, r3, r7, sl, ip, sp}
 8000158:	0800348d 	stmdaeq	r0, {r0, r2, r3, r7, sl, ip, sp}
 800015c:	0800348d 	stmdaeq	r0, {r0, r2, r3, r7, sl, ip, sp}
 8000160:	0800348d 	stmdaeq	r0, {r0, r2, r3, r7, sl, ip, sp}
 8000164:	0800348d 	stmdaeq	r0, {r0, r2, r3, r7, sl, ip, sp}
 8000168:	0800348d 	stmdaeq	r0, {r0, r2, r3, r7, sl, ip, sp}
 800016c:	0800348d 	stmdaeq	r0, {r0, r2, r3, r7, sl, ip, sp}
 8000170:	0800348d 	stmdaeq	r0, {r0, r2, r3, r7, sl, ip, sp}
 8000174:	0800348d 	stmdaeq	r0, {r0, r2, r3, r7, sl, ip, sp}
	...
 8000180:	0800348d 	stmdaeq	r0, {r0, r2, r3, r7, sl, ip, sp}
 8000184:	0800348d 	stmdaeq	r0, {r0, r2, r3, r7, sl, ip, sp}

Disassembly of section .text:

08000190 <__do_global_dtors_aux>:
 8000190:	b510      	push	{r4, lr}
 8000192:	4c05      	ldr	r4, [pc, #20]	; (80001a8 <__do_global_dtors_aux+0x18>)
 8000194:	7823      	ldrb	r3, [r4, #0]
 8000196:	b933      	cbnz	r3, 80001a6 <__do_global_dtors_aux+0x16>
 8000198:	4b04      	ldr	r3, [pc, #16]	; (80001ac <__do_global_dtors_aux+0x1c>)
 800019a:	b113      	cbz	r3, 80001a2 <__do_global_dtors_aux+0x12>
 800019c:	4804      	ldr	r0, [pc, #16]	; (80001b0 <__do_global_dtors_aux+0x20>)
 800019e:	f3af 8000 	nop.w
 80001a2:	2301      	movs	r3, #1
 80001a4:	7023      	strb	r3, [r4, #0]
 80001a6:	bd10      	pop	{r4, pc}
 80001a8:	20000078 	andcs	r0, r0, r8, ror r0
 80001ac:	00000000 	andeq	r0, r0, r0
 80001b0:	08004518 	stmdaeq	r0, {r3, r4, r8, sl, lr}

080001b4 <frame_dummy>:
 80001b4:	b508      	push	{r3, lr}
 80001b6:	4b03      	ldr	r3, [pc, #12]	; (80001c4 <frame_dummy+0x10>)
 80001b8:	b11b      	cbz	r3, 80001c2 <frame_dummy+0xe>
 80001ba:	4903      	ldr	r1, [pc, #12]	; (80001c8 <frame_dummy+0x14>)
 80001bc:	4803      	ldr	r0, [pc, #12]	; (80001cc <frame_dummy+0x18>)
 80001be:	f3af 8000 	nop.w
 80001c2:	bd08      	pop	{r3, pc}
 80001c4:	00000000 	andeq	r0, r0, r0
 80001c8:	2000007c 	andcs	r0, r0, ip, ror r0
 80001cc:	08004518 	stmdaeq	r0, {r3, r4, r8, sl, lr}

080001d0 <HardFault_Handler>:
.global fault_dump_handler

.global HardFault_Handler
.type HardFault_Handler, % function
HardFault_Handler:
    cpsid   i                           /* disable interrupts */
 80001d0:	b672      	cpsid	i
    ldr     r3, =fd_main_stack_base     /* r3 = &fd_main_stack_base */
 80001d2:	4b0e      	ldr	r3, [pc, #56]	; (800020c <stack_invalid+0xe>)
    ldr     r1, [r3]                    /* r1 = fd_main_stack_base  */
 80001d4:	6819      	ldr	r1, [r3, #0]
    ldr     r3, =fd_main_stack_full     /* r3 = &fd_main_stack_full */
 80001d6:	4b0e      	ldr	r3, [pc, #56]	; (8000210 <stack_invalid+0x12>)
    ldr     r2, [r3]                    /* r2 = fd_main_stack_full  */
 80001d8:	681a      	ldr	r2, [r3, #0]

    tst     lr, #4                      /* use exc_return value get sp value */
 80001da:	f01e 0f04 	tst.w	lr, #4
    bne     stack_checked               /* if (sp != msp), jump to stack_checked */
 80001de:	d105      	bne.n	80001ec <stack_checked>

    mrs     r0, msp                     /* else (sp == msp), r0 = sp = msp */
 80001e0:	f3ef 8008 	mrs	r0, MSP
    cmp     r0, r1                      /* compare msp and stack base addr */
 80001e4:	4288      	cmp	r0, r1
    blt     stack_invalid               /* msp < stack_base_addr, msp is invalid */
 80001e6:	db0a      	blt.n	80001fe <stack_invalid>
    cmp     r0, r2                      /* compare msp and stack full addr */
 80001e8:	4290      	cmp	r0, r2
    bgt     stack_invalid               /* msp > stack_base_addr, msp is invalid */
 80001ea:	dc08      	bgt.n	80001fe <stack_invalid>

080001ec <stack_checked>:
    
stack_checked:
    push    {r4 - r11}                  /* sp value is in stack range, push r4 - r11 to stack */
 80001ec:	e92d 0ff0 	stmdb	sp!, {r4, r5, r6, r7, r8, r9, sl, fp}

    tst     lr, #4                      /* update sp value to r0 */
 80001f0:	f01e 0f04 	tst.w	lr, #4
    ite     eq
 80001f4:	bf0c      	ite	eq
    mrseq   r0, msp                     /* lr & 0x04 == 1, r0 = sp = msp */
 80001f6:	f3ef 8008 	mrseq	r0, MSP
    mrsne   r0, psp                     /* lr & 0x04 == 0, r0 = sp = psp */
 80001fa:	f3ef 8009 	mrsne	r0, PSP

080001fe <stack_invalid>:
stack_invalid:
    mov     r1, lr                      /* now, r0 = sp, r1 = lr */
 80001fe:	4671      	mov	r1, lr
    ldr     r2, =fault_dump_handler     /* now, r2 = fault_dump_handler */
 8000200:	4a04      	ldr	r2, [pc, #16]	; (8000214 <stack_invalid+0x16>)
    dsb                                 /* wait for memory access to complete */
 8000202:	f3bf 8f4f 	dsb	sy
    cpsie   i                           /* enable interrupts */
 8000206:	b662      	cpsie	i
    bx      r2                          /* jump to fault_dump_handler */
 8000208:	4710      	bx	r2
 800020a:	81e40000 	mvnhi	r0, r0
    ldr     r3, =fd_main_stack_base     /* r3 = &fd_main_stack_base */
 800020e:	81e82000 	mvnhi	r2, r0
    ldr     r3, =fd_main_stack_full     /* r3 = &fd_main_stack_full */
 8000212:	18d12000 	ldmne	r1, {sp}^
    ldr     r2, =fault_dump_handler     /* now, r2 = fault_dump_handler */
 8000216:	00000800 	andeq	r0, r0, r0, lsl #16
 800021a:	00000000 	andeq	r0, r0, r0
	...

08000220 <memchr>:
 8000220:	f001 01ff 	and.w	r1, r1, #255	; 0xff
 8000224:	2a10      	cmp	r2, #16
 8000226:	db2b      	blt.n	8000280 <memchr+0x60>
 8000228:	f010 0f07 	tst.w	r0, #7
 800022c:	d008      	beq.n	8000240 <memchr+0x20>
 800022e:	f810 3b01 	ldrb.w	r3, [r0], #1
 8000232:	3a01      	subs	r2, #1
 8000234:	428b      	cmp	r3, r1
 8000236:	d02d      	beq.n	8000294 <memchr+0x74>
 8000238:	f010 0f07 	tst.w	r0, #7
 800023c:	b342      	cbz	r2, 8000290 <memchr+0x70>
 800023e:	d1f6      	bne.n	800022e <memchr+0xe>
 8000240:	b4f0      	push	{r4, r5, r6, r7}
 8000242:	ea41 2101 	orr.w	r1, r1, r1, lsl #8
 8000246:	ea41 4101 	orr.w	r1, r1, r1, lsl #16
 800024a:	f022 0407 	bic.w	r4, r2, #7
 800024e:	f07f 0700 	mvns.w	r7, #0
 8000252:	2300      	movs	r3, #0
 8000254:	e8f0 5602 	ldrd	r5, r6, [r0], #8
 8000258:	3c08      	subs	r4, #8
 800025a:	ea85 0501 	eor.w	r5, r5, r1
 800025e:	ea86 0601 	eor.w	r6, r6, r1
 8000262:	fa85 f547 	uadd8	r5, r5, r7
 8000266:	faa3 f587 	sel	r5, r3, r7
 800026a:	fa86 f647 	uadd8	r6, r6, r7
 800026e:	faa5 f687 	sel	r6, r5, r7
 8000272:	b98e      	cbnz	r6, 8000298 <memchr+0x78>
 8000274:	d1ee      	bne.n	8000254 <memchr+0x34>
 8000276:	bcf0      	pop	{r4, r5, r6, r7}
 8000278:	f001 01ff 	and.w	r1, r1, #255	; 0xff
 800027c:	f002 0207 	and.w	r2, r2, #7
 8000280:	b132      	cbz	r2, 8000290 <memchr+0x70>
 8000282:	f810 3b01 	ldrb.w	r3, [r0], #1
 8000286:	3a01      	subs	r2, #1
 8000288:	ea83 0301 	eor.w	r3, r3, r1
 800028c:	b113      	cbz	r3, 8000294 <memchr+0x74>
 800028e:	d1f8      	bne.n	8000282 <memchr+0x62>
 8000290:	2000      	movs	r0, #0
 8000292:	4770      	bx	lr
 8000294:	3801      	subs	r0, #1
 8000296:	4770      	bx	lr
 8000298:	2d00      	cmp	r5, #0
 800029a:	bf06      	itte	eq
 800029c:	4635      	moveq	r5, r6
 800029e:	3803      	subeq	r0, #3
 80002a0:	3807      	subne	r0, #7
 80002a2:	f015 0f01 	tst.w	r5, #1
 80002a6:	d107      	bne.n	80002b8 <memchr+0x98>
 80002a8:	3001      	adds	r0, #1
 80002aa:	f415 7f80 	tst.w	r5, #256	; 0x100
 80002ae:	bf02      	ittt	eq
 80002b0:	3001      	addeq	r0, #1
 80002b2:	f415 3fc0 	tsteq.w	r5, #98304	; 0x18000
 80002b6:	3001      	addeq	r0, #1
 80002b8:	bcf0      	pop	{r4, r5, r6, r7}
 80002ba:	3801      	subs	r0, #1
 80002bc:	4770      	bx	lr
 80002be:	bf00      	nop

080002c0 <__aeabi_uldivmod>:
 80002c0:	b953      	cbnz	r3, 80002d8 <__aeabi_uldivmod+0x18>
 80002c2:	b94a      	cbnz	r2, 80002d8 <__aeabi_uldivmod+0x18>
 80002c4:	2900      	cmp	r1, #0
 80002c6:	bf08      	it	eq
 80002c8:	2800      	cmpeq	r0, #0
 80002ca:	bf1c      	itt	ne
 80002cc:	f04f 31ff 	movne.w	r1, #4294967295
 80002d0:	f04f 30ff 	movne.w	r0, #4294967295
 80002d4:	f000 b974 	b.w	80005c0 <__aeabi_idiv0>
 80002d8:	f1ad 0c08 	sub.w	ip, sp, #8
 80002dc:	e96d ce04 	strd	ip, lr, [sp, #-16]!
 80002e0:	f000 f806 	bl	80002f0 <__udivmoddi4>
 80002e4:	f8dd e004 	ldr.w	lr, [sp, #4]
 80002e8:	e9dd 2302 	ldrd	r2, r3, [sp, #8]
 80002ec:	b004      	add	sp, #16
 80002ee:	4770      	bx	lr

080002f0 <__udivmoddi4>:
 80002f0:	e92d 47f0 	stmdb	sp!, {r4, r5, r6, r7, r8, r9, sl, lr}
 80002f4:	9d08      	ldr	r5, [sp, #32]
 80002f6:	4604      	mov	r4, r0
 80002f8:	468e      	mov	lr, r1
 80002fa:	2b00      	cmp	r3, #0
 80002fc:	d14d      	bne.n	800039a <__udivmoddi4+0xaa>
 80002fe:	428a      	cmp	r2, r1
 8000300:	4694      	mov	ip, r2
 8000302:	d969      	bls.n	80003d8 <__udivmoddi4+0xe8>
 8000304:	fab2 f282 	clz	r2, r2
 8000308:	b152      	cbz	r2, 8000320 <__udivmoddi4+0x30>
 800030a:	fa01 f302 	lsl.w	r3, r1, r2
 800030e:	f1c2 0120 	rsb	r1, r2, #32
 8000312:	fa20 f101 	lsr.w	r1, r0, r1
 8000316:	fa0c fc02 	lsl.w	ip, ip, r2
 800031a:	ea41 0e03 	orr.w	lr, r1, r3
 800031e:	4094      	lsls	r4, r2
 8000320:	ea4f 481c 	mov.w	r8, ip, lsr #16
 8000324:	0c21      	lsrs	r1, r4, #16
 8000326:	fbbe f6f8 	udiv	r6, lr, r8
 800032a:	fa1f f78c 	uxth.w	r7, ip
 800032e:	fb08 e316 	mls	r3, r8, r6, lr
 8000332:	ea41 4303 	orr.w	r3, r1, r3, lsl #16
 8000336:	fb06 f107 	mul.w	r1, r6, r7
 800033a:	4299      	cmp	r1, r3
 800033c:	d90a      	bls.n	8000354 <__udivmoddi4+0x64>
 800033e:	eb1c 0303 	adds.w	r3, ip, r3
 8000342:	f106 30ff 	add.w	r0, r6, #4294967295
 8000346:	f080 811f 	bcs.w	8000588 <__udivmoddi4+0x298>
 800034a:	4299      	cmp	r1, r3
 800034c:	f240 811c 	bls.w	8000588 <__udivmoddi4+0x298>
 8000350:	3e02      	subs	r6, #2
 8000352:	4463      	add	r3, ip
 8000354:	1a5b      	subs	r3, r3, r1
 8000356:	b2a4      	uxth	r4, r4
 8000358:	fbb3 f0f8 	udiv	r0, r3, r8
 800035c:	fb08 3310 	mls	r3, r8, r0, r3
 8000360:	ea44 4403 	orr.w	r4, r4, r3, lsl #16
 8000364:	fb00 f707 	mul.w	r7, r0, r7
 8000368:	42a7      	cmp	r7, r4
 800036a:	d90a      	bls.n	8000382 <__udivmoddi4+0x92>
 800036c:	eb1c 0404 	adds.w	r4, ip, r4
 8000370:	f100 33ff 	add.w	r3, r0, #4294967295
 8000374:	f080 810a 	bcs.w	800058c <__udivmoddi4+0x29c>
 8000378:	42a7      	cmp	r7, r4
 800037a:	f240 8107 	bls.w	800058c <__udivmoddi4+0x29c>
 800037e:	4464      	add	r4, ip
 8000380:	3802      	subs	r0, #2
 8000382:	ea40 4006 	orr.w	r0, r0, r6, lsl #16
 8000386:	1be4      	subs	r4, r4, r7
 8000388:	2600      	movs	r6, #0
 800038a:	b11d      	cbz	r5, 8000394 <__udivmoddi4+0xa4>
 800038c:	40d4      	lsrs	r4, r2
 800038e:	2300      	movs	r3, #0
 8000390:	e9c5 4300 	strd	r4, r3, [r5]
 8000394:	4631      	mov	r1, r6
 8000396:	e8bd 87f0 	ldmia.w	sp!, {r4, r5, r6, r7, r8, r9, sl, pc}
 800039a:	428b      	cmp	r3, r1
 800039c:	d909      	bls.n	80003b2 <__udivmoddi4+0xc2>
 800039e:	2d00      	cmp	r5, #0
 80003a0:	f000 80ef 	beq.w	8000582 <__udivmoddi4+0x292>
 80003a4:	2600      	movs	r6, #0
 80003a6:	e9c5 0100 	strd	r0, r1, [r5]
 80003aa:	4630      	mov	r0, r6
 80003ac:	4631      	mov	r1, r6
 80003ae:	e8bd 87f0 	ldmia.w	sp!, {r4, r5, r6, r7, r8, r9, sl, pc}
 80003b2:	fab3 f683 	clz	r6, r3
 80003b6:	2e00      	cmp	r6, #0
 80003b8:	d14a      	bne.n	8000450 <__udivmoddi4+0x160>
 80003ba:	428b      	cmp	r3, r1
 80003bc:	d302      	bcc.n	80003c4 <__udivmoddi4+0xd4>
 80003be:	4282      	cmp	r2, r0
 80003c0:	f200 80f9 	bhi.w	80005b6 <__udivmoddi4+0x2c6>
 80003c4:	1a84      	subs	r4, r0, r2
 80003c6:	eb61 0303 	sbc.w	r3, r1, r3
 80003ca:	2001      	movs	r0, #1
 80003cc:	469e      	mov	lr, r3
 80003ce:	2d00      	cmp	r5, #0
 80003d0:	d0e0      	beq.n	8000394 <__udivmoddi4+0xa4>
 80003d2:	e9c5 4e00 	strd	r4, lr, [r5]
 80003d6:	e7dd      	b.n	8000394 <__udivmoddi4+0xa4>
 80003d8:	b902      	cbnz	r2, 80003dc <__udivmoddi4+0xec>
 80003da:	deff      	udf	#255	; 0xff
 80003dc:	fab2 f282 	clz	r2, r2
 80003e0:	2a00      	cmp	r2, #0
 80003e2:	f040 8092 	bne.w	800050a <__udivmoddi4+0x21a>
 80003e6:	eba1 010c 	sub.w	r1, r1, ip
 80003ea:	ea4f 471c 	mov.w	r7, ip, lsr #16
 80003ee:	fa1f fe8c 	uxth.w	lr, ip
 80003f2:	2601      	movs	r6, #1
 80003f4:	0c20      	lsrs	r0, r4, #16
 80003f6:	fbb1 f3f7 	udiv	r3, r1, r7
 80003fa:	fb07 1113 	mls	r1, r7, r3, r1
 80003fe:	ea40 4101 	orr.w	r1, r0, r1, lsl #16
 8000402:	fb0e f003 	mul.w	r0, lr, r3
 8000406:	4288      	cmp	r0, r1
 8000408:	d908      	bls.n	800041c <__udivmoddi4+0x12c>
 800040a:	eb1c 0101 	adds.w	r1, ip, r1
 800040e:	f103 38ff 	add.w	r8, r3, #4294967295
 8000412:	d202      	bcs.n	800041a <__udivmoddi4+0x12a>
 8000414:	4288      	cmp	r0, r1
 8000416:	f200 80cb 	bhi.w	80005b0 <__udivmoddi4+0x2c0>
 800041a:	4643      	mov	r3, r8
 800041c:	1a09      	subs	r1, r1, r0
 800041e:	b2a4      	uxth	r4, r4
 8000420:	fbb1 f0f7 	udiv	r0, r1, r7
 8000424:	fb07 1110 	mls	r1, r7, r0, r1
 8000428:	ea44 4401 	orr.w	r4, r4, r1, lsl #16
 800042c:	fb0e fe00 	mul.w	lr, lr, r0
 8000430:	45a6      	cmp	lr, r4
 8000432:	d908      	bls.n	8000446 <__udivmoddi4+0x156>
 8000434:	eb1c 0404 	adds.w	r4, ip, r4
 8000438:	f100 31ff 	add.w	r1, r0, #4294967295
 800043c:	d202      	bcs.n	8000444 <__udivmoddi4+0x154>
 800043e:	45a6      	cmp	lr, r4
 8000440:	f200 80bb 	bhi.w	80005ba <__udivmoddi4+0x2ca>
 8000444:	4608      	mov	r0, r1
 8000446:	eba4 040e 	sub.w	r4, r4, lr
 800044a:	ea40 4003 	orr.w	r0, r0, r3, lsl #16
 800044e:	e79c      	b.n	800038a <__udivmoddi4+0x9a>
 8000450:	f1c6 0720 	rsb	r7, r6, #32
 8000454:	40b3      	lsls	r3, r6
 8000456:	fa22 fc07 	lsr.w	ip, r2, r7
 800045a:	ea4c 0c03 	orr.w	ip, ip, r3
 800045e:	fa20 f407 	lsr.w	r4, r0, r7
 8000462:	fa01 f306 	lsl.w	r3, r1, r6
 8000466:	431c      	orrs	r4, r3
 8000468:	40f9      	lsrs	r1, r7
 800046a:	ea4f 491c 	mov.w	r9, ip, lsr #16
 800046e:	fa00 f306 	lsl.w	r3, r0, r6
 8000472:	fbb1 f8f9 	udiv	r8, r1, r9
 8000476:	0c20      	lsrs	r0, r4, #16
 8000478:	fa1f fe8c 	uxth.w	lr, ip
 800047c:	fb09 1118 	mls	r1, r9, r8, r1
 8000480:	ea40 4101 	orr.w	r1, r0, r1, lsl #16
 8000484:	fb08 f00e 	mul.w	r0, r8, lr
 8000488:	4288      	cmp	r0, r1
 800048a:	fa02 f206 	lsl.w	r2, r2, r6
 800048e:	d90b      	bls.n	80004a8 <__udivmoddi4+0x1b8>
 8000490:	eb1c 0101 	adds.w	r1, ip, r1
 8000494:	f108 3aff 	add.w	sl, r8, #4294967295
 8000498:	f080 8088 	bcs.w	80005ac <__udivmoddi4+0x2bc>
 800049c:	4288      	cmp	r0, r1
 800049e:	f240 8085 	bls.w	80005ac <__udivmoddi4+0x2bc>
 80004a2:	f1a8 0802 	sub.w	r8, r8, #2
 80004a6:	4461      	add	r1, ip
 80004a8:	1a09      	subs	r1, r1, r0
 80004aa:	b2a4      	uxth	r4, r4
 80004ac:	fbb1 f0f9 	udiv	r0, r1, r9
 80004b0:	fb09 1110 	mls	r1, r9, r0, r1
 80004b4:	ea44 4101 	orr.w	r1, r4, r1, lsl #16
 80004b8:	fb00 fe0e 	mul.w	lr, r0, lr
 80004bc:	458e      	cmp	lr, r1
 80004be:	d908      	bls.n	80004d2 <__udivmoddi4+0x1e2>
 80004c0:	eb1c 0101 	adds.w	r1, ip, r1
 80004c4:	f100 34ff 	add.w	r4, r0, #4294967295
 80004c8:	d26c      	bcs.n	80005a4 <__udivmoddi4+0x2b4>
 80004ca:	458e      	cmp	lr, r1
 80004cc:	d96a      	bls.n	80005a4 <__udivmoddi4+0x2b4>
 80004ce:	3802      	subs	r0, #2
 80004d0:	4461      	add	r1, ip
 80004d2:	ea40 4008 	orr.w	r0, r0, r8, lsl #16
 80004d6:	fba0 9402 	umull	r9, r4, r0, r2
 80004da:	eba1 010e 	sub.w	r1, r1, lr
 80004de:	42a1      	cmp	r1, r4
 80004e0:	46c8      	mov	r8, r9
 80004e2:	46a6      	mov	lr, r4
 80004e4:	d356      	bcc.n	8000594 <__udivmoddi4+0x2a4>
 80004e6:	d053      	beq.n	8000590 <__udivmoddi4+0x2a0>
 80004e8:	b15d      	cbz	r5, 8000502 <__udivmoddi4+0x212>
 80004ea:	ebb3 0208 	subs.w	r2, r3, r8
 80004ee:	eb61 010e 	sbc.w	r1, r1, lr
 80004f2:	fa01 f707 	lsl.w	r7, r1, r7
 80004f6:	fa22 f306 	lsr.w	r3, r2, r6
 80004fa:	40f1      	lsrs	r1, r6
 80004fc:	431f      	orrs	r7, r3
 80004fe:	e9c5 7100 	strd	r7, r1, [r5]
 8000502:	2600      	movs	r6, #0
 8000504:	4631      	mov	r1, r6
 8000506:	e8bd 87f0 	ldmia.w	sp!, {r4, r5, r6, r7, r8, r9, sl, pc}
 800050a:	f1c2 0320 	rsb	r3, r2, #32
 800050e:	40d8      	lsrs	r0, r3
 8000510:	fa0c fc02 	lsl.w	ip, ip, r2
 8000514:	fa21 f303 	lsr.w	r3, r1, r3
 8000518:	4091      	lsls	r1, r2
 800051a:	4301      	orrs	r1, r0
 800051c:	ea4f 471c 	mov.w	r7, ip, lsr #16
 8000520:	fa1f fe8c 	uxth.w	lr, ip
 8000524:	fbb3 f0f7 	udiv	r0, r3, r7
 8000528:	fb07 3610 	mls	r6, r7, r0, r3
 800052c:	0c0b      	lsrs	r3, r1, #16
 800052e:	ea43 4306 	orr.w	r3, r3, r6, lsl #16
 8000532:	fb00 f60e 	mul.w	r6, r0, lr
 8000536:	429e      	cmp	r6, r3
 8000538:	fa04 f402 	lsl.w	r4, r4, r2
 800053c:	d908      	bls.n	8000550 <__udivmoddi4+0x260>
 800053e:	eb1c 0303 	adds.w	r3, ip, r3
 8000542:	f100 38ff 	add.w	r8, r0, #4294967295
 8000546:	d22f      	bcs.n	80005a8 <__udivmoddi4+0x2b8>
 8000548:	429e      	cmp	r6, r3
 800054a:	d92d      	bls.n	80005a8 <__udivmoddi4+0x2b8>
 800054c:	3802      	subs	r0, #2
 800054e:	4463      	add	r3, ip
 8000550:	1b9b      	subs	r3, r3, r6
 8000552:	b289      	uxth	r1, r1
 8000554:	fbb3 f6f7 	udiv	r6, r3, r7
 8000558:	fb07 3316 	mls	r3, r7, r6, r3
 800055c:	ea41 4103 	orr.w	r1, r1, r3, lsl #16
 8000560:	fb06 f30e 	mul.w	r3, r6, lr
 8000564:	428b      	cmp	r3, r1
 8000566:	d908      	bls.n	800057a <__udivmoddi4+0x28a>
 8000568:	eb1c 0101 	adds.w	r1, ip, r1
 800056c:	f106 38ff 	add.w	r8, r6, #4294967295
 8000570:	d216      	bcs.n	80005a0 <__udivmoddi4+0x2b0>
 8000572:	428b      	cmp	r3, r1
 8000574:	d914      	bls.n	80005a0 <__udivmoddi4+0x2b0>
 8000576:	3e02      	subs	r6, #2
 8000578:	4461      	add	r1, ip
 800057a:	1ac9      	subs	r1, r1, r3
 800057c:	ea46 4600 	orr.w	r6, r6, r0, lsl #16
 8000580:	e738      	b.n	80003f4 <__udivmoddi4+0x104>
 8000582:	462e      	mov	r6, r5
 8000584:	4628      	mov	r0, r5
 8000586:	e705      	b.n	8000394 <__udivmoddi4+0xa4>
 8000588:	4606      	mov	r6, r0
 800058a:	e6e3      	b.n	8000354 <__udivmoddi4+0x64>
 800058c:	4618      	mov	r0, r3
 800058e:	e6f8      	b.n	8000382 <__udivmoddi4+0x92>
 8000590:	454b      	cmp	r3, r9
 8000592:	d2a9      	bcs.n	80004e8 <__udivmoddi4+0x1f8>
 8000594:	ebb9 0802 	subs.w	r8, r9, r2
 8000598:	eb64 0e0c 	sbc.w	lr, r4, ip
 800059c:	3801      	subs	r0, #1
 800059e:	e7a3      	b.n	80004e8 <__udivmoddi4+0x1f8>
 80005a0:	4646      	mov	r6, r8
 80005a2:	e7ea      	b.n	800057a <__udivmoddi4+0x28a>
 80005a4:	4620      	mov	r0, r4
 80005a6:	e794      	b.n	80004d2 <__udivmoddi4+0x1e2>
 80005a8:	4640      	mov	r0, r8
 80005aa:	e7d1      	b.n	8000550 <__udivmoddi4+0x260>
 80005ac:	46d0      	mov	r8, sl
 80005ae:	e77b      	b.n	80004a8 <__udivmoddi4+0x1b8>
 80005b0:	3b02      	subs	r3, #2
 80005b2:	4461      	add	r1, ip
 80005b4:	e732      	b.n	800041c <__udivmoddi4+0x12c>
 80005b6:	4630      	mov	r0, r6
 80005b8:	e709      	b.n	80003ce <__udivmoddi4+0xde>
 80005ba:	4464      	add	r4, ip
 80005bc:	3802      	subs	r0, #2
 80005be:	e742      	b.n	8000446 <__udivmoddi4+0x156>

080005c0 <__aeabi_idiv0>:
 80005c0:	4770      	bx	lr
 80005c2:	bf00      	nop

080005c4 <main_task_init>:
            counter++;
        }
    }
}

static void main_task_init(void) {
 80005c4:	b500      	push	{lr}
 80005c6:	b083      	sub	sp, #12
    static TaskHandle_t main_task = NULL;
    BaseType_t xReturn = pdPASS;
    xReturn = xTaskCreate(main_task_entry, "main_task", 2048, NULL, 1U, &main_task);
 80005c8:	4b0b      	ldr	r3, [pc, #44]	; (80005f8 <main_task_init+0x34>)
 80005ca:	9301      	str	r3, [sp, #4]
 80005cc:	2301      	movs	r3, #1
 80005ce:	9300      	str	r3, [sp, #0]
 80005d0:	2300      	movs	r3, #0
 80005d2:	f44f 6200 	mov.w	r2, #2048	; 0x800
 80005d6:	4909      	ldr	r1, [pc, #36]	; (80005fc <main_task_init+0x38>)
 80005d8:	4809      	ldr	r0, [pc, #36]	; (8000600 <main_task_init+0x3c>)
 80005da:	f001 fec1 	bl	8002360 <xTaskCreate>
    if (xReturn == pdPASS) {
 80005de:	2801      	cmp	r0, #1
 80005e0:	d006      	beq.n	80005f0 <main_task_init+0x2c>
 80005e2:	4601      	mov	r1, r0
        vTaskStartScheduler();
    } else {
        printf("main task create failed(%d).\r\n", (int)(xReturn));
 80005e4:	4807      	ldr	r0, [pc, #28]	; (8000604 <main_task_init+0x40>)
 80005e6:	f002 ff93 	bl	8003510 <iprintf>
    }
}
 80005ea:	b003      	add	sp, #12
 80005ec:	f85d fb04 	ldr.w	pc, [sp], #4
        vTaskStartScheduler();
 80005f0:	f002 fa6e 	bl	8002ad0 <vTaskStartScheduler>
 80005f4:	e7f9      	b.n	80005ea <main_task_init+0x26>
 80005f6:	bf00      	nop
 80005f8:	20000094 	mulcs	r0, r4, r0
 80005fc:	08004530 	stmdaeq	r0, {r4, r5, r8, sl, lr}
 8000600:	08000705 	stmdaeq	r0, {r0, r2, r8, r9, sl}
 8000604:	0800453c 	stmdaeq	r0, {r2, r3, r4, r5, r8, sl, lr}

08000608 <__io_putchar>:
int __io_putchar(int ch) {
 8000608:	b500      	push	{lr}
 800060a:	b083      	sub	sp, #12
 800060c:	9001      	str	r0, [sp, #4]
    HAL_UART_Transmit(&huart1, (uint8_t *)&ch, 1, 0xFFFF);
 800060e:	f64f 73ff 	movw	r3, #65535	; 0xffff
 8000612:	2201      	movs	r2, #1
 8000614:	a901      	add	r1, sp, #4
 8000616:	4803      	ldr	r0, [pc, #12]	; (8000624 <__io_putchar+0x1c>)
 8000618:	f000 fb88 	bl	8000d2c <HAL_UART_Transmit>
}
 800061c:	9801      	ldr	r0, [sp, #4]
 800061e:	b003      	add	sp, #12
 8000620:	f85d fb04 	ldr.w	pc, [sp], #4
 8000624:	20008098 	mulcs	r0, r8, r0

08000628 <fault_unalign_trigger>:
void fault_unalign_trigger(void) {
 8000628:	b530      	push	{r4, r5, lr}
 800062a:	b083      	sub	sp, #12
    volatile int value = 0;
 800062c:	2400      	movs	r4, #0
 800062e:	9401      	str	r4, [sp, #4]
    SCB->CCR |= SCB_CCR_UNALIGN_TRP_Msk;
 8000630:	4a0e      	ldr	r2, [pc, #56]	; (800066c <fault_unalign_trigger+0x44>)
 8000632:	6953      	ldr	r3, [r2, #20]
 8000634:	f043 0308 	orr.w	r3, r3, #8
 8000638:	6153      	str	r3, [r2, #20]
    value = *addr;
 800063a:	6823      	ldr	r3, [r4, #0]
 800063c:	9301      	str	r3, [sp, #4]
    printf("addr:0x%02X-value:0x%08X\r\n", (int)addr, value);
 800063e:	9a01      	ldr	r2, [sp, #4]
 8000640:	4d0b      	ldr	r5, [pc, #44]	; (8000670 <fault_unalign_trigger+0x48>)
 8000642:	4621      	mov	r1, r4
 8000644:	4628      	mov	r0, r5
 8000646:	f002 ff63 	bl	8003510 <iprintf>
    value = *addr;
 800064a:	6863      	ldr	r3, [r4, #4]
 800064c:	9301      	str	r3, [sp, #4]
    printf("addr:0x%02X-value:0x%08X\r\n", (int)addr, value);
 800064e:	9a01      	ldr	r2, [sp, #4]
 8000650:	2104      	movs	r1, #4
 8000652:	4628      	mov	r0, r5
 8000654:	f002 ff5c 	bl	8003510 <iprintf>
    value = *addr;
 8000658:	f8d4 3003 	ldr.w	r3, [r4, #3]
 800065c:	9301      	str	r3, [sp, #4]
    printf("addr:0x%02X-value:0x%08X\r\n", (int)addr, value);
 800065e:	9a01      	ldr	r2, [sp, #4]
 8000660:	2103      	movs	r1, #3
 8000662:	4628      	mov	r0, r5
 8000664:	f002 ff54 	bl	8003510 <iprintf>
}
 8000668:	b003      	add	sp, #12
 800066a:	bd30      	pop	{r4, r5, pc}
 800066c:	e000ed00 	and	lr, r0, r0, lsl #26
 8000670:	0800455c 	stmdaeq	r0, {r2, r3, r4, r6, r8, sl, lr}

08000674 <test0>:
void test0(void) {
 8000674:	b508      	push	{r3, lr}
    printf("this is %s.\r\n", __func__);
 8000676:	4903      	ldr	r1, [pc, #12]	; (8000684 <test0+0x10>)
 8000678:	4803      	ldr	r0, [pc, #12]	; (8000688 <test0+0x14>)
 800067a:	f002 ff49 	bl	8003510 <iprintf>
    fault_unalign_trigger();
 800067e:	f7ff ffd3 	bl	8000628 <fault_unalign_trigger>
}
 8000682:	bd08      	pop	{r3, pc}
 8000684:	080045dc 	stmdaeq	r0, {r2, r3, r4, r6, r7, r8, sl, lr}
 8000688:	08004578 	stmdaeq	r0, {r3, r4, r5, r6, r8, sl, lr}

0800068c <test1>:
void test1(void) {
 800068c:	b508      	push	{r3, lr}
    printf("this is %s.\r\n", __func__);
 800068e:	4903      	ldr	r1, [pc, #12]	; (800069c <test1+0x10>)
 8000690:	4803      	ldr	r0, [pc, #12]	; (80006a0 <test1+0x14>)
 8000692:	f002 ff3d 	bl	8003510 <iprintf>
    test0();
 8000696:	f7ff ffed 	bl	8000674 <test0>
}
 800069a:	bd08      	pop	{r3, pc}
 800069c:	080045d4 	stmdaeq	r0, {r2, r4, r6, r7, r8, sl, lr}
 80006a0:	08004578 	stmdaeq	r0, {r3, r4, r5, r6, r8, sl, lr}

080006a4 <test2>:
void test2(void) {
 80006a4:	b508      	push	{r3, lr}
    printf("this is %s.\r\n", __func__);
 80006a6:	4903      	ldr	r1, [pc, #12]	; (80006b4 <test2+0x10>)
 80006a8:	4803      	ldr	r0, [pc, #12]	; (80006b8 <test2+0x14>)
 80006aa:	f002 ff31 	bl	8003510 <iprintf>
    test1();
 80006ae:	f7ff ffed 	bl	800068c <test1>
}
 80006b2:	bd08      	pop	{r3, pc}
 80006b4:	080045cc 	stmdaeq	r0, {r2, r3, r6, r7, r8, sl, lr}
 80006b8:	08004578 	stmdaeq	r0, {r3, r4, r5, r6, r8, sl, lr}

080006bc <test3>:
void test3(void) {
 80006bc:	b508      	push	{r3, lr}
    printf("this is %s.\r\n", __func__);
 80006be:	4903      	ldr	r1, [pc, #12]	; (80006cc <test3+0x10>)
 80006c0:	4803      	ldr	r0, [pc, #12]	; (80006d0 <test3+0x14>)
 80006c2:	f002 ff25 	bl	8003510 <iprintf>
    test2();
 80006c6:	f7ff ffed 	bl	80006a4 <test2>
}
 80006ca:	bd08      	pop	{r3, pc}
 80006cc:	080045c4 	stmdaeq	r0, {r2, r6, r7, r8, sl, lr}
 80006d0:	08004578 	stmdaeq	r0, {r3, r4, r5, r6, r8, sl, lr}

080006d4 <test4>:
void test4(void) {
 80006d4:	b508      	push	{r3, lr}
    printf("this is %s.\r\n", __func__);
 80006d6:	4903      	ldr	r1, [pc, #12]	; (80006e4 <test4+0x10>)
 80006d8:	4803      	ldr	r0, [pc, #12]	; (80006e8 <test4+0x14>)
 80006da:	f002 ff19 	bl	8003510 <iprintf>
    test3();
 80006de:	f7ff ffed 	bl	80006bc <test3>
}
 80006e2:	bd08      	pop	{r3, pc}
 80006e4:	080045bc 	stmdaeq	r0, {r2, r3, r4, r5, r7, r8, sl, lr}
 80006e8:	08004578 	stmdaeq	r0, {r3, r4, r5, r6, r8, sl, lr}

080006ec <test5>:
void test5(void) {
 80006ec:	b508      	push	{r3, lr}
    printf("this is %s.\r\n", __func__);
 80006ee:	4903      	ldr	r1, [pc, #12]	; (80006fc <test5+0x10>)
 80006f0:	4803      	ldr	r0, [pc, #12]	; (8000700 <test5+0x14>)
 80006f2:	f002 ff0d 	bl	8003510 <iprintf>
    test4();
 80006f6:	f7ff ffed 	bl	80006d4 <test4>
}
 80006fa:	bd08      	pop	{r3, pc}
 80006fc:	080045b4 	stmdaeq	r0, {r2, r4, r5, r7, r8, sl, lr}
 8000700:	08004578 	stmdaeq	r0, {r3, r4, r5, r6, r8, sl, lr}

08000704 <main_task_entry>:
static void main_task_entry(void *parameters) {
 8000704:	b510      	push	{r4, lr}
    int counter = 0;
 8000706:	2400      	movs	r4, #0
 8000708:	e001      	b.n	800070e <main_task_entry+0xa>
            test5();
 800070a:	f7ff ffef 	bl	80006ec <test5>
        vTaskDelay(1000);
 800070e:	f44f 707a 	mov.w	r0, #1000	; 0x3e8
 8000712:	f001 ffb9 	bl	8002688 <vTaskDelay>
        printf("hello this is FreeRTOS.\r\n");
 8000716:	4803      	ldr	r0, [pc, #12]	; (8000724 <main_task_entry+0x20>)
 8000718:	f002 ff80 	bl	800361c <puts>
        if (counter >= 3) {
 800071c:	2c02      	cmp	r4, #2
 800071e:	dcf4      	bgt.n	800070a <main_task_entry+0x6>
            counter++;
 8000720:	3401      	adds	r4, #1
 8000722:	e7f4      	b.n	800070e <main_task_entry+0xa>
 8000724:	08004588 	stmdaeq	r0, {r3, r7, r8, sl, lr}

08000728 <main>:

int main(void) {
 8000728:	b508      	push	{r3, lr}
    HAL_Init();
 800072a:	f000 ffe3 	bl	80016f4 <HAL_Init>
    // SystemClock_Config();
    MX_GPIO_Init();
 800072e:	f000 f86d 	bl	800080c <MX_GPIO_Init>
    MX_USART1_UART_Init();
 8000732:	f000 f891 	bl	8000858 <MX_USART1_UART_Init>

    fault_dump_init();
 8000736:	f001 f865 	bl	8001804 <fault_dump_init>
    main_task_init();
 800073a:	f7ff ff43 	bl	80005c4 <main_task_init>

    while (1) {
        printf("hello qemu.\r\n");
 800073e:	4804      	ldr	r0, [pc, #16]	; (8000750 <main+0x28>)
 8000740:	f002 ff6c 	bl	800361c <puts>
        HAL_Delay(1000);
 8000744:	f44f 707a 	mov.w	r0, #1000	; 0x3e8
 8000748:	f001 f800 	bl	800174c <HAL_Delay>
    while (1) {
 800074c:	e7f7      	b.n	800073e <main+0x16>
 800074e:	bf00      	nop
 8000750:	080045a4 	stmdaeq	r0, {r2, r5, r7, r8, sl, lr}

08000754 <NMI_Handler>:
/******************************************************************************/
/**
  * @brief This function handles Non maskable interrupt.
  */
void NMI_Handler(void)
{
 8000754:	b508      	push	{r3, lr}
  /* USER CODE BEGIN NonMaskableInt_IRQn 0 */
  printf("this is %s.\r\n", __func__);
 8000756:	4902      	ldr	r1, [pc, #8]	; (8000760 <NMI_Handler+0xc>)
 8000758:	4802      	ldr	r0, [pc, #8]	; (8000764 <NMI_Handler+0x10>)
 800075a:	f002 fed9 	bl	8003510 <iprintf>
  /* USER CODE END NonMaskableInt_IRQn 0 */
  /* USER CODE BEGIN NonMaskableInt_IRQn 1 */
  while (1)
 800075e:	e7fe      	b.n	800075e <NMI_Handler+0xa>
 8000760:	08004640 	stmdaeq	r0, {r6, r9, sl, lr}
 8000764:	08004578 	stmdaeq	r0, {r3, r4, r5, r6, r8, sl, lr}

08000768 <MemManage_Handler>:

/**
  * @brief This function handles Memory management fault.
  */
void MemManage_Handler(void)
{
 8000768:	b508      	push	{r3, lr}
  /* USER CODE BEGIN MemoryManagement_IRQn 0 */
  printf("this is %s.\r\n", __func__);
 800076a:	4902      	ldr	r1, [pc, #8]	; (8000774 <MemManage_Handler+0xc>)
 800076c:	4802      	ldr	r0, [pc, #8]	; (8000778 <MemManage_Handler+0x10>)
 800076e:	f002 fecf 	bl	8003510 <iprintf>
  /* USER CODE END MemoryManagement_IRQn 0 */
  while (1)
 8000772:	e7fe      	b.n	8000772 <MemManage_Handler+0xa>
 8000774:	0800462c 	stmdaeq	r0, {r2, r3, r5, r9, sl, lr}
 8000778:	08004578 	stmdaeq	r0, {r3, r4, r5, r6, r8, sl, lr}

0800077c <BusFault_Handler>:

/**
  * @brief This function handles Pre-fetch fault, memory access fault.
  */
void BusFault_Handler(void)
{
 800077c:	b508      	push	{r3, lr}
  /* USER CODE BEGIN BusFault_IRQn 0 */
  printf("this is %s.\r\n", __func__);
 800077e:	4902      	ldr	r1, [pc, #8]	; (8000788 <BusFault_Handler+0xc>)
 8000780:	4802      	ldr	r0, [pc, #8]	; (800078c <BusFault_Handler+0x10>)
 8000782:	f002 fec5 	bl	8003510 <iprintf>
  /* USER CODE END BusFault_IRQn 0 */
  while (1)
 8000786:	e7fe      	b.n	8000786 <BusFault_Handler+0xa>
 8000788:	08004618 	stmdaeq	r0, {r3, r4, r9, sl, lr}
 800078c:	08004578 	stmdaeq	r0, {r3, r4, r5, r6, r8, sl, lr}

08000790 <UsageFault_Handler>:

/**
  * @brief This function handles Undefined instruction or illegal state.
  */
void UsageFault_Handler(void)
{
 8000790:	b508      	push	{r3, lr}
  /* USER CODE BEGIN UsageFault_IRQn 0 */
  printf("this is %s.\r\n", __func__);
 8000792:	4902      	ldr	r1, [pc, #8]	; (800079c <UsageFault_Handler+0xc>)
 8000794:	4802      	ldr	r0, [pc, #8]	; (80007a0 <UsageFault_Handler+0x10>)
 8000796:	f002 febb 	bl	8003510 <iprintf>
  /* USER CODE END UsageFault_IRQn 0 */
  while (1)
 800079a:	e7fe      	b.n	800079a <UsageFault_Handler+0xa>
 800079c:	08004604 	stmdaeq	r0, {r2, r9, sl, lr}
 80007a0:	08004578 	stmdaeq	r0, {r3, r4, r5, r6, r8, sl, lr}

080007a4 <SVC_Handler>:

/**
  * @brief This function handles System service call via SWI instruction.
  */
void SVC_Handler(void)
{
 80007a4:	b508      	push	{r3, lr}
  /* USER CODE BEGIN SVCall_IRQn 0 */
  vPortSVCHandler();
 80007a6:	f002 fcb3 	bl	8003110 <vPortSVCHandler>
  /* USER CODE END SVCall_IRQn 0 */
  /* USER CODE BEGIN SVCall_IRQn 1 */

  /* USER CODE END SVCall_IRQn 1 */
}
 80007aa:	bd08      	pop	{r3, pc}

080007ac <DebugMon_Handler>:

  /* USER CODE END DebugMonitor_IRQn 0 */
  /* USER CODE BEGIN DebugMonitor_IRQn 1 */

  /* USER CODE END DebugMonitor_IRQn 1 */
}
 80007ac:	4770      	bx	lr

080007ae <PendSV_Handler>:

/**
  * @brief This function handles Pendable request for system service.
  */
void PendSV_Handler(void)
{
 80007ae:	b508      	push	{r3, lr}
  /* USER CODE BEGIN PendSV_IRQn 0 */
  xPortPendSVHandler();
 80007b0:	f002 fcde 	bl	8003170 <xPortPendSVHandler>
  /* USER CODE END PendSV_IRQn 0 */
  /* USER CODE BEGIN PendSV_IRQn 1 */

  /* USER CODE END PendSV_IRQn 1 */
}
 80007b4:	bd08      	pop	{r3, pc}

080007b6 <SysTick_Handler>:

/**
  * @brief This function handles System tick timer.
  */
void SysTick_Handler(void)
{
 80007b6:	b508      	push	{r3, lr}
  /* USER CODE BEGIN SysTick_IRQn 0 */
  if (xTaskGetSchedulerState() != taskSCHEDULER_NOT_STARTED)
 80007b8:	f002 f8f8 	bl	80029ac <xTaskGetSchedulerState>
 80007bc:	2801      	cmp	r0, #1
 80007be:	d102      	bne.n	80007c6 <SysTick_Handler+0x10>
  {
    xPortSysTickHandler();
  }
  /* USER CODE END SysTick_IRQn 0 */
  HAL_IncTick();
 80007c0:	f000 ffb2 	bl	8001728 <HAL_IncTick>
  /* USER CODE BEGIN SysTick_IRQn 1 */

  /* USER CODE END SysTick_IRQn 1 */
}
 80007c4:	bd08      	pop	{r3, pc}
    xPortSysTickHandler();
 80007c6:	f002 fd05 	bl	80031d4 <xPortSysTickHandler>
 80007ca:	e7f9      	b.n	80007c0 <SysTick_Handler+0xa>

080007cc <USART1_IRQHandler>:

/**
  * @brief This function handles USART1 global interrupt.
  */
void USART1_IRQHandler(void)
{
 80007cc:	b508      	push	{r3, lr}
  /* USER CODE BEGIN USART1_IRQn 0 */

  /* USER CODE END USART1_IRQn 0 */
  HAL_UART_IRQHandler(&huart1);
 80007ce:	4802      	ldr	r0, [pc, #8]	; (80007d8 <USART1_IRQHandler+0xc>)
 80007d0:	f000 fb9e 	bl	8000f10 <HAL_UART_IRQHandler>
  /* USER CODE BEGIN USART1_IRQn 1 */

  /* USER CODE END USART1_IRQn 1 */
}
 80007d4:	bd08      	pop	{r3, pc}
 80007d6:	bf00      	nop
 80007d8:	20008098 	mulcs	r0, r8, r0

080007dc <Error_Handler>:
/**
  * @brief  This function is executed in case of error occurrence.
  * @retval None
  */
void Error_Handler(void)
{
 80007dc:	b508      	push	{r3, lr}
  printf("this is %s.\r\n", __func__);
 80007de:	4903      	ldr	r1, [pc, #12]	; (80007ec <Error_Handler+0x10>)
 80007e0:	4803      	ldr	r0, [pc, #12]	; (80007f0 <Error_Handler+0x14>)
 80007e2:	f002 fe95 	bl	8003510 <iprintf>
  \details Disables IRQ interrupts by setting special-purpose register PRIMASK.
           Can only be executed in Privileged modes.
 */
__STATIC_FORCEINLINE void __disable_irq(void)
{
  __ASM volatile ("cpsid i" : : : "memory");
 80007e6:	b672      	cpsid	i
  __disable_irq();
  while (1) {}
 80007e8:	e7fe      	b.n	80007e8 <Error_Handler+0xc>
 80007ea:	bf00      	nop
 80007ec:	080045f4 	stmdaeq	r0, {r2, r4, r5, r6, r7, r8, sl, lr}
 80007f0:	08004578 	stmdaeq	r0, {r3, r4, r5, r6, r8, sl, lr}

080007f4 <assert_failed>:
  * @param  file: pointer to the source file name
  * @param  line: assert_param error line source number
  * @retval None
  */
void assert_failed(uint8_t *file, uint32_t line)
{
 80007f4:	b508      	push	{r3, lr}
  printf("this is %s.\r\n", __func__);
 80007f6:	4903      	ldr	r1, [pc, #12]	; (8000804 <assert_failed+0x10>)
 80007f8:	4803      	ldr	r0, [pc, #12]	; (8000808 <assert_failed+0x14>)
 80007fa:	f002 fe89 	bl	8003510 <iprintf>
 80007fe:	b672      	cpsid	i
  __disable_irq();
  while (1) {}
 8000800:	e7fe      	b.n	8000800 <assert_failed+0xc>
 8000802:	bf00      	nop
 8000804:	080045e4 	stmdaeq	r0, {r2, r5, r6, r7, r8, sl, lr}
 8000808:	08004578 	stmdaeq	r0, {r3, r4, r5, r6, r8, sl, lr}

0800080c <MX_GPIO_Init>:
        * Output
        * EVENT_OUT
        * EXTI
*/
void MX_GPIO_Init(void)
{
 800080c:	b084      	sub	sp, #16

  /* GPIO Ports Clock Enable */
  __HAL_RCC_GPIOC_CLK_ENABLE();
 800080e:	2200      	movs	r2, #0
 8000810:	9201      	str	r2, [sp, #4]
 8000812:	4b10      	ldr	r3, [pc, #64]	; (8000854 <MX_GPIO_Init+0x48>)
 8000814:	6b19      	ldr	r1, [r3, #48]	; 0x30
 8000816:	f041 0104 	orr.w	r1, r1, #4
 800081a:	6319      	str	r1, [r3, #48]	; 0x30
 800081c:	6b19      	ldr	r1, [r3, #48]	; 0x30
 800081e:	f001 0104 	and.w	r1, r1, #4
 8000822:	9101      	str	r1, [sp, #4]
 8000824:	9901      	ldr	r1, [sp, #4]
  __HAL_RCC_GPIOH_CLK_ENABLE();
 8000826:	9202      	str	r2, [sp, #8]
 8000828:	6b19      	ldr	r1, [r3, #48]	; 0x30
 800082a:	f041 0180 	orr.w	r1, r1, #128	; 0x80
 800082e:	6319      	str	r1, [r3, #48]	; 0x30
 8000830:	6b19      	ldr	r1, [r3, #48]	; 0x30
 8000832:	f001 0180 	and.w	r1, r1, #128	; 0x80
 8000836:	9102      	str	r1, [sp, #8]
 8000838:	9902      	ldr	r1, [sp, #8]
  __HAL_RCC_GPIOA_CLK_ENABLE();
 800083a:	9203      	str	r2, [sp, #12]
 800083c:	6b1a      	ldr	r2, [r3, #48]	; 0x30
 800083e:	f042 0201 	orr.w	r2, r2, #1
 8000842:	631a      	str	r2, [r3, #48]	; 0x30
 8000844:	6b1b      	ldr	r3, [r3, #48]	; 0x30
 8000846:	f003 0301 	and.w	r3, r3, #1
 800084a:	9303      	str	r3, [sp, #12]
 800084c:	9b03      	ldr	r3, [sp, #12]

}
 800084e:	b004      	add	sp, #16
 8000850:	4770      	bx	lr
 8000852:	bf00      	nop
 8000854:	40023800 	andmi	r3, r2, r0, lsl #16

08000858 <MX_USART1_UART_Init>:
UART_HandleTypeDef huart1;

/* USART1 init function */

void MX_USART1_UART_Init(void)
{
 8000858:	b508      	push	{r3, lr}
  /* USER CODE END USART1_Init 0 */

  /* USER CODE BEGIN USART1_Init 1 */

  /* USER CODE END USART1_Init 1 */
  huart1.Instance = USART1;
 800085a:	480a      	ldr	r0, [pc, #40]	; (8000884 <MX_USART1_UART_Init+0x2c>)
 800085c:	4b0a      	ldr	r3, [pc, #40]	; (8000888 <MX_USART1_UART_Init+0x30>)
 800085e:	6003      	str	r3, [r0, #0]
  huart1.Init.BaudRate = 115200;
 8000860:	f44f 33e1 	mov.w	r3, #115200	; 0x1c200
 8000864:	6043      	str	r3, [r0, #4]
  huart1.Init.WordLength = UART_WORDLENGTH_8B;
 8000866:	2300      	movs	r3, #0
 8000868:	6083      	str	r3, [r0, #8]
  huart1.Init.StopBits = UART_STOPBITS_1;
 800086a:	60c3      	str	r3, [r0, #12]
  huart1.Init.Parity = UART_PARITY_NONE;
 800086c:	6103      	str	r3, [r0, #16]
  huart1.Init.Mode = UART_MODE_TX_RX;
 800086e:	220c      	movs	r2, #12
 8000870:	6142      	str	r2, [r0, #20]
  huart1.Init.HwFlowCtl = UART_HWCONTROL_NONE;
 8000872:	6183      	str	r3, [r0, #24]
  huart1.Init.OverSampling = UART_OVERSAMPLING_16;
 8000874:	61c3      	str	r3, [r0, #28]
  if (HAL_UART_Init(&huart1) != HAL_OK)
 8000876:	f000 f9c3 	bl	8000c00 <HAL_UART_Init>
 800087a:	b900      	cbnz	r0, 800087e <MX_USART1_UART_Init+0x26>
  }
  /* USER CODE BEGIN USART1_Init 2 */

  /* USER CODE END USART1_Init 2 */

}
 800087c:	bd08      	pop	{r3, pc}
    Error_Handler();
 800087e:	f7ff ffad 	bl	80007dc <Error_Handler>
}
 8000882:	e7fb      	b.n	800087c <MX_USART1_UART_Init+0x24>
 8000884:	20008098 	mulcs	r0, r8, r0
 8000888:	40011000 	andmi	r1, r1, r0

0800088c <HAL_UART_MspInit>:

void HAL_UART_MspInit(UART_HandleTypeDef* uartHandle)
{
 800088c:	b510      	push	{r4, lr}
 800088e:	b088      	sub	sp, #32

  GPIO_InitTypeDef GPIO_InitStruct = {0};
 8000890:	2300      	movs	r3, #0
 8000892:	9303      	str	r3, [sp, #12]
 8000894:	9304      	str	r3, [sp, #16]
 8000896:	9305      	str	r3, [sp, #20]
 8000898:	9306      	str	r3, [sp, #24]
 800089a:	9307      	str	r3, [sp, #28]
  if(uartHandle->Instance==USART1)
 800089c:	6802      	ldr	r2, [r0, #0]
 800089e:	f103 4380 	add.w	r3, r3, #1073741824	; 0x40000000
 80008a2:	f503 3388 	add.w	r3, r3, #69632	; 0x11000
 80008a6:	429a      	cmp	r2, r3
 80008a8:	d001      	beq.n	80008ae <HAL_UART_MspInit+0x22>
    HAL_NVIC_EnableIRQ(USART1_IRQn);
  /* USER CODE BEGIN USART1_MspInit 1 */

  /* USER CODE END USART1_MspInit 1 */
  }
}
 80008aa:	b008      	add	sp, #32
 80008ac:	bd10      	pop	{r4, pc}
    __HAL_RCC_USART1_CLK_ENABLE();
 80008ae:	2400      	movs	r4, #0
 80008b0:	9401      	str	r4, [sp, #4]
 80008b2:	f503 3394 	add.w	r3, r3, #75776	; 0x12800
 80008b6:	6c5a      	ldr	r2, [r3, #68]	; 0x44
 80008b8:	f042 0210 	orr.w	r2, r2, #16
 80008bc:	645a      	str	r2, [r3, #68]	; 0x44
 80008be:	6c5a      	ldr	r2, [r3, #68]	; 0x44
 80008c0:	f002 0210 	and.w	r2, r2, #16
 80008c4:	9201      	str	r2, [sp, #4]
 80008c6:	9a01      	ldr	r2, [sp, #4]
    __HAL_RCC_GPIOA_CLK_ENABLE();
 80008c8:	9402      	str	r4, [sp, #8]
 80008ca:	6b1a      	ldr	r2, [r3, #48]	; 0x30
 80008cc:	f042 0201 	orr.w	r2, r2, #1
 80008d0:	631a      	str	r2, [r3, #48]	; 0x30
 80008d2:	6b1b      	ldr	r3, [r3, #48]	; 0x30
 80008d4:	f003 0301 	and.w	r3, r3, #1
 80008d8:	9302      	str	r3, [sp, #8]
 80008da:	9b02      	ldr	r3, [sp, #8]
    GPIO_InitStruct.Pin = GPIO_PIN_9|GPIO_PIN_10;
 80008dc:	f44f 63c0 	mov.w	r3, #1536	; 0x600
 80008e0:	9303      	str	r3, [sp, #12]
    GPIO_InitStruct.Mode = GPIO_MODE_AF_PP;
 80008e2:	2302      	movs	r3, #2
 80008e4:	9304      	str	r3, [sp, #16]
    GPIO_InitStruct.Speed = GPIO_SPEED_FREQ_VERY_HIGH;
 80008e6:	2303      	movs	r3, #3
 80008e8:	9306      	str	r3, [sp, #24]
    GPIO_InitStruct.Alternate = GPIO_AF7_USART1;
 80008ea:	2307      	movs	r3, #7
 80008ec:	9307      	str	r3, [sp, #28]
    HAL_GPIO_Init(GPIOA, &GPIO_InitStruct);
 80008ee:	a903      	add	r1, sp, #12
 80008f0:	4805      	ldr	r0, [pc, #20]	; (8000908 <HAL_UART_MspInit+0x7c>)
 80008f2:	f000 fc77 	bl	80011e4 <HAL_GPIO_Init>
    HAL_NVIC_SetPriority(USART1_IRQn, 0, 0);
 80008f6:	4622      	mov	r2, r4
 80008f8:	4621      	mov	r1, r4
 80008fa:	2025      	movs	r0, #37	; 0x25
 80008fc:	f000 fe62 	bl	80015c4 <HAL_NVIC_SetPriority>
    HAL_NVIC_EnableIRQ(USART1_IRQn);
 8000900:	2025      	movs	r0, #37	; 0x25
 8000902:	f000 fea5 	bl	8001650 <HAL_NVIC_EnableIRQ>
}
 8000906:	e7d0      	b.n	80008aa <HAL_UART_MspInit+0x1e>
 8000908:	40020000 	andmi	r0, r2, r0

0800090c <HAL_MspInit>:
/* USER CODE END 0 */
/**
  * Initializes the Global MSP.
  */
void HAL_MspInit(void)
{
 800090c:	b082      	sub	sp, #8

  /* USER CODE BEGIN MspInit 0 */

  /* USER CODE END MspInit 0 */

  __HAL_RCC_SYSCFG_CLK_ENABLE();
 800090e:	2100      	movs	r1, #0
 8000910:	9100      	str	r1, [sp, #0]
 8000912:	4b0b      	ldr	r3, [pc, #44]	; (8000940 <HAL_MspInit+0x34>)
 8000914:	6c5a      	ldr	r2, [r3, #68]	; 0x44
 8000916:	f442 4280 	orr.w	r2, r2, #16384	; 0x4000
 800091a:	645a      	str	r2, [r3, #68]	; 0x44
 800091c:	6c5a      	ldr	r2, [r3, #68]	; 0x44
 800091e:	f402 4280 	and.w	r2, r2, #16384	; 0x4000
 8000922:	9200      	str	r2, [sp, #0]
 8000924:	9a00      	ldr	r2, [sp, #0]
  __HAL_RCC_PWR_CLK_ENABLE();
 8000926:	9101      	str	r1, [sp, #4]
 8000928:	6c1a      	ldr	r2, [r3, #64]	; 0x40
 800092a:	f042 5280 	orr.w	r2, r2, #268435456	; 0x10000000
 800092e:	641a      	str	r2, [r3, #64]	; 0x40
 8000930:	6c1b      	ldr	r3, [r3, #64]	; 0x40
 8000932:	f003 5380 	and.w	r3, r3, #268435456	; 0x10000000
 8000936:	9301      	str	r3, [sp, #4]
 8000938:	9b01      	ldr	r3, [sp, #4]
  /* System interrupt init*/

  /* USER CODE BEGIN MspInit 1 */

  /* USER CODE END MspInit 1 */
}
 800093a:	b002      	add	sp, #8
 800093c:	4770      	bx	lr
 800093e:	bf00      	nop
 8000940:	40023800 	andmi	r3, r2, r0, lsl #16

08000944 <UART_EndRxTransfer>:
  * @retval None
  */
static void UART_EndRxTransfer(UART_HandleTypeDef *huart)
{
  /* Disable RXNE, PE and ERR (Frame error, noise error, overrun error) interrupts */
  ATOMIC_CLEAR_BIT(huart->Instance->CR1, (USART_CR1_RXNEIE | USART_CR1_PEIE));
 8000944:	6802      	ldr	r2, [r0, #0]
   __ASM volatile ("ldrex %0, %1" : "=r" (result) : "Q" (*addr) );
 8000946:	f102 030c 	add.w	r3, r2, #12
 800094a:	e853 3f00 	ldrex	r3, [r3]
 800094e:	f423 7390 	bic.w	r3, r3, #288	; 0x120
   __ASM volatile ("strex %0, %2, %1" : "=&r" (result), "=Q" (*addr) : "r" (value) );
 8000952:	320c      	adds	r2, #12
 8000954:	e842 3100 	strex	r1, r3, [r2]
 8000958:	2900      	cmp	r1, #0
 800095a:	d1f3      	bne.n	8000944 <UART_EndRxTransfer>
  ATOMIC_CLEAR_BIT(huart->Instance->CR3, USART_CR3_EIE);
 800095c:	6802      	ldr	r2, [r0, #0]
   __ASM volatile ("ldrex %0, %1" : "=r" (result) : "Q" (*addr) );
 800095e:	f102 0314 	add.w	r3, r2, #20
 8000962:	e853 3f00 	ldrex	r3, [r3]
 8000966:	f023 0301 	bic.w	r3, r3, #1
   __ASM volatile ("strex %0, %2, %1" : "=&r" (result), "=Q" (*addr) : "r" (value) );
 800096a:	3214      	adds	r2, #20
 800096c:	e842 3100 	strex	r1, r3, [r2]
 8000970:	2900      	cmp	r1, #0
 8000972:	d1f3      	bne.n	800095c <UART_EndRxTransfer+0x18>

  /* In case of reception waiting for IDLE event, disable also the IDLE IE interrupt source */
  if (huart->ReceptionType == HAL_UART_RECEPTION_TOIDLE)
 8000974:	6b03      	ldr	r3, [r0, #48]	; 0x30
 8000976:	2b01      	cmp	r3, #1
 8000978:	d005      	beq.n	8000986 <UART_EndRxTransfer+0x42>
  {
    ATOMIC_CLEAR_BIT(huart->Instance->CR1, USART_CR1_IDLEIE);
  }

  /* At end of Rx process, restore huart->RxState to Ready */
  huart->RxState = HAL_UART_STATE_READY;
 800097a:	2320      	movs	r3, #32
 800097c:	f880 3042 	strb.w	r3, [r0, #66]	; 0x42
  huart->ReceptionType = HAL_UART_RECEPTION_STANDARD;
 8000980:	2300      	movs	r3, #0
 8000982:	6303      	str	r3, [r0, #48]	; 0x30
}
 8000984:	4770      	bx	lr
    ATOMIC_CLEAR_BIT(huart->Instance->CR1, USART_CR1_IDLEIE);
 8000986:	6802      	ldr	r2, [r0, #0]
   __ASM volatile ("ldrex %0, %1" : "=r" (result) : "Q" (*addr) );
 8000988:	f102 030c 	add.w	r3, r2, #12
 800098c:	e853 3f00 	ldrex	r3, [r3]
 8000990:	f023 0310 	bic.w	r3, r3, #16
   __ASM volatile ("strex %0, %2, %1" : "=&r" (result), "=Q" (*addr) : "r" (value) );
 8000994:	320c      	adds	r2, #12
 8000996:	e842 3100 	strex	r1, r3, [r2]
 800099a:	2900      	cmp	r1, #0
 800099c:	d1f3      	bne.n	8000986 <UART_EndRxTransfer+0x42>
 800099e:	e7ec      	b.n	800097a <UART_EndRxTransfer+0x36>

080009a0 <UART_Transmit_IT>:
static HAL_StatusTypeDef UART_Transmit_IT(UART_HandleTypeDef *huart)
{
  const uint16_t *tmp;

  /* Check that a Tx process is ongoing */
  if (huart->gState == HAL_UART_STATE_BUSY_TX)
 80009a0:	f890 3041 	ldrb.w	r3, [r0, #65]	; 0x41
 80009a4:	b2db      	uxtb	r3, r3
 80009a6:	2b21      	cmp	r3, #33	; 0x21
 80009a8:	d001      	beq.n	80009ae <UART_Transmit_IT+0xe>
    }
    return HAL_OK;
  }
  else
  {
    return HAL_BUSY;
 80009aa:	2002      	movs	r0, #2
  }
}
 80009ac:	4770      	bx	lr
    if ((huart->Init.WordLength == UART_WORDLENGTH_9B) && (huart->Init.Parity == UART_PARITY_NONE))
 80009ae:	6883      	ldr	r3, [r0, #8]
 80009b0:	f5b3 5f80 	cmp.w	r3, #4096	; 0x1000
 80009b4:	d017      	beq.n	80009e6 <UART_Transmit_IT+0x46>
      huart->Instance->DR = (uint8_t)(*huart->pTxBuffPtr++ & (uint8_t)0x00FF);
 80009b6:	6a03      	ldr	r3, [r0, #32]
 80009b8:	1c5a      	adds	r2, r3, #1
 80009ba:	6202      	str	r2, [r0, #32]
 80009bc:	781a      	ldrb	r2, [r3, #0]
 80009be:	6803      	ldr	r3, [r0, #0]
 80009c0:	605a      	str	r2, [r3, #4]
    if (--huart->TxXferCount == 0U)
 80009c2:	8cc3      	ldrh	r3, [r0, #38]	; 0x26
 80009c4:	b29b      	uxth	r3, r3
 80009c6:	3b01      	subs	r3, #1
 80009c8:	b29b      	uxth	r3, r3
 80009ca:	84c3      	strh	r3, [r0, #38]	; 0x26
 80009cc:	b94b      	cbnz	r3, 80009e2 <UART_Transmit_IT+0x42>
      __HAL_UART_DISABLE_IT(huart, UART_IT_TXE);
 80009ce:	6802      	ldr	r2, [r0, #0]
 80009d0:	68d3      	ldr	r3, [r2, #12]
 80009d2:	f023 0380 	bic.w	r3, r3, #128	; 0x80
 80009d6:	60d3      	str	r3, [r2, #12]
      __HAL_UART_ENABLE_IT(huart, UART_IT_TC);
 80009d8:	6802      	ldr	r2, [r0, #0]
 80009da:	68d3      	ldr	r3, [r2, #12]
 80009dc:	f043 0340 	orr.w	r3, r3, #64	; 0x40
 80009e0:	60d3      	str	r3, [r2, #12]
    return HAL_OK;
 80009e2:	2000      	movs	r0, #0
 80009e4:	4770      	bx	lr
    if ((huart->Init.WordLength == UART_WORDLENGTH_9B) && (huart->Init.Parity == UART_PARITY_NONE))
 80009e6:	6903      	ldr	r3, [r0, #16]
 80009e8:	2b00      	cmp	r3, #0
 80009ea:	d1e4      	bne.n	80009b6 <UART_Transmit_IT+0x16>
      tmp = (const uint16_t *) huart->pTxBuffPtr;
 80009ec:	6a03      	ldr	r3, [r0, #32]
      huart->Instance->DR = (uint16_t)(*tmp & (uint16_t)0x01FF);
 80009ee:	881b      	ldrh	r3, [r3, #0]
 80009f0:	6802      	ldr	r2, [r0, #0]
 80009f2:	f3c3 0308 	ubfx	r3, r3, #0, #9
 80009f6:	6053      	str	r3, [r2, #4]
      huart->pTxBuffPtr += 2U;
 80009f8:	6a03      	ldr	r3, [r0, #32]
 80009fa:	3302      	adds	r3, #2
 80009fc:	6203      	str	r3, [r0, #32]
 80009fe:	e7e0      	b.n	80009c2 <UART_Transmit_IT+0x22>

08000a00 <UART_SetConfig>:
  * @param  huart  Pointer to a UART_HandleTypeDef structure that contains
  *                the configuration information for the specified UART module.
  * @retval None
  */
static void UART_SetConfig(UART_HandleTypeDef *huart)
{
 8000a00:	b538      	push	{r3, r4, r5, lr}
 8000a02:	4604      	mov	r4, r0
  uint32_t tmpreg;
  uint32_t pclk;

  /* Check the parameters */
  assert_param(IS_UART_BAUDRATE(huart->Init.BaudRate));
 8000a04:	6842      	ldr	r2, [r0, #4]
 8000a06:	4b57      	ldr	r3, [pc, #348]	; (8000b64 <UART_SetConfig+0x164>)
 8000a08:	429a      	cmp	r2, r3
 8000a0a:	d83f      	bhi.n	8000a8c <UART_SetConfig+0x8c>
  assert_param(IS_UART_STOPBITS(huart->Init.StopBits));
 8000a0c:	68e3      	ldr	r3, [r4, #12]
 8000a0e:	b113      	cbz	r3, 8000a16 <UART_SetConfig+0x16>
 8000a10:	f5b3 5f00 	cmp.w	r3, #8192	; 0x2000
 8000a14:	d140      	bne.n	8000a98 <UART_SetConfig+0x98>
  assert_param(IS_UART_PARITY(huart->Init.Parity));
 8000a16:	6923      	ldr	r3, [r4, #16]
 8000a18:	b12b      	cbz	r3, 8000a26 <UART_SetConfig+0x26>
 8000a1a:	f5b3 6f80 	cmp.w	r3, #1024	; 0x400
 8000a1e:	d002      	beq.n	8000a26 <UART_SetConfig+0x26>
 8000a20:	f5b3 6fc0 	cmp.w	r3, #1536	; 0x600
 8000a24:	d13e      	bne.n	8000aa4 <UART_SetConfig+0xa4>
  assert_param(IS_UART_MODE(huart->Init.Mode));
 8000a26:	6963      	ldr	r3, [r4, #20]
 8000a28:	f64f 72f3 	movw	r2, #65523	; 0xfff3
 8000a2c:	4213      	tst	r3, r2
 8000a2e:	d100      	bne.n	8000a32 <UART_SetConfig+0x32>
 8000a30:	b923      	cbnz	r3, 8000a3c <UART_SetConfig+0x3c>
 8000a32:	f640 6178 	movw	r1, #3704	; 0xe78
 8000a36:	484c      	ldr	r0, [pc, #304]	; (8000b68 <UART_SetConfig+0x168>)
 8000a38:	f7ff fedc 	bl	80007f4 <assert_failed>

  /*-------------------------- USART CR2 Configuration -----------------------*/
  /* Configure the UART Stop Bits: Set STOP[13:12] bits
     according to huart->Init.StopBits value */
  MODIFY_REG(huart->Instance->CR2, USART_CR2_STOP, huart->Init.StopBits);
 8000a3c:	6822      	ldr	r2, [r4, #0]
 8000a3e:	6913      	ldr	r3, [r2, #16]
 8000a40:	f423 5340 	bic.w	r3, r3, #12288	; 0x3000
 8000a44:	68e1      	ldr	r1, [r4, #12]
 8000a46:	430b      	orrs	r3, r1
 8000a48:	6113      	str	r3, [r2, #16]
     Set the M bits according to huart->Init.WordLength value
     Set PCE and PS bits according to huart->Init.Parity value
     Set TE and RE bits according to huart->Init.Mode value
     Set OVER8 bit according to huart->Init.OverSampling value */

  tmpreg = (uint32_t)huart->Init.WordLength | huart->Init.Parity | huart->Init.Mode | huart->Init.OverSampling;
 8000a4a:	68a3      	ldr	r3, [r4, #8]
 8000a4c:	6922      	ldr	r2, [r4, #16]
 8000a4e:	4313      	orrs	r3, r2
 8000a50:	6962      	ldr	r2, [r4, #20]
 8000a52:	4313      	orrs	r3, r2
 8000a54:	69e2      	ldr	r2, [r4, #28]
 8000a56:	431a      	orrs	r2, r3
  MODIFY_REG(huart->Instance->CR1,
 8000a58:	6821      	ldr	r1, [r4, #0]
 8000a5a:	68cb      	ldr	r3, [r1, #12]
 8000a5c:	f423 4316 	bic.w	r3, r3, #38400	; 0x9600
 8000a60:	f023 030c 	bic.w	r3, r3, #12
 8000a64:	4313      	orrs	r3, r2
 8000a66:	60cb      	str	r3, [r1, #12]
             (uint32_t)(USART_CR1_M | USART_CR1_PCE | USART_CR1_PS | USART_CR1_TE | USART_CR1_RE | USART_CR1_OVER8),
             tmpreg);

  /*-------------------------- USART CR3 Configuration -----------------------*/
  /* Configure the UART HFC: Set CTSE and RTSE bits according to huart->Init.HwFlowCtl value */
  MODIFY_REG(huart->Instance->CR3, (USART_CR3_RTSE | USART_CR3_CTSE), huart->Init.HwFlowCtl);
 8000a68:	6822      	ldr	r2, [r4, #0]
 8000a6a:	6953      	ldr	r3, [r2, #20]
 8000a6c:	f423 7340 	bic.w	r3, r3, #768	; 0x300
 8000a70:	69a1      	ldr	r1, [r4, #24]
 8000a72:	430b      	orrs	r3, r1
 8000a74:	6153      	str	r3, [r2, #20]
    if ((huart->Instance == USART1) || (huart->Instance == USART6) || (huart->Instance == UART9) || (huart->Instance == UART10))
    {
      pclk = HAL_RCC_GetPCLK2Freq();
    }
#elif defined(USART6)
    if ((huart->Instance == USART1) || (huart->Instance == USART6))
 8000a76:	6823      	ldr	r3, [r4, #0]
 8000a78:	4a3c      	ldr	r2, [pc, #240]	; (8000b6c <UART_SetConfig+0x16c>)
 8000a7a:	4293      	cmp	r3, r2
 8000a7c:	d018      	beq.n	8000ab0 <UART_SetConfig+0xb0>
 8000a7e:	f502 6280 	add.w	r2, r2, #1024	; 0x400
 8000a82:	4293      	cmp	r3, r2
 8000a84:	d014      	beq.n	8000ab0 <UART_SetConfig+0xb0>
      pclk = HAL_RCC_GetPCLK2Freq();
    }
#endif /* USART6 */
    else
    {
      pclk = HAL_RCC_GetPCLK1Freq();
 8000a86:	f000 fb8d 	bl	80011a4 <HAL_RCC_GetPCLK1Freq>
 8000a8a:	e013      	b.n	8000ab4 <UART_SetConfig+0xb4>
  assert_param(IS_UART_BAUDRATE(huart->Init.BaudRate));
 8000a8c:	f640 6175 	movw	r1, #3701	; 0xe75
 8000a90:	4835      	ldr	r0, [pc, #212]	; (8000b68 <UART_SetConfig+0x168>)
 8000a92:	f7ff feaf 	bl	80007f4 <assert_failed>
 8000a96:	e7b9      	b.n	8000a0c <UART_SetConfig+0xc>
  assert_param(IS_UART_STOPBITS(huart->Init.StopBits));
 8000a98:	f640 6176 	movw	r1, #3702	; 0xe76
 8000a9c:	4832      	ldr	r0, [pc, #200]	; (8000b68 <UART_SetConfig+0x168>)
 8000a9e:	f7ff fea9 	bl	80007f4 <assert_failed>
 8000aa2:	e7b8      	b.n	8000a16 <UART_SetConfig+0x16>
  assert_param(IS_UART_PARITY(huart->Init.Parity));
 8000aa4:	f640 6177 	movw	r1, #3703	; 0xe77
 8000aa8:	482f      	ldr	r0, [pc, #188]	; (8000b68 <UART_SetConfig+0x168>)
 8000aaa:	f7ff fea3 	bl	80007f4 <assert_failed>
 8000aae:	e7ba      	b.n	8000a26 <UART_SetConfig+0x26>
      pclk = HAL_RCC_GetPCLK2Freq();
 8000ab0:	f000 fb88 	bl	80011c4 <HAL_RCC_GetPCLK2Freq>
    }
  /*-------------------------- USART BRR Configuration ---------------------*/
  if (huart->Init.OverSampling == UART_OVERSAMPLING_8)
 8000ab4:	69e3      	ldr	r3, [r4, #28]
 8000ab6:	f5b3 4f00 	cmp.w	r3, #32768	; 0x8000
 8000aba:	d029      	beq.n	8000b10 <UART_SetConfig+0x110>
  {
    huart->Instance->BRR = UART_BRR_SAMPLING8(pclk, huart->Init.BaudRate);
  }
  else
  {
    huart->Instance->BRR = UART_BRR_SAMPLING16(pclk, huart->Init.BaudRate);
 8000abc:	2100      	movs	r1, #0
 8000abe:	1803      	adds	r3, r0, r0
 8000ac0:	4149      	adcs	r1, r1
 8000ac2:	181b      	adds	r3, r3, r0
 8000ac4:	f141 0100 	adc.w	r1, r1, #0
 8000ac8:	00c9      	lsls	r1, r1, #3
 8000aca:	ea41 7153 	orr.w	r1, r1, r3, lsr #29
 8000ace:	00db      	lsls	r3, r3, #3
 8000ad0:	1818      	adds	r0, r3, r0
 8000ad2:	6863      	ldr	r3, [r4, #4]
 8000ad4:	ea4f 0283 	mov.w	r2, r3, lsl #2
 8000ad8:	ea4f 7393 	mov.w	r3, r3, lsr #30
 8000adc:	f141 0100 	adc.w	r1, r1, #0
 8000ae0:	f7ff fbee 	bl	80002c0 <__aeabi_uldivmod>
 8000ae4:	4d22      	ldr	r5, [pc, #136]	; (8000b70 <UART_SetConfig+0x170>)
 8000ae6:	fba5 3200 	umull	r3, r2, r5, r0
 8000aea:	0951      	lsrs	r1, r2, #5
 8000aec:	2364      	movs	r3, #100	; 0x64
 8000aee:	fb03 0311 	mls	r3, r3, r1, r0
 8000af2:	011b      	lsls	r3, r3, #4
 8000af4:	3332      	adds	r3, #50	; 0x32
 8000af6:	fba5 2303 	umull	r2, r3, r5, r3
 8000afa:	095b      	lsrs	r3, r3, #5
 8000afc:	f003 02f0 	and.w	r2, r3, #240	; 0xf0
 8000b00:	eb02 1201 	add.w	r2, r2, r1, lsl #4
 8000b04:	f003 030f 	and.w	r3, r3, #15
 8000b08:	6821      	ldr	r1, [r4, #0]
 8000b0a:	4413      	add	r3, r2
 8000b0c:	608b      	str	r3, [r1, #8]
  }
}
 8000b0e:	bd38      	pop	{r3, r4, r5, pc}
    huart->Instance->BRR = UART_BRR_SAMPLING8(pclk, huart->Init.BaudRate);
 8000b10:	2300      	movs	r3, #0
 8000b12:	1802      	adds	r2, r0, r0
 8000b14:	eb43 0103 	adc.w	r1, r3, r3
 8000b18:	1812      	adds	r2, r2, r0
 8000b1a:	f141 0100 	adc.w	r1, r1, #0
 8000b1e:	00c9      	lsls	r1, r1, #3
 8000b20:	ea41 7152 	orr.w	r1, r1, r2, lsr #29
 8000b24:	00d2      	lsls	r2, r2, #3
 8000b26:	1810      	adds	r0, r2, r0
 8000b28:	f141 0100 	adc.w	r1, r1, #0
 8000b2c:	6862      	ldr	r2, [r4, #4]
 8000b2e:	1892      	adds	r2, r2, r2
 8000b30:	415b      	adcs	r3, r3
 8000b32:	f7ff fbc5 	bl	80002c0 <__aeabi_uldivmod>
 8000b36:	4d0e      	ldr	r5, [pc, #56]	; (8000b70 <UART_SetConfig+0x170>)
 8000b38:	fba5 3200 	umull	r3, r2, r5, r0
 8000b3c:	0951      	lsrs	r1, r2, #5
 8000b3e:	2364      	movs	r3, #100	; 0x64
 8000b40:	fb03 0311 	mls	r3, r3, r1, r0
 8000b44:	00db      	lsls	r3, r3, #3
 8000b46:	3332      	adds	r3, #50	; 0x32
 8000b48:	fba5 2303 	umull	r2, r3, r5, r3
 8000b4c:	095b      	lsrs	r3, r3, #5
 8000b4e:	005a      	lsls	r2, r3, #1
 8000b50:	f402 72f8 	and.w	r2, r2, #496	; 0x1f0
 8000b54:	eb02 1201 	add.w	r2, r2, r1, lsl #4
 8000b58:	f003 0307 	and.w	r3, r3, #7
 8000b5c:	6821      	ldr	r1, [r4, #0]
 8000b5e:	4413      	add	r3, r2
 8000b60:	608b      	str	r3, [r1, #8]
 8000b62:	e7d4      	b.n	8000b0e <UART_SetConfig+0x10e>
 8000b64:	00a037a0 	adceq	r3, r0, r0, lsr #15
 8000b68:	0800464c 	stmdaeq	r0, {r2, r3, r6, r9, sl, lr}
 8000b6c:	40011000 	andmi	r1, r1, r0
 8000b70:	51eb851f 	mvnpl	r8, pc, lsl r5

08000b74 <UART_WaitOnFlagUntilTimeout>:
{
 8000b74:	e92d 43f0 	stmdb	sp!, {r4, r5, r6, r7, r8, r9, lr}
 8000b78:	b083      	sub	sp, #12
 8000b7a:	4605      	mov	r5, r0
 8000b7c:	460e      	mov	r6, r1
 8000b7e:	4617      	mov	r7, r2
 8000b80:	4699      	mov	r9, r3
 8000b82:	f8dd 8028 	ldr.w	r8, [sp, #40]	; 0x28
  while ((__HAL_UART_GET_FLAG(huart, Flag) ? SET : RESET) == Status)
 8000b86:	682c      	ldr	r4, [r5, #0]
 8000b88:	6824      	ldr	r4, [r4, #0]
 8000b8a:	ea36 0304 	bics.w	r3, r6, r4
 8000b8e:	bf0c      	ite	eq
 8000b90:	f04f 0c01 	moveq.w	ip, #1
 8000b94:	f04f 0c00 	movne.w	ip, #0
 8000b98:	45bc      	cmp	ip, r7
 8000b9a:	d128      	bne.n	8000bee <UART_WaitOnFlagUntilTimeout+0x7a>
    if (Timeout != HAL_MAX_DELAY)
 8000b9c:	f1b8 3fff 	cmp.w	r8, #4294967295
 8000ba0:	d0f1      	beq.n	8000b86 <UART_WaitOnFlagUntilTimeout+0x12>
      if (((HAL_GetTick() - Tickstart) > Timeout) || (Timeout == 0U))
 8000ba2:	f000 fdcd 	bl	8001740 <HAL_GetTick>
 8000ba6:	eba0 0009 	sub.w	r0, r0, r9
 8000baa:	4540      	cmp	r0, r8
 8000bac:	d823      	bhi.n	8000bf6 <UART_WaitOnFlagUntilTimeout+0x82>
 8000bae:	f1b8 0f00 	cmp.w	r8, #0
 8000bb2:	d022      	beq.n	8000bfa <UART_WaitOnFlagUntilTimeout+0x86>
      if ((READ_BIT(huart->Instance->CR1, USART_CR1_RE) != 0U) && (Flag != UART_FLAG_TXE) && (Flag != UART_FLAG_TC))
 8000bb4:	682b      	ldr	r3, [r5, #0]
 8000bb6:	68da      	ldr	r2, [r3, #12]
 8000bb8:	f012 0f04 	tst.w	r2, #4
 8000bbc:	d0e3      	beq.n	8000b86 <UART_WaitOnFlagUntilTimeout+0x12>
 8000bbe:	2e80      	cmp	r6, #128	; 0x80
 8000bc0:	d0e1      	beq.n	8000b86 <UART_WaitOnFlagUntilTimeout+0x12>
 8000bc2:	2e40      	cmp	r6, #64	; 0x40
 8000bc4:	d0df      	beq.n	8000b86 <UART_WaitOnFlagUntilTimeout+0x12>
        if (__HAL_UART_GET_FLAG(huart, UART_FLAG_ORE) == SET)
 8000bc6:	681a      	ldr	r2, [r3, #0]
 8000bc8:	f012 0f08 	tst.w	r2, #8
 8000bcc:	d0db      	beq.n	8000b86 <UART_WaitOnFlagUntilTimeout+0x12>
          __HAL_UART_CLEAR_OREFLAG(huart);
 8000bce:	2400      	movs	r4, #0
 8000bd0:	9401      	str	r4, [sp, #4]
 8000bd2:	681a      	ldr	r2, [r3, #0]
 8000bd4:	9201      	str	r2, [sp, #4]
 8000bd6:	685b      	ldr	r3, [r3, #4]
 8000bd8:	9301      	str	r3, [sp, #4]
 8000bda:	9b01      	ldr	r3, [sp, #4]
          UART_EndRxTransfer(huart);
 8000bdc:	4628      	mov	r0, r5
 8000bde:	f7ff feb1 	bl	8000944 <UART_EndRxTransfer>
          huart->ErrorCode = HAL_UART_ERROR_ORE;
 8000be2:	2308      	movs	r3, #8
 8000be4:	646b      	str	r3, [r5, #68]	; 0x44
          __HAL_UNLOCK(huart);
 8000be6:	f885 4040 	strb.w	r4, [r5, #64]	; 0x40
          return HAL_ERROR;
 8000bea:	2001      	movs	r0, #1
 8000bec:	e000      	b.n	8000bf0 <UART_WaitOnFlagUntilTimeout+0x7c>
  return HAL_OK;
 8000bee:	2000      	movs	r0, #0
}
 8000bf0:	b003      	add	sp, #12
 8000bf2:	e8bd 83f0 	ldmia.w	sp!, {r4, r5, r6, r7, r8, r9, pc}
        return HAL_TIMEOUT;
 8000bf6:	2003      	movs	r0, #3
 8000bf8:	e7fa      	b.n	8000bf0 <UART_WaitOnFlagUntilTimeout+0x7c>
 8000bfa:	2003      	movs	r0, #3
 8000bfc:	e7f8      	b.n	8000bf0 <UART_WaitOnFlagUntilTimeout+0x7c>
	...

08000c00 <HAL_UART_Init>:
  if (huart == NULL)
 8000c00:	2800      	cmp	r0, #0
 8000c02:	f000 808c 	beq.w	8000d1e <HAL_UART_Init+0x11e>
{
 8000c06:	b510      	push	{r4, lr}
 8000c08:	4604      	mov	r4, r0
  if (huart->Init.HwFlowCtl != UART_HWCONTROL_NONE)
 8000c0a:	6983      	ldr	r3, [r0, #24]
 8000c0c:	2b00      	cmp	r3, #0
 8000c0e:	d056      	beq.n	8000cbe <HAL_UART_Init+0xbe>
    assert_param(IS_UART_HWFLOW_INSTANCE(huart->Instance));
 8000c10:	6803      	ldr	r3, [r0, #0]
 8000c12:	4a44      	ldr	r2, [pc, #272]	; (8000d24 <HAL_UART_Init+0x124>)
 8000c14:	4293      	cmp	r3, r2
 8000c16:	d010      	beq.n	8000c3a <HAL_UART_Init+0x3a>
 8000c18:	f5a2 424c 	sub.w	r2, r2, #52224	; 0xcc00
 8000c1c:	4293      	cmp	r3, r2
 8000c1e:	d00c      	beq.n	8000c3a <HAL_UART_Init+0x3a>
 8000c20:	f502 6280 	add.w	r2, r2, #1024	; 0x400
 8000c24:	4293      	cmp	r3, r2
 8000c26:	d008      	beq.n	8000c3a <HAL_UART_Init+0x3a>
 8000c28:	f502 424c 	add.w	r2, r2, #52224	; 0xcc00
 8000c2c:	4293      	cmp	r3, r2
 8000c2e:	d004      	beq.n	8000c3a <HAL_UART_Init+0x3a>
 8000c30:	f240 1173 	movw	r1, #371	; 0x173
 8000c34:	483c      	ldr	r0, [pc, #240]	; (8000d28 <HAL_UART_Init+0x128>)
 8000c36:	f7ff fddd 	bl	80007f4 <assert_failed>
    assert_param(IS_UART_HARDWARE_FLOW_CONTROL(huart->Init.HwFlowCtl));
 8000c3a:	69a3      	ldr	r3, [r4, #24]
 8000c3c:	b143      	cbz	r3, 8000c50 <HAL_UART_Init+0x50>
 8000c3e:	f5b3 7f80 	cmp.w	r3, #256	; 0x100
 8000c42:	d005      	beq.n	8000c50 <HAL_UART_Init+0x50>
 8000c44:	f5b3 7f00 	cmp.w	r3, #512	; 0x200
 8000c48:	d002      	beq.n	8000c50 <HAL_UART_Init+0x50>
 8000c4a:	f5b3 7f40 	cmp.w	r3, #768	; 0x300
 8000c4e:	d130      	bne.n	8000cb2 <HAL_UART_Init+0xb2>
  assert_param(IS_UART_WORD_LENGTH(huart->Init.WordLength));
 8000c50:	68a3      	ldr	r3, [r4, #8]
 8000c52:	b113      	cbz	r3, 8000c5a <HAL_UART_Init+0x5a>
 8000c54:	f5b3 5f80 	cmp.w	r3, #4096	; 0x1000
 8000c58:	d14f      	bne.n	8000cfa <HAL_UART_Init+0xfa>
  assert_param(IS_UART_OVERSAMPLING(huart->Init.OverSampling));
 8000c5a:	69e3      	ldr	r3, [r4, #28]
 8000c5c:	b113      	cbz	r3, 8000c64 <HAL_UART_Init+0x64>
 8000c5e:	f5b3 4f00 	cmp.w	r3, #32768	; 0x8000
 8000c62:	d150      	bne.n	8000d06 <HAL_UART_Init+0x106>
  if (huart->gState == HAL_UART_STATE_RESET)
 8000c64:	f894 3041 	ldrb.w	r3, [r4, #65]	; 0x41
 8000c68:	2b00      	cmp	r3, #0
 8000c6a:	d052      	beq.n	8000d12 <HAL_UART_Init+0x112>
  huart->gState = HAL_UART_STATE_BUSY;
 8000c6c:	2324      	movs	r3, #36	; 0x24
 8000c6e:	f884 3041 	strb.w	r3, [r4, #65]	; 0x41
  __HAL_UART_DISABLE(huart);
 8000c72:	6822      	ldr	r2, [r4, #0]
 8000c74:	68d3      	ldr	r3, [r2, #12]
 8000c76:	f423 5300 	bic.w	r3, r3, #8192	; 0x2000
 8000c7a:	60d3      	str	r3, [r2, #12]
  UART_SetConfig(huart);
 8000c7c:	4620      	mov	r0, r4
 8000c7e:	f7ff febf 	bl	8000a00 <UART_SetConfig>
  CLEAR_BIT(huart->Instance->CR2, (USART_CR2_LINEN | USART_CR2_CLKEN));
 8000c82:	6822      	ldr	r2, [r4, #0]
 8000c84:	6913      	ldr	r3, [r2, #16]
 8000c86:	f423 4390 	bic.w	r3, r3, #18432	; 0x4800
 8000c8a:	6113      	str	r3, [r2, #16]
  CLEAR_BIT(huart->Instance->CR3, (USART_CR3_SCEN | USART_CR3_HDSEL | USART_CR3_IREN));
 8000c8c:	6822      	ldr	r2, [r4, #0]
 8000c8e:	6953      	ldr	r3, [r2, #20]
 8000c90:	f023 032a 	bic.w	r3, r3, #42	; 0x2a
 8000c94:	6153      	str	r3, [r2, #20]
  __HAL_UART_ENABLE(huart);
 8000c96:	6822      	ldr	r2, [r4, #0]
 8000c98:	68d3      	ldr	r3, [r2, #12]
 8000c9a:	f443 5300 	orr.w	r3, r3, #8192	; 0x2000
 8000c9e:	60d3      	str	r3, [r2, #12]
  huart->ErrorCode = HAL_UART_ERROR_NONE;
 8000ca0:	2000      	movs	r0, #0
 8000ca2:	6460      	str	r0, [r4, #68]	; 0x44
  huart->gState = HAL_UART_STATE_READY;
 8000ca4:	2320      	movs	r3, #32
 8000ca6:	f884 3041 	strb.w	r3, [r4, #65]	; 0x41
  huart->RxState = HAL_UART_STATE_READY;
 8000caa:	f884 3042 	strb.w	r3, [r4, #66]	; 0x42
  huart->RxEventType = HAL_UART_RXEVENT_TC;
 8000cae:	6360      	str	r0, [r4, #52]	; 0x34
}
 8000cb0:	bd10      	pop	{r4, pc}
    assert_param(IS_UART_HARDWARE_FLOW_CONTROL(huart->Init.HwFlowCtl));
 8000cb2:	f44f 71ba 	mov.w	r1, #372	; 0x174
 8000cb6:	481c      	ldr	r0, [pc, #112]	; (8000d28 <HAL_UART_Init+0x128>)
 8000cb8:	f7ff fd9c 	bl	80007f4 <assert_failed>
 8000cbc:	e7c8      	b.n	8000c50 <HAL_UART_Init+0x50>
    assert_param(IS_UART_INSTANCE(huart->Instance));
 8000cbe:	6803      	ldr	r3, [r0, #0]
 8000cc0:	4a18      	ldr	r2, [pc, #96]	; (8000d24 <HAL_UART_Init+0x124>)
 8000cc2:	4293      	cmp	r3, r2
 8000cc4:	d0c4      	beq.n	8000c50 <HAL_UART_Init+0x50>
 8000cc6:	f5a2 424c 	sub.w	r2, r2, #52224	; 0xcc00
 8000cca:	4293      	cmp	r3, r2
 8000ccc:	d0c0      	beq.n	8000c50 <HAL_UART_Init+0x50>
 8000cce:	f502 6280 	add.w	r2, r2, #1024	; 0x400
 8000cd2:	4293      	cmp	r3, r2
 8000cd4:	d0bc      	beq.n	8000c50 <HAL_UART_Init+0x50>
 8000cd6:	f502 6280 	add.w	r2, r2, #1024	; 0x400
 8000cda:	4293      	cmp	r3, r2
 8000cdc:	d0b8      	beq.n	8000c50 <HAL_UART_Init+0x50>
 8000cde:	f502 6280 	add.w	r2, r2, #1024	; 0x400
 8000ce2:	4293      	cmp	r3, r2
 8000ce4:	d0b4      	beq.n	8000c50 <HAL_UART_Init+0x50>
 8000ce6:	f502 4244 	add.w	r2, r2, #50176	; 0xc400
 8000cea:	4293      	cmp	r3, r2
 8000cec:	d0b0      	beq.n	8000c50 <HAL_UART_Init+0x50>
 8000cee:	f44f 71bc 	mov.w	r1, #376	; 0x178
 8000cf2:	480d      	ldr	r0, [pc, #52]	; (8000d28 <HAL_UART_Init+0x128>)
 8000cf4:	f7ff fd7e 	bl	80007f4 <assert_failed>
 8000cf8:	e7aa      	b.n	8000c50 <HAL_UART_Init+0x50>
  assert_param(IS_UART_WORD_LENGTH(huart->Init.WordLength));
 8000cfa:	f44f 71bd 	mov.w	r1, #378	; 0x17a
 8000cfe:	480a      	ldr	r0, [pc, #40]	; (8000d28 <HAL_UART_Init+0x128>)
 8000d00:	f7ff fd78 	bl	80007f4 <assert_failed>
 8000d04:	e7a9      	b.n	8000c5a <HAL_UART_Init+0x5a>
  assert_param(IS_UART_OVERSAMPLING(huart->Init.OverSampling));
 8000d06:	f240 117b 	movw	r1, #379	; 0x17b
 8000d0a:	4807      	ldr	r0, [pc, #28]	; (8000d28 <HAL_UART_Init+0x128>)
 8000d0c:	f7ff fd72 	bl	80007f4 <assert_failed>
 8000d10:	e7a8      	b.n	8000c64 <HAL_UART_Init+0x64>
    huart->Lock = HAL_UNLOCKED;
 8000d12:	f884 3040 	strb.w	r3, [r4, #64]	; 0x40
    HAL_UART_MspInit(huart);
 8000d16:	4620      	mov	r0, r4
 8000d18:	f7ff fdb8 	bl	800088c <HAL_UART_MspInit>
 8000d1c:	e7a6      	b.n	8000c6c <HAL_UART_Init+0x6c>
    return HAL_ERROR;
 8000d1e:	2001      	movs	r0, #1
}
 8000d20:	4770      	bx	lr
 8000d22:	bf00      	nop
 8000d24:	40011000 	andmi	r1, r1, r0
 8000d28:	0800464c 	stmdaeq	r0, {r2, r3, r6, r9, sl, lr}

08000d2c <HAL_UART_Transmit>:
{
 8000d2c:	e92d 41f0 	stmdb	sp!, {r4, r5, r6, r7, r8, lr}
 8000d30:	b082      	sub	sp, #8
 8000d32:	461e      	mov	r6, r3
  if (huart->gState == HAL_UART_STATE_READY)
 8000d34:	f890 3041 	ldrb.w	r3, [r0, #65]	; 0x41
 8000d38:	b2db      	uxtb	r3, r3
 8000d3a:	2b20      	cmp	r3, #32
 8000d3c:	d156      	bne.n	8000dec <HAL_UART_Transmit+0xc0>
 8000d3e:	4604      	mov	r4, r0
 8000d40:	460d      	mov	r5, r1
 8000d42:	4690      	mov	r8, r2
    if ((pData == NULL) || (Size == 0U))
 8000d44:	2900      	cmp	r1, #0
 8000d46:	d055      	beq.n	8000df4 <HAL_UART_Transmit+0xc8>
 8000d48:	b90a      	cbnz	r2, 8000d4e <HAL_UART_Transmit+0x22>
      return  HAL_ERROR;
 8000d4a:	2001      	movs	r0, #1
 8000d4c:	e04f      	b.n	8000dee <HAL_UART_Transmit+0xc2>
    huart->ErrorCode = HAL_UART_ERROR_NONE;
 8000d4e:	2300      	movs	r3, #0
 8000d50:	6443      	str	r3, [r0, #68]	; 0x44
    huart->gState = HAL_UART_STATE_BUSY_TX;
 8000d52:	2321      	movs	r3, #33	; 0x21
 8000d54:	f880 3041 	strb.w	r3, [r0, #65]	; 0x41
    tickstart = HAL_GetTick();
 8000d58:	f000 fcf2 	bl	8001740 <HAL_GetTick>
 8000d5c:	4607      	mov	r7, r0
    huart->TxXferSize = Size;
 8000d5e:	f8a4 8024 	strh.w	r8, [r4, #36]	; 0x24
    huart->TxXferCount = Size;
 8000d62:	f8a4 8026 	strh.w	r8, [r4, #38]	; 0x26
    if ((huart->Init.WordLength == UART_WORDLENGTH_9B) && (huart->Init.Parity == UART_PARITY_NONE))
 8000d66:	68a3      	ldr	r3, [r4, #8]
 8000d68:	f5b3 5f80 	cmp.w	r3, #4096	; 0x1000
 8000d6c:	d002      	beq.n	8000d74 <HAL_UART_Transmit+0x48>
      pdata16bits = NULL;
 8000d6e:	f04f 0800 	mov.w	r8, #0
 8000d72:	e014      	b.n	8000d9e <HAL_UART_Transmit+0x72>
    if ((huart->Init.WordLength == UART_WORDLENGTH_9B) && (huart->Init.Parity == UART_PARITY_NONE))
 8000d74:	6923      	ldr	r3, [r4, #16]
 8000d76:	b32b      	cbz	r3, 8000dc4 <HAL_UART_Transmit+0x98>
      pdata16bits = NULL;
 8000d78:	f04f 0800 	mov.w	r8, #0
 8000d7c:	e00f      	b.n	8000d9e <HAL_UART_Transmit+0x72>
        huart->gState = HAL_UART_STATE_READY;
 8000d7e:	2320      	movs	r3, #32
 8000d80:	f884 3041 	strb.w	r3, [r4, #65]	; 0x41
        return HAL_TIMEOUT;
 8000d84:	2003      	movs	r0, #3
 8000d86:	e032      	b.n	8000dee <HAL_UART_Transmit+0xc2>
        huart->Instance->DR = (uint16_t)(*pdata16bits & 0x01FFU);
 8000d88:	f838 3b02 	ldrh.w	r3, [r8], #2
 8000d8c:	6822      	ldr	r2, [r4, #0]
 8000d8e:	f3c3 0308 	ubfx	r3, r3, #0, #9
 8000d92:	6053      	str	r3, [r2, #4]
      huart->TxXferCount--;
 8000d94:	8ce2      	ldrh	r2, [r4, #38]	; 0x26
 8000d96:	b292      	uxth	r2, r2
 8000d98:	3a01      	subs	r2, #1
 8000d9a:	b292      	uxth	r2, r2
 8000d9c:	84e2      	strh	r2, [r4, #38]	; 0x26
    while (huart->TxXferCount > 0U)
 8000d9e:	8ce3      	ldrh	r3, [r4, #38]	; 0x26
 8000da0:	b29b      	uxth	r3, r3
 8000da2:	b193      	cbz	r3, 8000dca <HAL_UART_Transmit+0x9e>
      if (UART_WaitOnFlagUntilTimeout(huart, UART_FLAG_TXE, RESET, tickstart, Timeout) != HAL_OK)
 8000da4:	9600      	str	r6, [sp, #0]
 8000da6:	463b      	mov	r3, r7
 8000da8:	2200      	movs	r2, #0
 8000daa:	2180      	movs	r1, #128	; 0x80
 8000dac:	4620      	mov	r0, r4
 8000dae:	f7ff fee1 	bl	8000b74 <UART_WaitOnFlagUntilTimeout>
 8000db2:	2800      	cmp	r0, #0
 8000db4:	d1e3      	bne.n	8000d7e <HAL_UART_Transmit+0x52>
      if (pdata8bits == NULL)
 8000db6:	2d00      	cmp	r5, #0
 8000db8:	d0e6      	beq.n	8000d88 <HAL_UART_Transmit+0x5c>
        huart->Instance->DR = (uint8_t)(*pdata8bits & 0xFFU);
 8000dba:	f815 2b01 	ldrb.w	r2, [r5], #1
 8000dbe:	6823      	ldr	r3, [r4, #0]
 8000dc0:	605a      	str	r2, [r3, #4]
        pdata8bits++;
 8000dc2:	e7e7      	b.n	8000d94 <HAL_UART_Transmit+0x68>
      pdata16bits = (const uint16_t *) pData;
 8000dc4:	46a8      	mov	r8, r5
      pdata8bits  = NULL;
 8000dc6:	2500      	movs	r5, #0
 8000dc8:	e7e9      	b.n	8000d9e <HAL_UART_Transmit+0x72>
    if (UART_WaitOnFlagUntilTimeout(huart, UART_FLAG_TC, RESET, tickstart, Timeout) != HAL_OK)
 8000dca:	9600      	str	r6, [sp, #0]
 8000dcc:	463b      	mov	r3, r7
 8000dce:	2200      	movs	r2, #0
 8000dd0:	2140      	movs	r1, #64	; 0x40
 8000dd2:	4620      	mov	r0, r4
 8000dd4:	f7ff fece 	bl	8000b74 <UART_WaitOnFlagUntilTimeout>
 8000dd8:	b918      	cbnz	r0, 8000de2 <HAL_UART_Transmit+0xb6>
    huart->gState = HAL_UART_STATE_READY;
 8000dda:	2320      	movs	r3, #32
 8000ddc:	f884 3041 	strb.w	r3, [r4, #65]	; 0x41
    return HAL_OK;
 8000de0:	e005      	b.n	8000dee <HAL_UART_Transmit+0xc2>
      huart->gState = HAL_UART_STATE_READY;
 8000de2:	2320      	movs	r3, #32
 8000de4:	f884 3041 	strb.w	r3, [r4, #65]	; 0x41
      return HAL_TIMEOUT;
 8000de8:	2003      	movs	r0, #3
 8000dea:	e000      	b.n	8000dee <HAL_UART_Transmit+0xc2>
    return HAL_BUSY;
 8000dec:	2002      	movs	r0, #2
}
 8000dee:	b002      	add	sp, #8
 8000df0:	e8bd 81f0 	ldmia.w	sp!, {r4, r5, r6, r7, r8, pc}
      return  HAL_ERROR;
 8000df4:	2001      	movs	r0, #1
 8000df6:	e7fa      	b.n	8000dee <HAL_UART_Transmit+0xc2>

08000df8 <HAL_UART_TxCpltCallback>:
}
 8000df8:	4770      	bx	lr

08000dfa <UART_EndTransmit_IT>:
{
 8000dfa:	b508      	push	{r3, lr}
  __HAL_UART_DISABLE_IT(huart, UART_IT_TC);
 8000dfc:	6801      	ldr	r1, [r0, #0]
 8000dfe:	68ca      	ldr	r2, [r1, #12]
 8000e00:	f022 0240 	bic.w	r2, r2, #64	; 0x40
 8000e04:	60ca      	str	r2, [r1, #12]
  huart->gState = HAL_UART_STATE_READY;
 8000e06:	2220      	movs	r2, #32
 8000e08:	f880 2041 	strb.w	r2, [r0, #65]	; 0x41
  HAL_UART_TxCpltCallback(huart);
 8000e0c:	f7ff fff4 	bl	8000df8 <HAL_UART_TxCpltCallback>
}
 8000e10:	2000      	movs	r0, #0
 8000e12:	bd08      	pop	{r3, pc}

08000e14 <HAL_UART_RxCpltCallback>:
}
 8000e14:	4770      	bx	lr

08000e16 <HAL_UART_ErrorCallback>:
}
 8000e16:	4770      	bx	lr

08000e18 <UART_DMAAbortOnError>:
{
 8000e18:	b508      	push	{r3, lr}
  UART_HandleTypeDef *huart = (UART_HandleTypeDef *)((DMA_HandleTypeDef *)hdma)->Parent;
 8000e1a:	6b80      	ldr	r0, [r0, #56]	; 0x38
  huart->RxXferCount = 0x00U;
 8000e1c:	2300      	movs	r3, #0
 8000e1e:	85c3      	strh	r3, [r0, #46]	; 0x2e
  huart->TxXferCount = 0x00U;
 8000e20:	84c3      	strh	r3, [r0, #38]	; 0x26
  HAL_UART_ErrorCallback(huart);
 8000e22:	f7ff fff8 	bl	8000e16 <HAL_UART_ErrorCallback>
}
 8000e26:	bd08      	pop	{r3, pc}

08000e28 <HAL_UARTEx_RxEventCallback>:
}
 8000e28:	4770      	bx	lr

08000e2a <UART_Receive_IT>:
  if (huart->RxState == HAL_UART_STATE_BUSY_RX)
 8000e2a:	f890 3042 	ldrb.w	r3, [r0, #66]	; 0x42
 8000e2e:	b2db      	uxtb	r3, r3
 8000e30:	2b22      	cmp	r3, #34	; 0x22
 8000e32:	d169      	bne.n	8000f08 <UART_Receive_IT+0xde>
    if ((huart->Init.WordLength == UART_WORDLENGTH_9B) && (huart->Init.Parity == UART_PARITY_NONE))
 8000e34:	6883      	ldr	r3, [r0, #8]
 8000e36:	f5b3 5f80 	cmp.w	r3, #4096	; 0x1000
 8000e3a:	d04f      	beq.n	8000edc <UART_Receive_IT+0xb2>
      pdata8bits = (uint8_t *) huart->pRxBuffPtr;
 8000e3c:	6a82      	ldr	r2, [r0, #40]	; 0x28
      if ((huart->Init.WordLength == UART_WORDLENGTH_9B) || ((huart->Init.WordLength == UART_WORDLENGTH_8B) && (huart->Init.Parity == UART_PARITY_NONE)))
 8000e3e:	f5b3 5f80 	cmp.w	r3, #4096	; 0x1000
 8000e42:	d004      	beq.n	8000e4e <UART_Receive_IT+0x24>
 8000e44:	2b00      	cmp	r3, #0
 8000e46:	d156      	bne.n	8000ef6 <UART_Receive_IT+0xcc>
 8000e48:	6903      	ldr	r3, [r0, #16]
 8000e4a:	2b00      	cmp	r3, #0
 8000e4c:	d153      	bne.n	8000ef6 <UART_Receive_IT+0xcc>
        *pdata8bits = (uint8_t)(huart->Instance->DR & (uint8_t)0x00FF);
 8000e4e:	6803      	ldr	r3, [r0, #0]
 8000e50:	685b      	ldr	r3, [r3, #4]
 8000e52:	7013      	strb	r3, [r2, #0]
      huart->pRxBuffPtr += 1U;
 8000e54:	6a83      	ldr	r3, [r0, #40]	; 0x28
 8000e56:	3301      	adds	r3, #1
 8000e58:	6283      	str	r3, [r0, #40]	; 0x28
    if (--huart->RxXferCount == 0U)
 8000e5a:	8dc3      	ldrh	r3, [r0, #46]	; 0x2e
 8000e5c:	b29b      	uxth	r3, r3
 8000e5e:	3b01      	subs	r3, #1
 8000e60:	b29b      	uxth	r3, r3
 8000e62:	85c3      	strh	r3, [r0, #46]	; 0x2e
 8000e64:	2b00      	cmp	r3, #0
 8000e66:	d151      	bne.n	8000f0c <UART_Receive_IT+0xe2>
{
 8000e68:	b500      	push	{lr}
 8000e6a:	b083      	sub	sp, #12
      __HAL_UART_DISABLE_IT(huart, UART_IT_RXNE);
 8000e6c:	6802      	ldr	r2, [r0, #0]
 8000e6e:	68d3      	ldr	r3, [r2, #12]
 8000e70:	f023 0320 	bic.w	r3, r3, #32
 8000e74:	60d3      	str	r3, [r2, #12]
      __HAL_UART_DISABLE_IT(huart, UART_IT_PE);
 8000e76:	6802      	ldr	r2, [r0, #0]
 8000e78:	68d3      	ldr	r3, [r2, #12]
 8000e7a:	f423 7380 	bic.w	r3, r3, #256	; 0x100
 8000e7e:	60d3      	str	r3, [r2, #12]
      __HAL_UART_DISABLE_IT(huart, UART_IT_ERR);
 8000e80:	6802      	ldr	r2, [r0, #0]
 8000e82:	6953      	ldr	r3, [r2, #20]
 8000e84:	f023 0301 	bic.w	r3, r3, #1
 8000e88:	6153      	str	r3, [r2, #20]
      huart->RxState = HAL_UART_STATE_READY;
 8000e8a:	2320      	movs	r3, #32
 8000e8c:	f880 3042 	strb.w	r3, [r0, #66]	; 0x42
      huart->RxEventType = HAL_UART_RXEVENT_TC;
 8000e90:	2300      	movs	r3, #0
 8000e92:	6343      	str	r3, [r0, #52]	; 0x34
      if (huart->ReceptionType == HAL_UART_RECEPTION_TOIDLE)
 8000e94:	6b03      	ldr	r3, [r0, #48]	; 0x30
 8000e96:	2b01      	cmp	r3, #1
 8000e98:	d133      	bne.n	8000f02 <UART_Receive_IT+0xd8>
        huart->ReceptionType = HAL_UART_RECEPTION_STANDARD;
 8000e9a:	2300      	movs	r3, #0
 8000e9c:	6303      	str	r3, [r0, #48]	; 0x30
        ATOMIC_CLEAR_BIT(huart->Instance->CR1, USART_CR1_IDLEIE);
 8000e9e:	6802      	ldr	r2, [r0, #0]
   __ASM volatile ("ldrex %0, %1" : "=r" (result) : "Q" (*addr) );
 8000ea0:	f102 030c 	add.w	r3, r2, #12
 8000ea4:	e853 3f00 	ldrex	r3, [r3]
 8000ea8:	f023 0310 	bic.w	r3, r3, #16
   __ASM volatile ("strex %0, %2, %1" : "=&r" (result), "=Q" (*addr) : "r" (value) );
 8000eac:	320c      	adds	r2, #12
 8000eae:	e842 3100 	strex	r1, r3, [r2]
 8000eb2:	2900      	cmp	r1, #0
 8000eb4:	d1f3      	bne.n	8000e9e <UART_Receive_IT+0x74>
        if (__HAL_UART_GET_FLAG(huart, UART_FLAG_IDLE))
 8000eb6:	6803      	ldr	r3, [r0, #0]
 8000eb8:	681a      	ldr	r2, [r3, #0]
 8000eba:	f012 0f10 	tst.w	r2, #16
 8000ebe:	d006      	beq.n	8000ece <UART_Receive_IT+0xa4>
          __HAL_UART_CLEAR_IDLEFLAG(huart);
 8000ec0:	2200      	movs	r2, #0
 8000ec2:	9201      	str	r2, [sp, #4]
 8000ec4:	681a      	ldr	r2, [r3, #0]
 8000ec6:	9201      	str	r2, [sp, #4]
 8000ec8:	685b      	ldr	r3, [r3, #4]
 8000eca:	9301      	str	r3, [sp, #4]
 8000ecc:	9b01      	ldr	r3, [sp, #4]
        HAL_UARTEx_RxEventCallback(huart, huart->RxXferSize);
 8000ece:	8d81      	ldrh	r1, [r0, #44]	; 0x2c
 8000ed0:	f7ff ffaa 	bl	8000e28 <HAL_UARTEx_RxEventCallback>
      return HAL_OK;
 8000ed4:	2000      	movs	r0, #0
}
 8000ed6:	b003      	add	sp, #12
 8000ed8:	f85d fb04 	ldr.w	pc, [sp], #4
    if ((huart->Init.WordLength == UART_WORDLENGTH_9B) && (huart->Init.Parity == UART_PARITY_NONE))
 8000edc:	6902      	ldr	r2, [r0, #16]
 8000ede:	2a00      	cmp	r2, #0
 8000ee0:	d1ac      	bne.n	8000e3c <UART_Receive_IT+0x12>
      pdata16bits = (uint16_t *) huart->pRxBuffPtr;
 8000ee2:	6a82      	ldr	r2, [r0, #40]	; 0x28
      *pdata16bits = (uint16_t)(huart->Instance->DR & (uint16_t)0x01FF);
 8000ee4:	6803      	ldr	r3, [r0, #0]
 8000ee6:	685b      	ldr	r3, [r3, #4]
 8000ee8:	f3c3 0308 	ubfx	r3, r3, #0, #9
 8000eec:	8013      	strh	r3, [r2, #0]
      huart->pRxBuffPtr += 2U;
 8000eee:	6a83      	ldr	r3, [r0, #40]	; 0x28
 8000ef0:	3302      	adds	r3, #2
 8000ef2:	6283      	str	r3, [r0, #40]	; 0x28
 8000ef4:	e7b1      	b.n	8000e5a <UART_Receive_IT+0x30>
        *pdata8bits = (uint8_t)(huart->Instance->DR & (uint8_t)0x007F);
 8000ef6:	6803      	ldr	r3, [r0, #0]
 8000ef8:	685b      	ldr	r3, [r3, #4]
 8000efa:	f003 037f 	and.w	r3, r3, #127	; 0x7f
 8000efe:	7013      	strb	r3, [r2, #0]
 8000f00:	e7a8      	b.n	8000e54 <UART_Receive_IT+0x2a>
        HAL_UART_RxCpltCallback(huart);
 8000f02:	f7ff ff87 	bl	8000e14 <HAL_UART_RxCpltCallback>
 8000f06:	e7e5      	b.n	8000ed4 <UART_Receive_IT+0xaa>
    return HAL_BUSY;
 8000f08:	2002      	movs	r0, #2
 8000f0a:	4770      	bx	lr
    return HAL_OK;
 8000f0c:	2000      	movs	r0, #0
}
 8000f0e:	4770      	bx	lr

08000f10 <HAL_UART_IRQHandler>:
{
 8000f10:	b530      	push	{r4, r5, lr}
 8000f12:	b083      	sub	sp, #12
 8000f14:	4604      	mov	r4, r0
  uint32_t isrflags   = READ_REG(huart->Instance->SR);
 8000f16:	6802      	ldr	r2, [r0, #0]
 8000f18:	6813      	ldr	r3, [r2, #0]
  uint32_t cr1its     = READ_REG(huart->Instance->CR1);
 8000f1a:	68d0      	ldr	r0, [r2, #12]
  uint32_t cr3its     = READ_REG(huart->Instance->CR3);
 8000f1c:	6951      	ldr	r1, [r2, #20]
  if (errorflags == RESET)
 8000f1e:	f013 050f 	ands.w	r5, r3, #15
 8000f22:	d105      	bne.n	8000f30 <HAL_UART_IRQHandler+0x20>
    if (((isrflags & USART_SR_RXNE) != RESET) && ((cr1its & USART_CR1_RXNEIE) != RESET))
 8000f24:	f013 0f20 	tst.w	r3, #32
 8000f28:	d002      	beq.n	8000f30 <HAL_UART_IRQHandler+0x20>
 8000f2a:	f010 0f20 	tst.w	r0, #32
 8000f2e:	d119      	bne.n	8000f64 <HAL_UART_IRQHandler+0x54>
  if ((errorflags != RESET) && (((cr3its & USART_CR3_EIE) != RESET)
 8000f30:	b12d      	cbz	r5, 8000f3e <HAL_UART_IRQHandler+0x2e>
 8000f32:	f011 0101 	ands.w	r1, r1, #1
 8000f36:	d119      	bne.n	8000f6c <HAL_UART_IRQHandler+0x5c>
                                || ((cr1its & (USART_CR1_RXNEIE | USART_CR1_PEIE)) != RESET)))
 8000f38:	f410 7f90 	tst.w	r0, #288	; 0x120
 8000f3c:	d116      	bne.n	8000f6c <HAL_UART_IRQHandler+0x5c>
  if ((huart->ReceptionType == HAL_UART_RECEPTION_TOIDLE)
 8000f3e:	6b21      	ldr	r1, [r4, #48]	; 0x30
 8000f40:	2901      	cmp	r1, #1
 8000f42:	d07d      	beq.n	8001040 <HAL_UART_IRQHandler+0x130>
  if (((isrflags & USART_SR_TXE) != RESET) && ((cr1its & USART_CR1_TXEIE) != RESET))
 8000f44:	f013 0f80 	tst.w	r3, #128	; 0x80
 8000f48:	d003      	beq.n	8000f52 <HAL_UART_IRQHandler+0x42>
 8000f4a:	f010 0f80 	tst.w	r0, #128	; 0x80
 8000f4e:	f040 8119 	bne.w	8001184 <HAL_UART_IRQHandler+0x274>
  if (((isrflags & USART_SR_TC) != RESET) && ((cr1its & USART_CR1_TCIE) != RESET))
 8000f52:	f013 0f40 	tst.w	r3, #64	; 0x40
 8000f56:	d003      	beq.n	8000f60 <HAL_UART_IRQHandler+0x50>
 8000f58:	f010 0f40 	tst.w	r0, #64	; 0x40
 8000f5c:	f040 8116 	bne.w	800118c <HAL_UART_IRQHandler+0x27c>
}
 8000f60:	b003      	add	sp, #12
 8000f62:	bd30      	pop	{r4, r5, pc}
      UART_Receive_IT(huart);
 8000f64:	4620      	mov	r0, r4
 8000f66:	f7ff ff60 	bl	8000e2a <UART_Receive_IT>
      return;
 8000f6a:	e7f9      	b.n	8000f60 <HAL_UART_IRQHandler+0x50>
    if (((isrflags & USART_SR_PE) != RESET) && ((cr1its & USART_CR1_PEIE) != RESET))
 8000f6c:	f013 0f01 	tst.w	r3, #1
 8000f70:	d006      	beq.n	8000f80 <HAL_UART_IRQHandler+0x70>
 8000f72:	f410 7f80 	tst.w	r0, #256	; 0x100
 8000f76:	d003      	beq.n	8000f80 <HAL_UART_IRQHandler+0x70>
      huart->ErrorCode |= HAL_UART_ERROR_PE;
 8000f78:	6c62      	ldr	r2, [r4, #68]	; 0x44
 8000f7a:	f042 0201 	orr.w	r2, r2, #1
 8000f7e:	6462      	str	r2, [r4, #68]	; 0x44
    if (((isrflags & USART_SR_NE) != RESET) && ((cr3its & USART_CR3_EIE) != RESET))
 8000f80:	f013 0f04 	tst.w	r3, #4
 8000f84:	d004      	beq.n	8000f90 <HAL_UART_IRQHandler+0x80>
 8000f86:	b119      	cbz	r1, 8000f90 <HAL_UART_IRQHandler+0x80>
      huart->ErrorCode |= HAL_UART_ERROR_NE;
 8000f88:	6c62      	ldr	r2, [r4, #68]	; 0x44
 8000f8a:	f042 0202 	orr.w	r2, r2, #2
 8000f8e:	6462      	str	r2, [r4, #68]	; 0x44
    if (((isrflags & USART_SR_FE) != RESET) && ((cr3its & USART_CR3_EIE) != RESET))
 8000f90:	f013 0f02 	tst.w	r3, #2
 8000f94:	d004      	beq.n	8000fa0 <HAL_UART_IRQHandler+0x90>
 8000f96:	b119      	cbz	r1, 8000fa0 <HAL_UART_IRQHandler+0x90>
      huart->ErrorCode |= HAL_UART_ERROR_FE;
 8000f98:	6c62      	ldr	r2, [r4, #68]	; 0x44
 8000f9a:	f042 0204 	orr.w	r2, r2, #4
 8000f9e:	6462      	str	r2, [r4, #68]	; 0x44
    if (((isrflags & USART_SR_ORE) != RESET) && (((cr1its & USART_CR1_RXNEIE) != RESET)
 8000fa0:	f013 0f08 	tst.w	r3, #8
 8000fa4:	d007      	beq.n	8000fb6 <HAL_UART_IRQHandler+0xa6>
 8000fa6:	f010 0f20 	tst.w	r0, #32
 8000faa:	d100      	bne.n	8000fae <HAL_UART_IRQHandler+0x9e>
                                                 || ((cr3its & USART_CR3_EIE) != RESET)))
 8000fac:	b119      	cbz	r1, 8000fb6 <HAL_UART_IRQHandler+0xa6>
      huart->ErrorCode |= HAL_UART_ERROR_ORE;
 8000fae:	6c62      	ldr	r2, [r4, #68]	; 0x44
 8000fb0:	f042 0208 	orr.w	r2, r2, #8
 8000fb4:	6462      	str	r2, [r4, #68]	; 0x44
    if (huart->ErrorCode != HAL_UART_ERROR_NONE)
 8000fb6:	6c62      	ldr	r2, [r4, #68]	; 0x44
 8000fb8:	2a00      	cmp	r2, #0
 8000fba:	d0d1      	beq.n	8000f60 <HAL_UART_IRQHandler+0x50>
      if (((isrflags & USART_SR_RXNE) != RESET) && ((cr1its & USART_CR1_RXNEIE) != RESET))
 8000fbc:	f013 0f20 	tst.w	r3, #32
 8000fc0:	d002      	beq.n	8000fc8 <HAL_UART_IRQHandler+0xb8>
 8000fc2:	f010 0f20 	tst.w	r0, #32
 8000fc6:	d129      	bne.n	800101c <HAL_UART_IRQHandler+0x10c>
      dmarequest = HAL_IS_BIT_SET(huart->Instance->CR3, USART_CR3_DMAR);
 8000fc8:	6823      	ldr	r3, [r4, #0]
 8000fca:	695b      	ldr	r3, [r3, #20]
 8000fcc:	f003 0340 	and.w	r3, r3, #64	; 0x40
      if (((huart->ErrorCode & HAL_UART_ERROR_ORE) != RESET) || dmarequest)
 8000fd0:	6c62      	ldr	r2, [r4, #68]	; 0x44
 8000fd2:	f012 0f08 	tst.w	r2, #8
 8000fd6:	d100      	bne.n	8000fda <HAL_UART_IRQHandler+0xca>
 8000fd8:	b363      	cbz	r3, 8001034 <HAL_UART_IRQHandler+0x124>
        UART_EndRxTransfer(huart);
 8000fda:	4620      	mov	r0, r4
 8000fdc:	f7ff fcb2 	bl	8000944 <UART_EndRxTransfer>
        if (HAL_IS_BIT_SET(huart->Instance->CR3, USART_CR3_DMAR))
 8000fe0:	6823      	ldr	r3, [r4, #0]
 8000fe2:	695b      	ldr	r3, [r3, #20]
 8000fe4:	f013 0f40 	tst.w	r3, #64	; 0x40
 8000fe8:	d020      	beq.n	800102c <HAL_UART_IRQHandler+0x11c>
          ATOMIC_CLEAR_BIT(huart->Instance->CR3, USART_CR3_DMAR);
 8000fea:	6822      	ldr	r2, [r4, #0]
   __ASM volatile ("ldrex %0, %1" : "=r" (result) : "Q" (*addr) );
 8000fec:	f102 0314 	add.w	r3, r2, #20
 8000ff0:	e853 3f00 	ldrex	r3, [r3]
 8000ff4:	f023 0340 	bic.w	r3, r3, #64	; 0x40
   __ASM volatile ("strex %0, %2, %1" : "=&r" (result), "=Q" (*addr) : "r" (value) );
 8000ff8:	3214      	adds	r2, #20
 8000ffa:	e842 3100 	strex	r1, r3, [r2]
 8000ffe:	2900      	cmp	r1, #0
 8001000:	d1f3      	bne.n	8000fea <HAL_UART_IRQHandler+0xda>
          if (huart->hdmarx != NULL)
 8001002:	6be3      	ldr	r3, [r4, #60]	; 0x3c
 8001004:	b173      	cbz	r3, 8001024 <HAL_UART_IRQHandler+0x114>
            huart->hdmarx->XferAbortCallback = UART_DMAAbortOnError;
 8001006:	4a63      	ldr	r2, [pc, #396]	; (8001194 <HAL_UART_IRQHandler+0x284>)
 8001008:	651a      	str	r2, [r3, #80]	; 0x50
            if (HAL_DMA_Abort_IT(huart->hdmarx) != HAL_OK)
 800100a:	6be0      	ldr	r0, [r4, #60]	; 0x3c
 800100c:	f000 faa8 	bl	8001560 <HAL_DMA_Abort_IT>
 8001010:	2800      	cmp	r0, #0
 8001012:	d0a5      	beq.n	8000f60 <HAL_UART_IRQHandler+0x50>
              huart->hdmarx->XferAbortCallback(huart->hdmarx);
 8001014:	6be0      	ldr	r0, [r4, #60]	; 0x3c
 8001016:	6d03      	ldr	r3, [r0, #80]	; 0x50
 8001018:	4798      	blx	r3
 800101a:	e7a1      	b.n	8000f60 <HAL_UART_IRQHandler+0x50>
        UART_Receive_IT(huart);
 800101c:	4620      	mov	r0, r4
 800101e:	f7ff ff04 	bl	8000e2a <UART_Receive_IT>
 8001022:	e7d1      	b.n	8000fc8 <HAL_UART_IRQHandler+0xb8>
            HAL_UART_ErrorCallback(huart);
 8001024:	4620      	mov	r0, r4
 8001026:	f7ff fef6 	bl	8000e16 <HAL_UART_ErrorCallback>
 800102a:	e799      	b.n	8000f60 <HAL_UART_IRQHandler+0x50>
          HAL_UART_ErrorCallback(huart);
 800102c:	4620      	mov	r0, r4
 800102e:	f7ff fef2 	bl	8000e16 <HAL_UART_ErrorCallback>
 8001032:	e795      	b.n	8000f60 <HAL_UART_IRQHandler+0x50>
        HAL_UART_ErrorCallback(huart);
 8001034:	4620      	mov	r0, r4
 8001036:	f7ff feee 	bl	8000e16 <HAL_UART_ErrorCallback>
        huart->ErrorCode = HAL_UART_ERROR_NONE;
 800103a:	2300      	movs	r3, #0
 800103c:	6463      	str	r3, [r4, #68]	; 0x44
    return;
 800103e:	e78f      	b.n	8000f60 <HAL_UART_IRQHandler+0x50>
      && ((isrflags & USART_SR_IDLE) != 0U)
 8001040:	f013 0f10 	tst.w	r3, #16
 8001044:	f43f af7e 	beq.w	8000f44 <HAL_UART_IRQHandler+0x34>
      && ((cr1its & USART_SR_IDLE) != 0U))
 8001048:	f010 0f10 	tst.w	r0, #16
 800104c:	f43f af7a 	beq.w	8000f44 <HAL_UART_IRQHandler+0x34>
    __HAL_UART_CLEAR_IDLEFLAG(huart);
 8001050:	2300      	movs	r3, #0
 8001052:	9301      	str	r3, [sp, #4]
 8001054:	6813      	ldr	r3, [r2, #0]
 8001056:	9301      	str	r3, [sp, #4]
 8001058:	6853      	ldr	r3, [r2, #4]
 800105a:	9301      	str	r3, [sp, #4]
 800105c:	9b01      	ldr	r3, [sp, #4]
    if (HAL_IS_BIT_SET(huart->Instance->CR3, USART_CR3_DMAR))
 800105e:	6953      	ldr	r3, [r2, #20]
 8001060:	f013 0f40 	tst.w	r3, #64	; 0x40
 8001064:	d052      	beq.n	800110c <HAL_UART_IRQHandler+0x1fc>
      uint16_t nb_remaining_rx_data = (uint16_t) __HAL_DMA_GET_COUNTER(huart->hdmarx);
 8001066:	6be2      	ldr	r2, [r4, #60]	; 0x3c
 8001068:	6813      	ldr	r3, [r2, #0]
 800106a:	685b      	ldr	r3, [r3, #4]
 800106c:	b29b      	uxth	r3, r3
      if ((nb_remaining_rx_data > 0U)
 800106e:	2b00      	cmp	r3, #0
 8001070:	f43f af76 	beq.w	8000f60 <HAL_UART_IRQHandler+0x50>
          && (nb_remaining_rx_data < huart->RxXferSize))
 8001074:	8da1      	ldrh	r1, [r4, #44]	; 0x2c
 8001076:	4299      	cmp	r1, r3
 8001078:	f67f af72 	bls.w	8000f60 <HAL_UART_IRQHandler+0x50>
        huart->RxXferCount = nb_remaining_rx_data;
 800107c:	85e3      	strh	r3, [r4, #46]	; 0x2e
        if (huart->hdmarx->Init.Mode != DMA_CIRCULAR)
 800107e:	69d3      	ldr	r3, [r2, #28]
 8001080:	f5b3 7f80 	cmp.w	r3, #256	; 0x100
 8001084:	d037      	beq.n	80010f6 <HAL_UART_IRQHandler+0x1e6>
          ATOMIC_CLEAR_BIT(huart->Instance->CR1, USART_CR1_PEIE);
 8001086:	6822      	ldr	r2, [r4, #0]
   __ASM volatile ("ldrex %0, %1" : "=r" (result) : "Q" (*addr) );
 8001088:	f102 030c 	add.w	r3, r2, #12
 800108c:	e853 3f00 	ldrex	r3, [r3]
 8001090:	f423 7380 	bic.w	r3, r3, #256	; 0x100
   __ASM volatile ("strex %0, %2, %1" : "=&r" (result), "=Q" (*addr) : "r" (value) );
 8001094:	320c      	adds	r2, #12
 8001096:	e842 3100 	strex	r1, r3, [r2]
 800109a:	2900      	cmp	r1, #0
 800109c:	d1f3      	bne.n	8001086 <HAL_UART_IRQHandler+0x176>
          ATOMIC_CLEAR_BIT(huart->Instance->CR3, USART_CR3_EIE);
 800109e:	6822      	ldr	r2, [r4, #0]
   __ASM volatile ("ldrex %0, %1" : "=r" (result) : "Q" (*addr) );
 80010a0:	f102 0314 	add.w	r3, r2, #20
 80010a4:	e853 3f00 	ldrex	r3, [r3]
 80010a8:	f023 0301 	bic.w	r3, r3, #1
   __ASM volatile ("strex %0, %2, %1" : "=&r" (result), "=Q" (*addr) : "r" (value) );
 80010ac:	3214      	adds	r2, #20
 80010ae:	e842 3100 	strex	r1, r3, [r2]
 80010b2:	2900      	cmp	r1, #0
 80010b4:	d1f3      	bne.n	800109e <HAL_UART_IRQHandler+0x18e>
          ATOMIC_CLEAR_BIT(huart->Instance->CR3, USART_CR3_DMAR);
 80010b6:	6822      	ldr	r2, [r4, #0]
   __ASM volatile ("ldrex %0, %1" : "=r" (result) : "Q" (*addr) );
 80010b8:	f102 0314 	add.w	r3, r2, #20
 80010bc:	e853 3f00 	ldrex	r3, [r3]
 80010c0:	f023 0340 	bic.w	r3, r3, #64	; 0x40
   __ASM volatile ("strex %0, %2, %1" : "=&r" (result), "=Q" (*addr) : "r" (value) );
 80010c4:	3214      	adds	r2, #20
 80010c6:	e842 3100 	strex	r1, r3, [r2]
 80010ca:	2900      	cmp	r1, #0
 80010cc:	d1f3      	bne.n	80010b6 <HAL_UART_IRQHandler+0x1a6>
          huart->RxState = HAL_UART_STATE_READY;
 80010ce:	2320      	movs	r3, #32
 80010d0:	f884 3042 	strb.w	r3, [r4, #66]	; 0x42
          huart->ReceptionType = HAL_UART_RECEPTION_STANDARD;
 80010d4:	2300      	movs	r3, #0
 80010d6:	6323      	str	r3, [r4, #48]	; 0x30
          ATOMIC_CLEAR_BIT(huart->Instance->CR1, USART_CR1_IDLEIE);
 80010d8:	6822      	ldr	r2, [r4, #0]
   __ASM volatile ("ldrex %0, %1" : "=r" (result) : "Q" (*addr) );
 80010da:	f102 030c 	add.w	r3, r2, #12
 80010de:	e853 3f00 	ldrex	r3, [r3]
 80010e2:	f023 0310 	bic.w	r3, r3, #16
   __ASM volatile ("strex %0, %2, %1" : "=&r" (result), "=Q" (*addr) : "r" (value) );
 80010e6:	320c      	adds	r2, #12
 80010e8:	e842 3100 	strex	r1, r3, [r2]
 80010ec:	2900      	cmp	r1, #0
 80010ee:	d1f3      	bne.n	80010d8 <HAL_UART_IRQHandler+0x1c8>
          (void)HAL_DMA_Abort(huart->hdmarx);
 80010f0:	6be0      	ldr	r0, [r4, #60]	; 0x3c
 80010f2:	f000 f9eb 	bl	80014cc <HAL_DMA_Abort>
        huart->RxEventType = HAL_UART_RXEVENT_IDLE;
 80010f6:	2302      	movs	r3, #2
 80010f8:	6363      	str	r3, [r4, #52]	; 0x34
        HAL_UARTEx_RxEventCallback(huart, (huart->RxXferSize - huart->RxXferCount));
 80010fa:	8da1      	ldrh	r1, [r4, #44]	; 0x2c
 80010fc:	8de3      	ldrh	r3, [r4, #46]	; 0x2e
 80010fe:	b29b      	uxth	r3, r3
 8001100:	1ac9      	subs	r1, r1, r3
 8001102:	b289      	uxth	r1, r1
 8001104:	4620      	mov	r0, r4
 8001106:	f7ff fe8f 	bl	8000e28 <HAL_UARTEx_RxEventCallback>
      return;
 800110a:	e729      	b.n	8000f60 <HAL_UART_IRQHandler+0x50>
      uint16_t nb_rx_data = huart->RxXferSize - huart->RxXferCount;
 800110c:	8da1      	ldrh	r1, [r4, #44]	; 0x2c
 800110e:	8de3      	ldrh	r3, [r4, #46]	; 0x2e
 8001110:	b29b      	uxth	r3, r3
 8001112:	1ac9      	subs	r1, r1, r3
 8001114:	b289      	uxth	r1, r1
      if ((huart->RxXferCount > 0U)
 8001116:	8de3      	ldrh	r3, [r4, #46]	; 0x2e
 8001118:	b29b      	uxth	r3, r3
 800111a:	2b00      	cmp	r3, #0
 800111c:	f43f af20 	beq.w	8000f60 <HAL_UART_IRQHandler+0x50>
          && (nb_rx_data > 0U))
 8001120:	2900      	cmp	r1, #0
 8001122:	f43f af1d 	beq.w	8000f60 <HAL_UART_IRQHandler+0x50>
        ATOMIC_CLEAR_BIT(huart->Instance->CR1, (USART_CR1_RXNEIE | USART_CR1_PEIE));
 8001126:	6822      	ldr	r2, [r4, #0]
   __ASM volatile ("ldrex %0, %1" : "=r" (result) : "Q" (*addr) );
 8001128:	f102 030c 	add.w	r3, r2, #12
 800112c:	e853 3f00 	ldrex	r3, [r3]
 8001130:	f423 7390 	bic.w	r3, r3, #288	; 0x120
   __ASM volatile ("strex %0, %2, %1" : "=&r" (result), "=Q" (*addr) : "r" (value) );
 8001134:	320c      	adds	r2, #12
 8001136:	e842 3000 	strex	r0, r3, [r2]
 800113a:	2800      	cmp	r0, #0
 800113c:	d1f3      	bne.n	8001126 <HAL_UART_IRQHandler+0x216>
        ATOMIC_CLEAR_BIT(huart->Instance->CR3, USART_CR3_EIE);
 800113e:	6822      	ldr	r2, [r4, #0]
   __ASM volatile ("ldrex %0, %1" : "=r" (result) : "Q" (*addr) );
 8001140:	f102 0314 	add.w	r3, r2, #20
 8001144:	e853 3f00 	ldrex	r3, [r3]
 8001148:	f023 0301 	bic.w	r3, r3, #1
   __ASM volatile ("strex %0, %2, %1" : "=&r" (result), "=Q" (*addr) : "r" (value) );
 800114c:	3214      	adds	r2, #20
 800114e:	e842 3000 	strex	r0, r3, [r2]
 8001152:	2800      	cmp	r0, #0
 8001154:	d1f3      	bne.n	800113e <HAL_UART_IRQHandler+0x22e>
        huart->RxState = HAL_UART_STATE_READY;
 8001156:	2320      	movs	r3, #32
 8001158:	f884 3042 	strb.w	r3, [r4, #66]	; 0x42
        huart->ReceptionType = HAL_UART_RECEPTION_STANDARD;
 800115c:	2300      	movs	r3, #0
 800115e:	6323      	str	r3, [r4, #48]	; 0x30
        ATOMIC_CLEAR_BIT(huart->Instance->CR1, USART_CR1_IDLEIE);
 8001160:	6822      	ldr	r2, [r4, #0]
   __ASM volatile ("ldrex %0, %1" : "=r" (result) : "Q" (*addr) );
 8001162:	f102 030c 	add.w	r3, r2, #12
 8001166:	e853 3f00 	ldrex	r3, [r3]
 800116a:	f023 0310 	bic.w	r3, r3, #16
   __ASM volatile ("strex %0, %2, %1" : "=&r" (result), "=Q" (*addr) : "r" (value) );
 800116e:	320c      	adds	r2, #12
 8001170:	e842 3000 	strex	r0, r3, [r2]
 8001174:	2800      	cmp	r0, #0
 8001176:	d1f3      	bne.n	8001160 <HAL_UART_IRQHandler+0x250>
        huart->RxEventType = HAL_UART_RXEVENT_IDLE;
 8001178:	2302      	movs	r3, #2
 800117a:	6363      	str	r3, [r4, #52]	; 0x34
        HAL_UARTEx_RxEventCallback(huart, nb_rx_data);
 800117c:	4620      	mov	r0, r4
 800117e:	f7ff fe53 	bl	8000e28 <HAL_UARTEx_RxEventCallback>
      return;
 8001182:	e6ed      	b.n	8000f60 <HAL_UART_IRQHandler+0x50>
    UART_Transmit_IT(huart);
 8001184:	4620      	mov	r0, r4
 8001186:	f7ff fc0b 	bl	80009a0 <UART_Transmit_IT>
    return;
 800118a:	e6e9      	b.n	8000f60 <HAL_UART_IRQHandler+0x50>
    UART_EndTransmit_IT(huart);
 800118c:	4620      	mov	r0, r4
 800118e:	f7ff fe34 	bl	8000dfa <UART_EndTransmit_IT>
    return;
 8001192:	e6e5      	b.n	8000f60 <HAL_UART_IRQHandler+0x50>
 8001194:	08000e19 	stmdaeq	r0, {r0, r3, r4, r9, sl, fp}

08001198 <HAL_RCC_GetHCLKFreq>:
  * @retval HCLK frequency
  */
uint32_t HAL_RCC_GetHCLKFreq(void)
{
  return SystemCoreClock;
}
 8001198:	4b01      	ldr	r3, [pc, #4]	; (80011a0 <HAL_RCC_GetHCLKFreq+0x8>)
 800119a:	6818      	ldr	r0, [r3, #0]
 800119c:	4770      	bx	lr
 800119e:	bf00      	nop
 80011a0:	20000008 	andcs	r0, r0, r8

080011a4 <HAL_RCC_GetPCLK1Freq>:
  * @note   Each time PCLK1 changes, this function must be called to update the
  *         right PCLK1 value. Otherwise, any configuration based on this function will be incorrect.
  * @retval PCLK1 frequency
  */
uint32_t HAL_RCC_GetPCLK1Freq(void)
{
 80011a4:	b508      	push	{r3, lr}
  /* Get HCLK source and Compute PCLK1 frequency ---------------------------*/
  return (HAL_RCC_GetHCLKFreq() >> APBPrescTable[(RCC->CFGR & RCC_CFGR_PPRE1)>> RCC_CFGR_PPRE1_Pos]);
 80011a6:	f7ff fff7 	bl	8001198 <HAL_RCC_GetHCLKFreq>
 80011aa:	4b04      	ldr	r3, [pc, #16]	; (80011bc <HAL_RCC_GetPCLK1Freq+0x18>)
 80011ac:	689b      	ldr	r3, [r3, #8]
 80011ae:	f3c3 2382 	ubfx	r3, r3, #10, #3
 80011b2:	4a03      	ldr	r2, [pc, #12]	; (80011c0 <HAL_RCC_GetPCLK1Freq+0x1c>)
 80011b4:	5cd3      	ldrb	r3, [r2, r3]
}
 80011b6:	40d8      	lsrs	r0, r3
 80011b8:	bd08      	pop	{r3, pc}
 80011ba:	bf00      	nop
 80011bc:	40023800 	andmi	r3, r2, r0, lsl #16
 80011c0:	08004700 	stmdaeq	r0, {r8, r9, sl, lr}

080011c4 <HAL_RCC_GetPCLK2Freq>:
  * @note   Each time PCLK2 changes, this function must be called to update the
  *         right PCLK2 value. Otherwise, any configuration based on this function will be incorrect.
  * @retval PCLK2 frequency
  */
uint32_t HAL_RCC_GetPCLK2Freq(void)
{
 80011c4:	b508      	push	{r3, lr}
  /* Get HCLK source and Compute PCLK2 frequency ---------------------------*/
  return (HAL_RCC_GetHCLKFreq()>> APBPrescTable[(RCC->CFGR & RCC_CFGR_PPRE2)>> RCC_CFGR_PPRE2_Pos]);
 80011c6:	f7ff ffe7 	bl	8001198 <HAL_RCC_GetHCLKFreq>
 80011ca:	4b04      	ldr	r3, [pc, #16]	; (80011dc <HAL_RCC_GetPCLK2Freq+0x18>)
 80011cc:	689b      	ldr	r3, [r3, #8]
 80011ce:	f3c3 3342 	ubfx	r3, r3, #13, #3
 80011d2:	4a03      	ldr	r2, [pc, #12]	; (80011e0 <HAL_RCC_GetPCLK2Freq+0x1c>)
 80011d4:	5cd3      	ldrb	r3, [r2, r3]
}
 80011d6:	40d8      	lsrs	r0, r3
 80011d8:	bd08      	pop	{r3, pc}
 80011da:	bf00      	nop
 80011dc:	40023800 	andmi	r3, r2, r0, lsl #16
 80011e0:	08004700 	stmdaeq	r0, {r8, r9, sl, lr}

080011e4 <HAL_GPIO_Init>:
  * @param  GPIO_Init pointer to a GPIO_InitTypeDef structure that contains
  *         the configuration information for the specified GPIO peripheral.
  * @retval None
  */
void HAL_GPIO_Init(GPIO_TypeDef  *GPIOx, GPIO_InitTypeDef *GPIO_Init)
{
 80011e4:	e92d 41f0 	stmdb	sp!, {r4, r5, r6, r7, r8, lr}
 80011e8:	b082      	sub	sp, #8
 80011ea:	4607      	mov	r7, r0
 80011ec:	460e      	mov	r6, r1
  uint32_t ioposition = 0x00U;
  uint32_t iocurrent = 0x00U;
  uint32_t temp = 0x00U;

  /* Check the parameters */
  assert_param(IS_GPIO_ALL_INSTANCE(GPIOx));
 80011ee:	4b54      	ldr	r3, [pc, #336]	; (8001340 <HAL_GPIO_Init+0x15c>)
 80011f0:	4298      	cmp	r0, r3
 80011f2:	d023      	beq.n	800123c <HAL_GPIO_Init+0x58>
 80011f4:	f503 6380 	add.w	r3, r3, #1024	; 0x400
 80011f8:	4298      	cmp	r0, r3
 80011fa:	d01f      	beq.n	800123c <HAL_GPIO_Init+0x58>
 80011fc:	f503 6380 	add.w	r3, r3, #1024	; 0x400
 8001200:	4298      	cmp	r0, r3
 8001202:	d01b      	beq.n	800123c <HAL_GPIO_Init+0x58>
 8001204:	f503 6380 	add.w	r3, r3, #1024	; 0x400
 8001208:	4298      	cmp	r0, r3
 800120a:	d017      	beq.n	800123c <HAL_GPIO_Init+0x58>
 800120c:	f503 6380 	add.w	r3, r3, #1024	; 0x400
 8001210:	4298      	cmp	r0, r3
 8001212:	d013      	beq.n	800123c <HAL_GPIO_Init+0x58>
 8001214:	f503 6380 	add.w	r3, r3, #1024	; 0x400
 8001218:	4298      	cmp	r0, r3
 800121a:	d00f      	beq.n	800123c <HAL_GPIO_Init+0x58>
 800121c:	f503 6380 	add.w	r3, r3, #1024	; 0x400
 8001220:	4298      	cmp	r0, r3
 8001222:	d00b      	beq.n	800123c <HAL_GPIO_Init+0x58>
 8001224:	f503 6380 	add.w	r3, r3, #1024	; 0x400
 8001228:	4298      	cmp	r0, r3
 800122a:	d007      	beq.n	800123c <HAL_GPIO_Init+0x58>
 800122c:	f503 6380 	add.w	r3, r3, #1024	; 0x400
 8001230:	4298      	cmp	r0, r3
 8001232:	d003      	beq.n	800123c <HAL_GPIO_Init+0x58>
 8001234:	21ac      	movs	r1, #172	; 0xac
 8001236:	4843      	ldr	r0, [pc, #268]	; (8001344 <HAL_GPIO_Init+0x160>)
 8001238:	f7ff fadc 	bl	80007f4 <assert_failed>
  assert_param(IS_GPIO_PIN(GPIO_Init->Pin));
 800123c:	6833      	ldr	r3, [r6, #0]
 800123e:	b29a      	uxth	r2, r3
 8001240:	b112      	cbz	r2, 8001248 <HAL_GPIO_Init+0x64>
 8001242:	0c1b      	lsrs	r3, r3, #16
 8001244:	041b      	lsls	r3, r3, #16
 8001246:	b11b      	cbz	r3, 8001250 <HAL_GPIO_Init+0x6c>
 8001248:	21ad      	movs	r1, #173	; 0xad
 800124a:	483e      	ldr	r0, [pc, #248]	; (8001344 <HAL_GPIO_Init+0x160>)
 800124c:	f7ff fad2 	bl	80007f4 <assert_failed>
  assert_param(IS_GPIO_MODE(GPIO_Init->Mode));
 8001250:	6873      	ldr	r3, [r6, #4]
 8001252:	2b01      	cmp	r3, #1
 8001254:	d919      	bls.n	800128a <HAL_GPIO_Init+0xa6>
 8001256:	2b11      	cmp	r3, #17
 8001258:	d017      	beq.n	800128a <HAL_GPIO_Init+0xa6>
 800125a:	2b02      	cmp	r3, #2
 800125c:	d015      	beq.n	800128a <HAL_GPIO_Init+0xa6>
 800125e:	2b12      	cmp	r3, #18
 8001260:	d013      	beq.n	800128a <HAL_GPIO_Init+0xa6>
 8001262:	f5b3 1f88 	cmp.w	r3, #1114112	; 0x110000
 8001266:	d010      	beq.n	800128a <HAL_GPIO_Init+0xa6>
 8001268:	f5b3 1f04 	cmp.w	r3, #2162688	; 0x210000
 800126c:	d00d      	beq.n	800128a <HAL_GPIO_Init+0xa6>
 800126e:	f5b3 1f44 	cmp.w	r3, #3211264	; 0x310000
 8001272:	d00a      	beq.n	800128a <HAL_GPIO_Init+0xa6>
 8001274:	f5b3 1f90 	cmp.w	r3, #1179648	; 0x120000
 8001278:	d007      	beq.n	800128a <HAL_GPIO_Init+0xa6>
 800127a:	f5b3 1f08 	cmp.w	r3, #2228224	; 0x220000
 800127e:	d004      	beq.n	800128a <HAL_GPIO_Init+0xa6>
 8001280:	f5b3 1f48 	cmp.w	r3, #3276800	; 0x320000
 8001284:	d001      	beq.n	800128a <HAL_GPIO_Init+0xa6>
 8001286:	2b03      	cmp	r3, #3
 8001288:	d101      	bne.n	800128e <HAL_GPIO_Init+0xaa>
        /* Enable SYSCFG Clock */
        __HAL_RCC_SYSCFG_CLK_ENABLE();

        temp = SYSCFG->EXTICR[position >> 2U];
        temp &= ~(0x0FU << (4U * (position & 0x03U)));
        temp |= ((uint32_t)(GPIO_GET_INDEX(GPIOx)) << (4U * (position & 0x03U)));
 800128a:	2400      	movs	r4, #0
 800128c:	e092      	b.n	80013b4 <HAL_GPIO_Init+0x1d0>
  assert_param(IS_GPIO_MODE(GPIO_Init->Mode));
 800128e:	21ae      	movs	r1, #174	; 0xae
 8001290:	482c      	ldr	r0, [pc, #176]	; (8001344 <HAL_GPIO_Init+0x160>)
 8001292:	f7ff faaf 	bl	80007f4 <assert_failed>
 8001296:	e7f8      	b.n	800128a <HAL_GPIO_Init+0xa6>
        assert_param(IS_GPIO_SPEED(GPIO_Init->Speed));
 8001298:	68f3      	ldr	r3, [r6, #12]
 800129a:	2b03      	cmp	r3, #3
 800129c:	d813      	bhi.n	80012c6 <HAL_GPIO_Init+0xe2>
        temp = GPIOx->OSPEEDR; 
 800129e:	68ba      	ldr	r2, [r7, #8]
        temp &= ~(GPIO_OSPEEDER_OSPEEDR0 << (position * 2U));
 80012a0:	0061      	lsls	r1, r4, #1
 80012a2:	2303      	movs	r3, #3
 80012a4:	408b      	lsls	r3, r1
 80012a6:	ea22 0203 	bic.w	r2, r2, r3
        temp |= (GPIO_Init->Speed << (position * 2U));
 80012aa:	68f3      	ldr	r3, [r6, #12]
 80012ac:	408b      	lsls	r3, r1
 80012ae:	4313      	orrs	r3, r2
        GPIOx->OSPEEDR = temp;
 80012b0:	60bb      	str	r3, [r7, #8]
        temp = GPIOx->OTYPER;
 80012b2:	687a      	ldr	r2, [r7, #4]
        temp &= ~(GPIO_OTYPER_OT_0 << position) ;
 80012b4:	ea22 0205 	bic.w	r2, r2, r5
        temp |= (((GPIO_Init->Mode & OUTPUT_TYPE) >> OUTPUT_TYPE_Pos) << position);
 80012b8:	6873      	ldr	r3, [r6, #4]
 80012ba:	f3c3 1500 	ubfx	r5, r3, #4, #1
 80012be:	40a5      	lsls	r5, r4
 80012c0:	4315      	orrs	r5, r2
        GPIOx->OTYPER = temp;
 80012c2:	607d      	str	r5, [r7, #4]
 80012c4:	e087      	b.n	80013d6 <HAL_GPIO_Init+0x1f2>
        assert_param(IS_GPIO_SPEED(GPIO_Init->Speed));
 80012c6:	21c0      	movs	r1, #192	; 0xc0
 80012c8:	481e      	ldr	r0, [pc, #120]	; (8001344 <HAL_GPIO_Init+0x160>)
 80012ca:	f7ff fa93 	bl	80007f4 <assert_failed>
 80012ce:	e7e6      	b.n	800129e <HAL_GPIO_Init+0xba>
        assert_param(IS_GPIO_PULL(GPIO_Init->Pull));
 80012d0:	21d1      	movs	r1, #209	; 0xd1
 80012d2:	481c      	ldr	r0, [pc, #112]	; (8001344 <HAL_GPIO_Init+0x160>)
 80012d4:	f7ff fa8e 	bl	80007f4 <assert_failed>
 80012d8:	e086      	b.n	80013e8 <HAL_GPIO_Init+0x204>
        assert_param(IS_GPIO_AF(GPIO_Init->Alternate));
 80012da:	6933      	ldr	r3, [r6, #16]
 80012dc:	b1bb      	cbz	r3, 800130e <HAL_GPIO_Init+0x12a>
 80012de:	2b09      	cmp	r3, #9
 80012e0:	d015      	beq.n	800130e <HAL_GPIO_Init+0x12a>
 80012e2:	2b01      	cmp	r3, #1
 80012e4:	d013      	beq.n	800130e <HAL_GPIO_Init+0x12a>
 80012e6:	2b02      	cmp	r3, #2
 80012e8:	d011      	beq.n	800130e <HAL_GPIO_Init+0x12a>
 80012ea:	2b03      	cmp	r3, #3
 80012ec:	d00f      	beq.n	800130e <HAL_GPIO_Init+0x12a>
 80012ee:	2b04      	cmp	r3, #4
 80012f0:	d00d      	beq.n	800130e <HAL_GPIO_Init+0x12a>
 80012f2:	2b05      	cmp	r3, #5
 80012f4:	d00b      	beq.n	800130e <HAL_GPIO_Init+0x12a>
 80012f6:	2b06      	cmp	r3, #6
 80012f8:	d009      	beq.n	800130e <HAL_GPIO_Init+0x12a>
 80012fa:	2b07      	cmp	r3, #7
 80012fc:	d007      	beq.n	800130e <HAL_GPIO_Init+0x12a>
 80012fe:	2b08      	cmp	r3, #8
 8001300:	d005      	beq.n	800130e <HAL_GPIO_Init+0x12a>
 8001302:	2b0a      	cmp	r3, #10
 8001304:	d003      	beq.n	800130e <HAL_GPIO_Init+0x12a>
 8001306:	2b0c      	cmp	r3, #12
 8001308:	d001      	beq.n	800130e <HAL_GPIO_Init+0x12a>
 800130a:	2b0f      	cmp	r3, #15
 800130c:	d110      	bne.n	8001330 <HAL_GPIO_Init+0x14c>
        temp = GPIOx->AFR[position >> 3U];
 800130e:	08e2      	lsrs	r2, r4, #3
 8001310:	3208      	adds	r2, #8
 8001312:	f857 0022 	ldr.w	r0, [r7, r2, lsl #2]
        temp &= ~(0xFU << ((uint32_t)(position & 0x07U) * 4U)) ;
 8001316:	f004 0307 	and.w	r3, r4, #7
 800131a:	0099      	lsls	r1, r3, #2
 800131c:	230f      	movs	r3, #15
 800131e:	408b      	lsls	r3, r1
 8001320:	ea20 0003 	bic.w	r0, r0, r3
        temp |= ((uint32_t)(GPIO_Init->Alternate) << (((uint32_t)position & 0x07U) * 4U));
 8001324:	6933      	ldr	r3, [r6, #16]
 8001326:	408b      	lsls	r3, r1
 8001328:	4303      	orrs	r3, r0
        GPIOx->AFR[position >> 3U] = temp;
 800132a:	f847 3022 	str.w	r3, [r7, r2, lsl #2]
 800132e:	e06b      	b.n	8001408 <HAL_GPIO_Init+0x224>
        assert_param(IS_GPIO_AF(GPIO_Init->Alternate));
 8001330:	21de      	movs	r1, #222	; 0xde
 8001332:	4804      	ldr	r0, [pc, #16]	; (8001344 <HAL_GPIO_Init+0x160>)
 8001334:	f7ff fa5e 	bl	80007f4 <assert_failed>
 8001338:	e7e9      	b.n	800130e <HAL_GPIO_Init+0x12a>
        temp |= ((uint32_t)(GPIO_GET_INDEX(GPIOx)) << (4U * (position & 0x03U)));
 800133a:	2307      	movs	r3, #7
 800133c:	e005      	b.n	800134a <HAL_GPIO_Init+0x166>
 800133e:	bf00      	nop
 8001340:	40020000 	andmi	r0, r2, r0
 8001344:	08004688 	stmdaeq	r0, {r3, r7, r9, sl, lr}
 8001348:	2300      	movs	r3, #0
 800134a:	408b      	lsls	r3, r1
 800134c:	4303      	orrs	r3, r0
        SYSCFG->EXTICR[position >> 2U] = temp;
 800134e:	3202      	adds	r2, #2
 8001350:	495a      	ldr	r1, [pc, #360]	; (80014bc <HAL_GPIO_Init+0x2d8>)
 8001352:	f841 3022 	str.w	r3, [r1, r2, lsl #2]

        /* Clear Rising Falling edge configuration */
        temp = EXTI->RTSR;
 8001356:	4b5a      	ldr	r3, [pc, #360]	; (80014c0 <HAL_GPIO_Init+0x2dc>)
 8001358:	689a      	ldr	r2, [r3, #8]
        temp &= ~((uint32_t)iocurrent);
 800135a:	ea6f 0308 	mvn.w	r3, r8
 800135e:	ea22 0108 	bic.w	r1, r2, r8
        if((GPIO_Init->Mode & TRIGGER_RISING) != 0x00U)
 8001362:	6870      	ldr	r0, [r6, #4]
 8001364:	f410 1f80 	tst.w	r0, #1048576	; 0x100000
 8001368:	d001      	beq.n	800136e <HAL_GPIO_Init+0x18a>
        {
          temp |= iocurrent;
 800136a:	ea48 0102 	orr.w	r1, r8, r2
        }
        EXTI->RTSR = temp;
 800136e:	4a54      	ldr	r2, [pc, #336]	; (80014c0 <HAL_GPIO_Init+0x2dc>)
 8001370:	6091      	str	r1, [r2, #8]

        temp = EXTI->FTSR;
 8001372:	68d2      	ldr	r2, [r2, #12]
        temp &= ~((uint32_t)iocurrent);
 8001374:	ea03 0102 	and.w	r1, r3, r2
        if((GPIO_Init->Mode & TRIGGER_FALLING) != 0x00U)
 8001378:	6870      	ldr	r0, [r6, #4]
 800137a:	f410 1f00 	tst.w	r0, #2097152	; 0x200000
 800137e:	d001      	beq.n	8001384 <HAL_GPIO_Init+0x1a0>
        {
          temp |= iocurrent;
 8001380:	ea48 0102 	orr.w	r1, r8, r2
        }
        EXTI->FTSR = temp;
 8001384:	4a4e      	ldr	r2, [pc, #312]	; (80014c0 <HAL_GPIO_Init+0x2dc>)
 8001386:	60d1      	str	r1, [r2, #12]

        temp = EXTI->EMR;
 8001388:	6852      	ldr	r2, [r2, #4]
        temp &= ~((uint32_t)iocurrent);
 800138a:	ea03 0102 	and.w	r1, r3, r2
        if((GPIO_Init->Mode & EXTI_EVT) != 0x00U)
 800138e:	6870      	ldr	r0, [r6, #4]
 8001390:	f410 3f00 	tst.w	r0, #131072	; 0x20000
 8001394:	d001      	beq.n	800139a <HAL_GPIO_Init+0x1b6>
        {
          temp |= iocurrent;
 8001396:	ea48 0102 	orr.w	r1, r8, r2
        }
        EXTI->EMR = temp;
 800139a:	4a49      	ldr	r2, [pc, #292]	; (80014c0 <HAL_GPIO_Init+0x2dc>)
 800139c:	6051      	str	r1, [r2, #4]

        /* Clear EXTI line configuration */
        temp = EXTI->IMR;
 800139e:	6812      	ldr	r2, [r2, #0]
        temp &= ~((uint32_t)iocurrent);
 80013a0:	4013      	ands	r3, r2
        if((GPIO_Init->Mode & EXTI_IT) != 0x00U)
 80013a2:	6871      	ldr	r1, [r6, #4]
 80013a4:	f411 3f80 	tst.w	r1, #65536	; 0x10000
 80013a8:	d001      	beq.n	80013ae <HAL_GPIO_Init+0x1ca>
        {
          temp |= iocurrent;
 80013aa:	ea48 0302 	orr.w	r3, r8, r2
        }
        EXTI->IMR = temp;
 80013ae:	4a44      	ldr	r2, [pc, #272]	; (80014c0 <HAL_GPIO_Init+0x2dc>)
 80013b0:	6013      	str	r3, [r2, #0]
  for(position = 0U; position < GPIO_NUMBER; position++)
 80013b2:	3401      	adds	r4, #1
 80013b4:	2c0f      	cmp	r4, #15
 80013b6:	d87e      	bhi.n	80014b6 <HAL_GPIO_Init+0x2d2>
    ioposition = 0x01U << position;
 80013b8:	2501      	movs	r5, #1
 80013ba:	40a5      	lsls	r5, r4
    iocurrent = (uint32_t)(GPIO_Init->Pin) & ioposition;
 80013bc:	6833      	ldr	r3, [r6, #0]
 80013be:	ea03 0805 	and.w	r8, r3, r5
    if(iocurrent == ioposition)
 80013c2:	ea35 0303 	bics.w	r3, r5, r3
 80013c6:	d1f4      	bne.n	80013b2 <HAL_GPIO_Init+0x1ce>
      if(((GPIO_Init->Mode & GPIO_MODE) == MODE_OUTPUT) || \
 80013c8:	6873      	ldr	r3, [r6, #4]
 80013ca:	f003 0303 	and.w	r3, r3, #3
 80013ce:	3b01      	subs	r3, #1
 80013d0:	2b01      	cmp	r3, #1
 80013d2:	f67f af61 	bls.w	8001298 <HAL_GPIO_Init+0xb4>
      if((GPIO_Init->Mode & GPIO_MODE) != MODE_ANALOG)
 80013d6:	6873      	ldr	r3, [r6, #4]
 80013d8:	f003 0303 	and.w	r3, r3, #3
 80013dc:	2b03      	cmp	r3, #3
 80013de:	d00d      	beq.n	80013fc <HAL_GPIO_Init+0x218>
        assert_param(IS_GPIO_PULL(GPIO_Init->Pull));
 80013e0:	68b3      	ldr	r3, [r6, #8]
 80013e2:	2b02      	cmp	r3, #2
 80013e4:	f63f af74 	bhi.w	80012d0 <HAL_GPIO_Init+0xec>
        temp = GPIOx->PUPDR;
 80013e8:	68fa      	ldr	r2, [r7, #12]
        temp &= ~(GPIO_PUPDR_PUPDR0 << (position * 2U));
 80013ea:	0061      	lsls	r1, r4, #1
 80013ec:	2303      	movs	r3, #3
 80013ee:	408b      	lsls	r3, r1
 80013f0:	ea22 0203 	bic.w	r2, r2, r3
        temp |= ((GPIO_Init->Pull) << (position * 2U));
 80013f4:	68b3      	ldr	r3, [r6, #8]
 80013f6:	408b      	lsls	r3, r1
 80013f8:	4313      	orrs	r3, r2
        GPIOx->PUPDR = temp;
 80013fa:	60fb      	str	r3, [r7, #12]
      if((GPIO_Init->Mode & GPIO_MODE) == MODE_AF)
 80013fc:	6873      	ldr	r3, [r6, #4]
 80013fe:	f003 0303 	and.w	r3, r3, #3
 8001402:	2b02      	cmp	r3, #2
 8001404:	f43f af69 	beq.w	80012da <HAL_GPIO_Init+0xf6>
      temp = GPIOx->MODER;
 8001408:	683a      	ldr	r2, [r7, #0]
      temp &= ~(GPIO_MODER_MODER0 << (position * 2U));
 800140a:	0061      	lsls	r1, r4, #1
 800140c:	2303      	movs	r3, #3
 800140e:	408b      	lsls	r3, r1
 8001410:	ea22 0203 	bic.w	r2, r2, r3
      temp |= ((GPIO_Init->Mode & GPIO_MODE) << (position * 2U));
 8001414:	6873      	ldr	r3, [r6, #4]
 8001416:	f003 0303 	and.w	r3, r3, #3
 800141a:	408b      	lsls	r3, r1
 800141c:	4313      	orrs	r3, r2
      GPIOx->MODER = temp;
 800141e:	603b      	str	r3, [r7, #0]
      if((GPIO_Init->Mode & EXTI_MODE) != 0x00U)
 8001420:	6873      	ldr	r3, [r6, #4]
 8001422:	f413 3f40 	tst.w	r3, #196608	; 0x30000
 8001426:	d0c4      	beq.n	80013b2 <HAL_GPIO_Init+0x1ce>
        __HAL_RCC_SYSCFG_CLK_ENABLE();
 8001428:	2300      	movs	r3, #0
 800142a:	9301      	str	r3, [sp, #4]
 800142c:	4b25      	ldr	r3, [pc, #148]	; (80014c4 <HAL_GPIO_Init+0x2e0>)
 800142e:	6c5a      	ldr	r2, [r3, #68]	; 0x44
 8001430:	f442 4280 	orr.w	r2, r2, #16384	; 0x4000
 8001434:	645a      	str	r2, [r3, #68]	; 0x44
 8001436:	6c5b      	ldr	r3, [r3, #68]	; 0x44
 8001438:	f403 4380 	and.w	r3, r3, #16384	; 0x4000
 800143c:	9301      	str	r3, [sp, #4]
 800143e:	9b01      	ldr	r3, [sp, #4]
        temp = SYSCFG->EXTICR[position >> 2U];
 8001440:	08a2      	lsrs	r2, r4, #2
 8001442:	1c91      	adds	r1, r2, #2
 8001444:	4b1d      	ldr	r3, [pc, #116]	; (80014bc <HAL_GPIO_Init+0x2d8>)
 8001446:	f853 0021 	ldr.w	r0, [r3, r1, lsl #2]
        temp &= ~(0x0FU << (4U * (position & 0x03U)));
 800144a:	f004 0303 	and.w	r3, r4, #3
 800144e:	0099      	lsls	r1, r3, #2
 8001450:	230f      	movs	r3, #15
 8001452:	408b      	lsls	r3, r1
 8001454:	ea20 0003 	bic.w	r0, r0, r3
        temp |= ((uint32_t)(GPIO_GET_INDEX(GPIOx)) << (4U * (position & 0x03U)));
 8001458:	4b1b      	ldr	r3, [pc, #108]	; (80014c8 <HAL_GPIO_Init+0x2e4>)
 800145a:	429f      	cmp	r7, r3
 800145c:	f43f af74 	beq.w	8001348 <HAL_GPIO_Init+0x164>
 8001460:	f503 6380 	add.w	r3, r3, #1024	; 0x400
 8001464:	429f      	cmp	r7, r3
 8001466:	d01a      	beq.n	800149e <HAL_GPIO_Init+0x2ba>
 8001468:	f503 6380 	add.w	r3, r3, #1024	; 0x400
 800146c:	429f      	cmp	r7, r3
 800146e:	d018      	beq.n	80014a2 <HAL_GPIO_Init+0x2be>
 8001470:	f503 6380 	add.w	r3, r3, #1024	; 0x400
 8001474:	429f      	cmp	r7, r3
 8001476:	d016      	beq.n	80014a6 <HAL_GPIO_Init+0x2c2>
 8001478:	f503 6380 	add.w	r3, r3, #1024	; 0x400
 800147c:	429f      	cmp	r7, r3
 800147e:	d014      	beq.n	80014aa <HAL_GPIO_Init+0x2c6>
 8001480:	f503 6380 	add.w	r3, r3, #1024	; 0x400
 8001484:	429f      	cmp	r7, r3
 8001486:	d012      	beq.n	80014ae <HAL_GPIO_Init+0x2ca>
 8001488:	f503 6380 	add.w	r3, r3, #1024	; 0x400
 800148c:	429f      	cmp	r7, r3
 800148e:	d010      	beq.n	80014b2 <HAL_GPIO_Init+0x2ce>
 8001490:	f503 6380 	add.w	r3, r3, #1024	; 0x400
 8001494:	429f      	cmp	r7, r3
 8001496:	f43f af50 	beq.w	800133a <HAL_GPIO_Init+0x156>
 800149a:	2308      	movs	r3, #8
 800149c:	e755      	b.n	800134a <HAL_GPIO_Init+0x166>
 800149e:	2301      	movs	r3, #1
 80014a0:	e753      	b.n	800134a <HAL_GPIO_Init+0x166>
 80014a2:	2302      	movs	r3, #2
 80014a4:	e751      	b.n	800134a <HAL_GPIO_Init+0x166>
 80014a6:	2303      	movs	r3, #3
 80014a8:	e74f      	b.n	800134a <HAL_GPIO_Init+0x166>
 80014aa:	2304      	movs	r3, #4
 80014ac:	e74d      	b.n	800134a <HAL_GPIO_Init+0x166>
 80014ae:	2305      	movs	r3, #5
 80014b0:	e74b      	b.n	800134a <HAL_GPIO_Init+0x166>
 80014b2:	2306      	movs	r3, #6
 80014b4:	e749      	b.n	800134a <HAL_GPIO_Init+0x166>
      }
    }
  }
}
 80014b6:	b002      	add	sp, #8
 80014b8:	e8bd 81f0 	ldmia.w	sp!, {r4, r5, r6, r7, r8, pc}
 80014bc:	40013800 	andmi	r3, r1, r0, lsl #16
 80014c0:	40013c00 	andmi	r3, r1, r0, lsl #24
 80014c4:	40023800 	andmi	r3, r2, r0, lsl #16
 80014c8:	40020000 	andmi	r0, r2, r0

080014cc <HAL_DMA_Abort>:
  *        and the Stream will be effectively disabled only after the transfer of
  *        this single data is finished.  
  * @retval HAL status
  */
HAL_StatusTypeDef HAL_DMA_Abort(DMA_HandleTypeDef *hdma)
{
 80014cc:	b570      	push	{r4, r5, r6, lr}
 80014ce:	4604      	mov	r4, r0
  /* calculate DMA base and stream number */
  DMA_Base_Registers *regs = (DMA_Base_Registers *)hdma->StreamBaseAddress;
 80014d0:	6d86      	ldr	r6, [r0, #88]	; 0x58
  
  uint32_t tickstart = HAL_GetTick();
 80014d2:	f000 f935 	bl	8001740 <HAL_GetTick>
  
  if(hdma->State != HAL_DMA_STATE_BUSY)
 80014d6:	f894 3035 	ldrb.w	r3, [r4, #53]	; 0x35
 80014da:	b2db      	uxtb	r3, r3
 80014dc:	2b02      	cmp	r3, #2
 80014de:	d006      	beq.n	80014ee <HAL_DMA_Abort+0x22>
  {
    hdma->ErrorCode = HAL_DMA_ERROR_NO_XFER;
 80014e0:	2380      	movs	r3, #128	; 0x80
 80014e2:	6563      	str	r3, [r4, #84]	; 0x54
    
    /* Process Unlocked */
    __HAL_UNLOCK(hdma);
 80014e4:	2300      	movs	r3, #0
 80014e6:	f884 3034 	strb.w	r3, [r4, #52]	; 0x34
    
    return HAL_ERROR;
 80014ea:	2001      	movs	r0, #1
    
    /* Process Unlocked */
    __HAL_UNLOCK(hdma);
  }
  return HAL_OK;
}
 80014ec:	bd70      	pop	{r4, r5, r6, pc}
 80014ee:	4605      	mov	r5, r0
    hdma->Instance->CR  &= ~(DMA_IT_TC | DMA_IT_TE | DMA_IT_DME);
 80014f0:	6822      	ldr	r2, [r4, #0]
 80014f2:	6813      	ldr	r3, [r2, #0]
 80014f4:	f023 0316 	bic.w	r3, r3, #22
 80014f8:	6013      	str	r3, [r2, #0]
    hdma->Instance->FCR &= ~(DMA_IT_FE);
 80014fa:	6822      	ldr	r2, [r4, #0]
 80014fc:	6953      	ldr	r3, [r2, #20]
 80014fe:	f023 0380 	bic.w	r3, r3, #128	; 0x80
 8001502:	6153      	str	r3, [r2, #20]
    if((hdma->XferHalfCpltCallback != NULL) || (hdma->XferM1HalfCpltCallback != NULL))
 8001504:	6c23      	ldr	r3, [r4, #64]	; 0x40
 8001506:	b1e3      	cbz	r3, 8001542 <HAL_DMA_Abort+0x76>
      hdma->Instance->CR  &= ~(DMA_IT_HT);
 8001508:	6822      	ldr	r2, [r4, #0]
 800150a:	6813      	ldr	r3, [r2, #0]
 800150c:	f023 0308 	bic.w	r3, r3, #8
 8001510:	6013      	str	r3, [r2, #0]
    __HAL_DMA_DISABLE(hdma);
 8001512:	6822      	ldr	r2, [r4, #0]
 8001514:	6813      	ldr	r3, [r2, #0]
 8001516:	f023 0301 	bic.w	r3, r3, #1
 800151a:	6013      	str	r3, [r2, #0]
    while((hdma->Instance->CR & DMA_SxCR_EN) != RESET)
 800151c:	6823      	ldr	r3, [r4, #0]
 800151e:	681b      	ldr	r3, [r3, #0]
 8001520:	f013 0f01 	tst.w	r3, #1
 8001524:	d011      	beq.n	800154a <HAL_DMA_Abort+0x7e>
      if((HAL_GetTick() - tickstart ) > HAL_TIMEOUT_DMA_ABORT)
 8001526:	f000 f90b 	bl	8001740 <HAL_GetTick>
 800152a:	1b43      	subs	r3, r0, r5
 800152c:	2b05      	cmp	r3, #5
 800152e:	d9f5      	bls.n	800151c <HAL_DMA_Abort+0x50>
        hdma->ErrorCode = HAL_DMA_ERROR_TIMEOUT;
 8001530:	2320      	movs	r3, #32
 8001532:	6563      	str	r3, [r4, #84]	; 0x54
        hdma->State = HAL_DMA_STATE_TIMEOUT;
 8001534:	2003      	movs	r0, #3
 8001536:	f884 0035 	strb.w	r0, [r4, #53]	; 0x35
        __HAL_UNLOCK(hdma);
 800153a:	2300      	movs	r3, #0
 800153c:	f884 3034 	strb.w	r3, [r4, #52]	; 0x34
        return HAL_TIMEOUT;
 8001540:	e7d4      	b.n	80014ec <HAL_DMA_Abort+0x20>
    if((hdma->XferHalfCpltCallback != NULL) || (hdma->XferM1HalfCpltCallback != NULL))
 8001542:	6ca3      	ldr	r3, [r4, #72]	; 0x48
 8001544:	2b00      	cmp	r3, #0
 8001546:	d1df      	bne.n	8001508 <HAL_DMA_Abort+0x3c>
 8001548:	e7e3      	b.n	8001512 <HAL_DMA_Abort+0x46>
    regs->IFCR = 0x3FU << hdma->StreamIndex;
 800154a:	6de2      	ldr	r2, [r4, #92]	; 0x5c
 800154c:	233f      	movs	r3, #63	; 0x3f
 800154e:	4093      	lsls	r3, r2
 8001550:	60b3      	str	r3, [r6, #8]
    hdma->State = HAL_DMA_STATE_READY;
 8001552:	2301      	movs	r3, #1
 8001554:	f884 3035 	strb.w	r3, [r4, #53]	; 0x35
    __HAL_UNLOCK(hdma);
 8001558:	2000      	movs	r0, #0
 800155a:	f884 0034 	strb.w	r0, [r4, #52]	; 0x34
  return HAL_OK;
 800155e:	e7c5      	b.n	80014ec <HAL_DMA_Abort+0x20>

08001560 <HAL_DMA_Abort_IT>:
  *                 the configuration information for the specified DMA Stream.
  * @retval HAL status
  */
HAL_StatusTypeDef HAL_DMA_Abort_IT(DMA_HandleTypeDef *hdma)
{
  if(hdma->State != HAL_DMA_STATE_BUSY)
 8001560:	f890 3035 	ldrb.w	r3, [r0, #53]	; 0x35
 8001564:	b2db      	uxtb	r3, r3
 8001566:	2b02      	cmp	r3, #2
 8001568:	d003      	beq.n	8001572 <HAL_DMA_Abort_IT+0x12>
  {
    hdma->ErrorCode = HAL_DMA_ERROR_NO_XFER;
 800156a:	2380      	movs	r3, #128	; 0x80
 800156c:	6543      	str	r3, [r0, #84]	; 0x54
    return HAL_ERROR;
 800156e:	2001      	movs	r0, #1
 8001570:	4770      	bx	lr
  }
  else
  {
    /* Set Abort State  */
    hdma->State = HAL_DMA_STATE_ABORT;
 8001572:	2305      	movs	r3, #5
 8001574:	f880 3035 	strb.w	r3, [r0, #53]	; 0x35
    
    /* Disable the stream */
    __HAL_DMA_DISABLE(hdma);
 8001578:	6802      	ldr	r2, [r0, #0]
 800157a:	6813      	ldr	r3, [r2, #0]
 800157c:	f023 0301 	bic.w	r3, r3, #1
 8001580:	6013      	str	r3, [r2, #0]
  }

  return HAL_OK;
 8001582:	2000      	movs	r0, #0
}
 8001584:	4770      	bx	lr
	...

08001588 <HAL_NVIC_SetPriorityGrouping>:
  * @note   When the NVIC_PriorityGroup_0 is selected, IRQ preemption is no more possible. 
  *         The pending IRQ priority will be managed only by the subpriority. 
  * @retval None
  */
void HAL_NVIC_SetPriorityGrouping(uint32_t PriorityGroup)
{
 8001588:	b510      	push	{r4, lr}
 800158a:	4604      	mov	r4, r0
  /* Check the parameters */
  assert_param(IS_NVIC_PRIORITY_GROUP(PriorityGroup));
 800158c:	1ec3      	subs	r3, r0, #3
 800158e:	2b04      	cmp	r3, #4
 8001590:	d80f      	bhi.n	80015b2 <HAL_NVIC_SetPriorityGrouping+0x2a>
__STATIC_INLINE void __NVIC_SetPriorityGrouping(uint32_t PriorityGroup)
{
  uint32_t reg_value;
  uint32_t PriorityGroupTmp = (PriorityGroup & (uint32_t)0x07UL);             /* only values 0..7 are used          */

  reg_value  =  SCB->AIRCR;                                                   /* read old register configuration    */
 8001592:	4a0a      	ldr	r2, [pc, #40]	; (80015bc <HAL_NVIC_SetPriorityGrouping+0x34>)
 8001594:	68d3      	ldr	r3, [r2, #12]
  reg_value &= ~((uint32_t)(SCB_AIRCR_VECTKEY_Msk | SCB_AIRCR_PRIGROUP_Msk)); /* clear bits to change               */
 8001596:	f423 63e0 	bic.w	r3, r3, #1792	; 0x700
 800159a:	041b      	lsls	r3, r3, #16
 800159c:	0c1b      	lsrs	r3, r3, #16
  reg_value  =  (reg_value                                   |
                ((uint32_t)0x5FAUL << SCB_AIRCR_VECTKEY_Pos) |
                (PriorityGroupTmp << SCB_AIRCR_PRIGROUP_Pos)  );              /* Insert write key and priority group */
 800159e:	0224      	lsls	r4, r4, #8
 80015a0:	f404 64e0 	and.w	r4, r4, #1792	; 0x700
                ((uint32_t)0x5FAUL << SCB_AIRCR_VECTKEY_Pos) |
 80015a4:	4323      	orrs	r3, r4
  reg_value  =  (reg_value                                   |
 80015a6:	f043 63bf 	orr.w	r3, r3, #100139008	; 0x5f80000
 80015aa:	f443 3300 	orr.w	r3, r3, #131072	; 0x20000
  SCB->AIRCR =  reg_value;
 80015ae:	60d3      	str	r3, [r2, #12]
  
  /* Set the PRIGROUP[10:8] bits according to the PriorityGroup parameter value */
  NVIC_SetPriorityGrouping(PriorityGroup);
}
 80015b0:	bd10      	pop	{r4, pc}
  assert_param(IS_NVIC_PRIORITY_GROUP(PriorityGroup));
 80015b2:	2190      	movs	r1, #144	; 0x90
 80015b4:	4802      	ldr	r0, [pc, #8]	; (80015c0 <HAL_NVIC_SetPriorityGrouping+0x38>)
 80015b6:	f7ff f91d 	bl	80007f4 <assert_failed>
 80015ba:	e7ea      	b.n	8001592 <HAL_NVIC_SetPriorityGrouping+0xa>
 80015bc:	e000ed00 	and	lr, r0, r0, lsl #26
 80015c0:	080046c4 	stmdaeq	r0, {r2, r6, r7, r9, sl, lr}

080015c4 <HAL_NVIC_SetPriority>:
  *         This parameter can be a value between 0 and 15
  *         A lower priority value indicates a higher priority.          
  * @retval None
  */
void HAL_NVIC_SetPriority(IRQn_Type IRQn, uint32_t PreemptPriority, uint32_t SubPriority)
{ 
 80015c4:	b570      	push	{r4, r5, r6, lr}
 80015c6:	4605      	mov	r5, r0
 80015c8:	460c      	mov	r4, r1
 80015ca:	4616      	mov	r6, r2
  uint32_t prioritygroup = 0x00U;
  
  /* Check the parameters */
  assert_param(IS_NVIC_SUB_PRIORITY(SubPriority));
 80015cc:	2a0f      	cmp	r2, #15
 80015ce:	d825      	bhi.n	800161c <HAL_NVIC_SetPriority+0x58>
  assert_param(IS_NVIC_PREEMPTION_PRIORITY(PreemptPriority));
 80015d0:	2c0f      	cmp	r4, #15
 80015d2:	d828      	bhi.n	8001626 <HAL_NVIC_SetPriority+0x62>
  \details Reads the priority grouping field from the NVIC Interrupt Controller.
  \return                Priority grouping field (SCB->AIRCR [10:8] PRIGROUP field).
 */
__STATIC_INLINE uint32_t __NVIC_GetPriorityGrouping(void)
{
  return ((uint32_t)((SCB->AIRCR & SCB_AIRCR_PRIGROUP_Msk) >> SCB_AIRCR_PRIGROUP_Pos));
 80015d4:	4b1b      	ldr	r3, [pc, #108]	; (8001644 <HAL_NVIC_SetPriority+0x80>)
 80015d6:	68db      	ldr	r3, [r3, #12]
 80015d8:	f3c3 2302 	ubfx	r3, r3, #8, #3
{
  uint32_t PriorityGroupTmp = (PriorityGroup & (uint32_t)0x07UL);   /* only values 0..7 are used          */
  uint32_t PreemptPriorityBits;
  uint32_t SubPriorityBits;

  PreemptPriorityBits = ((7UL - PriorityGroupTmp) > (uint32_t)(__NVIC_PRIO_BITS)) ? (uint32_t)(__NVIC_PRIO_BITS) : (uint32_t)(7UL - PriorityGroupTmp);
 80015dc:	f1c3 0107 	rsb	r1, r3, #7
 80015e0:	2904      	cmp	r1, #4
 80015e2:	bf28      	it	cs
 80015e4:	2104      	movcs	r1, #4
  SubPriorityBits     = ((PriorityGroupTmp + (uint32_t)(__NVIC_PRIO_BITS)) < (uint32_t)7UL) ? (uint32_t)0UL : (uint32_t)((PriorityGroupTmp - 7UL) + (uint32_t)(__NVIC_PRIO_BITS));
 80015e6:	1d1a      	adds	r2, r3, #4
 80015e8:	2a06      	cmp	r2, #6
 80015ea:	d921      	bls.n	8001630 <HAL_NVIC_SetPriority+0x6c>
 80015ec:	3b03      	subs	r3, #3

  return (
           ((PreemptPriority & (uint32_t)((1UL << (PreemptPriorityBits)) - 1UL)) << SubPriorityBits) |
 80015ee:	f04f 32ff 	mov.w	r2, #4294967295
 80015f2:	fa02 f101 	lsl.w	r1, r2, r1
 80015f6:	ea24 0401 	bic.w	r4, r4, r1
 80015fa:	409c      	lsls	r4, r3
           ((SubPriority     & (uint32_t)((1UL << (SubPriorityBits    )) - 1UL)))
 80015fc:	fa02 f303 	lsl.w	r3, r2, r3
 8001600:	ea26 0603 	bic.w	r6, r6, r3
           ((PreemptPriority & (uint32_t)((1UL << (PreemptPriorityBits)) - 1UL)) << SubPriorityBits) |
 8001604:	4334      	orrs	r4, r6
  if ((int32_t)(IRQn) >= 0)
 8001606:	2d00      	cmp	r5, #0
 8001608:	db14      	blt.n	8001634 <HAL_NVIC_SetPriority+0x70>
    NVIC->IP[((uint32_t)IRQn)]               = (uint8_t)((priority << (8U - __NVIC_PRIO_BITS)) & (uint32_t)0xFFUL);
 800160a:	0124      	lsls	r4, r4, #4
 800160c:	b2e4      	uxtb	r4, r4
 800160e:	f105 4560 	add.w	r5, r5, #3758096384	; 0xe0000000
 8001612:	f505 4561 	add.w	r5, r5, #57600	; 0xe100
 8001616:	f885 4300 	strb.w	r4, [r5, #768]	; 0x300
  
  prioritygroup = NVIC_GetPriorityGrouping();
  
  NVIC_SetPriority(IRQn, NVIC_EncodePriority(prioritygroup, PreemptPriority, SubPriority));
}
 800161a:	bd70      	pop	{r4, r5, r6, pc}
  assert_param(IS_NVIC_SUB_PRIORITY(SubPriority));
 800161c:	21a8      	movs	r1, #168	; 0xa8
 800161e:	480a      	ldr	r0, [pc, #40]	; (8001648 <HAL_NVIC_SetPriority+0x84>)
 8001620:	f7ff f8e8 	bl	80007f4 <assert_failed>
 8001624:	e7d4      	b.n	80015d0 <HAL_NVIC_SetPriority+0xc>
  assert_param(IS_NVIC_PREEMPTION_PRIORITY(PreemptPriority));
 8001626:	21a9      	movs	r1, #169	; 0xa9
 8001628:	4807      	ldr	r0, [pc, #28]	; (8001648 <HAL_NVIC_SetPriority+0x84>)
 800162a:	f7ff f8e3 	bl	80007f4 <assert_failed>
 800162e:	e7d1      	b.n	80015d4 <HAL_NVIC_SetPriority+0x10>
  SubPriorityBits     = ((PriorityGroupTmp + (uint32_t)(__NVIC_PRIO_BITS)) < (uint32_t)7UL) ? (uint32_t)0UL : (uint32_t)((PriorityGroupTmp - 7UL) + (uint32_t)(__NVIC_PRIO_BITS));
 8001630:	2300      	movs	r3, #0
 8001632:	e7dc      	b.n	80015ee <HAL_NVIC_SetPriority+0x2a>
    SCB->SHP[(((uint32_t)IRQn) & 0xFUL)-4UL] = (uint8_t)((priority << (8U - __NVIC_PRIO_BITS)) & (uint32_t)0xFFUL);
 8001634:	f005 050f 	and.w	r5, r5, #15
 8001638:	0124      	lsls	r4, r4, #4
 800163a:	b2e4      	uxtb	r4, r4
 800163c:	4b03      	ldr	r3, [pc, #12]	; (800164c <HAL_NVIC_SetPriority+0x88>)
 800163e:	555c      	strb	r4, [r3, r5]
}
 8001640:	e7eb      	b.n	800161a <HAL_NVIC_SetPriority+0x56>
 8001642:	bf00      	nop
 8001644:	e000ed00 	and	lr, r0, r0, lsl #26
 8001648:	080046c4 	stmdaeq	r0, {r2, r6, r7, r9, sl, lr}
 800164c:	e000ed14 	and	lr, r0, r4, lsl sp

08001650 <HAL_NVIC_EnableIRQ>:
  *         This parameter can be an enumerator of IRQn_Type enumeration
  *         (For the complete STM32 Devices IRQ Channels list, please refer to the appropriate CMSIS device file (stm32f4xxxx.h))
  * @retval None
  */
void HAL_NVIC_EnableIRQ(IRQn_Type IRQn)
{
 8001650:	b510      	push	{r4, lr}
  /* Check the parameters */
  assert_param(IS_NVIC_DEVICE_IRQ(IRQn));
 8001652:	1e04      	subs	r4, r0, #0
 8001654:	db0a      	blt.n	800166c <HAL_NVIC_EnableIRQ+0x1c>
  if ((int32_t)(IRQn) >= 0)
 8001656:	2c00      	cmp	r4, #0
 8001658:	db07      	blt.n	800166a <HAL_NVIC_EnableIRQ+0x1a>
    NVIC->ISER[(((uint32_t)IRQn) >> 5UL)] = (uint32_t)(1UL << (((uint32_t)IRQn) & 0x1FUL));
 800165a:	f004 021f 	and.w	r2, r4, #31
 800165e:	0964      	lsrs	r4, r4, #5
 8001660:	2301      	movs	r3, #1
 8001662:	4093      	lsls	r3, r2
 8001664:	4a04      	ldr	r2, [pc, #16]	; (8001678 <HAL_NVIC_EnableIRQ+0x28>)
 8001666:	f842 3024 	str.w	r3, [r2, r4, lsl #2]
  
  /* Enable interrupt */
  NVIC_EnableIRQ(IRQn);
}
 800166a:	bd10      	pop	{r4, pc}
  assert_param(IS_NVIC_DEVICE_IRQ(IRQn));
 800166c:	21bc      	movs	r1, #188	; 0xbc
 800166e:	4803      	ldr	r0, [pc, #12]	; (800167c <HAL_NVIC_EnableIRQ+0x2c>)
 8001670:	f7ff f8c0 	bl	80007f4 <assert_failed>
 8001674:	e7ef      	b.n	8001656 <HAL_NVIC_EnableIRQ+0x6>
 8001676:	bf00      	nop
 8001678:	e000e100 	and	lr, r0, r0, lsl #2
 800167c:	080046c4 	stmdaeq	r0, {r2, r6, r7, r9, sl, lr}

08001680 <HAL_SYSTICK_Config>:
           function <b>SysTick_Config</b> is not included. In this case, the file <b><i>device</i>.h</b>
           must contain a vendor-specific implementation of this function.
 */
__STATIC_INLINE uint32_t SysTick_Config(uint32_t ticks)
{
  if ((ticks - 1UL) > SysTick_LOAD_RELOAD_Msk)
 8001680:	3801      	subs	r0, #1
 8001682:	f1b0 7f80 	cmp.w	r0, #16777216	; 0x1000000
 8001686:	d20b      	bcs.n	80016a0 <HAL_SYSTICK_Config+0x20>
  {
    return (1UL);                                                   /* Reload value impossible */
  }

  SysTick->LOAD  = (uint32_t)(ticks - 1UL);                         /* set reload register */
 8001688:	f04f 23e0 	mov.w	r3, #3758153728	; 0xe000e000
 800168c:	6158      	str	r0, [r3, #20]
    SCB->SHP[(((uint32_t)IRQn) & 0xFUL)-4UL] = (uint8_t)((priority << (8U - __NVIC_PRIO_BITS)) & (uint32_t)0xFFUL);
 800168e:	4a05      	ldr	r2, [pc, #20]	; (80016a4 <HAL_SYSTICK_Config+0x24>)
 8001690:	21f0      	movs	r1, #240	; 0xf0
 8001692:	f882 1023 	strb.w	r1, [r2, #35]	; 0x23
  NVIC_SetPriority (SysTick_IRQn, (1UL << __NVIC_PRIO_BITS) - 1UL); /* set Priority for Systick Interrupt */
  SysTick->VAL   = 0UL;                                             /* Load the SysTick Counter Value */
 8001696:	2000      	movs	r0, #0
 8001698:	6198      	str	r0, [r3, #24]
  SysTick->CTRL  = SysTick_CTRL_CLKSOURCE_Msk |
 800169a:	2207      	movs	r2, #7
 800169c:	611a      	str	r2, [r3, #16]
                   SysTick_CTRL_TICKINT_Msk   |
                   SysTick_CTRL_ENABLE_Msk;                         /* Enable SysTick IRQ and SysTick Timer */
  return (0UL);                                                     /* Function successful */
 800169e:	4770      	bx	lr
    return (1UL);                                                   /* Reload value impossible */
 80016a0:	2001      	movs	r0, #1
  *                  - 1  Function failed.
  */
uint32_t HAL_SYSTICK_Config(uint32_t TicksNumb)
{
   return SysTick_Config(TicksNumb);
}
 80016a2:	4770      	bx	lr
 80016a4:	e000ed00 	and	lr, r0, r0, lsl #26

080016a8 <HAL_InitTick>:
  *       implementation  in user file.
  * @param TickPriority Tick interrupt priority.
  * @retval HAL status
  */
__weak HAL_StatusTypeDef HAL_InitTick(uint32_t TickPriority)
{
 80016a8:	b510      	push	{r4, lr}
 80016aa:	4604      	mov	r4, r0
  /* Configure the SysTick to have interrupt in 1ms time basis*/
  if (HAL_SYSTICK_Config(SystemCoreClock / (1000U / uwTickFreq)) > 0U)
 80016ac:	4b0e      	ldr	r3, [pc, #56]	; (80016e8 <HAL_InitTick+0x40>)
 80016ae:	7818      	ldrb	r0, [r3, #0]
 80016b0:	f44f 737a 	mov.w	r3, #1000	; 0x3e8
 80016b4:	fbb3 f3f0 	udiv	r3, r3, r0
 80016b8:	4a0c      	ldr	r2, [pc, #48]	; (80016ec <HAL_InitTick+0x44>)
 80016ba:	6810      	ldr	r0, [r2, #0]
 80016bc:	fbb0 f0f3 	udiv	r0, r0, r3
 80016c0:	f7ff ffde 	bl	8001680 <HAL_SYSTICK_Config>
 80016c4:	b968      	cbnz	r0, 80016e2 <HAL_InitTick+0x3a>
  {
    return HAL_ERROR;
  }

  /* Configure the SysTick IRQ priority */
  if (TickPriority < (1UL << __NVIC_PRIO_BITS))
 80016c6:	2c0f      	cmp	r4, #15
 80016c8:	d901      	bls.n	80016ce <HAL_InitTick+0x26>
    HAL_NVIC_SetPriority(SysTick_IRQn, TickPriority, 0U);
    uwTickPrio = TickPriority;
  }
  else
  {
    return HAL_ERROR;
 80016ca:	2001      	movs	r0, #1
 80016cc:	e00a      	b.n	80016e4 <HAL_InitTick+0x3c>
    HAL_NVIC_SetPriority(SysTick_IRQn, TickPriority, 0U);
 80016ce:	2200      	movs	r2, #0
 80016d0:	4621      	mov	r1, r4
 80016d2:	f04f 30ff 	mov.w	r0, #4294967295
 80016d6:	f7ff ff75 	bl	80015c4 <HAL_NVIC_SetPriority>
    uwTickPrio = TickPriority;
 80016da:	4b05      	ldr	r3, [pc, #20]	; (80016f0 <HAL_InitTick+0x48>)
 80016dc:	601c      	str	r4, [r3, #0]
  }

  /* Return function status */
  return HAL_OK;
 80016de:	2000      	movs	r0, #0
 80016e0:	e000      	b.n	80016e4 <HAL_InitTick+0x3c>
    return HAL_ERROR;
 80016e2:	2001      	movs	r0, #1
}
 80016e4:	bd10      	pop	{r4, pc}
 80016e6:	bf00      	nop
 80016e8:	20000000 	andcs	r0, r0, r0
 80016ec:	20000008 	andcs	r0, r0, r8
 80016f0:	20000004 	andcs	r0, r0, r4

080016f4 <HAL_Init>:
{
 80016f4:	b508      	push	{r3, lr}
  __HAL_FLASH_INSTRUCTION_CACHE_ENABLE();
 80016f6:	4b0b      	ldr	r3, [pc, #44]	; (8001724 <HAL_Init+0x30>)
 80016f8:	681a      	ldr	r2, [r3, #0]
 80016fa:	f442 7200 	orr.w	r2, r2, #512	; 0x200
 80016fe:	601a      	str	r2, [r3, #0]
  __HAL_FLASH_DATA_CACHE_ENABLE();
 8001700:	681a      	ldr	r2, [r3, #0]
 8001702:	f442 6280 	orr.w	r2, r2, #1024	; 0x400
 8001706:	601a      	str	r2, [r3, #0]
  __HAL_FLASH_PREFETCH_BUFFER_ENABLE();
 8001708:	681a      	ldr	r2, [r3, #0]
 800170a:	f442 7280 	orr.w	r2, r2, #256	; 0x100
 800170e:	601a      	str	r2, [r3, #0]
  HAL_NVIC_SetPriorityGrouping(NVIC_PRIORITYGROUP_4);
 8001710:	2003      	movs	r0, #3
 8001712:	f7ff ff39 	bl	8001588 <HAL_NVIC_SetPriorityGrouping>
  HAL_InitTick(TICK_INT_PRIORITY);
 8001716:	200f      	movs	r0, #15
 8001718:	f7ff ffc6 	bl	80016a8 <HAL_InitTick>
  HAL_MspInit();
 800171c:	f7ff f8f6 	bl	800090c <HAL_MspInit>
}
 8001720:	2000      	movs	r0, #0
 8001722:	bd08      	pop	{r3, pc}
 8001724:	40023c00 	andmi	r3, r2, r0, lsl #24

08001728 <HAL_IncTick>:
  *      implementations in user file.
  * @retval None
  */
__weak void HAL_IncTick(void)
{
  uwTick += uwTickFreq;
 8001728:	4a03      	ldr	r2, [pc, #12]	; (8001738 <HAL_IncTick+0x10>)
 800172a:	6811      	ldr	r1, [r2, #0]
 800172c:	4b03      	ldr	r3, [pc, #12]	; (800173c <HAL_IncTick+0x14>)
 800172e:	781b      	ldrb	r3, [r3, #0]
 8001730:	440b      	add	r3, r1
 8001732:	6013      	str	r3, [r2, #0]
}
 8001734:	4770      	bx	lr
 8001736:	bf00      	nop
 8001738:	200080e0 	andcs	r8, r0, r0, ror #1
 800173c:	20000000 	andcs	r0, r0, r0

08001740 <HAL_GetTick>:
  *       implementations in user file.
  * @retval tick value
  */
__weak uint32_t HAL_GetTick(void)
{
  return uwTick;
 8001740:	4b01      	ldr	r3, [pc, #4]	; (8001748 <HAL_GetTick+0x8>)
 8001742:	6818      	ldr	r0, [r3, #0]
}
 8001744:	4770      	bx	lr
 8001746:	bf00      	nop
 8001748:	200080e0 	andcs	r8, r0, r0, ror #1

0800174c <HAL_Delay>:
  *       implementations in user file.
  * @param Delay specifies the delay time length, in milliseconds.
  * @retval None
  */
__weak void HAL_Delay(uint32_t Delay)
{
 800174c:	b538      	push	{r3, r4, r5, lr}
 800174e:	4604      	mov	r4, r0
  uint32_t tickstart = HAL_GetTick();
 8001750:	f7ff fff6 	bl	8001740 <HAL_GetTick>
 8001754:	4605      	mov	r5, r0
  uint32_t wait = Delay;

  /* Add a freq to guarantee minimum wait */
  if (wait < HAL_MAX_DELAY)
 8001756:	f1b4 3fff 	cmp.w	r4, #4294967295
 800175a:	d002      	beq.n	8001762 <HAL_Delay+0x16>
  {
    wait += (uint32_t)(uwTickFreq);
 800175c:	4b04      	ldr	r3, [pc, #16]	; (8001770 <HAL_Delay+0x24>)
 800175e:	781b      	ldrb	r3, [r3, #0]
 8001760:	441c      	add	r4, r3
  }

  while((HAL_GetTick() - tickstart) < wait)
 8001762:	f7ff ffed 	bl	8001740 <HAL_GetTick>
 8001766:	1b40      	subs	r0, r0, r5
 8001768:	42a0      	cmp	r0, r4
 800176a:	d3fa      	bcc.n	8001762 <HAL_Delay+0x16>
  {
  }
}
 800176c:	bd38      	pop	{r3, r4, r5, pc}
 800176e:	bf00      	nop
 8001770:	20000000 	andcs	r0, r0, r0

08001774 <SystemInit>:
  */
void SystemInit(void)
{
  /* FPU settings ------------------------------------------------------------*/
  #if (__FPU_PRESENT == 1) && (__FPU_USED == 1)
    SCB->CPACR |= ((3UL << 10*2)|(3UL << 11*2));  /* set CP10 and CP11 Full Access */
 8001774:	4a03      	ldr	r2, [pc, #12]	; (8001784 <SystemInit+0x10>)
 8001776:	f8d2 3088 	ldr.w	r3, [r2, #136]	; 0x88
 800177a:	f443 0370 	orr.w	r3, r3, #15728640	; 0xf00000
 800177e:	f8c2 3088 	str.w	r3, [r2, #136]	; 0x88

  /* Configure the Vector Table location -------------------------------------*/
#if defined(USER_VECT_TAB_ADDRESS)
  SCB->VTOR = VECT_TAB_BASE_ADDRESS | VECT_TAB_OFFSET; /* Vector Table Relocation in Internal SRAM */
#endif /* USER_VECT_TAB_ADDRESS */
}
 8001782:	4770      	bx	lr
 8001784:	e000ed00 	and	lr, r0, r0, lsl #26

08001788 <fault_dump_opcode>:
    FD_CODE_TEXT_BASE,  FD_CODE_TEXT_ENDS,  FD_CODE_TEXT_SIZE );
    printf("Code Stack Growth Downward:%d\r\n", 
    FD_STACK_GROWTH_DOWNWARD);
}

static unsigned int fault_dump_opcode(unsigned int pc) {
 8001788:	b082      	sub	sp, #8
    uint16_t value[2] = {0};
 800178a:	2300      	movs	r3, #0
 800178c:	9301      	str	r3, [sp, #4]
    unsigned int opcode = 0;
    for (int i = 0; i < (sizeof(value) / sizeof(uint16_t)); i++) {
 800178e:	e007      	b.n	80017a0 <fault_dump_opcode+0x18>
        value[i] = *(uint16_t*)(pc + i * sizeof(uint16_t));
 8001790:	f830 1013 	ldrh.w	r1, [r0, r3, lsl #1]
 8001794:	aa02      	add	r2, sp, #8
 8001796:	eb02 0243 	add.w	r2, r2, r3, lsl #1
 800179a:	f822 1c04 	strh.w	r1, [r2, #-4]
    for (int i = 0; i < (sizeof(value) / sizeof(uint16_t)); i++) {
 800179e:	3301      	adds	r3, #1
 80017a0:	2b01      	cmp	r3, #1
 80017a2:	d9f5      	bls.n	8001790 <fault_dump_opcode+0x8>
    }
    opcode = ((unsigned int)value[1] << 0x10) |
 80017a4:	f8bd 0006 	ldrh.w	r0, [sp, #6]
             ((unsigned int)value[0] << 0x00);
 80017a8:	f8bd 3004 	ldrh.w	r3, [sp, #4]
    return opcode;
}
 80017ac:	ea43 4000 	orr.w	r0, r3, r0, lsl #16
 80017b0:	b002      	add	sp, #8
 80017b2:	4770      	bx	lr

080017b4 <opcode_is_bl_or_blx>:

static bool opcode_is_bl_or_blx(unsigned int ins) {
#define FD_BL_OPCODE_MASK   (0xF800)
#define FD_BL_OPCODE_BL     (0xF000)
#define FD_BL_OPCODE_BLX    (0xF800)
    uint16_t opcode1 = (((ins >> 0x00) & 0xFFFF) & FD_BL_OPCODE_MASK);
 80017b4:	f400 4378 	and.w	r3, r0, #63488	; 0xf800
    uint16_t opcode2 = (((ins >> 0x10) & 0xFFFF) & FD_BL_OPCODE_MASK);
 80017b8:	0c00      	lsrs	r0, r0, #16
 80017ba:	f400 4078 	and.w	r0, r0, #63488	; 0xf800
    if ((opcode1 == FD_BL_OPCODE_BL) || (opcode1 == FD_BL_OPCODE_BLX)) {
 80017be:	f5b3 4f70 	cmp.w	r3, #61440	; 0xf000
 80017c2:	d00a      	beq.n	80017da <opcode_is_bl_or_blx+0x26>
 80017c4:	f5b3 4f78 	cmp.w	r3, #63488	; 0xf800
 80017c8:	d009      	beq.n	80017de <opcode_is_bl_or_blx+0x2a>
        return true;
    }
    if ((opcode2 == FD_BL_OPCODE_BL) || (opcode2 == FD_BL_OPCODE_BLX)) {
 80017ca:	f5b0 4f70 	cmp.w	r0, #61440	; 0xf000
 80017ce:	d008      	beq.n	80017e2 <opcode_is_bl_or_blx+0x2e>
 80017d0:	f5b0 4f78 	cmp.w	r0, #63488	; 0xf800
 80017d4:	d007      	beq.n	80017e6 <opcode_is_bl_or_blx+0x32>
        return true;
    }
    return false;
 80017d6:	2000      	movs	r0, #0
 80017d8:	4770      	bx	lr
        return true;
 80017da:	2001      	movs	r0, #1
 80017dc:	4770      	bx	lr
 80017de:	2001      	movs	r0, #1
 80017e0:	4770      	bx	lr
        return true;
 80017e2:	2001      	movs	r0, #1
 80017e4:	4770      	bx	lr
 80017e6:	2001      	movs	r0, #1
}
 80017e8:	4770      	bx	lr
	...

080017ec <dump_exc_return>:

static void dump_exc_return(unsigned int exc_return) {
 80017ec:	b510      	push	{r4, lr}
 80017ee:	4604      	mov	r4, r0
    printf(" EXE_RETURN: 0x%08X \r\n", exc_return);
 80017f0:	4601      	mov	r1, r0
 80017f2:	4803      	ldr	r0, [pc, #12]	; (8001800 <dump_exc_return+0x14>)
 80017f4:	f001 fe8c 	bl	8003510 <iprintf>
#if FD_DUMP_EXC_RETURN_VALUE
    extern void fault_dump_exc_return(unsigned int exc_return);
    fault_dump_exc_return(exc_return);
 80017f8:	4620      	mov	r0, r4
 80017fa:	f000 f92b 	bl	8001a54 <fault_dump_exc_return>
#endif
}
 80017fe:	bd10      	pop	{r4, pc}
 8001800:	08004708 	stmdaeq	r0, {r3, r8, r9, sl, lr}

08001804 <fault_dump_init>:
void fault_dump_init(void) {
 8001804:	b508      	push	{r3, lr}
    fd_main_stack_base = FD_CODE_STACK_BASE;
 8001806:	490a      	ldr	r1, [pc, #40]	; (8001830 <fault_dump_init+0x2c>)
 8001808:	4b0a      	ldr	r3, [pc, #40]	; (8001834 <fault_dump_init+0x30>)
 800180a:	6019      	str	r1, [r3, #0]
    fd_main_stack_full = FD_CODE_STACK_FULL;
 800180c:	4a0a      	ldr	r2, [pc, #40]	; (8001838 <fault_dump_init+0x34>)
 800180e:	4b0b      	ldr	r3, [pc, #44]	; (800183c <fault_dump_init+0x38>)
 8001810:	601a      	str	r2, [r3, #0]
    printf("Code Stack:[%08X - %08X], size:%d\r\n",
 8001812:	1a53      	subs	r3, r2, r1
 8001814:	480a      	ldr	r0, [pc, #40]	; (8001840 <fault_dump_init+0x3c>)
 8001816:	f001 fe7b 	bl	8003510 <iprintf>
    printf("Code Text :[%08X - %08X], size:%d\r\n",
 800181a:	490a      	ldr	r1, [pc, #40]	; (8001844 <fault_dump_init+0x40>)
 800181c:	4a0a      	ldr	r2, [pc, #40]	; (8001848 <fault_dump_init+0x44>)
 800181e:	1a53      	subs	r3, r2, r1
 8001820:	480a      	ldr	r0, [pc, #40]	; (800184c <fault_dump_init+0x48>)
 8001822:	f001 fe75 	bl	8003510 <iprintf>
    printf("Code Stack Growth Downward:%d\r\n", 
 8001826:	2101      	movs	r1, #1
 8001828:	4809      	ldr	r0, [pc, #36]	; (8001850 <fault_dump_init+0x4c>)
 800182a:	f001 fe71 	bl	8003510 <iprintf>
}
 800182e:	bd08      	pop	{r3, pc}
 8001830:	200091a0 	andcs	r9, r0, r0, lsr #3
 8001834:	200081e4 	andcs	r8, r0, r4, ror #3
 8001838:	200099a0 	andcs	r9, r0, r0, lsr #19
 800183c:	200081e8 	andcs	r8, r0, r8, ror #3
 8001840:	08004720 	stmdaeq	r0, {r5, r8, r9, sl, lr}
 8001844:	08000190 	stmdaeq	r0, {r4, r7, r8}
 8001848:	08004530 	stmdaeq	r0, {r4, r5, r8, sl, lr}
 800184c:	08004744 	stmdaeq	r0, {r2, r6, r8, r9, sl, lr}
 8001850:	08004768 	stmdaeq	r0, {r3, r5, r6, r8, r9, sl, lr}

08001854 <fault_dump_callstack>:
    }
    printf("\r\n");
    while (1);
}

int fault_dump_callstack(unsigned int *buffer, size_t size, unsigned int *stack_point, unsigned int *stack_start) {
 8001854:	e92d 43f8 	stmdb	sp!, {r3, r4, r5, r6, r7, r8, r9, lr}
    int count = 0;
    unsigned int pc = 0, op = 0, *sp = NULL;
    if ((buffer == NULL) || (size <= 0)) {
 8001858:	b348      	cbz	r0, 80018ae <fault_dump_callstack+0x5a>
 800185a:	460f      	mov	r7, r1
 800185c:	4614      	mov	r4, r2
 800185e:	461d      	mov	r5, r3
 8001860:	4680      	mov	r8, r0
 8001862:	b339      	cbz	r1, 80018b4 <fault_dump_callstack+0x60>
        return -FD_EEMPTY;
    }
    FD_STACK_CHECKIT(stack_point, stack_start) {
 8001864:	b34a      	cbz	r2, 80018ba <fault_dump_callstack+0x66>
 8001866:	429a      	cmp	r2, r3
 8001868:	d82a      	bhi.n	80018c0 <fault_dump_callstack+0x6c>
    int count = 0;
 800186a:	2600      	movs	r6, #0
 800186c:	e000      	b.n	8001870 <fault_dump_callstack+0x1c>
        return -FD_EINVAL;
    }
    FD_STACK_FOREACH(stack_point, stack_start) {
 800186e:	3404      	adds	r4, #4
 8001870:	b1d4      	cbz	r4, 80018a8 <fault_dump_callstack+0x54>
 8001872:	42ac      	cmp	r4, r5
 8001874:	d818      	bhi.n	80018a8 <fault_dump_callstack+0x54>
        // Read stack[x] value to pc.
        pc = *(unsigned int *)sp;
 8001876:	6822      	ldr	r2, [r4, #0]
        // PC must be in the code segment.
        if ((pc < FD_CODE_TEXT_BASE) || (pc > FD_CODE_TEXT_ENDS)) {
 8001878:	4813      	ldr	r0, [pc, #76]	; (80018c8 <fault_dump_callstack+0x74>)
 800187a:	4290      	cmp	r0, r2
 800187c:	d8f7      	bhi.n	800186e <fault_dump_callstack+0x1a>
 800187e:	4b13      	ldr	r3, [pc, #76]	; (80018cc <fault_dump_callstack+0x78>)
 8001880:	4293      	cmp	r3, r2
 8001882:	d3f4      	bcc.n	800186e <fault_dump_callstack+0x1a>
            continue;
        }
        // The thumb instruction must be an odd number.
        if ((pc % 2) == 0) {
 8001884:	f012 0f01 	tst.w	r2, #1
 8001888:	d0f1      	beq.n	800186e <fault_dump_callstack+0x1a>
            continue;
        }
        // Fix thumb instruction set.
        pc = pc - 1;
        // Calculate the address of the instruction being executed before pushing on the stack.
        pc = pc - sizeof(unsigned int);
 800188a:	f1a2 0905 	sub.w	r9, r2, #5
        // The thumb instruction is at least 2-byte aligned.
        if ((pc & 0x1) != 0) {
 800188e:	d0ee      	beq.n	800186e <fault_dump_callstack+0x1a>
            continue;
        }
        // Read the instruction at the PC address.
        op = fault_dump_opcode(pc);
 8001890:	4648      	mov	r0, r9
 8001892:	f7ff ff79 	bl	8001788 <fault_dump_opcode>
        // Only BL or BLX opcode need to be recorded.
        if (!opcode_is_bl_or_blx(op)) {
 8001896:	f7ff ff8d 	bl	80017b4 <opcode_is_bl_or_blx>
 800189a:	2800      	cmp	r0, #0
 800189c:	d0e7      	beq.n	800186e <fault_dump_callstack+0x1a>
            continue;
        }
        // storage this address.
        buffer[count] = pc;
 800189e:	f848 9026 	str.w	r9, [r8, r6, lsl #2]
        count = count + 1;
 80018a2:	3601      	adds	r6, #1
        if (count >= size) {
 80018a4:	42be      	cmp	r6, r7
 80018a6:	d3e2      	bcc.n	800186e <fault_dump_callstack+0x1a>
            break;
        }
    }
    return count;
}
 80018a8:	4630      	mov	r0, r6
 80018aa:	e8bd 83f8 	ldmia.w	sp!, {r3, r4, r5, r6, r7, r8, r9, pc}
        return -FD_EEMPTY;
 80018ae:	f06f 0601 	mvn.w	r6, #1
 80018b2:	e7f9      	b.n	80018a8 <fault_dump_callstack+0x54>
 80018b4:	f06f 0601 	mvn.w	r6, #1
 80018b8:	e7f6      	b.n	80018a8 <fault_dump_callstack+0x54>
        return -FD_EINVAL;
 80018ba:	f06f 0602 	mvn.w	r6, #2
 80018be:	e7f3      	b.n	80018a8 <fault_dump_callstack+0x54>
 80018c0:	f06f 0602 	mvn.w	r6, #2
 80018c4:	e7f0      	b.n	80018a8 <fault_dump_callstack+0x54>
 80018c6:	bf00      	nop
 80018c8:	08000190 	stmdaeq	r0, {r4, r7, r8}
 80018cc:	08004530 	stmdaeq	r0, {r4, r5, r8, sl, lr}

080018d0 <fault_dump_handler>:
void fault_dump_handler(unsigned int *stack, unsigned int linker) {
 80018d0:	b5f8      	push	{r3, r4, r5, r6, r7, lr}
 80018d2:	4605      	mov	r5, r0
 80018d4:	460e      	mov	r6, r1
    frame.manual.r4  = FD_STACK_READVAL(point);
 80018d6:	6803      	ldr	r3, [r0, #0]
 80018d8:	4c46      	ldr	r4, [pc, #280]	; (80019f4 <fault_dump_handler+0x124>)
 80018da:	6023      	str	r3, [r4, #0]
    frame.manual.r5  = FD_STACK_READVAL(point);
 80018dc:	6843      	ldr	r3, [r0, #4]
 80018de:	6063      	str	r3, [r4, #4]
    frame.manual.r6  = FD_STACK_READVAL(point);
 80018e0:	6883      	ldr	r3, [r0, #8]
 80018e2:	60a3      	str	r3, [r4, #8]
    frame.manual.r7  = FD_STACK_READVAL(point);
 80018e4:	68c3      	ldr	r3, [r0, #12]
 80018e6:	60e3      	str	r3, [r4, #12]
    frame.manual.r8  = FD_STACK_READVAL(point);
 80018e8:	6903      	ldr	r3, [r0, #16]
 80018ea:	6123      	str	r3, [r4, #16]
    frame.manual.r9  = FD_STACK_READVAL(point);
 80018ec:	6943      	ldr	r3, [r0, #20]
 80018ee:	6163      	str	r3, [r4, #20]
    frame.manual.r10 = FD_STACK_READVAL(point);
 80018f0:	6983      	ldr	r3, [r0, #24]
 80018f2:	61a3      	str	r3, [r4, #24]
    frame.manual.r11 = FD_STACK_READVAL(point);
 80018f4:	69c3      	ldr	r3, [r0, #28]
 80018f6:	61e3      	str	r3, [r4, #28]
    frame.except.r0  = FD_STACK_READVAL(point);
 80018f8:	6a03      	ldr	r3, [r0, #32]
 80018fa:	6223      	str	r3, [r4, #32]
    frame.except.r1  = FD_STACK_READVAL(point);
 80018fc:	6a43      	ldr	r3, [r0, #36]	; 0x24
 80018fe:	6263      	str	r3, [r4, #36]	; 0x24
    frame.except.r2  = FD_STACK_READVAL(point);
 8001900:	6a83      	ldr	r3, [r0, #40]	; 0x28
 8001902:	62a3      	str	r3, [r4, #40]	; 0x28
    frame.except.r3  = FD_STACK_READVAL(point);
 8001904:	6ac3      	ldr	r3, [r0, #44]	; 0x2c
 8001906:	62e3      	str	r3, [r4, #44]	; 0x2c
    frame.except.r12 = FD_STACK_READVAL(point);
 8001908:	6b03      	ldr	r3, [r0, #48]	; 0x30
 800190a:	6323      	str	r3, [r4, #48]	; 0x30
    frame.except.lr  = FD_STACK_READVAL(point);
 800190c:	6b43      	ldr	r3, [r0, #52]	; 0x34
 800190e:	6363      	str	r3, [r4, #52]	; 0x34
    frame.except.pc  = FD_STACK_READVAL(point);
 8001910:	6b83      	ldr	r3, [r0, #56]	; 0x38
 8001912:	63a3      	str	r3, [r4, #56]	; 0x38
    frame.except.psr = FD_STACK_READVAL(point);
 8001914:	6bc3      	ldr	r3, [r0, #60]	; 0x3c
 8001916:	63e3      	str	r3, [r4, #60]	; 0x3c
    printf("\r\n");
 8001918:	4f37      	ldr	r7, [pc, #220]	; (80019f8 <fault_dump_handler+0x128>)
 800191a:	4638      	mov	r0, r7
 800191c:	f001 fe7e 	bl	800361c <puts>
    printf(" HardFault Information Dump \r\n");
 8001920:	4836      	ldr	r0, [pc, #216]	; (80019fc <fault_dump_handler+0x12c>)
 8001922:	f001 fe7b 	bl	800361c <puts>
    printf(" Stack Frame   \r\n");
 8001926:	4836      	ldr	r0, [pc, #216]	; (8001a00 <fault_dump_handler+0x130>)
 8001928:	f001 fe78 	bl	800361c <puts>
    printf(" R0   = 0x%08X \r\n", (unsigned int)frame.except.r0);
 800192c:	6a21      	ldr	r1, [r4, #32]
 800192e:	4835      	ldr	r0, [pc, #212]	; (8001a04 <fault_dump_handler+0x134>)
 8001930:	f001 fdee 	bl	8003510 <iprintf>
    printf(" R1   = 0x%08X \r\n", (unsigned int)frame.except.r1);
 8001934:	6a61      	ldr	r1, [r4, #36]	; 0x24
 8001936:	4834      	ldr	r0, [pc, #208]	; (8001a08 <fault_dump_handler+0x138>)
 8001938:	f001 fdea 	bl	8003510 <iprintf>
    printf(" R2   = 0x%08X \r\n", (unsigned int)frame.except.r2);
 800193c:	6aa1      	ldr	r1, [r4, #40]	; 0x28
 800193e:	4833      	ldr	r0, [pc, #204]	; (8001a0c <fault_dump_handler+0x13c>)
 8001940:	f001 fde6 	bl	8003510 <iprintf>
    printf(" R3   = 0x%08X \r\n", (unsigned int)frame.except.r3);
 8001944:	6ae1      	ldr	r1, [r4, #44]	; 0x2c
 8001946:	4832      	ldr	r0, [pc, #200]	; (8001a10 <fault_dump_handler+0x140>)
 8001948:	f001 fde2 	bl	8003510 <iprintf>
    printf(" R4   = 0x%08X \r\n", (unsigned int)frame.manual.r4);
 800194c:	6821      	ldr	r1, [r4, #0]
 800194e:	4831      	ldr	r0, [pc, #196]	; (8001a14 <fault_dump_handler+0x144>)
 8001950:	f001 fdde 	bl	8003510 <iprintf>
    printf(" R5   = 0x%08X \r\n", (unsigned int)frame.manual.r5);
 8001954:	6861      	ldr	r1, [r4, #4]
 8001956:	4830      	ldr	r0, [pc, #192]	; (8001a18 <fault_dump_handler+0x148>)
 8001958:	f001 fdda 	bl	8003510 <iprintf>
    printf(" R6   = 0x%08X \r\n", (unsigned int)frame.manual.r6);
 800195c:	68a1      	ldr	r1, [r4, #8]
 800195e:	482f      	ldr	r0, [pc, #188]	; (8001a1c <fault_dump_handler+0x14c>)
 8001960:	f001 fdd6 	bl	8003510 <iprintf>
    printf(" R7   = 0x%08X \r\n", (unsigned int)frame.manual.r7);
 8001964:	68e1      	ldr	r1, [r4, #12]
 8001966:	482e      	ldr	r0, [pc, #184]	; (8001a20 <fault_dump_handler+0x150>)
 8001968:	f001 fdd2 	bl	8003510 <iprintf>
    printf(" R8   = 0x%08X \r\n", (unsigned int)frame.manual.r8);
 800196c:	6921      	ldr	r1, [r4, #16]
 800196e:	482d      	ldr	r0, [pc, #180]	; (8001a24 <fault_dump_handler+0x154>)
 8001970:	f001 fdce 	bl	8003510 <iprintf>
    printf(" R9   = 0x%08X \r\n", (unsigned int)frame.manual.r9);
 8001974:	6961      	ldr	r1, [r4, #20]
 8001976:	482c      	ldr	r0, [pc, #176]	; (8001a28 <fault_dump_handler+0x158>)
 8001978:	f001 fdca 	bl	8003510 <iprintf>
    printf(" R10  = 0x%08X \r\n", (unsigned int)frame.manual.r10);
 800197c:	69a1      	ldr	r1, [r4, #24]
 800197e:	482b      	ldr	r0, [pc, #172]	; (8001a2c <fault_dump_handler+0x15c>)
 8001980:	f001 fdc6 	bl	8003510 <iprintf>
    printf(" R11  = 0x%08X \r\n", (unsigned int)frame.manual.r11);
 8001984:	69e1      	ldr	r1, [r4, #28]
 8001986:	482a      	ldr	r0, [pc, #168]	; (8001a30 <fault_dump_handler+0x160>)
 8001988:	f001 fdc2 	bl	8003510 <iprintf>
    printf(" R12  = 0x%08X \r\n", (unsigned int)frame.except.r12);
 800198c:	6b21      	ldr	r1, [r4, #48]	; 0x30
 800198e:	4829      	ldr	r0, [pc, #164]	; (8001a34 <fault_dump_handler+0x164>)
 8001990:	f001 fdbe 	bl	8003510 <iprintf>
    printf(" LR   = 0x%08X \r\n", (unsigned int)frame.except.lr);
 8001994:	6b61      	ldr	r1, [r4, #52]	; 0x34
 8001996:	4828      	ldr	r0, [pc, #160]	; (8001a38 <fault_dump_handler+0x168>)
 8001998:	f001 fdba 	bl	8003510 <iprintf>
    printf(" PC   = 0x%08X \r\n", (unsigned int)frame.except.pc);
 800199c:	6ba1      	ldr	r1, [r4, #56]	; 0x38
 800199e:	4827      	ldr	r0, [pc, #156]	; (8001a3c <fault_dump_handler+0x16c>)
 80019a0:	f001 fdb6 	bl	8003510 <iprintf>
    printf(" PSR  = 0x%08X \r\n", (unsigned int)frame.except.psr);
 80019a4:	6be1      	ldr	r1, [r4, #60]	; 0x3c
 80019a6:	4826      	ldr	r0, [pc, #152]	; (8001a40 <fault_dump_handler+0x170>)
 80019a8:	f001 fdb2 	bl	8003510 <iprintf>
    printf("\r\n");
 80019ac:	4638      	mov	r0, r7
 80019ae:	f001 fe35 	bl	800361c <puts>
    dump_exc_return(linker);
 80019b2:	4630      	mov	r0, r6
 80019b4:	f7ff ff1a 	bl	80017ec <dump_exc_return>
    count = fault_dump_callstack(buffer, FD_STACK_DUMP_DEPTH_MAX, 
 80019b8:	4b22      	ldr	r3, [pc, #136]	; (8001a44 <fault_dump_handler+0x174>)
 80019ba:	f105 0240 	add.w	r2, r5, #64	; 0x40
 80019be:	2140      	movs	r1, #64	; 0x40
 80019c0:	4821      	ldr	r0, [pc, #132]	; (8001a48 <fault_dump_handler+0x178>)
 80019c2:	f7ff ff47 	bl	8001854 <fault_dump_callstack>
 80019c6:	4605      	mov	r5, r0
    printf(" Stack Call: ");
 80019c8:	4820      	ldr	r0, [pc, #128]	; (8001a4c <fault_dump_handler+0x17c>)
 80019ca:	f001 fda1 	bl	8003510 <iprintf>
    printf("%08X ", (unsigned int)frame.except.pc);
 80019ce:	6ba1      	ldr	r1, [r4, #56]	; 0x38
 80019d0:	481f      	ldr	r0, [pc, #124]	; (8001a50 <fault_dump_handler+0x180>)
 80019d2:	f001 fd9d 	bl	8003510 <iprintf>
    for (index = 0; index < count; index++) {
 80019d6:	2400      	movs	r4, #0
 80019d8:	e006      	b.n	80019e8 <fault_dump_handler+0x118>
        printf("%08X ", buffer[index]);
 80019da:	4b1b      	ldr	r3, [pc, #108]	; (8001a48 <fault_dump_handler+0x178>)
 80019dc:	f853 1024 	ldr.w	r1, [r3, r4, lsl #2]
 80019e0:	481b      	ldr	r0, [pc, #108]	; (8001a50 <fault_dump_handler+0x180>)
 80019e2:	f001 fd95 	bl	8003510 <iprintf>
    for (index = 0; index < count; index++) {
 80019e6:	3401      	adds	r4, #1
 80019e8:	42ac      	cmp	r4, r5
 80019ea:	dbf6      	blt.n	80019da <fault_dump_handler+0x10a>
    printf("\r\n");
 80019ec:	4802      	ldr	r0, [pc, #8]	; (80019f8 <fault_dump_handler+0x128>)
 80019ee:	f001 fe15 	bl	800361c <puts>
    while (1);
 80019f2:	e7fe      	b.n	80019f2 <fault_dump_handler+0x122>
 80019f4:	200081ec 	andcs	r8, r0, ip, ror #3
 80019f8:	080047a4 	stmdaeq	r0, {r2, r5, r7, r8, r9, sl, lr}
 80019fc:	08004788 	stmdaeq	r0, {r3, r7, r8, r9, sl, lr}
 8001a00:	080047a8 	stmdaeq	r0, {r3, r5, r7, r8, r9, sl, lr}
 8001a04:	080047bc 	stmdaeq	r0, {r2, r3, r4, r5, r7, r8, r9, sl, lr}
 8001a08:	080047d0 	stmdaeq	r0, {r4, r6, r7, r8, r9, sl, lr}
 8001a0c:	080047e4 	stmdaeq	r0, {r2, r5, r6, r7, r8, r9, sl, lr}
 8001a10:	080047f8 	stmdaeq	r0, {r3, r4, r5, r6, r7, r8, r9, sl, lr}
 8001a14:	0800480c 	stmdaeq	r0, {r2, r3, fp, lr}
 8001a18:	08004820 	stmdaeq	r0, {r5, fp, lr}
 8001a1c:	08004834 	stmdaeq	r0, {r2, r4, r5, fp, lr}
 8001a20:	08004848 	stmdaeq	r0, {r3, r6, fp, lr}
 8001a24:	0800485c 	stmdaeq	r0, {r2, r3, r4, r6, fp, lr}
 8001a28:	08004870 	stmdaeq	r0, {r4, r5, r6, fp, lr}
 8001a2c:	08004884 	stmdaeq	r0, {r2, r7, fp, lr}
 8001a30:	08004898 	stmdaeq	r0, {r3, r4, r7, fp, lr}
 8001a34:	080048ac 	stmdaeq	r0, {r2, r3, r5, r7, fp, lr}
 8001a38:	080048c0 	stmdaeq	r0, {r6, r7, fp, lr}
 8001a3c:	080048d4 	stmdaeq	r0, {r2, r4, r6, r7, fp, lr}
 8001a40:	080048e8 	stmdaeq	r0, {r3, r5, r6, r7, fp, lr}
 8001a44:	200099a0 	andcs	r9, r0, r0, lsr #19
 8001a48:	200080e4 	andcs	r8, r0, r4, ror #1
 8001a4c:	080048fc 	stmdaeq	r0, {r2, r3, r4, r5, r6, r7, fp, lr}
 8001a50:	0800490c 	stmdaeq	r0, {r2, r3, r8, fp, lr}

08001a54 <fault_dump_exc_return>:
  *
  ******************************************************************************
  */
#include "fault-dump.h"

void fault_dump_exc_return(unsigned int exc_return) {
 8001a54:	b510      	push	{r4, lr}
 8001a56:	4604      	mov	r4, r0
    printf(" \r\n");
 8001a58:	4816      	ldr	r0, [pc, #88]	; (8001ab4 <fault_dump_exc_return+0x60>)
 8001a5a:	f001 fddf 	bl	800361c <puts>
    printf(" Bit2 Return Stack Select: ");
 8001a5e:	4816      	ldr	r0, [pc, #88]	; (8001ab8 <fault_dump_exc_return+0x64>)
 8001a60:	f001 fd56 	bl	8003510 <iprintf>
    if (FD_CHECK_BIT(exc_return, 2)) {
 8001a64:	f014 0f04 	tst.w	r4, #4
 8001a68:	d018      	beq.n	8001a9c <fault_dump_exc_return+0x48>
        printf("[Use PSP               ].\r\n");
 8001a6a:	4814      	ldr	r0, [pc, #80]	; (8001abc <fault_dump_exc_return+0x68>)
 8001a6c:	f001 fdd6 	bl	800361c <puts>
    } else {
        printf("[Use MSP               ].\r\n");
    }
    printf(" Bit3 Return Mode Select:  ");
 8001a70:	4813      	ldr	r0, [pc, #76]	; (8001ac0 <fault_dump_exc_return+0x6c>)
 8001a72:	f001 fd4d 	bl	8003510 <iprintf>
    if (FD_CHECK_BIT(exc_return, 3)) {
 8001a76:	f014 0f08 	tst.w	r4, #8
 8001a7a:	d013      	beq.n	8001aa4 <fault_dump_exc_return+0x50>
        printf("[Use Thread Mode       ].\r\n");
 8001a7c:	4811      	ldr	r0, [pc, #68]	; (8001ac4 <fault_dump_exc_return+0x70>)
 8001a7e:	f001 fdcd 	bl	800361c <puts>
    } else {
        printf("[Use Process Mode      ].\r\n");
    }
    printf(" Bit4 Stack Frame Type:    ");
 8001a82:	4811      	ldr	r0, [pc, #68]	; (8001ac8 <fault_dump_exc_return+0x74>)
 8001a84:	f001 fd44 	bl	8003510 <iprintf>
    if (FD_CHECK_BIT(exc_return, 4)) {
 8001a88:	f014 0f10 	tst.w	r4, #16
 8001a8c:	d00e      	beq.n	8001aac <fault_dump_exc_return+0x58>
        printf("[Use 8 World Frame     ].\r\n");
 8001a8e:	480f      	ldr	r0, [pc, #60]	; (8001acc <fault_dump_exc_return+0x78>)
 8001a90:	f001 fdc4 	bl	800361c <puts>
    } else {
        printf("[Use 26 World Frame    ].\r\n");
    }
    printf(" \r\n");
 8001a94:	4807      	ldr	r0, [pc, #28]	; (8001ab4 <fault_dump_exc_return+0x60>)
 8001a96:	f001 fdc1 	bl	800361c <puts>
}
 8001a9a:	bd10      	pop	{r4, pc}
        printf("[Use MSP               ].\r\n");
 8001a9c:	480c      	ldr	r0, [pc, #48]	; (8001ad0 <fault_dump_exc_return+0x7c>)
 8001a9e:	f001 fdbd 	bl	800361c <puts>
 8001aa2:	e7e5      	b.n	8001a70 <fault_dump_exc_return+0x1c>
        printf("[Use Process Mode      ].\r\n");
 8001aa4:	480b      	ldr	r0, [pc, #44]	; (8001ad4 <fault_dump_exc_return+0x80>)
 8001aa6:	f001 fdb9 	bl	800361c <puts>
 8001aaa:	e7ea      	b.n	8001a82 <fault_dump_exc_return+0x2e>
        printf("[Use 26 World Frame    ].\r\n");
 8001aac:	480a      	ldr	r0, [pc, #40]	; (8001ad8 <fault_dump_exc_return+0x84>)
 8001aae:	f001 fdb5 	bl	800361c <puts>
 8001ab2:	e7ef      	b.n	8001a94 <fault_dump_exc_return+0x40>
 8001ab4:	08004914 	stmdaeq	r0, {r2, r4, r8, fp, lr}
 8001ab8:	08004918 	stmdaeq	r0, {r3, r4, r8, fp, lr}
 8001abc:	08004934 	stmdaeq	r0, {r2, r4, r5, r8, fp, lr}
 8001ac0:	0800496c 	stmdaeq	r0, {r2, r3, r5, r6, r8, fp, lr}
 8001ac4:	08004988 	stmdaeq	r0, {r3, r7, r8, fp, lr}
 8001ac8:	080049c0 	stmdaeq	r0, {r6, r7, r8, fp, lr}
 8001acc:	080049dc 	stmdaeq	r0, {r2, r3, r4, r6, r7, r8, fp, lr}
 8001ad0:	08004950 	stmdaeq	r0, {r4, r6, r8, fp, lr}
 8001ad4:	080049a4 	stmdaeq	r0, {r2, r5, r7, r8, fp, lr}
 8001ad8:	080049f8 	stmdaeq	r0, {r3, r4, r5, r6, r7, r8, fp, lr}

08001adc <vListInitialise>:
    traceENTER_vListInitialise( pxList );

    /* The list structure contains a list item which is used to mark the
     * end of the list.  To initialise the list the list end is inserted
     * as the only list entry. */
    pxList->pxIndex = ( ListItem_t * ) &( pxList->xListEnd );
 8001adc:	f100 0308 	add.w	r3, r0, #8
 8001ae0:	6043      	str	r3, [r0, #4]

    listSET_FIRST_LIST_ITEM_INTEGRITY_CHECK_VALUE( &( pxList->xListEnd ) );

    /* The list end value is the highest possible value in the list to
     * ensure it remains at the end of the list. */
    pxList->xListEnd.xItemValue = portMAX_DELAY;
 8001ae2:	f04f 32ff 	mov.w	r2, #4294967295
 8001ae6:	6082      	str	r2, [r0, #8]

    /* The list end next and previous pointers point to itself so we know
     * when the list is empty. */
    pxList->xListEnd.pxNext = ( ListItem_t * ) &( pxList->xListEnd );
 8001ae8:	60c3      	str	r3, [r0, #12]
    pxList->xListEnd.pxPrevious = ( ListItem_t * ) &( pxList->xListEnd );
 8001aea:	6103      	str	r3, [r0, #16]

    /* Initialize the remaining fields of xListEnd when it is a proper ListItem_t */
    #if ( configUSE_MINI_LIST_ITEM == 0 )
    {
        pxList->xListEnd.pvOwner = NULL;
 8001aec:	2300      	movs	r3, #0
 8001aee:	6143      	str	r3, [r0, #20]
        pxList->xListEnd.pxContainer = NULL;
 8001af0:	6183      	str	r3, [r0, #24]
        listSET_SECOND_LIST_ITEM_INTEGRITY_CHECK_VALUE( &( pxList->xListEnd ) );
    }
    #endif

    pxList->uxNumberOfItems = ( UBaseType_t ) 0U;
 8001af2:	6003      	str	r3, [r0, #0]
     * configUSE_LIST_DATA_INTEGRITY_CHECK_BYTES is set to 1. */
    listSET_LIST_INTEGRITY_CHECK_1_VALUE( pxList );
    listSET_LIST_INTEGRITY_CHECK_2_VALUE( pxList );

    traceRETURN_vListInitialise();
}
 8001af4:	4770      	bx	lr

08001af6 <vListInitialiseItem>:
void vListInitialiseItem( ListItem_t * const pxItem )
{
    traceENTER_vListInitialiseItem( pxItem );

    /* Make sure the list item is not recorded as being on a list. */
    pxItem->pxContainer = NULL;
 8001af6:	2300      	movs	r3, #0
 8001af8:	6103      	str	r3, [r0, #16]
     * configUSE_LIST_DATA_INTEGRITY_CHECK_BYTES is set to 1. */
    listSET_FIRST_LIST_ITEM_INTEGRITY_CHECK_VALUE( pxItem );
    listSET_SECOND_LIST_ITEM_INTEGRITY_CHECK_VALUE( pxItem );

    traceRETURN_vListInitialiseItem();
}
 8001afa:	4770      	bx	lr

08001afc <vListInsert>:
}
/*-----------------------------------------------------------*/

void vListInsert( List_t * const pxList,
                  ListItem_t * const pxNewListItem )
{
 8001afc:	b430      	push	{r4, r5}
    ListItem_t * pxIterator;
    const TickType_t xValueOfInsertion = pxNewListItem->xItemValue;
 8001afe:	680d      	ldr	r5, [r1, #0]
     * new list item should be placed after it.  This ensures that TCBs which are
     * stored in ready lists (all of which have the same xItemValue value) get a
     * share of the CPU.  However, if the xItemValue is the same as the back marker
     * the iteration loop below will not end.  Therefore the value is checked
     * first, and the algorithm slightly modified if necessary. */
    if( xValueOfInsertion == portMAX_DELAY )
 8001b00:	f1b5 3fff 	cmp.w	r5, #4294967295
 8001b04:	d011      	beq.n	8001b2a <vListInsert+0x2e>
        *   5) If the FreeRTOS port supports interrupt nesting then ensure that
        *      the priority of the tick interrupt is at or below
        *      configMAX_SYSCALL_INTERRUPT_PRIORITY.
        **********************************************************************/

        for( pxIterator = ( ListItem_t * ) &( pxList->xListEnd ); pxIterator->pxNext->xItemValue <= xValueOfInsertion; pxIterator = pxIterator->pxNext )
 8001b06:	f100 0308 	add.w	r3, r0, #8
 8001b0a:	461c      	mov	r4, r3
 8001b0c:	685b      	ldr	r3, [r3, #4]
 8001b0e:	681a      	ldr	r2, [r3, #0]
 8001b10:	42aa      	cmp	r2, r5
 8001b12:	d9fa      	bls.n	8001b0a <vListInsert+0xe>
            /* There is nothing to do here, just iterating to the wanted
             * insertion position. */
        }
    }

    pxNewListItem->pxNext = pxIterator->pxNext;
 8001b14:	6863      	ldr	r3, [r4, #4]
 8001b16:	604b      	str	r3, [r1, #4]
    pxNewListItem->pxNext->pxPrevious = pxNewListItem;
 8001b18:	6099      	str	r1, [r3, #8]
    pxNewListItem->pxPrevious = pxIterator;
 8001b1a:	608c      	str	r4, [r1, #8]
    pxIterator->pxNext = pxNewListItem;
 8001b1c:	6061      	str	r1, [r4, #4]

    /* Remember which list the item is in.  This allows fast removal of the
     * item later. */
    pxNewListItem->pxContainer = pxList;
 8001b1e:	6108      	str	r0, [r1, #16]

    ( pxList->uxNumberOfItems ) = ( UBaseType_t ) ( pxList->uxNumberOfItems + 1U );
 8001b20:	6803      	ldr	r3, [r0, #0]
 8001b22:	3301      	adds	r3, #1
 8001b24:	6003      	str	r3, [r0, #0]

    traceRETURN_vListInsert();
}
 8001b26:	bc30      	pop	{r4, r5}
 8001b28:	4770      	bx	lr
        pxIterator = pxList->xListEnd.pxPrevious;
 8001b2a:	6904      	ldr	r4, [r0, #16]
 8001b2c:	e7f2      	b.n	8001b14 <vListInsert+0x18>

08001b2e <uxListRemove>:

UBaseType_t uxListRemove( ListItem_t * const pxItemToRemove )
{
    /* The list item knows which list it is in.  Obtain the list from the list
     * item. */
    List_t * const pxList = pxItemToRemove->pxContainer;
 8001b2e:	6903      	ldr	r3, [r0, #16]

    traceENTER_uxListRemove( pxItemToRemove );

    pxItemToRemove->pxNext->pxPrevious = pxItemToRemove->pxPrevious;
 8001b30:	6841      	ldr	r1, [r0, #4]
 8001b32:	6882      	ldr	r2, [r0, #8]
 8001b34:	608a      	str	r2, [r1, #8]
    pxItemToRemove->pxPrevious->pxNext = pxItemToRemove->pxNext;
 8001b36:	6841      	ldr	r1, [r0, #4]
 8001b38:	6051      	str	r1, [r2, #4]

    /* Only used during decision coverage testing. */
    mtCOVERAGE_TEST_DELAY();

    /* Make sure the index is left pointing to a valid item. */
    if( pxList->pxIndex == pxItemToRemove )
 8001b3a:	685a      	ldr	r2, [r3, #4]
 8001b3c:	4282      	cmp	r2, r0
 8001b3e:	d005      	beq.n	8001b4c <uxListRemove+0x1e>
    else
    {
        mtCOVERAGE_TEST_MARKER();
    }

    pxItemToRemove->pxContainer = NULL;
 8001b40:	2200      	movs	r2, #0
 8001b42:	6102      	str	r2, [r0, #16]
    ( pxList->uxNumberOfItems ) = ( UBaseType_t ) ( pxList->uxNumberOfItems - 1U );
 8001b44:	6818      	ldr	r0, [r3, #0]
 8001b46:	3801      	subs	r0, #1
 8001b48:	6018      	str	r0, [r3, #0]

    traceRETURN_uxListRemove( pxList->uxNumberOfItems );

    return pxList->uxNumberOfItems;
}
 8001b4a:	4770      	bx	lr
        pxList->pxIndex = pxItemToRemove->pxPrevious;
 8001b4c:	6882      	ldr	r2, [r0, #8]
 8001b4e:	605a      	str	r2, [r3, #4]
 8001b50:	e7f6      	b.n	8001b40 <uxListRemove+0x12>

08001b52 <prvIsQueueEmpty>:
    taskEXIT_CRITICAL();
}
/*-----------------------------------------------------------*/

static BaseType_t prvIsQueueEmpty( const Queue_t * pxQueue )
{
 8001b52:	b510      	push	{r4, lr}
 8001b54:	4604      	mov	r4, r0
    BaseType_t xReturn;

    taskENTER_CRITICAL();
 8001b56:	f001 faed 	bl	8003134 <vPortEnterCritical>
    {
        if( pxQueue->uxMessagesWaiting == ( UBaseType_t ) 0 )
 8001b5a:	6ca3      	ldr	r3, [r4, #72]	; 0x48
 8001b5c:	b923      	cbnz	r3, 8001b68 <prvIsQueueEmpty+0x16>
        {
            xReturn = pdTRUE;
 8001b5e:	2401      	movs	r4, #1
        else
        {
            xReturn = pdFALSE;
        }
    }
    taskEXIT_CRITICAL();
 8001b60:	f001 faf8 	bl	8003154 <vPortExitCritical>

    return xReturn;
}
 8001b64:	4620      	mov	r0, r4
 8001b66:	bd10      	pop	{r4, pc}
            xReturn = pdFALSE;
 8001b68:	2400      	movs	r4, #0
 8001b6a:	e7f9      	b.n	8001b60 <prvIsQueueEmpty+0xe>

08001b6c <prvCopyDataToQueue>:
{
 8001b6c:	b570      	push	{r4, r5, r6, lr}
 8001b6e:	4604      	mov	r4, r0
 8001b70:	4615      	mov	r5, r2
    uxMessagesWaiting = pxQueue->uxMessagesWaiting;
 8001b72:	6c86      	ldr	r6, [r0, #72]	; 0x48
    if( pxQueue->uxItemSize == ( UBaseType_t ) 0 )
 8001b74:	6d02      	ldr	r2, [r0, #80]	; 0x50
 8001b76:	b95a      	cbnz	r2, 8001b90 <prvCopyDataToQueue+0x24>
            if( pxQueue->uxQueueType == queueQUEUE_IS_MUTEX )
 8001b78:	6803      	ldr	r3, [r0, #0]
 8001b7a:	b11b      	cbz	r3, 8001b84 <prvCopyDataToQueue+0x18>
    BaseType_t xReturn = pdFALSE;
 8001b7c:	2000      	movs	r0, #0
    pxQueue->uxMessagesWaiting = ( UBaseType_t ) ( uxMessagesWaiting + ( UBaseType_t ) 1 );
 8001b7e:	3601      	adds	r6, #1
 8001b80:	64a6      	str	r6, [r4, #72]	; 0x48
}
 8001b82:	bd70      	pop	{r4, r5, r6, pc}
                xReturn = xTaskPriorityDisinherit( pxQueue->u.xSemaphore.xMutexHolder );
 8001b84:	6880      	ldr	r0, [r0, #8]
 8001b86:	f000 ff21 	bl	80029cc <xTaskPriorityDisinherit>
                pxQueue->u.xSemaphore.xMutexHolder = NULL;
 8001b8a:	2300      	movs	r3, #0
 8001b8c:	60a3      	str	r3, [r4, #8]
 8001b8e:	e7f6      	b.n	8001b7e <prvCopyDataToQueue+0x12>
    else if( xPosition == queueSEND_TO_BACK )
 8001b90:	b96d      	cbnz	r5, 8001bae <prvCopyDataToQueue+0x42>
        ( void ) memcpy( ( void * ) pxQueue->pcWriteTo, pvItemToQueue, ( size_t ) pxQueue->uxItemSize );
 8001b92:	6840      	ldr	r0, [r0, #4]
 8001b94:	f001 fca6 	bl	80034e4 <memcpy>
        pxQueue->pcWriteTo += pxQueue->uxItemSize;
 8001b98:	6d22      	ldr	r2, [r4, #80]	; 0x50
 8001b9a:	6863      	ldr	r3, [r4, #4]
 8001b9c:	4413      	add	r3, r2
 8001b9e:	6063      	str	r3, [r4, #4]
        if( pxQueue->pcWriteTo >= pxQueue->u.xQueue.pcTail )
 8001ba0:	68a2      	ldr	r2, [r4, #8]
 8001ba2:	4293      	cmp	r3, r2
 8001ba4:	d319      	bcc.n	8001bda <prvCopyDataToQueue+0x6e>
            pxQueue->pcWriteTo = pxQueue->pcHead;
 8001ba6:	6823      	ldr	r3, [r4, #0]
 8001ba8:	6063      	str	r3, [r4, #4]
    BaseType_t xReturn = pdFALSE;
 8001baa:	4628      	mov	r0, r5
 8001bac:	e7e7      	b.n	8001b7e <prvCopyDataToQueue+0x12>
        ( void ) memcpy( ( void * ) pxQueue->u.xQueue.pcReadFrom, pvItemToQueue, ( size_t ) pxQueue->uxItemSize );
 8001bae:	68c0      	ldr	r0, [r0, #12]
 8001bb0:	f001 fc98 	bl	80034e4 <memcpy>
        pxQueue->u.xQueue.pcReadFrom -= pxQueue->uxItemSize;
 8001bb4:	6d22      	ldr	r2, [r4, #80]	; 0x50
 8001bb6:	4251      	negs	r1, r2
 8001bb8:	68e3      	ldr	r3, [r4, #12]
 8001bba:	1a9b      	subs	r3, r3, r2
 8001bbc:	60e3      	str	r3, [r4, #12]
        if( pxQueue->u.xQueue.pcReadFrom < pxQueue->pcHead )
 8001bbe:	6822      	ldr	r2, [r4, #0]
 8001bc0:	4293      	cmp	r3, r2
 8001bc2:	d202      	bcs.n	8001bca <prvCopyDataToQueue+0x5e>
            pxQueue->u.xQueue.pcReadFrom = ( pxQueue->u.xQueue.pcTail - pxQueue->uxItemSize );
 8001bc4:	68a3      	ldr	r3, [r4, #8]
 8001bc6:	440b      	add	r3, r1
 8001bc8:	60e3      	str	r3, [r4, #12]
        if( xPosition == queueOVERWRITE )
 8001bca:	2d02      	cmp	r5, #2
 8001bcc:	d001      	beq.n	8001bd2 <prvCopyDataToQueue+0x66>
    BaseType_t xReturn = pdFALSE;
 8001bce:	2000      	movs	r0, #0
 8001bd0:	e7d5      	b.n	8001b7e <prvCopyDataToQueue+0x12>
            if( uxMessagesWaiting > ( UBaseType_t ) 0 )
 8001bd2:	b126      	cbz	r6, 8001bde <prvCopyDataToQueue+0x72>
                --uxMessagesWaiting;
 8001bd4:	3e01      	subs	r6, #1
    BaseType_t xReturn = pdFALSE;
 8001bd6:	2000      	movs	r0, #0
 8001bd8:	e7d1      	b.n	8001b7e <prvCopyDataToQueue+0x12>
 8001bda:	4628      	mov	r0, r5
 8001bdc:	e7cf      	b.n	8001b7e <prvCopyDataToQueue+0x12>
 8001bde:	2000      	movs	r0, #0
 8001be0:	e7cd      	b.n	8001b7e <prvCopyDataToQueue+0x12>

08001be2 <prvCopyDataFromQueue>:
{
 8001be2:	4603      	mov	r3, r0
    if( pxQueue->uxItemSize != ( UBaseType_t ) 0 )
 8001be4:	6d02      	ldr	r2, [r0, #80]	; 0x50
 8001be6:	b16a      	cbz	r2, 8001c04 <prvCopyDataFromQueue+0x22>
{
 8001be8:	b510      	push	{r4, lr}
 8001bea:	4608      	mov	r0, r1
        pxQueue->u.xQueue.pcReadFrom += pxQueue->uxItemSize;
 8001bec:	68d9      	ldr	r1, [r3, #12]
 8001bee:	4411      	add	r1, r2
 8001bf0:	60d9      	str	r1, [r3, #12]
        if( pxQueue->u.xQueue.pcReadFrom >= pxQueue->u.xQueue.pcTail )
 8001bf2:	689c      	ldr	r4, [r3, #8]
 8001bf4:	42a1      	cmp	r1, r4
 8001bf6:	d301      	bcc.n	8001bfc <prvCopyDataFromQueue+0x1a>
            pxQueue->u.xQueue.pcReadFrom = pxQueue->pcHead;
 8001bf8:	6819      	ldr	r1, [r3, #0]
 8001bfa:	60d9      	str	r1, [r3, #12]
        ( void ) memcpy( ( void * ) pvBuffer, ( void * ) pxQueue->u.xQueue.pcReadFrom, ( size_t ) pxQueue->uxItemSize );
 8001bfc:	68d9      	ldr	r1, [r3, #12]
 8001bfe:	f001 fc71 	bl	80034e4 <memcpy>
}
 8001c02:	bd10      	pop	{r4, pc}
 8001c04:	4770      	bx	lr

08001c06 <prvNotifyQueueSetContainer>:
/*-----------------------------------------------------------*/

#if ( configUSE_QUEUE_SETS == 1 )

    static BaseType_t prvNotifyQueueSetContainer( const Queue_t * const pxQueue )
    {
 8001c06:	b570      	push	{r4, r5, r6, lr}
 8001c08:	b082      	sub	sp, #8
 8001c0a:	9001      	str	r0, [sp, #4]
        Queue_t * pxQueueSetContainer = pxQueue->pxQueueSetContainer;
 8001c0c:	6d84      	ldr	r4, [r0, #88]	; 0x58
         * to prvNotifyQueueSetContainer is preceded by a check that
         * pxQueueSetContainer != NULL */
        configASSERT( pxQueueSetContainer ); /* LCOV_EXCL_BR_LINE */
        configASSERT( pxQueueSetContainer->uxMessagesWaiting < pxQueueSetContainer->uxLength );

        if( pxQueueSetContainer->uxMessagesWaiting < pxQueueSetContainer->uxLength )
 8001c0e:	6ca2      	ldr	r2, [r4, #72]	; 0x48
 8001c10:	6ce3      	ldr	r3, [r4, #76]	; 0x4c
 8001c12:	429a      	cmp	r2, r3
 8001c14:	d303      	bcc.n	8001c1e <prvNotifyQueueSetContainer+0x18>
        BaseType_t xReturn = pdFALSE;
 8001c16:	2500      	movs	r5, #0
        {
            mtCOVERAGE_TEST_MARKER();
        }

        return xReturn;
    }
 8001c18:	4628      	mov	r0, r5
 8001c1a:	b002      	add	sp, #8
 8001c1c:	bd70      	pop	{r4, r5, r6, pc}
            const int8_t cTxLock = pxQueueSetContainer->cTxLock;
 8001c1e:	f894 6055 	ldrb.w	r6, [r4, #85]	; 0x55
 8001c22:	b276      	sxtb	r6, r6
            xReturn = prvCopyDataToQueue( pxQueueSetContainer, &pxQueue, queueSEND_TO_BACK );
 8001c24:	2200      	movs	r2, #0
 8001c26:	a901      	add	r1, sp, #4
 8001c28:	4620      	mov	r0, r4
 8001c2a:	f7ff ff9f 	bl	8001b6c <prvCopyDataToQueue>
 8001c2e:	4605      	mov	r5, r0
            if( cTxLock == queueUNLOCKED )
 8001c30:	f1b6 3fff 	cmp.w	r6, #4294967295
 8001c34:	d10a      	bne.n	8001c4c <prvNotifyQueueSetContainer+0x46>
                if( listLIST_IS_EMPTY( &( pxQueueSetContainer->xTasksWaitingToReceive ) ) == pdFALSE )
 8001c36:	6ae3      	ldr	r3, [r4, #44]	; 0x2c
 8001c38:	2b00      	cmp	r3, #0
 8001c3a:	d0ed      	beq.n	8001c18 <prvNotifyQueueSetContainer+0x12>
                    if( xTaskRemoveFromEventList( &( pxQueueSetContainer->xTasksWaitingToReceive ) ) != pdFALSE )
 8001c3c:	f104 002c 	add.w	r0, r4, #44	; 0x2c
 8001c40:	f000 fdce 	bl	80027e0 <xTaskRemoveFromEventList>
 8001c44:	2800      	cmp	r0, #0
 8001c46:	d0e7      	beq.n	8001c18 <prvNotifyQueueSetContainer+0x12>
                        xReturn = pdTRUE;
 8001c48:	2501      	movs	r5, #1
        return xReturn;
 8001c4a:	e7e5      	b.n	8001c18 <prvNotifyQueueSetContainer+0x12>
                prvIncrementQueueTxLock( pxQueueSetContainer, cTxLock );
 8001c4c:	f000 fba8 	bl	80023a0 <uxTaskGetNumberOfTasks>
 8001c50:	4286      	cmp	r6, r0
 8001c52:	d2e1      	bcs.n	8001c18 <prvNotifyQueueSetContainer+0x12>
 8001c54:	3601      	adds	r6, #1
 8001c56:	b276      	sxtb	r6, r6
 8001c58:	f884 6055 	strb.w	r6, [r4, #85]	; 0x55
 8001c5c:	e7dc      	b.n	8001c18 <prvNotifyQueueSetContainer+0x12>

08001c5e <prvUnlockQueue>:
{
 8001c5e:	b538      	push	{r3, r4, r5, lr}
 8001c60:	4605      	mov	r5, r0
    taskENTER_CRITICAL();
 8001c62:	f001 fa67 	bl	8003134 <vPortEnterCritical>
        int8_t cTxLock = pxQueue->cTxLock;
 8001c66:	f895 4055 	ldrb.w	r4, [r5, #85]	; 0x55
 8001c6a:	b264      	sxtb	r4, r4
        while( cTxLock > queueLOCKED_UNMODIFIED )
 8001c6c:	e008      	b.n	8001c80 <prvUnlockQueue+0x22>
                    if( listLIST_IS_EMPTY( &( pxQueue->xTasksWaitingToReceive ) ) == pdFALSE )
 8001c6e:	6aeb      	ldr	r3, [r5, #44]	; 0x2c
 8001c70:	b1b3      	cbz	r3, 8001ca0 <prvUnlockQueue+0x42>
                        if( xTaskRemoveFromEventList( &( pxQueue->xTasksWaitingToReceive ) ) != pdFALSE )
 8001c72:	f105 002c 	add.w	r0, r5, #44	; 0x2c
 8001c76:	f000 fdb3 	bl	80027e0 <xTaskRemoveFromEventList>
 8001c7a:	b970      	cbnz	r0, 8001c9a <prvUnlockQueue+0x3c>
            --cTxLock;
 8001c7c:	3c01      	subs	r4, #1
 8001c7e:	b264      	sxtb	r4, r4
        while( cTxLock > queueLOCKED_UNMODIFIED )
 8001c80:	2c00      	cmp	r4, #0
 8001c82:	dd0d      	ble.n	8001ca0 <prvUnlockQueue+0x42>
                if( pxQueue->pxQueueSetContainer != NULL )
 8001c84:	6dab      	ldr	r3, [r5, #88]	; 0x58
 8001c86:	2b00      	cmp	r3, #0
 8001c88:	d0f1      	beq.n	8001c6e <prvUnlockQueue+0x10>
                    if( prvNotifyQueueSetContainer( pxQueue ) != pdFALSE )
 8001c8a:	4628      	mov	r0, r5
 8001c8c:	f7ff ffbb 	bl	8001c06 <prvNotifyQueueSetContainer>
 8001c90:	2800      	cmp	r0, #0
 8001c92:	d0f3      	beq.n	8001c7c <prvUnlockQueue+0x1e>
                        vTaskMissedYield();
 8001c94:	f000 fe60 	bl	8002958 <vTaskMissedYield>
 8001c98:	e7f0      	b.n	8001c7c <prvUnlockQueue+0x1e>
                            vTaskMissedYield();
 8001c9a:	f000 fe5d 	bl	8002958 <vTaskMissedYield>
 8001c9e:	e7ed      	b.n	8001c7c <prvUnlockQueue+0x1e>
        pxQueue->cTxLock = queueUNLOCKED;
 8001ca0:	23ff      	movs	r3, #255	; 0xff
 8001ca2:	f885 3055 	strb.w	r3, [r5, #85]	; 0x55
    taskEXIT_CRITICAL();
 8001ca6:	f001 fa55 	bl	8003154 <vPortExitCritical>
    taskENTER_CRITICAL();
 8001caa:	f001 fa43 	bl	8003134 <vPortEnterCritical>
        int8_t cRxLock = pxQueue->cRxLock;
 8001cae:	f895 4054 	ldrb.w	r4, [r5, #84]	; 0x54
 8001cb2:	b264      	sxtb	r4, r4
        while( cRxLock > queueLOCKED_UNMODIFIED )
 8001cb4:	e001      	b.n	8001cba <prvUnlockQueue+0x5c>
                --cRxLock;
 8001cb6:	3c01      	subs	r4, #1
 8001cb8:	b264      	sxtb	r4, r4
        while( cRxLock > queueLOCKED_UNMODIFIED )
 8001cba:	2c00      	cmp	r4, #0
 8001cbc:	dd0a      	ble.n	8001cd4 <prvUnlockQueue+0x76>
            if( listLIST_IS_EMPTY( &( pxQueue->xTasksWaitingToSend ) ) == pdFALSE )
 8001cbe:	692b      	ldr	r3, [r5, #16]
 8001cc0:	b143      	cbz	r3, 8001cd4 <prvUnlockQueue+0x76>
                if( xTaskRemoveFromEventList( &( pxQueue->xTasksWaitingToSend ) ) != pdFALSE )
 8001cc2:	f105 0010 	add.w	r0, r5, #16
 8001cc6:	f000 fd8b 	bl	80027e0 <xTaskRemoveFromEventList>
 8001cca:	2800      	cmp	r0, #0
 8001ccc:	d0f3      	beq.n	8001cb6 <prvUnlockQueue+0x58>
                    vTaskMissedYield();
 8001cce:	f000 fe43 	bl	8002958 <vTaskMissedYield>
 8001cd2:	e7f0      	b.n	8001cb6 <prvUnlockQueue+0x58>
        pxQueue->cRxLock = queueUNLOCKED;
 8001cd4:	23ff      	movs	r3, #255	; 0xff
 8001cd6:	f885 3054 	strb.w	r3, [r5, #84]	; 0x54
    taskEXIT_CRITICAL();
 8001cda:	f001 fa3b 	bl	8003154 <vPortExitCritical>
}
 8001cde:	bd38      	pop	{r3, r4, r5, pc}

08001ce0 <xQueueGenericReset>:
    if( ( pxQueue != NULL ) &&
 8001ce0:	2800      	cmp	r0, #0
 8001ce2:	d044      	beq.n	8001d6e <xQueueGenericReset+0x8e>
{
 8001ce4:	b538      	push	{r3, r4, r5, lr}
 8001ce6:	460d      	mov	r5, r1
 8001ce8:	4604      	mov	r4, r0
        ( pxQueue->uxLength >= 1U ) &&
 8001cea:	6cc3      	ldr	r3, [r0, #76]	; 0x4c
    if( ( pxQueue != NULL ) &&
 8001cec:	2b00      	cmp	r3, #0
 8001cee:	d040      	beq.n	8001d72 <xQueueGenericReset+0x92>
        ( ( SIZE_MAX / pxQueue->uxLength ) >= pxQueue->uxItemSize ) )
 8001cf0:	6d02      	ldr	r2, [r0, #80]	; 0x50
 8001cf2:	2100      	movs	r1, #0
 8001cf4:	fba3 2302 	umull	r2, r3, r3, r2
 8001cf8:	b913      	cbnz	r3, 8001d00 <xQueueGenericReset+0x20>
        ( pxQueue->uxLength >= 1U ) &&
 8001cfa:	b119      	cbz	r1, 8001d04 <xQueueGenericReset+0x24>
        xReturn = pdFAIL;
 8001cfc:	2000      	movs	r0, #0
    return xReturn;
 8001cfe:	e039      	b.n	8001d74 <xQueueGenericReset+0x94>
        ( ( SIZE_MAX / pxQueue->uxLength ) >= pxQueue->uxItemSize ) )
 8001d00:	2101      	movs	r1, #1
 8001d02:	e7fa      	b.n	8001cfa <xQueueGenericReset+0x1a>
        taskENTER_CRITICAL();
 8001d04:	f001 fa16 	bl	8003134 <vPortEnterCritical>
            pxQueue->u.xQueue.pcTail = pxQueue->pcHead + ( pxQueue->uxLength * pxQueue->uxItemSize );
 8001d08:	6823      	ldr	r3, [r4, #0]
 8001d0a:	6ce2      	ldr	r2, [r4, #76]	; 0x4c
 8001d0c:	6d21      	ldr	r1, [r4, #80]	; 0x50
 8001d0e:	fb01 3002 	mla	r0, r1, r2, r3
 8001d12:	60a0      	str	r0, [r4, #8]
            pxQueue->uxMessagesWaiting = ( UBaseType_t ) 0U;
 8001d14:	2000      	movs	r0, #0
 8001d16:	64a0      	str	r0, [r4, #72]	; 0x48
            pxQueue->pcWriteTo = pxQueue->pcHead;
 8001d18:	6063      	str	r3, [r4, #4]
            pxQueue->u.xQueue.pcReadFrom = pxQueue->pcHead + ( ( pxQueue->uxLength - 1U ) * pxQueue->uxItemSize );
 8001d1a:	3a01      	subs	r2, #1
 8001d1c:	fb02 3301 	mla	r3, r2, r1, r3
 8001d20:	60e3      	str	r3, [r4, #12]
            pxQueue->cRxLock = queueUNLOCKED;
 8001d22:	23ff      	movs	r3, #255	; 0xff
 8001d24:	f884 3054 	strb.w	r3, [r4, #84]	; 0x54
            pxQueue->cTxLock = queueUNLOCKED;
 8001d28:	f884 3055 	strb.w	r3, [r4, #85]	; 0x55
            if( xNewQueue == pdFALSE )
 8001d2c:	b9b5      	cbnz	r5, 8001d5c <xQueueGenericReset+0x7c>
                if( listLIST_IS_EMPTY( &( pxQueue->xTasksWaitingToSend ) ) == pdFALSE )
 8001d2e:	6923      	ldr	r3, [r4, #16]
 8001d30:	b91b      	cbnz	r3, 8001d3a <xQueueGenericReset+0x5a>
        taskEXIT_CRITICAL();
 8001d32:	f001 fa0f 	bl	8003154 <vPortExitCritical>
    BaseType_t xReturn = pdPASS;
 8001d36:	2001      	movs	r0, #1
        taskEXIT_CRITICAL();
 8001d38:	e01c      	b.n	8001d74 <xQueueGenericReset+0x94>
                    if( xTaskRemoveFromEventList( &( pxQueue->xTasksWaitingToSend ) ) != pdFALSE )
 8001d3a:	f104 0010 	add.w	r0, r4, #16
 8001d3e:	f000 fd4f 	bl	80027e0 <xTaskRemoveFromEventList>
 8001d42:	2800      	cmp	r0, #0
 8001d44:	d0f5      	beq.n	8001d32 <xQueueGenericReset+0x52>
                        queueYIELD_IF_USING_PREEMPTION();
 8001d46:	f04f 23e0 	mov.w	r3, #3758153728	; 0xe000e000
 8001d4a:	f04f 5280 	mov.w	r2, #268435456	; 0x10000000
 8001d4e:	f8c3 2d04 	str.w	r2, [r3, #3332]	; 0xd04
 8001d52:	f3bf 8f4f 	dsb	sy
 8001d56:	f3bf 8f6f 	isb	sy
 8001d5a:	e7ea      	b.n	8001d32 <xQueueGenericReset+0x52>
                vListInitialise( &( pxQueue->xTasksWaitingToSend ) );
 8001d5c:	f104 0010 	add.w	r0, r4, #16
 8001d60:	f7ff febc 	bl	8001adc <vListInitialise>
                vListInitialise( &( pxQueue->xTasksWaitingToReceive ) );
 8001d64:	f104 002c 	add.w	r0, r4, #44	; 0x2c
 8001d68:	f7ff feb8 	bl	8001adc <vListInitialise>
 8001d6c:	e7e1      	b.n	8001d32 <xQueueGenericReset+0x52>
        xReturn = pdFAIL;
 8001d6e:	2000      	movs	r0, #0
}
 8001d70:	4770      	bx	lr
        xReturn = pdFAIL;
 8001d72:	2000      	movs	r0, #0
}
 8001d74:	bd38      	pop	{r3, r4, r5, pc}

08001d76 <prvInitialiseNewQueue>:
{
 8001d76:	b510      	push	{r4, lr}
 8001d78:	9c02      	ldr	r4, [sp, #8]
    if( uxItemSize == ( UBaseType_t ) 0 )
 8001d7a:	460b      	mov	r3, r1
 8001d7c:	b949      	cbnz	r1, 8001d92 <prvInitialiseNewQueue+0x1c>
        pxNewQueue->pcHead = ( int8_t * ) pxNewQueue;
 8001d7e:	6024      	str	r4, [r4, #0]
    pxNewQueue->uxLength = uxQueueLength;
 8001d80:	64e0      	str	r0, [r4, #76]	; 0x4c
    pxNewQueue->uxItemSize = uxItemSize;
 8001d82:	6523      	str	r3, [r4, #80]	; 0x50
    ( void ) xQueueGenericReset( pxNewQueue, pdTRUE );
 8001d84:	2101      	movs	r1, #1
 8001d86:	4620      	mov	r0, r4
 8001d88:	f7ff ffaa 	bl	8001ce0 <xQueueGenericReset>
        pxNewQueue->pxQueueSetContainer = NULL;
 8001d8c:	2300      	movs	r3, #0
 8001d8e:	65a3      	str	r3, [r4, #88]	; 0x58
}
 8001d90:	bd10      	pop	{r4, pc}
        pxNewQueue->pcHead = ( int8_t * ) pucQueueStorage;
 8001d92:	6022      	str	r2, [r4, #0]
 8001d94:	e7f4      	b.n	8001d80 <prvInitialiseNewQueue+0xa>

08001d96 <xQueueGenericCreateStatic>:
        if( ( uxQueueLength > ( UBaseType_t ) 0 ) &&
 8001d96:	b1b8      	cbz	r0, 8001dc8 <xQueueGenericCreateStatic+0x32>
    {
 8001d98:	b510      	push	{r4, lr}
 8001d9a:	b082      	sub	sp, #8
 8001d9c:	461c      	mov	r4, r3
 8001d9e:	4684      	mov	ip, r0
        if( ( uxQueueLength > ( UBaseType_t ) 0 ) &&
 8001da0:	b1a3      	cbz	r3, 8001dcc <xQueueGenericCreateStatic+0x36>
            ( pxStaticQueue != NULL ) &&
 8001da2:	b102      	cbz	r2, 8001da6 <xQueueGenericCreateStatic+0x10>
            ( !( ( pucQueueStorage != NULL ) && ( uxItemSize == 0U ) ) ) &&
 8001da4:	b1a1      	cbz	r1, 8001dd0 <xQueueGenericCreateStatic+0x3a>
 8001da6:	b15a      	cbz	r2, 8001dc0 <xQueueGenericCreateStatic+0x2a>
                pxNewQueue->ucStaticallyAllocated = pdTRUE;
 8001da8:	2301      	movs	r3, #1
 8001daa:	f884 3056 	strb.w	r3, [r4, #86]	; 0x56
            prvInitialiseNewQueue( uxQueueLength, uxItemSize, pucQueueStorage, ucQueueType, pxNewQueue );
 8001dae:	9400      	str	r4, [sp, #0]
 8001db0:	f89d 3010 	ldrb.w	r3, [sp, #16]
 8001db4:	4660      	mov	r0, ip
 8001db6:	f7ff ffde 	bl	8001d76 <prvInitialiseNewQueue>
            pxNewQueue = ( Queue_t * ) pxStaticQueue;
 8001dba:	4620      	mov	r0, r4
    }
 8001dbc:	b002      	add	sp, #8
 8001dbe:	bd10      	pop	{r4, pc}
            ( !( ( pucQueueStorage == NULL ) && ( uxItemSize != 0U ) ) ) )
 8001dc0:	2900      	cmp	r1, #0
 8001dc2:	d0f1      	beq.n	8001da8 <xQueueGenericCreateStatic+0x12>
        Queue_t * pxNewQueue = NULL;
 8001dc4:	4610      	mov	r0, r2
        return pxNewQueue;
 8001dc6:	e7f9      	b.n	8001dbc <xQueueGenericCreateStatic+0x26>
        Queue_t * pxNewQueue = NULL;
 8001dc8:	2000      	movs	r0, #0
    }
 8001dca:	4770      	bx	lr
        Queue_t * pxNewQueue = NULL;
 8001dcc:	4618      	mov	r0, r3
 8001dce:	e7f5      	b.n	8001dbc <xQueueGenericCreateStatic+0x26>
 8001dd0:	2000      	movs	r0, #0
 8001dd2:	e7f3      	b.n	8001dbc <xQueueGenericCreateStatic+0x26>

08001dd4 <xQueueReceive>:
{
 8001dd4:	b5f0      	push	{r4, r5, r6, r7, lr}
 8001dd6:	b085      	sub	sp, #20
 8001dd8:	4604      	mov	r4, r0
 8001dda:	460f      	mov	r7, r1
 8001ddc:	9201      	str	r2, [sp, #4]
    BaseType_t xEntryTimeSet = pdFALSE;
 8001dde:	2600      	movs	r6, #0
 8001de0:	e03e      	b.n	8001e60 <xQueueReceive+0x8c>
                prvCopyDataFromQueue( pxQueue, pvBuffer );
 8001de2:	4639      	mov	r1, r7
 8001de4:	4620      	mov	r0, r4
 8001de6:	f7ff fefc 	bl	8001be2 <prvCopyDataFromQueue>
                pxQueue->uxMessagesWaiting = ( UBaseType_t ) ( uxMessagesWaiting - ( UBaseType_t ) 1 );
 8001dea:	3d01      	subs	r5, #1
 8001dec:	64a5      	str	r5, [r4, #72]	; 0x48
                if( listLIST_IS_EMPTY( &( pxQueue->xTasksWaitingToSend ) ) == pdFALSE )
 8001dee:	6923      	ldr	r3, [r4, #16]
 8001df0:	b923      	cbnz	r3, 8001dfc <xQueueReceive+0x28>
                taskEXIT_CRITICAL();
 8001df2:	f001 f9af 	bl	8003154 <vPortExitCritical>
                return pdPASS;
 8001df6:	2001      	movs	r0, #1
}
 8001df8:	b005      	add	sp, #20
 8001dfa:	bdf0      	pop	{r4, r5, r6, r7, pc}
                    if( xTaskRemoveFromEventList( &( pxQueue->xTasksWaitingToSend ) ) != pdFALSE )
 8001dfc:	f104 0010 	add.w	r0, r4, #16
 8001e00:	f000 fcee 	bl	80027e0 <xTaskRemoveFromEventList>
 8001e04:	2800      	cmp	r0, #0
 8001e06:	d0f4      	beq.n	8001df2 <xQueueReceive+0x1e>
                        queueYIELD_IF_USING_PREEMPTION();
 8001e08:	f04f 23e0 	mov.w	r3, #3758153728	; 0xe000e000
 8001e0c:	f04f 5280 	mov.w	r2, #268435456	; 0x10000000
 8001e10:	f8c3 2d04 	str.w	r2, [r3, #3332]	; 0xd04
 8001e14:	f3bf 8f4f 	dsb	sy
 8001e18:	f3bf 8f6f 	isb	sy
 8001e1c:	e7e9      	b.n	8001df2 <xQueueReceive+0x1e>
                    taskEXIT_CRITICAL();
 8001e1e:	f001 f999 	bl	8003154 <vPortExitCritical>
                    return errQUEUE_EMPTY;
 8001e22:	2000      	movs	r0, #0
 8001e24:	e7e8      	b.n	8001df8 <xQueueReceive+0x24>
                    vTaskInternalSetTimeOutState( &xTimeOut );
 8001e26:	a802      	add	r0, sp, #8
 8001e28:	f000 fd4c 	bl	80028c4 <vTaskInternalSetTimeOutState>
                    xEntryTimeSet = pdTRUE;
 8001e2c:	2601      	movs	r6, #1
 8001e2e:	e021      	b.n	8001e74 <xQueueReceive+0xa0>
        prvLockQueue( pxQueue );
 8001e30:	2300      	movs	r3, #0
 8001e32:	f884 3054 	strb.w	r3, [r4, #84]	; 0x54
 8001e36:	e029      	b.n	8001e8c <xQueueReceive+0xb8>
 8001e38:	2300      	movs	r3, #0
 8001e3a:	f884 3055 	strb.w	r3, [r4, #85]	; 0x55
 8001e3e:	e02b      	b.n	8001e98 <xQueueReceive+0xc4>
                prvUnlockQueue( pxQueue );
 8001e40:	4620      	mov	r0, r4
 8001e42:	f7ff ff0c 	bl	8001c5e <prvUnlockQueue>
                ( void ) xTaskResumeAll();
 8001e46:	f000 fb7f 	bl	8002548 <xTaskResumeAll>
 8001e4a:	e009      	b.n	8001e60 <xQueueReceive+0x8c>
            prvUnlockQueue( pxQueue );
 8001e4c:	4620      	mov	r0, r4
 8001e4e:	f7ff ff06 	bl	8001c5e <prvUnlockQueue>
            ( void ) xTaskResumeAll();
 8001e52:	f000 fb79 	bl	8002548 <xTaskResumeAll>
            if( prvIsQueueEmpty( pxQueue ) != pdFALSE )
 8001e56:	4620      	mov	r0, r4
 8001e58:	f7ff fe7b 	bl	8001b52 <prvIsQueueEmpty>
 8001e5c:	2800      	cmp	r0, #0
 8001e5e:	d13f      	bne.n	8001ee0 <xQueueReceive+0x10c>
        taskENTER_CRITICAL();
 8001e60:	f001 f968 	bl	8003134 <vPortEnterCritical>
            const UBaseType_t uxMessagesWaiting = pxQueue->uxMessagesWaiting;
 8001e64:	6ca5      	ldr	r5, [r4, #72]	; 0x48
            if( uxMessagesWaiting > ( UBaseType_t ) 0 )
 8001e66:	2d00      	cmp	r5, #0
 8001e68:	d1bb      	bne.n	8001de2 <xQueueReceive+0xe>
                if( xTicksToWait == ( TickType_t ) 0 )
 8001e6a:	9b01      	ldr	r3, [sp, #4]
 8001e6c:	2b00      	cmp	r3, #0
 8001e6e:	d0d6      	beq.n	8001e1e <xQueueReceive+0x4a>
                else if( xEntryTimeSet == pdFALSE )
 8001e70:	2e00      	cmp	r6, #0
 8001e72:	d0d8      	beq.n	8001e26 <xQueueReceive+0x52>
        taskEXIT_CRITICAL();
 8001e74:	f001 f96e 	bl	8003154 <vPortExitCritical>
        vTaskSuspendAll();
 8001e78:	f000 fa84 	bl	8002384 <vTaskSuspendAll>
        prvLockQueue( pxQueue );
 8001e7c:	f001 f95a 	bl	8003134 <vPortEnterCritical>
 8001e80:	f894 3054 	ldrb.w	r3, [r4, #84]	; 0x54
 8001e84:	b25b      	sxtb	r3, r3
 8001e86:	f1b3 3fff 	cmp.w	r3, #4294967295
 8001e8a:	d0d1      	beq.n	8001e30 <xQueueReceive+0x5c>
 8001e8c:	f894 3055 	ldrb.w	r3, [r4, #85]	; 0x55
 8001e90:	b25b      	sxtb	r3, r3
 8001e92:	f1b3 3fff 	cmp.w	r3, #4294967295
 8001e96:	d0cf      	beq.n	8001e38 <xQueueReceive+0x64>
 8001e98:	f001 f95c 	bl	8003154 <vPortExitCritical>
        if( xTaskCheckForTimeOut( &xTimeOut, &xTicksToWait ) == pdFALSE )
 8001e9c:	a901      	add	r1, sp, #4
 8001e9e:	a802      	add	r0, sp, #8
 8001ea0:	f000 fd1c 	bl	80028dc <xTaskCheckForTimeOut>
 8001ea4:	2800      	cmp	r0, #0
 8001ea6:	d1d1      	bne.n	8001e4c <xQueueReceive+0x78>
            if( prvIsQueueEmpty( pxQueue ) != pdFALSE )
 8001ea8:	4620      	mov	r0, r4
 8001eaa:	f7ff fe52 	bl	8001b52 <prvIsQueueEmpty>
 8001eae:	2800      	cmp	r0, #0
 8001eb0:	d0c6      	beq.n	8001e40 <xQueueReceive+0x6c>
                vTaskPlaceOnEventList( &( pxQueue->xTasksWaitingToReceive ), xTicksToWait );
 8001eb2:	9901      	ldr	r1, [sp, #4]
 8001eb4:	f104 002c 	add.w	r0, r4, #44	; 0x2c
 8001eb8:	f000 fc66 	bl	8002788 <vTaskPlaceOnEventList>
                prvUnlockQueue( pxQueue );
 8001ebc:	4620      	mov	r0, r4
 8001ebe:	f7ff fece 	bl	8001c5e <prvUnlockQueue>
                if( xTaskResumeAll() == pdFALSE )
 8001ec2:	f000 fb41 	bl	8002548 <xTaskResumeAll>
 8001ec6:	2800      	cmp	r0, #0
 8001ec8:	d1ca      	bne.n	8001e60 <xQueueReceive+0x8c>
                    taskYIELD_WITHIN_API();
 8001eca:	f04f 23e0 	mov.w	r3, #3758153728	; 0xe000e000
 8001ece:	f04f 5280 	mov.w	r2, #268435456	; 0x10000000
 8001ed2:	f8c3 2d04 	str.w	r2, [r3, #3332]	; 0xd04
 8001ed6:	f3bf 8f4f 	dsb	sy
 8001eda:	f3bf 8f6f 	isb	sy
 8001ede:	e7bf      	b.n	8001e60 <xQueueReceive+0x8c>
                return errQUEUE_EMPTY;
 8001ee0:	2000      	movs	r0, #0
 8001ee2:	e789      	b.n	8001df8 <xQueueReceive+0x24>

08001ee4 <vQueueWaitForMessageRestricted>:
    {
 8001ee4:	b570      	push	{r4, r5, r6, lr}
 8001ee6:	4604      	mov	r4, r0
 8001ee8:	460d      	mov	r5, r1
 8001eea:	4616      	mov	r6, r2
        prvLockQueue( pxQueue );
 8001eec:	f001 f922 	bl	8003134 <vPortEnterCritical>
 8001ef0:	f894 3054 	ldrb.w	r3, [r4, #84]	; 0x54
 8001ef4:	b25b      	sxtb	r3, r3
 8001ef6:	f1b3 3fff 	cmp.w	r3, #4294967295
 8001efa:	d00d      	beq.n	8001f18 <vQueueWaitForMessageRestricted+0x34>
 8001efc:	f894 3055 	ldrb.w	r3, [r4, #85]	; 0x55
 8001f00:	b25b      	sxtb	r3, r3
 8001f02:	f1b3 3fff 	cmp.w	r3, #4294967295
 8001f06:	d00b      	beq.n	8001f20 <vQueueWaitForMessageRestricted+0x3c>
 8001f08:	f001 f924 	bl	8003154 <vPortExitCritical>
        if( pxQueue->uxMessagesWaiting == ( UBaseType_t ) 0U )
 8001f0c:	6ca3      	ldr	r3, [r4, #72]	; 0x48
 8001f0e:	b15b      	cbz	r3, 8001f28 <vQueueWaitForMessageRestricted+0x44>
        prvUnlockQueue( pxQueue );
 8001f10:	4620      	mov	r0, r4
 8001f12:	f7ff fea4 	bl	8001c5e <prvUnlockQueue>
    }
 8001f16:	bd70      	pop	{r4, r5, r6, pc}
        prvLockQueue( pxQueue );
 8001f18:	2300      	movs	r3, #0
 8001f1a:	f884 3054 	strb.w	r3, [r4, #84]	; 0x54
 8001f1e:	e7ed      	b.n	8001efc <vQueueWaitForMessageRestricted+0x18>
 8001f20:	2300      	movs	r3, #0
 8001f22:	f884 3055 	strb.w	r3, [r4, #85]	; 0x55
 8001f26:	e7ef      	b.n	8001f08 <vQueueWaitForMessageRestricted+0x24>
            vTaskPlaceOnEventListRestricted( &( pxQueue->xTasksWaitingToReceive ), xTicksToWait, xWaitIndefinitely );
 8001f28:	4632      	mov	r2, r6
 8001f2a:	4629      	mov	r1, r5
 8001f2c:	f104 002c 	add.w	r0, r4, #44	; 0x2c
 8001f30:	f000 fc38 	bl	80027a4 <vTaskPlaceOnEventListRestricted>
 8001f34:	e7ec      	b.n	8001f10 <vQueueWaitForMessageRestricted+0x2c>
	...

08001f38 <prvGetExpectedIdleTime>:
         * configUSE_PREEMPTION is 0, so there may be tasks above the idle priority
         * task that are in the Ready state, even though the idle task is
         * running. */
        #if ( configUSE_PORT_OPTIMISED_TASK_SELECTION == 0 )
        {
            if( uxTopReadyPriority > tskIDLE_PRIORITY )
 8001f38:	4b0a      	ldr	r3, [pc, #40]	; (8001f64 <prvGetExpectedIdleTime+0x2c>)
 8001f3a:	681b      	ldr	r3, [r3, #0]
 8001f3c:	b103      	cbz	r3, 8001f40 <prvGetExpectedIdleTime+0x8>
            {
                uxHigherPriorityReadyTasks = pdTRUE;
 8001f3e:	2301      	movs	r3, #1
                uxHigherPriorityReadyTasks = pdTRUE;
            }
        }
        #endif /* if ( configUSE_PORT_OPTIMISED_TASK_SELECTION == 0 ) */

        if( pxCurrentTCB->uxPriority > tskIDLE_PRIORITY )
 8001f40:	4a09      	ldr	r2, [pc, #36]	; (8001f68 <prvGetExpectedIdleTime+0x30>)
 8001f42:	6812      	ldr	r2, [r2, #0]
 8001f44:	6ad0      	ldr	r0, [r2, #44]	; 0x2c
 8001f46:	b950      	cbnz	r0, 8001f5e <prvGetExpectedIdleTime+0x26>
        {
            xReturn = 0;
        }
        else if( listCURRENT_LIST_LENGTH( &( pxReadyTasksLists[ tskIDLE_PRIORITY ] ) ) > 1U )
 8001f48:	4a08      	ldr	r2, [pc, #32]	; (8001f6c <prvGetExpectedIdleTime+0x34>)
 8001f4a:	6812      	ldr	r2, [r2, #0]
 8001f4c:	2a01      	cmp	r2, #1
 8001f4e:	d807      	bhi.n	8001f60 <prvGetExpectedIdleTime+0x28>
            /* There are other idle priority tasks in the ready state.  If
             * time slicing is used then the very next tick interrupt must be
             * processed. */
            xReturn = 0;
        }
        else if( uxHigherPriorityReadyTasks != pdFALSE )
 8001f50:	b933      	cbnz	r3, 8001f60 <prvGetExpectedIdleTime+0x28>
             * configUSE_PREEMPTION is 0. */
            xReturn = 0;
        }
        else
        {
            xReturn = xNextTaskUnblockTime;
 8001f52:	4b07      	ldr	r3, [pc, #28]	; (8001f70 <prvGetExpectedIdleTime+0x38>)
 8001f54:	6818      	ldr	r0, [r3, #0]
            xReturn -= xTickCount;
 8001f56:	4b07      	ldr	r3, [pc, #28]	; (8001f74 <prvGetExpectedIdleTime+0x3c>)
 8001f58:	681b      	ldr	r3, [r3, #0]
 8001f5a:	1ac0      	subs	r0, r0, r3
 8001f5c:	4770      	bx	lr
            xReturn = 0;
 8001f5e:	2000      	movs	r0, #0
        }

        return xReturn;
    }
 8001f60:	4770      	bx	lr
 8001f62:	bf00      	nop
 8001f64:	200086d4 	ldrdcs	r8, [r0], -r4
 8001f68:	2000822c 	andcs	r8, r0, ip, lsr #4
 8001f6c:	20008238 	andcs	r8, r0, r8, lsr r2
 8001f70:	20008760 	andcs	r8, r0, r0, ror #14
 8001f74:	200087c4 	andcs	r8, r0, r4, asr #15

08001f78 <prvResetNextTaskUnblockTime>:
#endif /* INCLUDE_vTaskDelete */
/*-----------------------------------------------------------*/

static void prvResetNextTaskUnblockTime( void )
{
    if( listLIST_IS_EMPTY( pxDelayedTaskList ) != pdFALSE )
 8001f78:	4b07      	ldr	r3, [pc, #28]	; (8001f98 <prvResetNextTaskUnblockTime+0x20>)
 8001f7a:	681b      	ldr	r3, [r3, #0]
 8001f7c:	681b      	ldr	r3, [r3, #0]
 8001f7e:	b923      	cbnz	r3, 8001f8a <prvResetNextTaskUnblockTime+0x12>
    {
        /* The new current delayed list is empty.  Set xNextTaskUnblockTime to
         * the maximum possible value so it is  extremely unlikely that the
         * if( xTickCount >= xNextTaskUnblockTime ) test will pass until
         * there is an item in the delayed list. */
        xNextTaskUnblockTime = portMAX_DELAY;
 8001f80:	4b06      	ldr	r3, [pc, #24]	; (8001f9c <prvResetNextTaskUnblockTime+0x24>)
 8001f82:	f04f 32ff 	mov.w	r2, #4294967295
 8001f86:	601a      	str	r2, [r3, #0]
 8001f88:	4770      	bx	lr
    {
        /* The new current delayed list is not empty, get the value of
         * the item at the head of the delayed list.  This is the time at
         * which the task at the head of the delayed list should be removed
         * from the Blocked state. */
        xNextTaskUnblockTime = listGET_ITEM_VALUE_OF_HEAD_ENTRY( pxDelayedTaskList );
 8001f8a:	4b03      	ldr	r3, [pc, #12]	; (8001f98 <prvResetNextTaskUnblockTime+0x20>)
 8001f8c:	681b      	ldr	r3, [r3, #0]
 8001f8e:	68db      	ldr	r3, [r3, #12]
 8001f90:	681a      	ldr	r2, [r3, #0]
 8001f92:	4b02      	ldr	r3, [pc, #8]	; (8001f9c <prvResetNextTaskUnblockTime+0x24>)
 8001f94:	601a      	str	r2, [r3, #0]
    }
}
 8001f96:	4770      	bx	lr
 8001f98:	20008230 	andcs	r8, r0, r0, lsr r2
 8001f9c:	20008760 	andcs	r8, r0, r0, ror #14

08001fa0 <prvInitialiseNewTask>:
{
 8001fa0:	e92d 47f0 	stmdb	sp!, {r4, r5, r6, r7, r8, r9, sl, lr}
 8001fa4:	4680      	mov	r8, r0
 8001fa6:	460d      	mov	r5, r1
 8001fa8:	4617      	mov	r7, r2
 8001faa:	4699      	mov	r9, r3
 8001fac:	9e08      	ldr	r6, [sp, #32]
 8001fae:	f8dd a024 	ldr.w	sl, [sp, #36]	; 0x24
 8001fb2:	9c0a      	ldr	r4, [sp, #40]	; 0x28
        ( void ) memset( pxNewTCB->pxStack, ( int ) tskSTACK_FILL_BYTE, ( size_t ) uxStackDepth * sizeof( StackType_t ) );
 8001fb4:	0092      	lsls	r2, r2, #2
 8001fb6:	21a5      	movs	r1, #165	; 0xa5
 8001fb8:	6b20      	ldr	r0, [r4, #48]	; 0x30
 8001fba:	f001 faa1 	bl	8003500 <memset>
        pxTopOfStack = &( pxNewTCB->pxStack[ uxStackDepth - ( configSTACK_DEPTH_TYPE ) 1 ] );
 8001fbe:	6b23      	ldr	r3, [r4, #48]	; 0x30
 8001fc0:	f107 4280 	add.w	r2, r7, #1073741824	; 0x40000000
 8001fc4:	3a01      	subs	r2, #1
 8001fc6:	eb03 0782 	add.w	r7, r3, r2, lsl #2
        pxTopOfStack = ( StackType_t * ) ( ( ( portPOINTER_SIZE_TYPE ) pxTopOfStack ) & ( ~( ( portPOINTER_SIZE_TYPE ) portBYTE_ALIGNMENT_MASK ) ) );
 8001fca:	f027 0707 	bic.w	r7, r7, #7
    if( pcName != NULL )
 8001fce:	b19d      	cbz	r5, 8001ff8 <prvInitialiseNewTask+0x58>
        for( x = ( UBaseType_t ) 0; x < ( UBaseType_t ) configMAX_TASK_NAME_LEN; x++ )
 8001fd0:	f04f 0c00 	mov.w	ip, #0
 8001fd4:	f1bc 0f03 	cmp.w	ip, #3
 8001fd8:	d80b      	bhi.n	8001ff2 <prvInitialiseNewTask+0x52>
            pxNewTCB->pcTaskName[ x ] = pcName[ x ];
 8001fda:	f815 200c 	ldrb.w	r2, [r5, ip]
 8001fde:	eb04 030c 	add.w	r3, r4, ip
 8001fe2:	f883 2034 	strb.w	r2, [r3, #52]	; 0x34
            if( pcName[ x ] == ( char ) 0x00 )
 8001fe6:	f815 300c 	ldrb.w	r3, [r5, ip]
 8001fea:	b113      	cbz	r3, 8001ff2 <prvInitialiseNewTask+0x52>
        for( x = ( UBaseType_t ) 0; x < ( UBaseType_t ) configMAX_TASK_NAME_LEN; x++ )
 8001fec:	f10c 0c01 	add.w	ip, ip, #1
 8001ff0:	e7f0      	b.n	8001fd4 <prvInitialiseNewTask+0x34>
        pxNewTCB->pcTaskName[ configMAX_TASK_NAME_LEN - 1U ] = '\0';
 8001ff2:	2300      	movs	r3, #0
 8001ff4:	f884 3037 	strb.w	r3, [r4, #55]	; 0x37
    if( uxPriority >= ( UBaseType_t ) configMAX_PRIORITIES )
 8001ff8:	2e04      	cmp	r6, #4
 8001ffa:	d900      	bls.n	8001ffe <prvInitialiseNewTask+0x5e>
        uxPriority = ( UBaseType_t ) configMAX_PRIORITIES - ( UBaseType_t ) 1U;
 8001ffc:	2604      	movs	r6, #4
    pxNewTCB->uxPriority = uxPriority;
 8001ffe:	62e6      	str	r6, [r4, #44]	; 0x2c
        pxNewTCB->uxBasePriority = uxPriority;
 8002000:	63a6      	str	r6, [r4, #56]	; 0x38
    vListInitialiseItem( &( pxNewTCB->xStateListItem ) );
 8002002:	1d20      	adds	r0, r4, #4
 8002004:	f7ff fd77 	bl	8001af6 <vListInitialiseItem>
    vListInitialiseItem( &( pxNewTCB->xEventListItem ) );
 8002008:	f104 0018 	add.w	r0, r4, #24
 800200c:	f7ff fd73 	bl	8001af6 <vListInitialiseItem>
    listSET_LIST_ITEM_OWNER( &( pxNewTCB->xStateListItem ), pxNewTCB );
 8002010:	6124      	str	r4, [r4, #16]
    listSET_LIST_ITEM_VALUE( &( pxNewTCB->xEventListItem ), ( TickType_t ) configMAX_PRIORITIES - ( TickType_t ) uxPriority );
 8002012:	f1c6 0605 	rsb	r6, r6, #5
 8002016:	61a6      	str	r6, [r4, #24]
    listSET_LIST_ITEM_OWNER( &( pxNewTCB->xEventListItem ), pxNewTCB );
 8002018:	6264      	str	r4, [r4, #36]	; 0x24
            pxNewTCB->pxTopOfStack = pxPortInitialiseStack( pxTopOfStack, pxTaskCode, pvParameters );
 800201a:	464a      	mov	r2, r9
 800201c:	4641      	mov	r1, r8
 800201e:	4638      	mov	r0, r7
 8002020:	f001 f860 	bl	80030e4 <pxPortInitialiseStack>
 8002024:	6020      	str	r0, [r4, #0]
    if( pxCreatedTask != NULL )
 8002026:	f1ba 0f00 	cmp.w	sl, #0
 800202a:	d001      	beq.n	8002030 <prvInitialiseNewTask+0x90>
        *pxCreatedTask = ( TaskHandle_t ) pxNewTCB;
 800202c:	f8ca 4000 	str.w	r4, [sl]
}
 8002030:	e8bd 87f0 	ldmia.w	sp!, {r4, r5, r6, r7, r8, r9, sl, pc}

08002034 <prvCreateStaticTask>:
    {
 8002034:	e92d 43f0 	stmdb	sp!, {r4, r5, r6, r7, r8, r9, lr}
 8002038:	b085      	sub	sp, #20
 800203a:	9e0d      	ldr	r6, [sp, #52]	; 0x34
 800203c:	9c0e      	ldr	r4, [sp, #56]	; 0x38
        if( ( pxTaskBuffer != NULL ) && ( puxStackBuffer != NULL ) )
 800203e:	b1f4      	cbz	r4, 800207e <prvCreateStaticTask+0x4a>
 8002040:	4605      	mov	r5, r0
 8002042:	4689      	mov	r9, r1
 8002044:	4690      	mov	r8, r2
 8002046:	461f      	mov	r7, r3
 8002048:	b1de      	cbz	r6, 8002082 <prvCreateStaticTask+0x4e>
            ( void ) memset( ( void * ) pxNewTCB, 0x00, sizeof( TCB_t ) );
 800204a:	224c      	movs	r2, #76	; 0x4c
 800204c:	2100      	movs	r1, #0
 800204e:	4620      	mov	r0, r4
 8002050:	f001 fa56 	bl	8003500 <memset>
            pxNewTCB->pxStack = ( StackType_t * ) puxStackBuffer;
 8002054:	6326      	str	r6, [r4, #48]	; 0x30
                pxNewTCB->ucStaticallyAllocated = tskSTATICALLY_ALLOCATED_STACK_AND_TCB;
 8002056:	2302      	movs	r3, #2
 8002058:	f884 3049 	strb.w	r3, [r4, #73]	; 0x49
            prvInitialiseNewTask( pxTaskCode, pcName, uxStackDepth, pvParameters, uxPriority, pxCreatedTask, pxNewTCB, NULL );
 800205c:	2300      	movs	r3, #0
 800205e:	9303      	str	r3, [sp, #12]
 8002060:	9402      	str	r4, [sp, #8]
 8002062:	9b0f      	ldr	r3, [sp, #60]	; 0x3c
 8002064:	9301      	str	r3, [sp, #4]
 8002066:	9b0c      	ldr	r3, [sp, #48]	; 0x30
 8002068:	9300      	str	r3, [sp, #0]
 800206a:	463b      	mov	r3, r7
 800206c:	4642      	mov	r2, r8
 800206e:	4649      	mov	r1, r9
 8002070:	4628      	mov	r0, r5
 8002072:	f7ff ff95 	bl	8001fa0 <prvInitialiseNewTask>
            pxNewTCB = ( TCB_t * ) pxTaskBuffer;
 8002076:	4620      	mov	r0, r4
    }
 8002078:	b005      	add	sp, #20
 800207a:	e8bd 83f0 	ldmia.w	sp!, {r4, r5, r6, r7, r8, r9, pc}
            pxNewTCB = NULL;
 800207e:	4620      	mov	r0, r4
 8002080:	e7fa      	b.n	8002078 <prvCreateStaticTask+0x44>
 8002082:	4630      	mov	r0, r6
        return pxNewTCB;
 8002084:	e7f8      	b.n	8002078 <prvCreateStaticTask+0x44>
	...

08002088 <prvInitialiseTaskLists>:
{
 8002088:	b538      	push	{r3, r4, r5, lr}
    for( uxPriority = ( UBaseType_t ) 0U; uxPriority < ( UBaseType_t ) configMAX_PRIORITIES; uxPriority++ )
 800208a:	2400      	movs	r4, #0
 800208c:	e007      	b.n	800209e <prvInitialiseTaskLists+0x16>
        vListInitialise( &( pxReadyTasksLists[ uxPriority ] ) );
 800208e:	ebc4 02c4 	rsb	r2, r4, r4, lsl #3
 8002092:	0093      	lsls	r3, r2, #2
 8002094:	480e      	ldr	r0, [pc, #56]	; (80020d0 <prvInitialiseTaskLists+0x48>)
 8002096:	4418      	add	r0, r3
 8002098:	f7ff fd20 	bl	8001adc <vListInitialise>
    for( uxPriority = ( UBaseType_t ) 0U; uxPriority < ( UBaseType_t ) configMAX_PRIORITIES; uxPriority++ )
 800209c:	3401      	adds	r4, #1
 800209e:	2c04      	cmp	r4, #4
 80020a0:	d9f5      	bls.n	800208e <prvInitialiseTaskLists+0x6>
    vListInitialise( &xDelayedTaskList1 );
 80020a2:	4d0c      	ldr	r5, [pc, #48]	; (80020d4 <prvInitialiseTaskLists+0x4c>)
 80020a4:	4628      	mov	r0, r5
 80020a6:	f7ff fd19 	bl	8001adc <vListInitialise>
    vListInitialise( &xDelayedTaskList2 );
 80020aa:	4c0b      	ldr	r4, [pc, #44]	; (80020d8 <prvInitialiseTaskLists+0x50>)
 80020ac:	4620      	mov	r0, r4
 80020ae:	f7ff fd15 	bl	8001adc <vListInitialise>
    vListInitialise( &xPendingReadyList );
 80020b2:	480a      	ldr	r0, [pc, #40]	; (80020dc <prvInitialiseTaskLists+0x54>)
 80020b4:	f7ff fd12 	bl	8001adc <vListInitialise>
        vListInitialise( &xTasksWaitingTermination );
 80020b8:	4809      	ldr	r0, [pc, #36]	; (80020e0 <prvInitialiseTaskLists+0x58>)
 80020ba:	f7ff fd0f 	bl	8001adc <vListInitialise>
        vListInitialise( &xSuspendedTaskList );
 80020be:	4809      	ldr	r0, [pc, #36]	; (80020e4 <prvInitialiseTaskLists+0x5c>)
 80020c0:	f7ff fd0c 	bl	8001adc <vListInitialise>
    pxDelayedTaskList = &xDelayedTaskList1;
 80020c4:	4b08      	ldr	r3, [pc, #32]	; (80020e8 <prvInitialiseTaskLists+0x60>)
 80020c6:	601d      	str	r5, [r3, #0]
    pxOverflowDelayedTaskList = &xDelayedTaskList2;
 80020c8:	4b08      	ldr	r3, [pc, #32]	; (80020ec <prvInitialiseTaskLists+0x64>)
 80020ca:	601c      	str	r4, [r3, #0]
}
 80020cc:	bd38      	pop	{r3, r4, r5, pc}
 80020ce:	bf00      	nop
 80020d0:	20008238 	andcs	r8, r0, r8, lsr r2
 80020d4:	200086d8 	ldrdcs	r8, [r0], -r8	; <UNPREDICTABLE>
 80020d8:	200086f4 	strdcs	r8, [r0], -r4
 80020dc:	2000876c 	andcs	r8, r0, ip, ror #14
 80020e0:	200087a8 	andcs	r8, r0, r8, lsr #15
 80020e4:	2000878c 	andcs	r8, r0, ip, lsl #15
 80020e8:	20008230 	andcs	r8, r0, r0, lsr r2
 80020ec:	20008234 	andcs	r8, r0, r4, lsr r2

080020f0 <prvAddNewTaskToReadyList>:
    {
 80020f0:	b510      	push	{r4, lr}
 80020f2:	4604      	mov	r4, r0
        taskENTER_CRITICAL();
 80020f4:	f001 f81e 	bl	8003134 <vPortEnterCritical>
            uxCurrentNumberOfTasks = ( UBaseType_t ) ( uxCurrentNumberOfTasks + 1U );
 80020f8:	4a2a      	ldr	r2, [pc, #168]	; (80021a4 <prvAddNewTaskToReadyList+0xb4>)
 80020fa:	6813      	ldr	r3, [r2, #0]
 80020fc:	3301      	adds	r3, #1
 80020fe:	6013      	str	r3, [r2, #0]
            if( pxCurrentTCB == NULL )
 8002100:	4b29      	ldr	r3, [pc, #164]	; (80021a8 <prvAddNewTaskToReadyList+0xb8>)
 8002102:	681b      	ldr	r3, [r3, #0]
 8002104:	b15b      	cbz	r3, 800211e <prvAddNewTaskToReadyList+0x2e>
                if( xSchedulerRunning == pdFALSE )
 8002106:	4b29      	ldr	r3, [pc, #164]	; (80021ac <prvAddNewTaskToReadyList+0xbc>)
 8002108:	681b      	ldr	r3, [r3, #0]
 800210a:	b96b      	cbnz	r3, 8002128 <prvAddNewTaskToReadyList+0x38>
                    if( pxCurrentTCB->uxPriority <= pxNewTCB->uxPriority )
 800210c:	4b26      	ldr	r3, [pc, #152]	; (80021a8 <prvAddNewTaskToReadyList+0xb8>)
 800210e:	681b      	ldr	r3, [r3, #0]
 8002110:	6ada      	ldr	r2, [r3, #44]	; 0x2c
 8002112:	6ae3      	ldr	r3, [r4, #44]	; 0x2c
 8002114:	429a      	cmp	r2, r3
 8002116:	d807      	bhi.n	8002128 <prvAddNewTaskToReadyList+0x38>
                        pxCurrentTCB = pxNewTCB;
 8002118:	4b23      	ldr	r3, [pc, #140]	; (80021a8 <prvAddNewTaskToReadyList+0xb8>)
 800211a:	601c      	str	r4, [r3, #0]
 800211c:	e004      	b.n	8002128 <prvAddNewTaskToReadyList+0x38>
                pxCurrentTCB = pxNewTCB;
 800211e:	4b22      	ldr	r3, [pc, #136]	; (80021a8 <prvAddNewTaskToReadyList+0xb8>)
 8002120:	601c      	str	r4, [r3, #0]
                if( uxCurrentNumberOfTasks == ( UBaseType_t ) 1 )
 8002122:	6813      	ldr	r3, [r2, #0]
 8002124:	2b01      	cmp	r3, #1
 8002126:	d039      	beq.n	800219c <prvAddNewTaskToReadyList+0xac>
            uxTaskNumber++;
 8002128:	4a21      	ldr	r2, [pc, #132]	; (80021b0 <prvAddNewTaskToReadyList+0xc0>)
 800212a:	6813      	ldr	r3, [r2, #0]
 800212c:	3301      	adds	r3, #1
 800212e:	6013      	str	r3, [r2, #0]
            prvAddTaskToReadyList( pxNewTCB );
 8002130:	6ae3      	ldr	r3, [r4, #44]	; 0x2c
 8002132:	4a20      	ldr	r2, [pc, #128]	; (80021b4 <prvAddNewTaskToReadyList+0xc4>)
 8002134:	6812      	ldr	r2, [r2, #0]
 8002136:	4293      	cmp	r3, r2
 8002138:	d901      	bls.n	800213e <prvAddNewTaskToReadyList+0x4e>
 800213a:	4a1e      	ldr	r2, [pc, #120]	; (80021b4 <prvAddNewTaskToReadyList+0xc4>)
 800213c:	6013      	str	r3, [r2, #0]
 800213e:	4a1e      	ldr	r2, [pc, #120]	; (80021b8 <prvAddNewTaskToReadyList+0xc8>)
 8002140:	ebc3 03c3 	rsb	r3, r3, r3, lsl #3
 8002144:	eb02 0383 	add.w	r3, r2, r3, lsl #2
 8002148:	685b      	ldr	r3, [r3, #4]
 800214a:	60a3      	str	r3, [r4, #8]
 800214c:	6898      	ldr	r0, [r3, #8]
 800214e:	60e0      	str	r0, [r4, #12]
 8002150:	1d21      	adds	r1, r4, #4
 8002152:	6041      	str	r1, [r0, #4]
 8002154:	6099      	str	r1, [r3, #8]
 8002156:	6ae3      	ldr	r3, [r4, #44]	; 0x2c
 8002158:	ebc3 01c3 	rsb	r1, r3, r3, lsl #3
 800215c:	eb02 0081 	add.w	r0, r2, r1, lsl #2
 8002160:	6160      	str	r0, [r4, #20]
 8002162:	f852 1021 	ldr.w	r1, [r2, r1, lsl #2]
 8002166:	3101      	adds	r1, #1
 8002168:	ebc3 03c3 	rsb	r3, r3, r3, lsl #3
 800216c:	f842 1023 	str.w	r1, [r2, r3, lsl #2]
        taskEXIT_CRITICAL();
 8002170:	f000 fff0 	bl	8003154 <vPortExitCritical>
        if( xSchedulerRunning != pdFALSE )
 8002174:	4b0d      	ldr	r3, [pc, #52]	; (80021ac <prvAddNewTaskToReadyList+0xbc>)
 8002176:	681b      	ldr	r3, [r3, #0]
 8002178:	b17b      	cbz	r3, 800219a <prvAddNewTaskToReadyList+0xaa>
            taskYIELD_ANY_CORE_IF_USING_PREEMPTION( pxNewTCB );
 800217a:	4b0b      	ldr	r3, [pc, #44]	; (80021a8 <prvAddNewTaskToReadyList+0xb8>)
 800217c:	681b      	ldr	r3, [r3, #0]
 800217e:	6ada      	ldr	r2, [r3, #44]	; 0x2c
 8002180:	6ae3      	ldr	r3, [r4, #44]	; 0x2c
 8002182:	429a      	cmp	r2, r3
 8002184:	d209      	bcs.n	800219a <prvAddNewTaskToReadyList+0xaa>
 8002186:	f04f 23e0 	mov.w	r3, #3758153728	; 0xe000e000
 800218a:	f04f 5280 	mov.w	r2, #268435456	; 0x10000000
 800218e:	f8c3 2d04 	str.w	r2, [r3, #3332]	; 0xd04
 8002192:	f3bf 8f4f 	dsb	sy
 8002196:	f3bf 8f6f 	isb	sy
    }
 800219a:	bd10      	pop	{r4, pc}
                    prvInitialiseTaskLists();
 800219c:	f7ff ff74 	bl	8002088 <prvInitialiseTaskLists>
 80021a0:	e7c2      	b.n	8002128 <prvAddNewTaskToReadyList+0x38>
 80021a2:	bf00      	nop
 80021a4:	200082c4 	andcs	r8, r0, r4, asr #5
 80021a8:	2000822c 	andcs	r8, r0, ip, lsr #4
 80021ac:	20008788 	andcs	r8, r0, r8, lsl #15
 80021b0:	200084d0 	ldrdcs	r8, [r0], -r0
 80021b4:	200086d4 	ldrdcs	r8, [r0], -r4
 80021b8:	20008238 	andcs	r8, r0, r8, lsr r2

080021bc <prvCreateTask>:
    {
 80021bc:	e92d 43f0 	stmdb	sp!, {r4, r5, r6, r7, r8, r9, lr}
 80021c0:	b085      	sub	sp, #20
 80021c2:	4606      	mov	r6, r0
 80021c4:	460f      	mov	r7, r1
 80021c6:	4615      	mov	r5, r2
 80021c8:	4698      	mov	r8, r3
            pxStack = pvPortMallocStack( ( ( ( size_t ) uxStackDepth ) * sizeof( StackType_t ) ) );
 80021ca:	0090      	lsls	r0, r2, #2
 80021cc:	f000 feca 	bl	8002f64 <pvPortMalloc>
            if( pxStack != NULL )
 80021d0:	4681      	mov	r9, r0
 80021d2:	b310      	cbz	r0, 800221a <prvCreateTask+0x5e>
                pxNewTCB = ( TCB_t * ) pvPortMalloc( sizeof( TCB_t ) );
 80021d4:	204c      	movs	r0, #76	; 0x4c
 80021d6:	f000 fec5 	bl	8002f64 <pvPortMalloc>
                if( pxNewTCB != NULL )
 80021da:	4604      	mov	r4, r0
 80021dc:	b1c8      	cbz	r0, 8002212 <prvCreateTask+0x56>
                    ( void ) memset( ( void * ) pxNewTCB, 0x00, sizeof( TCB_t ) );
 80021de:	224c      	movs	r2, #76	; 0x4c
 80021e0:	2100      	movs	r1, #0
 80021e2:	f001 f98d 	bl	8003500 <memset>
                    pxNewTCB->pxStack = pxStack;
 80021e6:	f8c4 9030 	str.w	r9, [r4, #48]	; 0x30
        if( pxNewTCB != NULL )
 80021ea:	b174      	cbz	r4, 800220a <prvCreateTask+0x4e>
                pxNewTCB->ucStaticallyAllocated = tskDYNAMICALLY_ALLOCATED_STACK_AND_TCB;
 80021ec:	2300      	movs	r3, #0
 80021ee:	f884 3049 	strb.w	r3, [r4, #73]	; 0x49
            prvInitialiseNewTask( pxTaskCode, pcName, uxStackDepth, pvParameters, uxPriority, pxCreatedTask, pxNewTCB, NULL );
 80021f2:	9303      	str	r3, [sp, #12]
 80021f4:	9402      	str	r4, [sp, #8]
 80021f6:	9b0d      	ldr	r3, [sp, #52]	; 0x34
 80021f8:	9301      	str	r3, [sp, #4]
 80021fa:	9b0c      	ldr	r3, [sp, #48]	; 0x30
 80021fc:	9300      	str	r3, [sp, #0]
 80021fe:	4643      	mov	r3, r8
 8002200:	462a      	mov	r2, r5
 8002202:	4639      	mov	r1, r7
 8002204:	4630      	mov	r0, r6
 8002206:	f7ff fecb 	bl	8001fa0 <prvInitialiseNewTask>
    }
 800220a:	4620      	mov	r0, r4
 800220c:	b005      	add	sp, #20
 800220e:	e8bd 83f0 	ldmia.w	sp!, {r4, r5, r6, r7, r8, r9, pc}
                    vPortFreeStack( pxStack );
 8002212:	4648      	mov	r0, r9
 8002214:	f000 ff10 	bl	8003038 <vPortFree>
 8002218:	e7e7      	b.n	80021ea <prvCreateTask+0x2e>
                pxNewTCB = NULL;
 800221a:	4604      	mov	r4, r0
        return pxNewTCB;
 800221c:	e7f5      	b.n	800220a <prvCreateTask+0x4e>

0800221e <prvDeleteTCB>:
    {
 800221e:	b510      	push	{r4, lr}
 8002220:	4604      	mov	r4, r0
            if( pxTCB->ucStaticallyAllocated == tskDYNAMICALLY_ALLOCATED_STACK_AND_TCB )
 8002222:	f890 3049 	ldrb.w	r3, [r0, #73]	; 0x49
 8002226:	b113      	cbz	r3, 800222e <prvDeleteTCB+0x10>
            else if( pxTCB->ucStaticallyAllocated == tskSTATICALLY_ALLOCATED_STACK_ONLY )
 8002228:	2b01      	cmp	r3, #1
 800222a:	d007      	beq.n	800223c <prvDeleteTCB+0x1e>
    }
 800222c:	bd10      	pop	{r4, pc}
                vPortFreeStack( pxTCB->pxStack );
 800222e:	6b00      	ldr	r0, [r0, #48]	; 0x30
 8002230:	f000 ff02 	bl	8003038 <vPortFree>
                vPortFree( pxTCB );
 8002234:	4620      	mov	r0, r4
 8002236:	f000 feff 	bl	8003038 <vPortFree>
 800223a:	e7f7      	b.n	800222c <prvDeleteTCB+0xe>
                vPortFree( pxTCB );
 800223c:	f000 fefc 	bl	8003038 <vPortFree>
    }
 8002240:	e7f4      	b.n	800222c <prvDeleteTCB+0xe>
	...

08002244 <prvCheckTasksWaitingTermination>:
        while( uxDeletedTasksWaitingCleanUp > ( UBaseType_t ) 0U )
 8002244:	4b0f      	ldr	r3, [pc, #60]	; (8002284 <prvCheckTasksWaitingTermination+0x40>)
 8002246:	681b      	ldr	r3, [r3, #0]
 8002248:	b1d3      	cbz	r3, 8002280 <prvCheckTasksWaitingTermination+0x3c>
{
 800224a:	b510      	push	{r4, lr}
                taskENTER_CRITICAL();
 800224c:	f000 ff72 	bl	8003134 <vPortEnterCritical>
                        pxTCB = listGET_OWNER_OF_HEAD_ENTRY( ( &xTasksWaitingTermination ) );
 8002250:	4b0d      	ldr	r3, [pc, #52]	; (8002288 <prvCheckTasksWaitingTermination+0x44>)
 8002252:	68db      	ldr	r3, [r3, #12]
 8002254:	68dc      	ldr	r4, [r3, #12]
                        ( void ) uxListRemove( &( pxTCB->xStateListItem ) );
 8002256:	1d20      	adds	r0, r4, #4
 8002258:	f7ff fc69 	bl	8001b2e <uxListRemove>
                        --uxCurrentNumberOfTasks;
 800225c:	4a0b      	ldr	r2, [pc, #44]	; (800228c <prvCheckTasksWaitingTermination+0x48>)
 800225e:	6813      	ldr	r3, [r2, #0]
 8002260:	3b01      	subs	r3, #1
 8002262:	6013      	str	r3, [r2, #0]
                        --uxDeletedTasksWaitingCleanUp;
 8002264:	4a07      	ldr	r2, [pc, #28]	; (8002284 <prvCheckTasksWaitingTermination+0x40>)
 8002266:	6813      	ldr	r3, [r2, #0]
 8002268:	3b01      	subs	r3, #1
 800226a:	6013      	str	r3, [r2, #0]
                taskEXIT_CRITICAL();
 800226c:	f000 ff72 	bl	8003154 <vPortExitCritical>
                prvDeleteTCB( pxTCB );
 8002270:	4620      	mov	r0, r4
 8002272:	f7ff ffd4 	bl	800221e <prvDeleteTCB>
        while( uxDeletedTasksWaitingCleanUp > ( UBaseType_t ) 0U )
 8002276:	4b03      	ldr	r3, [pc, #12]	; (8002284 <prvCheckTasksWaitingTermination+0x40>)
 8002278:	681b      	ldr	r3, [r3, #0]
 800227a:	2b00      	cmp	r3, #0
 800227c:	d1e6      	bne.n	800224c <prvCheckTasksWaitingTermination+0x8>
}
 800227e:	bd10      	pop	{r4, pc}
 8002280:	4770      	bx	lr
 8002282:	bf00      	nop
 8002284:	200082c8 	andcs	r8, r0, r8, asr #5
 8002288:	200087a8 	andcs	r8, r0, r8, lsr #15
 800228c:	200082c4 	andcs	r8, r0, r4, asr #5

08002290 <prvAddCurrentTaskToDelayedList>:
#endif /* if ( ( configGENERATE_RUN_TIME_STATS == 1 ) && ( INCLUDE_xTaskGetIdleTaskHandle == 1 ) ) */
/*-----------------------------------------------------------*/

static void prvAddCurrentTaskToDelayedList( TickType_t xTicksToWait,
                                            const BaseType_t xCanBlockIndefinitely )
{
 8002290:	e92d 41f0 	stmdb	sp!, {r4, r5, r6, r7, r8, lr}
 8002294:	4604      	mov	r4, r0
 8002296:	460d      	mov	r5, r1
    TickType_t xTimeToWake;
    const TickType_t xConstTickCount = xTickCount;
 8002298:	4b21      	ldr	r3, [pc, #132]	; (8002320 <prvAddCurrentTaskToDelayedList+0x90>)
 800229a:	681e      	ldr	r6, [r3, #0]
    List_t * const pxDelayedList = pxDelayedTaskList;
 800229c:	4b21      	ldr	r3, [pc, #132]	; (8002324 <prvAddCurrentTaskToDelayedList+0x94>)
 800229e:	681f      	ldr	r7, [r3, #0]
    List_t * const pxOverflowDelayedList = pxOverflowDelayedTaskList;
 80022a0:	4b21      	ldr	r3, [pc, #132]	; (8002328 <prvAddCurrentTaskToDelayedList+0x98>)
 80022a2:	f8d3 8000 	ldr.w	r8, [r3]
    #if ( INCLUDE_xTaskAbortDelay == 1 )
    {
        /* About to enter a delayed list, so ensure the ucDelayAborted flag is
         * reset to pdFALSE so it can be detected as having been set to pdTRUE
         * when the task leaves the Blocked state. */
        pxCurrentTCB->ucDelayAborted = ( uint8_t ) pdFALSE;
 80022a6:	4b21      	ldr	r3, [pc, #132]	; (800232c <prvAddCurrentTaskToDelayedList+0x9c>)
 80022a8:	681a      	ldr	r2, [r3, #0]
 80022aa:	2100      	movs	r1, #0
 80022ac:	f882 104a 	strb.w	r1, [r2, #74]	; 0x4a
    }
    #endif

    /* Remove the task from the ready list before adding it to the blocked list
     * as the same list item is used for both lists. */
    if( uxListRemove( &( pxCurrentTCB->xStateListItem ) ) == ( UBaseType_t ) 0 )
 80022b0:	6818      	ldr	r0, [r3, #0]
 80022b2:	3004      	adds	r0, #4
 80022b4:	f7ff fc3b 	bl	8001b2e <uxListRemove>
        mtCOVERAGE_TEST_MARKER();
    }

    #if ( INCLUDE_vTaskSuspend == 1 )
    {
        if( ( xTicksToWait == portMAX_DELAY ) && ( xCanBlockIndefinitely != pdFALSE ) )
 80022b8:	f1b4 3fff 	cmp.w	r4, #4294967295
 80022bc:	d00d      	beq.n	80022da <prvAddCurrentTaskToDelayedList+0x4a>
        else
        {
            /* Calculate the time at which the task should be woken if the event
             * does not occur.  This may overflow but this doesn't matter, the
             * kernel will manage it correctly. */
            xTimeToWake = xConstTickCount + xTicksToWait;
 80022be:	4434      	add	r4, r6

            /* The list item will be inserted in wake time order. */
            listSET_LIST_ITEM_VALUE( &( pxCurrentTCB->xStateListItem ), xTimeToWake );
 80022c0:	4b1a      	ldr	r3, [pc, #104]	; (800232c <prvAddCurrentTaskToDelayedList+0x9c>)
 80022c2:	681b      	ldr	r3, [r3, #0]
 80022c4:	605c      	str	r4, [r3, #4]

            if( xTimeToWake < xConstTickCount )
 80022c6:	42a6      	cmp	r6, r4
 80022c8:	d91d      	bls.n	8002306 <prvAddCurrentTaskToDelayedList+0x76>
            {
                /* Wake time has overflowed.  Place this item in the overflow
                 * list. */
                traceMOVED_TASK_TO_OVERFLOW_DELAYED_LIST();
                vListInsert( pxOverflowDelayedList, &( pxCurrentTCB->xStateListItem ) );
 80022ca:	4b18      	ldr	r3, [pc, #96]	; (800232c <prvAddCurrentTaskToDelayedList+0x9c>)
 80022cc:	6819      	ldr	r1, [r3, #0]
 80022ce:	3104      	adds	r1, #4
 80022d0:	4640      	mov	r0, r8
 80022d2:	f7ff fc13 	bl	8001afc <vListInsert>

        /* Avoid compiler warning when INCLUDE_vTaskSuspend is not 1. */
        ( void ) xCanBlockIndefinitely;
    }
    #endif /* INCLUDE_vTaskSuspend */
}
 80022d6:	e8bd 81f0 	ldmia.w	sp!, {r4, r5, r6, r7, r8, pc}
        if( ( xTicksToWait == portMAX_DELAY ) && ( xCanBlockIndefinitely != pdFALSE ) )
 80022da:	2d00      	cmp	r5, #0
 80022dc:	d0ef      	beq.n	80022be <prvAddCurrentTaskToDelayedList+0x2e>
            listINSERT_END( &xSuspendedTaskList, &( pxCurrentTCB->xStateListItem ) );
 80022de:	4a14      	ldr	r2, [pc, #80]	; (8002330 <prvAddCurrentTaskToDelayedList+0xa0>)
 80022e0:	6851      	ldr	r1, [r2, #4]
 80022e2:	4b12      	ldr	r3, [pc, #72]	; (800232c <prvAddCurrentTaskToDelayedList+0x9c>)
 80022e4:	6818      	ldr	r0, [r3, #0]
 80022e6:	6081      	str	r1, [r0, #8]
 80022e8:	6818      	ldr	r0, [r3, #0]
 80022ea:	688c      	ldr	r4, [r1, #8]
 80022ec:	60c4      	str	r4, [r0, #12]
 80022ee:	6818      	ldr	r0, [r3, #0]
 80022f0:	3004      	adds	r0, #4
 80022f2:	6060      	str	r0, [r4, #4]
 80022f4:	6818      	ldr	r0, [r3, #0]
 80022f6:	3004      	adds	r0, #4
 80022f8:	6088      	str	r0, [r1, #8]
 80022fa:	681b      	ldr	r3, [r3, #0]
 80022fc:	615a      	str	r2, [r3, #20]
 80022fe:	6813      	ldr	r3, [r2, #0]
 8002300:	3301      	adds	r3, #1
 8002302:	6013      	str	r3, [r2, #0]
 8002304:	e7e7      	b.n	80022d6 <prvAddCurrentTaskToDelayedList+0x46>
                vListInsert( pxDelayedList, &( pxCurrentTCB->xStateListItem ) );
 8002306:	4b09      	ldr	r3, [pc, #36]	; (800232c <prvAddCurrentTaskToDelayedList+0x9c>)
 8002308:	6819      	ldr	r1, [r3, #0]
 800230a:	3104      	adds	r1, #4
 800230c:	4638      	mov	r0, r7
 800230e:	f7ff fbf5 	bl	8001afc <vListInsert>
                if( xTimeToWake < xNextTaskUnblockTime )
 8002312:	4b08      	ldr	r3, [pc, #32]	; (8002334 <prvAddCurrentTaskToDelayedList+0xa4>)
 8002314:	681b      	ldr	r3, [r3, #0]
 8002316:	42a3      	cmp	r3, r4
 8002318:	d9dd      	bls.n	80022d6 <prvAddCurrentTaskToDelayedList+0x46>
                    xNextTaskUnblockTime = xTimeToWake;
 800231a:	4b06      	ldr	r3, [pc, #24]	; (8002334 <prvAddCurrentTaskToDelayedList+0xa4>)
 800231c:	601c      	str	r4, [r3, #0]
}
 800231e:	e7da      	b.n	80022d6 <prvAddCurrentTaskToDelayedList+0x46>
 8002320:	200087c4 	andcs	r8, r0, r4, asr #15
 8002324:	20008230 	andcs	r8, r0, r0, lsr r2
 8002328:	20008234 	andcs	r8, r0, r4, lsr r2
 800232c:	2000822c 	andcs	r8, r0, ip, lsr #4
 8002330:	2000878c 	andcs	r8, r0, ip, lsl #15
 8002334:	20008760 	andcs	r8, r0, r0, ror #14

08002338 <xTaskCreateStatic>:
    {
 8002338:	b510      	push	{r4, lr}
 800233a:	b086      	sub	sp, #24
        TaskHandle_t xReturn = NULL;
 800233c:	2400      	movs	r4, #0
 800233e:	9405      	str	r4, [sp, #20]
        pxNewTCB = prvCreateStaticTask( pxTaskCode, pcName, uxStackDepth, pvParameters, uxPriority, puxStackBuffer, pxTaskBuffer, &xReturn );
 8002340:	ac05      	add	r4, sp, #20
 8002342:	9403      	str	r4, [sp, #12]
 8002344:	9c0a      	ldr	r4, [sp, #40]	; 0x28
 8002346:	9402      	str	r4, [sp, #8]
 8002348:	9c09      	ldr	r4, [sp, #36]	; 0x24
 800234a:	9401      	str	r4, [sp, #4]
 800234c:	9c08      	ldr	r4, [sp, #32]
 800234e:	9400      	str	r4, [sp, #0]
 8002350:	f7ff fe70 	bl	8002034 <prvCreateStaticTask>
        if( pxNewTCB != NULL )
 8002354:	b108      	cbz	r0, 800235a <xTaskCreateStatic+0x22>
            prvAddNewTaskToReadyList( pxNewTCB );
 8002356:	f7ff fecb 	bl	80020f0 <prvAddNewTaskToReadyList>
    }
 800235a:	9805      	ldr	r0, [sp, #20]
 800235c:	b006      	add	sp, #24
 800235e:	bd10      	pop	{r4, pc}

08002360 <xTaskCreate>:
    {
 8002360:	b510      	push	{r4, lr}
 8002362:	b082      	sub	sp, #8
        pxNewTCB = prvCreateTask( pxTaskCode, pcName, uxStackDepth, pvParameters, uxPriority, pxCreatedTask );
 8002364:	9c05      	ldr	r4, [sp, #20]
 8002366:	9401      	str	r4, [sp, #4]
 8002368:	9c04      	ldr	r4, [sp, #16]
 800236a:	9400      	str	r4, [sp, #0]
 800236c:	f7ff ff26 	bl	80021bc <prvCreateTask>
        if( pxNewTCB != NULL )
 8002370:	b120      	cbz	r0, 800237c <xTaskCreate+0x1c>
            prvAddNewTaskToReadyList( pxNewTCB );
 8002372:	f7ff febd 	bl	80020f0 <prvAddNewTaskToReadyList>
            xReturn = pdPASS;
 8002376:	2001      	movs	r0, #1
    }
 8002378:	b002      	add	sp, #8
 800237a:	bd10      	pop	{r4, pc}
            xReturn = errCOULD_NOT_ALLOCATE_REQUIRED_MEMORY;
 800237c:	f04f 30ff 	mov.w	r0, #4294967295
        return xReturn;
 8002380:	e7fa      	b.n	8002378 <xTaskCreate+0x18>
	...

08002384 <vTaskSuspendAll>:
        uxSchedulerSuspended = ( UBaseType_t ) ( uxSchedulerSuspended + 1U );
 8002384:	4a02      	ldr	r2, [pc, #8]	; (8002390 <vTaskSuspendAll+0xc>)
 8002386:	6813      	ldr	r3, [r2, #0]
 8002388:	3301      	adds	r3, #1
 800238a:	6013      	str	r3, [r2, #0]
}
 800238c:	4770      	bx	lr
 800238e:	bf00      	nop
 8002390:	200084cc 	andcs	r8, r0, ip, asr #9

08002394 <xTaskGetTickCount>:
        xTicks = xTickCount;
 8002394:	4b01      	ldr	r3, [pc, #4]	; (800239c <xTaskGetTickCount+0x8>)
 8002396:	6818      	ldr	r0, [r3, #0]
}
 8002398:	4770      	bx	lr
 800239a:	bf00      	nop
 800239c:	200087c4 	andcs	r8, r0, r4, asr #15

080023a0 <uxTaskGetNumberOfTasks>:
    return uxCurrentNumberOfTasks;
 80023a0:	4b01      	ldr	r3, [pc, #4]	; (80023a8 <uxTaskGetNumberOfTasks+0x8>)
 80023a2:	6818      	ldr	r0, [r3, #0]
}
 80023a4:	4770      	bx	lr
 80023a6:	bf00      	nop
 80023a8:	200082c4 	andcs	r8, r0, r4, asr #5

080023ac <vTaskStepTick>:
    {
 80023ac:	b510      	push	{r4, lr}
 80023ae:	4604      	mov	r4, r0
        xUpdatedTickCount = xTickCount + xTicksToJump;
 80023b0:	4b0a      	ldr	r3, [pc, #40]	; (80023dc <vTaskStepTick+0x30>)
 80023b2:	681b      	ldr	r3, [r3, #0]
 80023b4:	4403      	add	r3, r0
        if( xUpdatedTickCount == xNextTaskUnblockTime )
 80023b6:	4a0a      	ldr	r2, [pc, #40]	; (80023e0 <vTaskStepTick+0x34>)
 80023b8:	6812      	ldr	r2, [r2, #0]
 80023ba:	429a      	cmp	r2, r3
 80023bc:	d004      	beq.n	80023c8 <vTaskStepTick+0x1c>
        xTickCount += xTicksToJump;
 80023be:	4b07      	ldr	r3, [pc, #28]	; (80023dc <vTaskStepTick+0x30>)
 80023c0:	6818      	ldr	r0, [r3, #0]
 80023c2:	4404      	add	r4, r0
 80023c4:	601c      	str	r4, [r3, #0]
    }
 80023c6:	bd10      	pop	{r4, pc}
            taskENTER_CRITICAL();
 80023c8:	f000 feb4 	bl	8003134 <vPortEnterCritical>
                xPendedTicks++;
 80023cc:	4a05      	ldr	r2, [pc, #20]	; (80023e4 <vTaskStepTick+0x38>)
 80023ce:	6813      	ldr	r3, [r2, #0]
 80023d0:	3301      	adds	r3, #1
 80023d2:	6013      	str	r3, [r2, #0]
            taskEXIT_CRITICAL();
 80023d4:	f000 febe 	bl	8003154 <vPortExitCritical>
            xTicksToJump--;
 80023d8:	3c01      	subs	r4, #1
 80023da:	e7f0      	b.n	80023be <vTaskStepTick+0x12>
 80023dc:	200087c4 	andcs	r8, r0, r4, asr #15
 80023e0:	20008760 	andcs	r8, r0, r0, ror #14
 80023e4:	20008768 	andcs	r8, r0, r8, ror #14

080023e8 <xTaskIncrementTick>:
    if( uxSchedulerSuspended == ( UBaseType_t ) 0U )
 80023e8:	4b4c      	ldr	r3, [pc, #304]	; (800251c <xTaskIncrementTick+0x134>)
 80023ea:	681b      	ldr	r3, [r3, #0]
 80023ec:	2b00      	cmp	r3, #0
 80023ee:	f040 808d 	bne.w	800250c <xTaskIncrementTick+0x124>
{
 80023f2:	b570      	push	{r4, r5, r6, lr}
        const TickType_t xConstTickCount = xTickCount + ( TickType_t ) 1;
 80023f4:	4b4a      	ldr	r3, [pc, #296]	; (8002520 <xTaskIncrementTick+0x138>)
 80023f6:	681c      	ldr	r4, [r3, #0]
 80023f8:	3401      	adds	r4, #1
        xTickCount = xConstTickCount;
 80023fa:	601c      	str	r4, [r3, #0]
        if( xConstTickCount == ( TickType_t ) 0U )
 80023fc:	b1a4      	cbz	r4, 8002428 <xTaskIncrementTick+0x40>
        if( xConstTickCount >= xNextTaskUnblockTime )
 80023fe:	4b49      	ldr	r3, [pc, #292]	; (8002524 <xTaskIncrementTick+0x13c>)
 8002400:	681b      	ldr	r3, [r3, #0]
 8002402:	42a3      	cmp	r3, r4
 8002404:	d91d      	bls.n	8002442 <xTaskIncrementTick+0x5a>
    BaseType_t xSwitchRequired = pdFALSE;
 8002406:	2000      	movs	r0, #0
                if( listCURRENT_LIST_LENGTH( &( pxReadyTasksLists[ pxCurrentTCB->uxPriority ] ) ) > 1U )
 8002408:	4b47      	ldr	r3, [pc, #284]	; (8002528 <xTaskIncrementTick+0x140>)
 800240a:	681b      	ldr	r3, [r3, #0]
 800240c:	6adb      	ldr	r3, [r3, #44]	; 0x2c
 800240e:	ebc3 03c3 	rsb	r3, r3, r3, lsl #3
 8002412:	009a      	lsls	r2, r3, #2
 8002414:	4b45      	ldr	r3, [pc, #276]	; (800252c <xTaskIncrementTick+0x144>)
 8002416:	589b      	ldr	r3, [r3, r2]
 8002418:	2b01      	cmp	r3, #1
 800241a:	d900      	bls.n	800241e <xTaskIncrementTick+0x36>
                    xSwitchRequired = pdTRUE;
 800241c:	2001      	movs	r0, #1
                if( xYieldPendings[ 0 ] != pdFALSE )
 800241e:	4b44      	ldr	r3, [pc, #272]	; (8002530 <xTaskIncrementTick+0x148>)
 8002420:	681b      	ldr	r3, [r3, #0]
 8002422:	2b00      	cmp	r3, #0
 8002424:	d178      	bne.n	8002518 <xTaskIncrementTick+0x130>
}
 8002426:	bd70      	pop	{r4, r5, r6, pc}
            taskSWITCH_DELAYED_LISTS();
 8002428:	4a42      	ldr	r2, [pc, #264]	; (8002534 <xTaskIncrementTick+0x14c>)
 800242a:	6811      	ldr	r1, [r2, #0]
 800242c:	4b42      	ldr	r3, [pc, #264]	; (8002538 <xTaskIncrementTick+0x150>)
 800242e:	6818      	ldr	r0, [r3, #0]
 8002430:	6010      	str	r0, [r2, #0]
 8002432:	6019      	str	r1, [r3, #0]
 8002434:	4a41      	ldr	r2, [pc, #260]	; (800253c <xTaskIncrementTick+0x154>)
 8002436:	6813      	ldr	r3, [r2, #0]
 8002438:	3301      	adds	r3, #1
 800243a:	6013      	str	r3, [r2, #0]
 800243c:	f7ff fd9c 	bl	8001f78 <prvResetNextTaskUnblockTime>
 8002440:	e7dd      	b.n	80023fe <xTaskIncrementTick+0x16>
    BaseType_t xSwitchRequired = pdFALSE;
 8002442:	2000      	movs	r0, #0
 8002444:	e037      	b.n	80024b6 <xTaskIncrementTick+0xce>
                    xNextTaskUnblockTime = portMAX_DELAY;
 8002446:	4b37      	ldr	r3, [pc, #220]	; (8002524 <xTaskIncrementTick+0x13c>)
 8002448:	f04f 32ff 	mov.w	r2, #4294967295
 800244c:	601a      	str	r2, [r3, #0]
                    break;
 800244e:	e7db      	b.n	8002408 <xTaskIncrementTick+0x20>
                        xNextTaskUnblockTime = xItemValue;
 8002450:	4b34      	ldr	r3, [pc, #208]	; (8002524 <xTaskIncrementTick+0x13c>)
 8002452:	601a      	str	r2, [r3, #0]
                        break;
 8002454:	e7d8      	b.n	8002408 <xTaskIncrementTick+0x20>
                    listREMOVE_ITEM( &( pxTCB->xStateListItem ) );
 8002456:	68d9      	ldr	r1, [r3, #12]
 8002458:	6051      	str	r1, [r2, #4]
 800245a:	e042      	b.n	80024e2 <xTaskIncrementTick+0xfa>
                        listREMOVE_ITEM( &( pxTCB->xEventListItem ) );
 800245c:	2100      	movs	r1, #0
 800245e:	6299      	str	r1, [r3, #40]	; 0x28
 8002460:	6811      	ldr	r1, [r2, #0]
 8002462:	3901      	subs	r1, #1
 8002464:	6011      	str	r1, [r2, #0]
                    prvAddTaskToReadyList( pxTCB );
 8002466:	6ada      	ldr	r2, [r3, #44]	; 0x2c
 8002468:	4935      	ldr	r1, [pc, #212]	; (8002540 <xTaskIncrementTick+0x158>)
 800246a:	6809      	ldr	r1, [r1, #0]
 800246c:	428a      	cmp	r2, r1
 800246e:	d901      	bls.n	8002474 <xTaskIncrementTick+0x8c>
 8002470:	4933      	ldr	r1, [pc, #204]	; (8002540 <xTaskIncrementTick+0x158>)
 8002472:	600a      	str	r2, [r1, #0]
 8002474:	492d      	ldr	r1, [pc, #180]	; (800252c <xTaskIncrementTick+0x144>)
 8002476:	ebc2 02c2 	rsb	r2, r2, r2, lsl #3
 800247a:	ea4f 0c82 	mov.w	ip, r2, lsl #2
 800247e:	448c      	add	ip, r1
 8002480:	f8dc 2004 	ldr.w	r2, [ip, #4]
 8002484:	609a      	str	r2, [r3, #8]
 8002486:	6896      	ldr	r6, [r2, #8]
 8002488:	60de      	str	r6, [r3, #12]
 800248a:	6075      	str	r5, [r6, #4]
 800248c:	6095      	str	r5, [r2, #8]
 800248e:	6ada      	ldr	r2, [r3, #44]	; 0x2c
 8002490:	ebc2 0cc2 	rsb	ip, r2, r2, lsl #3
 8002494:	ea4f 058c 	mov.w	r5, ip, lsl #2
 8002498:	194e      	adds	r6, r1, r5
 800249a:	615e      	str	r6, [r3, #20]
 800249c:	594d      	ldr	r5, [r1, r5]
 800249e:	3501      	adds	r5, #1
 80024a0:	ea4f 0c8c 	mov.w	ip, ip, lsl #2
 80024a4:	f841 500c 	str.w	r5, [r1, ip]
                            if( pxTCB->uxPriority > pxCurrentTCB->uxPriority )
 80024a8:	6ada      	ldr	r2, [r3, #44]	; 0x2c
 80024aa:	4b1f      	ldr	r3, [pc, #124]	; (8002528 <xTaskIncrementTick+0x140>)
 80024ac:	681b      	ldr	r3, [r3, #0]
 80024ae:	6adb      	ldr	r3, [r3, #44]	; 0x2c
 80024b0:	429a      	cmp	r2, r3
 80024b2:	d900      	bls.n	80024b6 <xTaskIncrementTick+0xce>
                                xSwitchRequired = pdTRUE;
 80024b4:	2001      	movs	r0, #1
                if( listLIST_IS_EMPTY( pxDelayedTaskList ) != pdFALSE )
 80024b6:	4b1f      	ldr	r3, [pc, #124]	; (8002534 <xTaskIncrementTick+0x14c>)
 80024b8:	681b      	ldr	r3, [r3, #0]
 80024ba:	681b      	ldr	r3, [r3, #0]
 80024bc:	2b00      	cmp	r3, #0
 80024be:	d0c2      	beq.n	8002446 <xTaskIncrementTick+0x5e>
                    pxTCB = listGET_OWNER_OF_HEAD_ENTRY( pxDelayedTaskList );
 80024c0:	4b1c      	ldr	r3, [pc, #112]	; (8002534 <xTaskIncrementTick+0x14c>)
 80024c2:	681b      	ldr	r3, [r3, #0]
 80024c4:	68db      	ldr	r3, [r3, #12]
 80024c6:	68db      	ldr	r3, [r3, #12]
                    xItemValue = listGET_LIST_ITEM_VALUE( &( pxTCB->xStateListItem ) );
 80024c8:	685a      	ldr	r2, [r3, #4]
                    if( xConstTickCount < xItemValue )
 80024ca:	4294      	cmp	r4, r2
 80024cc:	d3c0      	bcc.n	8002450 <xTaskIncrementTick+0x68>
                    listREMOVE_ITEM( &( pxTCB->xStateListItem ) );
 80024ce:	695a      	ldr	r2, [r3, #20]
 80024d0:	689d      	ldr	r5, [r3, #8]
 80024d2:	68d9      	ldr	r1, [r3, #12]
 80024d4:	60a9      	str	r1, [r5, #8]
 80024d6:	689d      	ldr	r5, [r3, #8]
 80024d8:	604d      	str	r5, [r1, #4]
 80024da:	6851      	ldr	r1, [r2, #4]
 80024dc:	1d1d      	adds	r5, r3, #4
 80024de:	42a9      	cmp	r1, r5
 80024e0:	d0b9      	beq.n	8002456 <xTaskIncrementTick+0x6e>
 80024e2:	2100      	movs	r1, #0
 80024e4:	6159      	str	r1, [r3, #20]
 80024e6:	6811      	ldr	r1, [r2, #0]
 80024e8:	3901      	subs	r1, #1
 80024ea:	6011      	str	r1, [r2, #0]
                    if( listLIST_ITEM_CONTAINER( &( pxTCB->xEventListItem ) ) != NULL )
 80024ec:	6a9a      	ldr	r2, [r3, #40]	; 0x28
 80024ee:	2a00      	cmp	r2, #0
 80024f0:	d0b9      	beq.n	8002466 <xTaskIncrementTick+0x7e>
                        listREMOVE_ITEM( &( pxTCB->xEventListItem ) );
 80024f2:	69de      	ldr	r6, [r3, #28]
 80024f4:	6a19      	ldr	r1, [r3, #32]
 80024f6:	60b1      	str	r1, [r6, #8]
 80024f8:	69de      	ldr	r6, [r3, #28]
 80024fa:	604e      	str	r6, [r1, #4]
 80024fc:	6856      	ldr	r6, [r2, #4]
 80024fe:	f103 0118 	add.w	r1, r3, #24
 8002502:	428e      	cmp	r6, r1
 8002504:	d1aa      	bne.n	800245c <xTaskIncrementTick+0x74>
 8002506:	6a19      	ldr	r1, [r3, #32]
 8002508:	6051      	str	r1, [r2, #4]
 800250a:	e7a7      	b.n	800245c <xTaskIncrementTick+0x74>
        xPendedTicks += 1U;
 800250c:	4a0d      	ldr	r2, [pc, #52]	; (8002544 <xTaskIncrementTick+0x15c>)
 800250e:	6813      	ldr	r3, [r2, #0]
 8002510:	3301      	adds	r3, #1
 8002512:	6013      	str	r3, [r2, #0]
    BaseType_t xSwitchRequired = pdFALSE;
 8002514:	2000      	movs	r0, #0
}
 8002516:	4770      	bx	lr
                    xSwitchRequired = pdTRUE;
 8002518:	2001      	movs	r0, #1
    return xSwitchRequired;
 800251a:	e784      	b.n	8002426 <xTaskIncrementTick+0x3e>
 800251c:	200084cc 	andcs	r8, r0, ip, asr #9
 8002520:	200087c4 	andcs	r8, r0, r4, asr #15
 8002524:	20008760 	andcs	r8, r0, r0, ror #14
 8002528:	2000822c 	andcs	r8, r0, ip, lsr #4
 800252c:	20008238 	andcs	r8, r0, r8, lsr r2
 8002530:	20008814 	andcs	r8, r0, r4, lsl r8
 8002534:	20008230 	andcs	r8, r0, r0, lsr r2
 8002538:	20008234 	andcs	r8, r0, r4, lsr r2
 800253c:	20008764 	andcs	r8, r0, r4, ror #14
 8002540:	200086d4 	ldrdcs	r8, [r0], -r4
 8002544:	20008768 	andcs	r8, r0, r8, ror #14

08002548 <xTaskResumeAll>:
{
 8002548:	b510      	push	{r4, lr}
        taskENTER_CRITICAL();
 800254a:	f000 fdf3 	bl	8003134 <vPortEnterCritical>
            uxSchedulerSuspended = ( UBaseType_t ) ( uxSchedulerSuspended - 1U );
 800254e:	4b46      	ldr	r3, [pc, #280]	; (8002668 <xTaskResumeAll+0x120>)
 8002550:	681a      	ldr	r2, [r3, #0]
 8002552:	3a01      	subs	r2, #1
 8002554:	601a      	str	r2, [r3, #0]
            if( uxSchedulerSuspended == ( UBaseType_t ) 0U )
 8002556:	681b      	ldr	r3, [r3, #0]
 8002558:	2b00      	cmp	r3, #0
 800255a:	d17f      	bne.n	800265c <xTaskResumeAll+0x114>
                if( uxCurrentNumberOfTasks > ( UBaseType_t ) 0U )
 800255c:	4b43      	ldr	r3, [pc, #268]	; (800266c <xTaskResumeAll+0x124>)
 800255e:	681b      	ldr	r3, [r3, #0]
 8002560:	b93b      	cbnz	r3, 8002572 <xTaskResumeAll+0x2a>
    BaseType_t xAlreadyYielded = pdFALSE;
 8002562:	2400      	movs	r4, #0
 8002564:	e07b      	b.n	800265e <xTaskResumeAll+0x116>
                        listREMOVE_ITEM( &( pxTCB->xEventListItem ) );
 8002566:	6a19      	ldr	r1, [r3, #32]
 8002568:	6051      	str	r1, [r2, #4]
 800256a:	e015      	b.n	8002598 <xTaskResumeAll+0x50>
                        listREMOVE_ITEM( &( pxTCB->xStateListItem ) );
 800256c:	68d9      	ldr	r1, [r3, #12]
 800256e:	6051      	str	r1, [r2, #4]
 8002570:	e021      	b.n	80025b6 <xTaskResumeAll+0x6e>
    TCB_t * pxTCB = NULL;
 8002572:	2300      	movs	r3, #0
                    while( listLIST_IS_EMPTY( &xPendingReadyList ) == pdFALSE )
 8002574:	4a3e      	ldr	r2, [pc, #248]	; (8002670 <xTaskResumeAll+0x128>)
 8002576:	6812      	ldr	r2, [r2, #0]
 8002578:	2a00      	cmp	r2, #0
 800257a:	d04a      	beq.n	8002612 <xTaskResumeAll+0xca>
                        pxTCB = listGET_OWNER_OF_HEAD_ENTRY( ( &xPendingReadyList ) );
 800257c:	4b3c      	ldr	r3, [pc, #240]	; (8002670 <xTaskResumeAll+0x128>)
 800257e:	68db      	ldr	r3, [r3, #12]
 8002580:	68db      	ldr	r3, [r3, #12]
                        listREMOVE_ITEM( &( pxTCB->xEventListItem ) );
 8002582:	6a9a      	ldr	r2, [r3, #40]	; 0x28
 8002584:	69d8      	ldr	r0, [r3, #28]
 8002586:	6a19      	ldr	r1, [r3, #32]
 8002588:	6081      	str	r1, [r0, #8]
 800258a:	69d8      	ldr	r0, [r3, #28]
 800258c:	6048      	str	r0, [r1, #4]
 800258e:	6850      	ldr	r0, [r2, #4]
 8002590:	f103 0118 	add.w	r1, r3, #24
 8002594:	4288      	cmp	r0, r1
 8002596:	d0e6      	beq.n	8002566 <xTaskResumeAll+0x1e>
 8002598:	2100      	movs	r1, #0
 800259a:	6299      	str	r1, [r3, #40]	; 0x28
 800259c:	6811      	ldr	r1, [r2, #0]
 800259e:	3901      	subs	r1, #1
 80025a0:	6011      	str	r1, [r2, #0]
                        listREMOVE_ITEM( &( pxTCB->xStateListItem ) );
 80025a2:	695a      	ldr	r2, [r3, #20]
 80025a4:	6898      	ldr	r0, [r3, #8]
 80025a6:	68d9      	ldr	r1, [r3, #12]
 80025a8:	6081      	str	r1, [r0, #8]
 80025aa:	6898      	ldr	r0, [r3, #8]
 80025ac:	6048      	str	r0, [r1, #4]
 80025ae:	6851      	ldr	r1, [r2, #4]
 80025b0:	1d18      	adds	r0, r3, #4
 80025b2:	4281      	cmp	r1, r0
 80025b4:	d0da      	beq.n	800256c <xTaskResumeAll+0x24>
 80025b6:	2100      	movs	r1, #0
 80025b8:	6159      	str	r1, [r3, #20]
 80025ba:	6811      	ldr	r1, [r2, #0]
 80025bc:	3901      	subs	r1, #1
 80025be:	6011      	str	r1, [r2, #0]
                        prvAddTaskToReadyList( pxTCB );
 80025c0:	6ada      	ldr	r2, [r3, #44]	; 0x2c
 80025c2:	492c      	ldr	r1, [pc, #176]	; (8002674 <xTaskResumeAll+0x12c>)
 80025c4:	6809      	ldr	r1, [r1, #0]
 80025c6:	428a      	cmp	r2, r1
 80025c8:	d901      	bls.n	80025ce <xTaskResumeAll+0x86>
 80025ca:	492a      	ldr	r1, [pc, #168]	; (8002674 <xTaskResumeAll+0x12c>)
 80025cc:	600a      	str	r2, [r1, #0]
 80025ce:	492a      	ldr	r1, [pc, #168]	; (8002678 <xTaskResumeAll+0x130>)
 80025d0:	ebc2 02c2 	rsb	r2, r2, r2, lsl #3
 80025d4:	eb01 0282 	add.w	r2, r1, r2, lsl #2
 80025d8:	6852      	ldr	r2, [r2, #4]
 80025da:	609a      	str	r2, [r3, #8]
 80025dc:	6894      	ldr	r4, [r2, #8]
 80025de:	60dc      	str	r4, [r3, #12]
 80025e0:	6060      	str	r0, [r4, #4]
 80025e2:	6090      	str	r0, [r2, #8]
 80025e4:	6ada      	ldr	r2, [r3, #44]	; 0x2c
 80025e6:	ebc2 00c2 	rsb	r0, r2, r2, lsl #3
 80025ea:	eb01 0480 	add.w	r4, r1, r0, lsl #2
 80025ee:	615c      	str	r4, [r3, #20]
 80025f0:	f851 0020 	ldr.w	r0, [r1, r0, lsl #2]
 80025f4:	3001      	adds	r0, #1
 80025f6:	ebc2 02c2 	rsb	r2, r2, r2, lsl #3
 80025fa:	f841 0022 	str.w	r0, [r1, r2, lsl #2]
                            if( pxTCB->uxPriority > pxCurrentTCB->uxPriority )
 80025fe:	6ad9      	ldr	r1, [r3, #44]	; 0x2c
 8002600:	4a1e      	ldr	r2, [pc, #120]	; (800267c <xTaskResumeAll+0x134>)
 8002602:	6812      	ldr	r2, [r2, #0]
 8002604:	6ad2      	ldr	r2, [r2, #44]	; 0x2c
 8002606:	4291      	cmp	r1, r2
 8002608:	d9b4      	bls.n	8002574 <xTaskResumeAll+0x2c>
                                xYieldPendings[ xCoreID ] = pdTRUE;
 800260a:	4a1d      	ldr	r2, [pc, #116]	; (8002680 <xTaskResumeAll+0x138>)
 800260c:	2101      	movs	r1, #1
 800260e:	6011      	str	r1, [r2, #0]
 8002610:	e7b0      	b.n	8002574 <xTaskResumeAll+0x2c>
                    if( pxTCB != NULL )
 8002612:	b10b      	cbz	r3, 8002618 <xTaskResumeAll+0xd0>
                        prvResetNextTaskUnblockTime();
 8002614:	f7ff fcb0 	bl	8001f78 <prvResetNextTaskUnblockTime>
                        TickType_t xPendedCounts = xPendedTicks; /* Non-volatile copy. */
 8002618:	4b1a      	ldr	r3, [pc, #104]	; (8002684 <xTaskResumeAll+0x13c>)
 800261a:	681c      	ldr	r4, [r3, #0]
                        if( xPendedCounts > ( TickType_t ) 0U )
 800261c:	b994      	cbnz	r4, 8002644 <xTaskResumeAll+0xfc>
                    if( xYieldPendings[ xCoreID ] != pdFALSE )
 800261e:	4b18      	ldr	r3, [pc, #96]	; (8002680 <xTaskResumeAll+0x138>)
 8002620:	681c      	ldr	r4, [r3, #0]
 8002622:	b1e4      	cbz	r4, 800265e <xTaskResumeAll+0x116>
                            taskYIELD_TASK_CORE_IF_USING_PREEMPTION( pxCurrentTCB );
 8002624:	4b15      	ldr	r3, [pc, #84]	; (800267c <xTaskResumeAll+0x134>)
 8002626:	681b      	ldr	r3, [r3, #0]
 8002628:	f04f 23e0 	mov.w	r3, #3758153728	; 0xe000e000
 800262c:	f04f 5280 	mov.w	r2, #268435456	; 0x10000000
 8002630:	f8c3 2d04 	str.w	r2, [r3, #3332]	; 0xd04
 8002634:	f3bf 8f4f 	dsb	sy
 8002638:	f3bf 8f6f 	isb	sy
                            xAlreadyYielded = pdTRUE;
 800263c:	2401      	movs	r4, #1
 800263e:	e00e      	b.n	800265e <xTaskResumeAll+0x116>
                            } while( xPendedCounts > ( TickType_t ) 0U );
 8002640:	3c01      	subs	r4, #1
 8002642:	d007      	beq.n	8002654 <xTaskResumeAll+0x10c>
                                if( xTaskIncrementTick() != pdFALSE )
 8002644:	f7ff fed0 	bl	80023e8 <xTaskIncrementTick>
 8002648:	2800      	cmp	r0, #0
 800264a:	d0f9      	beq.n	8002640 <xTaskResumeAll+0xf8>
                                    xYieldPendings[ xCoreID ] = pdTRUE;
 800264c:	4b0c      	ldr	r3, [pc, #48]	; (8002680 <xTaskResumeAll+0x138>)
 800264e:	2201      	movs	r2, #1
 8002650:	601a      	str	r2, [r3, #0]
 8002652:	e7f5      	b.n	8002640 <xTaskResumeAll+0xf8>
                            xPendedTicks = 0;
 8002654:	4b0b      	ldr	r3, [pc, #44]	; (8002684 <xTaskResumeAll+0x13c>)
 8002656:	2200      	movs	r2, #0
 8002658:	601a      	str	r2, [r3, #0]
 800265a:	e7e0      	b.n	800261e <xTaskResumeAll+0xd6>
    BaseType_t xAlreadyYielded = pdFALSE;
 800265c:	2400      	movs	r4, #0
        taskEXIT_CRITICAL();
 800265e:	f000 fd79 	bl	8003154 <vPortExitCritical>
}
 8002662:	4620      	mov	r0, r4
 8002664:	bd10      	pop	{r4, pc}
 8002666:	bf00      	nop
 8002668:	200084cc 	andcs	r8, r0, ip, asr #9
 800266c:	200082c4 	andcs	r8, r0, r4, asr #5
 8002670:	2000876c 	andcs	r8, r0, ip, ror #14
 8002674:	200086d4 	ldrdcs	r8, [r0], -r4
 8002678:	20008238 	andcs	r8, r0, r8, lsr r2
 800267c:	2000822c 	andcs	r8, r0, ip, lsr #4
 8002680:	20008814 	andcs	r8, r0, r4, lsl r8
 8002684:	20008768 	andcs	r8, r0, r8, ror #14

08002688 <vTaskDelay>:
    {
 8002688:	b510      	push	{r4, lr}
        if( xTicksToDelay > ( TickType_t ) 0U )
 800268a:	b950      	cbnz	r0, 80026a2 <vTaskDelay+0x1a>
            taskYIELD_WITHIN_API();
 800268c:	f04f 23e0 	mov.w	r3, #3758153728	; 0xe000e000
 8002690:	f04f 5280 	mov.w	r2, #268435456	; 0x10000000
 8002694:	f8c3 2d04 	str.w	r2, [r3, #3332]	; 0xd04
 8002698:	f3bf 8f4f 	dsb	sy
 800269c:	f3bf 8f6f 	isb	sy
    }
 80026a0:	bd10      	pop	{r4, pc}
 80026a2:	4604      	mov	r4, r0
            vTaskSuspendAll();
 80026a4:	f7ff fe6e 	bl	8002384 <vTaskSuspendAll>
                prvAddCurrentTaskToDelayedList( xTicksToDelay, pdFALSE );
 80026a8:	2100      	movs	r1, #0
 80026aa:	4620      	mov	r0, r4
 80026ac:	f7ff fdf0 	bl	8002290 <prvAddCurrentTaskToDelayedList>
            xAlreadyYielded = xTaskResumeAll();
 80026b0:	f7ff ff4a 	bl	8002548 <xTaskResumeAll>
        if( xAlreadyYielded == pdFALSE )
 80026b4:	2800      	cmp	r0, #0
 80026b6:	d1f3      	bne.n	80026a0 <vTaskDelay+0x18>
 80026b8:	e7e8      	b.n	800268c <vTaskDelay+0x4>
	...

080026bc <prvIdleTask>:
{
 80026bc:	b508      	push	{r3, lr}
 80026be:	e00d      	b.n	80026dc <prvIdleTask+0x20>
                taskYIELD();
 80026c0:	f04f 23e0 	mov.w	r3, #3758153728	; 0xe000e000
 80026c4:	f04f 5280 	mov.w	r2, #268435456	; 0x10000000
 80026c8:	f8c3 2d04 	str.w	r2, [r3, #3332]	; 0xd04
 80026cc:	f3bf 8f4f 	dsb	sy
 80026d0:	f3bf 8f6f 	isb	sy
            xExpectedIdleTime = prvGetExpectedIdleTime();
 80026d4:	f7ff fc30 	bl	8001f38 <prvGetExpectedIdleTime>
            if( xExpectedIdleTime >= ( TickType_t ) configEXPECTED_IDLE_TIME_BEFORE_SLEEP )
 80026d8:	2801      	cmp	r0, #1
 80026da:	d806      	bhi.n	80026ea <prvIdleTask+0x2e>
        prvCheckTasksWaitingTermination();
 80026dc:	f7ff fdb2 	bl	8002244 <prvCheckTasksWaitingTermination>
            if( listCURRENT_LIST_LENGTH( &( pxReadyTasksLists[ tskIDLE_PRIORITY ] ) ) > ( UBaseType_t ) configNUMBER_OF_CORES )
 80026e0:	4b07      	ldr	r3, [pc, #28]	; (8002700 <prvIdleTask+0x44>)
 80026e2:	681b      	ldr	r3, [r3, #0]
 80026e4:	2b01      	cmp	r3, #1
 80026e6:	d8eb      	bhi.n	80026c0 <prvIdleTask+0x4>
 80026e8:	e7f4      	b.n	80026d4 <prvIdleTask+0x18>
                vTaskSuspendAll();
 80026ea:	f7ff fe4b 	bl	8002384 <vTaskSuspendAll>
                    xExpectedIdleTime = prvGetExpectedIdleTime();
 80026ee:	f7ff fc23 	bl	8001f38 <prvGetExpectedIdleTime>
                    if( xExpectedIdleTime >= ( TickType_t ) configEXPECTED_IDLE_TIME_BEFORE_SLEEP )
 80026f2:	2801      	cmp	r0, #1
 80026f4:	d901      	bls.n	80026fa <prvIdleTask+0x3e>
                        portSUPPRESS_TICKS_AND_SLEEP( xExpectedIdleTime );
 80026f6:	f000 fd83 	bl	8003200 <vPortSuppressTicksAndSleep>
                ( void ) xTaskResumeAll();
 80026fa:	f7ff ff25 	bl	8002548 <xTaskResumeAll>
 80026fe:	e7ed      	b.n	80026dc <prvIdleTask+0x20>
 8002700:	20008238 	andcs	r8, r0, r8, lsr r2

08002704 <vTaskSwitchContext>:
        if( uxSchedulerSuspended != ( UBaseType_t ) 0U )
 8002704:	4b1b      	ldr	r3, [pc, #108]	; (8002774 <vTaskSwitchContext+0x70>)
 8002706:	681b      	ldr	r3, [r3, #0]
 8002708:	b11b      	cbz	r3, 8002712 <vTaskSwitchContext+0xe>
            xYieldPendings[ 0 ] = pdTRUE;
 800270a:	4b1b      	ldr	r3, [pc, #108]	; (8002778 <vTaskSwitchContext+0x74>)
 800270c:	2201      	movs	r2, #1
 800270e:	601a      	str	r2, [r3, #0]
 8002710:	4770      	bx	lr
            xYieldPendings[ 0 ] = pdFALSE;
 8002712:	4b19      	ldr	r3, [pc, #100]	; (8002778 <vTaskSwitchContext+0x74>)
 8002714:	2200      	movs	r2, #0
 8002716:	601a      	str	r2, [r3, #0]
            taskSELECT_HIGHEST_PRIORITY_TASK();
 8002718:	4b18      	ldr	r3, [pc, #96]	; (800277c <vTaskSwitchContext+0x78>)
 800271a:	681b      	ldr	r3, [r3, #0]
 800271c:	e000      	b.n	8002720 <vTaskSwitchContext+0x1c>
 800271e:	3b01      	subs	r3, #1
 8002720:	ebc3 01c3 	rsb	r1, r3, r3, lsl #3
 8002724:	008a      	lsls	r2, r1, #2
 8002726:	4916      	ldr	r1, [pc, #88]	; (8002780 <vTaskSwitchContext+0x7c>)
 8002728:	588a      	ldr	r2, [r1, r2]
 800272a:	2a00      	cmp	r2, #0
 800272c:	d0f7      	beq.n	800271e <vTaskSwitchContext+0x1a>
 800272e:	ebc3 00c3 	rsb	r0, r3, r3, lsl #3
 8002732:	0082      	lsls	r2, r0, #2
 8002734:	440a      	add	r2, r1
 8002736:	6850      	ldr	r0, [r2, #4]
 8002738:	6840      	ldr	r0, [r0, #4]
 800273a:	6050      	str	r0, [r2, #4]
 800273c:	ebc3 0cc3 	rsb	ip, r3, r3, lsl #3
 8002740:	ea4f 028c 	mov.w	r2, ip, lsl #2
 8002744:	3208      	adds	r2, #8
 8002746:	4411      	add	r1, r2
 8002748:	4288      	cmp	r0, r1
 800274a:	d00c      	beq.n	8002766 <vTaskSwitchContext+0x62>
 800274c:	ebc3 02c3 	rsb	r2, r3, r3, lsl #3
 8002750:	0091      	lsls	r1, r2, #2
 8002752:	4a0b      	ldr	r2, [pc, #44]	; (8002780 <vTaskSwitchContext+0x7c>)
 8002754:	440a      	add	r2, r1
 8002756:	6852      	ldr	r2, [r2, #4]
 8002758:	68d1      	ldr	r1, [r2, #12]
