
.\build\gcc/stm32-qemu.elf:     file format elf32-littlearm


Disassembly of section .isr_vector:

08000000 <g_pfnVectors>:
 8000000:	20001308 	andcs	r1, r0, r8, lsl #6
 8000004:	08002319 	stmdaeq	r0, {r0, r3, r4, r8, r9, sp}
 8000008:	080007c9 	stmdaeq	r0, {r0, r3, r6, r7, r8, r9, sl}
 800000c:	08002369 	stmdaeq	r0, {r0, r3, r5, r6, r8, r9, sp}
 8000010:	080007dd 	stmdaeq	r0, {r0, r2, r3, r4, r6, r7, r8, r9, sl}
 8000014:	080007f1 	stmdaeq	r0, {r0, r4, r5, r6, r7, r8, r9, sl}
 8000018:	08000805 	stmdaeq	r0, {r0, r2, fp}
	...
 800002c:	08000819 	stmdaeq	r0, {r0, r3, r4, fp}
 8000030:	0800081b 	stmdaeq	r0, {r0, r1, r3, r4, fp}
 8000034:	00000000 	andeq	r0, r0, r0
 8000038:	0800028d 	stmdaeq	r0, {r0, r2, r3, r7, r9}
 800003c:	08000235 	stmdaeq	r0, {r0, r2, r4, r5, r9}
 8000040:	08002369 	stmdaeq	r0, {r0, r3, r5, r6, r8, r9, sp}
 8000044:	08002369 	stmdaeq	r0, {r0, r3, r5, r6, r8, r9, sp}
 8000048:	08002369 	stmdaeq	r0, {r0, r3, r5, r6, r8, r9, sp}
 800004c:	08002369 	stmdaeq	r0, {r0, r3, r5, r6, r8, r9, sp}
 8000050:	08002369 	stmdaeq	r0, {r0, r3, r5, r6, r8, r9, sp}
 8000054:	08002369 	stmdaeq	r0, {r0, r3, r5, r6, r8, r9, sp}
 8000058:	08002369 	stmdaeq	r0, {r0, r3, r5, r6, r8, r9, sp}
 800005c:	08002369 	stmdaeq	r0, {r0, r3, r5, r6, r8, r9, sp}
 8000060:	08002369 	stmdaeq	r0, {r0, r3, r5, r6, r8, r9, sp}
 8000064:	08002369 	stmdaeq	r0, {r0, r3, r5, r6, r8, r9, sp}
 8000068:	08002369 	stmdaeq	r0, {r0, r3, r5, r6, r8, r9, sp}
 800006c:	08002369 	stmdaeq	r0, {r0, r3, r5, r6, r8, r9, sp}
 8000070:	08002369 	stmdaeq	r0, {r0, r3, r5, r6, r8, r9, sp}
 8000074:	08002369 	stmdaeq	r0, {r0, r3, r5, r6, r8, r9, sp}
 8000078:	08002369 	stmdaeq	r0, {r0, r3, r5, r6, r8, r9, sp}
 800007c:	08002369 	stmdaeq	r0, {r0, r3, r5, r6, r8, r9, sp}
 8000080:	08002369 	stmdaeq	r0, {r0, r3, r5, r6, r8, r9, sp}
 8000084:	08002369 	stmdaeq	r0, {r0, r3, r5, r6, r8, r9, sp}
 8000088:	08002369 	stmdaeq	r0, {r0, r3, r5, r6, r8, r9, sp}
 800008c:	08002369 	stmdaeq	r0, {r0, r3, r5, r6, r8, r9, sp}
 8000090:	08002369 	stmdaeq	r0, {r0, r3, r5, r6, r8, r9, sp}
 8000094:	08002369 	stmdaeq	r0, {r0, r3, r5, r6, r8, r9, sp}
 8000098:	08002369 	stmdaeq	r0, {r0, r3, r5, r6, r8, r9, sp}
 800009c:	08002369 	stmdaeq	r0, {r0, r3, r5, r6, r8, r9, sp}
 80000a0:	08002369 	stmdaeq	r0, {r0, r3, r5, r6, r8, r9, sp}
 80000a4:	0800081d 	stmdaeq	r0, {r0, r2, r3, r4, fp}
 80000a8:	08002369 	stmdaeq	r0, {r0, r3, r5, r6, r8, r9, sp}
 80000ac:	08002369 	stmdaeq	r0, {r0, r3, r5, r6, r8, r9, sp}
 80000b0:	08002369 	stmdaeq	r0, {r0, r3, r5, r6, r8, r9, sp}
 80000b4:	08002369 	stmdaeq	r0, {r0, r3, r5, r6, r8, r9, sp}
 80000b8:	08002369 	stmdaeq	r0, {r0, r3, r5, r6, r8, r9, sp}
 80000bc:	08002369 	stmdaeq	r0, {r0, r3, r5, r6, r8, r9, sp}
 80000c0:	08002369 	stmdaeq	r0, {r0, r3, r5, r6, r8, r9, sp}
 80000c4:	08002369 	stmdaeq	r0, {r0, r3, r5, r6, r8, r9, sp}
 80000c8:	08002369 	stmdaeq	r0, {r0, r3, r5, r6, r8, r9, sp}
 80000cc:	08002369 	stmdaeq	r0, {r0, r3, r5, r6, r8, r9, sp}
 80000d0:	08002369 	stmdaeq	r0, {r0, r3, r5, r6, r8, r9, sp}
 80000d4:	0800082d 	stmdaeq	r0, {r0, r2, r3, r5, fp}
 80000d8:	08002369 	stmdaeq	r0, {r0, r3, r5, r6, r8, r9, sp}
 80000dc:	08002369 	stmdaeq	r0, {r0, r3, r5, r6, r8, r9, sp}
 80000e0:	08002369 	stmdaeq	r0, {r0, r3, r5, r6, r8, r9, sp}
 80000e4:	08002369 	stmdaeq	r0, {r0, r3, r5, r6, r8, r9, sp}
 80000e8:	08002369 	stmdaeq	r0, {r0, r3, r5, r6, r8, r9, sp}
 80000ec:	08002369 	stmdaeq	r0, {r0, r3, r5, r6, r8, r9, sp}
 80000f0:	08002369 	stmdaeq	r0, {r0, r3, r5, r6, r8, r9, sp}
 80000f4:	08002369 	stmdaeq	r0, {r0, r3, r5, r6, r8, r9, sp}
 80000f8:	08002369 	stmdaeq	r0, {r0, r3, r5, r6, r8, r9, sp}
 80000fc:	08002369 	stmdaeq	r0, {r0, r3, r5, r6, r8, r9, sp}
 8000100:	08002369 	stmdaeq	r0, {r0, r3, r5, r6, r8, r9, sp}
 8000104:	08002369 	stmdaeq	r0, {r0, r3, r5, r6, r8, r9, sp}
 8000108:	08002369 	stmdaeq	r0, {r0, r3, r5, r6, r8, r9, sp}
 800010c:	08002369 	stmdaeq	r0, {r0, r3, r5, r6, r8, r9, sp}
 8000110:	08002369 	stmdaeq	r0, {r0, r3, r5, r6, r8, r9, sp}
 8000114:	08002369 	stmdaeq	r0, {r0, r3, r5, r6, r8, r9, sp}
 8000118:	08002369 	stmdaeq	r0, {r0, r3, r5, r6, r8, r9, sp}
 800011c:	08002369 	stmdaeq	r0, {r0, r3, r5, r6, r8, r9, sp}
 8000120:	08002369 	stmdaeq	r0, {r0, r3, r5, r6, r8, r9, sp}
 8000124:	08002369 	stmdaeq	r0, {r0, r3, r5, r6, r8, r9, sp}
 8000128:	08002369 	stmdaeq	r0, {r0, r3, r5, r6, r8, r9, sp}
 800012c:	08002369 	stmdaeq	r0, {r0, r3, r5, r6, r8, r9, sp}
 8000130:	08002369 	stmdaeq	r0, {r0, r3, r5, r6, r8, r9, sp}
	...
 800013c:	08002369 	stmdaeq	r0, {r0, r3, r5, r6, r8, r9, sp}
 8000140:	08002369 	stmdaeq	r0, {r0, r3, r5, r6, r8, r9, sp}
 8000144:	08002369 	stmdaeq	r0, {r0, r3, r5, r6, r8, r9, sp}
 8000148:	08002369 	stmdaeq	r0, {r0, r3, r5, r6, r8, r9, sp}
 800014c:	08002369 	stmdaeq	r0, {r0, r3, r5, r6, r8, r9, sp}
 8000150:	08002369 	stmdaeq	r0, {r0, r3, r5, r6, r8, r9, sp}
 8000154:	08002369 	stmdaeq	r0, {r0, r3, r5, r6, r8, r9, sp}
 8000158:	08002369 	stmdaeq	r0, {r0, r3, r5, r6, r8, r9, sp}
 800015c:	08002369 	stmdaeq	r0, {r0, r3, r5, r6, r8, r9, sp}
 8000160:	08002369 	stmdaeq	r0, {r0, r3, r5, r6, r8, r9, sp}
 8000164:	08002369 	stmdaeq	r0, {r0, r3, r5, r6, r8, r9, sp}
 8000168:	08002369 	stmdaeq	r0, {r0, r3, r5, r6, r8, r9, sp}
 800016c:	08002369 	stmdaeq	r0, {r0, r3, r5, r6, r8, r9, sp}
 8000170:	08002369 	stmdaeq	r0, {r0, r3, r5, r6, r8, r9, sp}
 8000174:	08002369 	stmdaeq	r0, {r0, r3, r5, r6, r8, r9, sp}
	...
 8000180:	08002369 	stmdaeq	r0, {r0, r3, r5, r6, r8, r9, sp}
 8000184:	08002369 	stmdaeq	r0, {r0, r3, r5, r6, r8, r9, sp}

Disassembly of section .text:

08000190 <__do_global_dtors_aux>:
 8000190:	b510      	push	{r4, lr}
 8000192:	4c05      	ldr	r4, [pc, #20]	; (80001a8 <__do_global_dtors_aux+0x18>)
 8000194:	7823      	ldrb	r3, [r4, #0]
 8000196:	b933      	cbnz	r3, 80001a6 <__do_global_dtors_aux+0x16>
 8000198:	4b04      	ldr	r3, [pc, #16]	; (80001ac <__do_global_dtors_aux+0x1c>)
 800019a:	b113      	cbz	r3, 80001a2 <__do_global_dtors_aux+0x12>
 800019c:	4804      	ldr	r0, [pc, #16]	; (80001b0 <__do_global_dtors_aux+0x20>)
 800019e:	f3af 8000 	nop.w
 80001a2:	2301      	movs	r3, #1
 80001a4:	7023      	strb	r3, [r4, #0]
 80001a6:	bd10      	pop	{r4, pc}
 80001a8:	20000074 	andcs	r0, r0, r4, ror r0
 80001ac:	00000000 	andeq	r0, r0, r0
 80001b0:	080033d8 	stmdaeq	r0, {r3, r4, r6, r7, r8, r9, ip, sp}

080001b4 <frame_dummy>:
 80001b4:	b508      	push	{r3, lr}
 80001b6:	4b03      	ldr	r3, [pc, #12]	; (80001c4 <frame_dummy+0x10>)
 80001b8:	b11b      	cbz	r3, 80001c2 <frame_dummy+0xe>
 80001ba:	4903      	ldr	r1, [pc, #12]	; (80001c8 <frame_dummy+0x14>)
 80001bc:	4803      	ldr	r0, [pc, #12]	; (80001cc <frame_dummy+0x18>)
 80001be:	f3af 8000 	nop.w
 80001c2:	bd08      	pop	{r3, pc}
 80001c4:	00000000 	andeq	r0, r0, r0
 80001c8:	20000078 	andcs	r0, r0, r8, ror r0
 80001cc:	080033d8 	stmdaeq	r0, {r3, r4, r6, r7, r8, r9, ip, sp}

080001d0 <_tx_initialize_low_level>:
    .thumb_func
_tx_initialize_low_level:
@
@    /* Disable interrupts during ThreadX initialization.  */
@
    CPSID   i
 80001d0:	b672      	cpsid	i
@
@    /* Set base of available memory to end of non-initialised RAM area.  */
@
    LDR     r0, =_tx_initialize_unused_memory       @ Build address of unused memory pointer
 80001d2:	481d      	ldr	r0, [pc, #116]	; (8000248 <__tx_DBGHandler+0x4>)
    LDR     r1, =__RAM_segment_used_end__           @ Build first free address
 80001d4:	491d      	ldr	r1, [pc, #116]	; (800024c <__tx_DBGHandler+0x8>)
    ADD     r1, r1, #4                              @
 80001d6:	f101 0104 	add.w	r1, r1, #4
    STR     r1, [r0]                                @ Setup first unused memory pointer
 80001da:	6001      	str	r1, [r0, #0]
@
@    /* Setup Vector Table Offset Register.  */
@
    MOV     r0, #0xE000E000                         @ Build address of NVIC registers
 80001dc:	f04f 20e0 	mov.w	r0, #3758153728	; 0xe000e000
    LDR     r1, =g_pfnVectors                       @ Pickup address of vector table
 80001e0:	491b      	ldr	r1, [pc, #108]	; (8000250 <__tx_DBGHandler+0xc>)
    STR     r1, [r0, #0xD08]                        @ Set vector table address
 80001e2:	f8c0 1d08 	str.w	r1, [r0, #3336]	; 0xd08
@
@    /* Set system stack pointer from vector value.  */
@
    LDR     r0, =_tx_thread_system_stack_ptr        @ Build address of system stack pointer
 80001e6:	481b      	ldr	r0, [pc, #108]	; (8000254 <__tx_DBGHandler+0x10>)
    LDR     r1, =g_pfnVectors                       @ Pickup address of vector table
 80001e8:	4919      	ldr	r1, [pc, #100]	; (8000250 <__tx_DBGHandler+0xc>)
    LDR     r1, [r1]                                @ Pickup reset stack pointer
 80001ea:	6809      	ldr	r1, [r1, #0]
    STR     r1, [r0]                                @ Save system stack pointer
 80001ec:	6001      	str	r1, [r0, #0]
@
@    /* Enable the cycle count register.  */
@
    LDR     r0, =0xE0001000                         @ Build address of DWT register
 80001ee:	481a      	ldr	r0, [pc, #104]	; (8000258 <__tx_DBGHandler+0x14>)
    LDR     r1, [r0]                                @ Pickup the current value
 80001f0:	6801      	ldr	r1, [r0, #0]
    ORR     r1, r1, #1                              @ Set the CYCCNTENA bit
 80001f2:	f041 0101 	orr.w	r1, r1, #1
    STR     r1, [r0]                                @ Enable the cycle count register
 80001f6:	6001      	str	r1, [r0, #0]
@
@    /* Configure SysTick for 100Hz clock, or 16384 cycles if no reference.  */
@
    MOV     r0, #0xE000E000                         @ Build address of NVIC registers
 80001f8:	f04f 20e0 	mov.w	r0, #3758153728	; 0xe000e000
    LDR     r1, =SYSTICK_CYCLES
 80001fc:	f64e 215f 	movw	r1, #59999	; 0xea5f
    STR     r1, [r0, #0x14]                         @ Setup SysTick Reload Value
 8000200:	6141      	str	r1, [r0, #20]
    MOV     r1, #0x7                                @ Build SysTick Control Enable Value
 8000202:	f04f 0107 	mov.w	r1, #7
    STR     r1, [r0, #0x10]                         @ Setup SysTick Control
 8000206:	6101      	str	r1, [r0, #16]
@
@    /* Configure handler priorities.  */
@
    LDR     r1, =0x00000000                         @ Rsrv, UsgF, BusF, MemM
 8000208:	f04f 0100 	mov.w	r1, #0
    STR     r1, [r0, #0xD18]                        @ Setup System Handlers 4-7 Priority Registers
 800020c:	f8c0 1d18 	str.w	r1, [r0, #3352]	; 0xd18

    LDR     r1, =0xFF000000                         @ SVCl, Rsrv, Rsrv, Rsrv
 8000210:	f04f 417f 	mov.w	r1, #4278190080	; 0xff000000
    STR     r1, [r0, #0xD1C]                        @ Setup System Handlers 8-11 Priority Registers
 8000214:	f8c0 1d1c 	str.w	r1, [r0, #3356]	; 0xd1c
                                                    @ Note: SVC must be lowest priority, which is 0xFF

    LDR     r1, =0x40FF0000                         @ SysT, PnSV, Rsrv, DbgM
 8000218:	4910      	ldr	r1, [pc, #64]	; (800025c <__tx_DBGHandler+0x18>)
    STR     r1, [r0, #0xD20]                        @ Setup System Handlers 12-15 Priority Registers
 800021a:	f8c0 1d20 	str.w	r1, [r0, #3360]	; 0xd20
                                                    @ Note: PnSV must be lowest priority, which is 0xFF

@
@    /* Return to caller.  */
@
    BX      lr
 800021e:	4770      	bx	lr

08000220 <__tx_BadHandler>:
@/* Define shells for each of the unused vectors.  */
@
    .global  __tx_BadHandler
    .thumb_func
__tx_BadHandler:
    B       __tx_BadHandler
 8000220:	f7ff bffe 	b.w	8000220 <__tx_BadHandler>

08000224 <__tx_HardfaultHandler>:
@ /* added to catch the hardfault */

    .global  __tx_HardfaultHandler
    .thumb_func
__tx_HardfaultHandler:
    B       __tx_HardfaultHandler
 8000224:	f7ff bffe 	b.w	8000224 <__tx_HardfaultHandler>

08000228 <__tx_SVCallHandler>:
@ /* added to catch the SVC */

    .global  __tx_SVCallHandler
    .thumb_func
__tx_SVCallHandler:
    B       __tx_SVCallHandler
 8000228:	f7ff bffe 	b.w	8000228 <__tx_SVCallHandler>

0800022c <__tx_IntHandler>:
    .global  __tx_IntHandler
    .thumb_func
__tx_IntHandler:
@ VOID InterruptHandler (VOID)
@ {
    PUSH    {r0, lr}
 800022c:	b501      	push	{r0, lr}
@    /* BL <your C Function>.... */

#ifdef TX_ENABLE_EXECUTION_CHANGE_NOTIFY
    BL      _tx_execution_isr_exit              @ Call the ISR exit function
#endif
    POP     {r0, lr}
 800022e:	e8bd 4001 	ldmia.w	sp!, {r0, lr}
    BX      LR
 8000232:	4770      	bx	lr

08000234 <SysTick_Handler>:
    .thumb_func
SysTick_Handler:
@ VOID TimerInterruptHandler (VOID)
@ {
@
    PUSH    {r0, lr}
 8000234:	b501      	push	{r0, lr}
#ifdef TX_ENABLE_EXECUTION_CHANGE_NOTIFY
    BL      _tx_execution_isr_enter             @ Call the ISR enter function
#endif
    BL      _tx_timer_interrupt
 8000236:	f000 f873 	bl	8000320 <_tx_timer_interrupt>
#ifdef TX_ENABLE_EXECUTION_CHANGE_NOTIFY
    BL      _tx_execution_isr_exit              @ Call the ISR exit function
#endif
    POP     {r0, lr}
 800023a:	e8bd 4001 	ldmia.w	sp!, {r0, lr}
    BX      LR
 800023e:	4770      	bx	lr

08000240 <__tx_NMIHandler>:

@ /* NMI, DBG handlers */
    .global  __tx_NMIHandler
    .thumb_func
__tx_NMIHandler:
    B       __tx_NMIHandler
 8000240:	f7ff bffe 	b.w	8000240 <__tx_NMIHandler>

08000244 <__tx_DBGHandler>:

    .global  __tx_DBGHandler
    .thumb_func
__tx_DBGHandler:
    B       __tx_DBGHandler
 8000244:	f7ff bffe 	b.w	8000244 <__tx_DBGHandler>
    LDR     r0, =_tx_initialize_unused_memory       @ Build address of unused memory pointer
 8000248:	20000124 	andcs	r0, r0, r4, lsr #2
    LDR     r1, =__RAM_segment_used_end__           @ Build first free address
 800024c:	00000c41 	andeq	r0, r0, r1, asr #24
    LDR     r1, =g_pfnVectors                       @ Pickup address of vector table
 8000250:	08000000 	stmdaeq	r0, {}	; <UNPREDICTABLE>
    LDR     r0, =_tx_thread_system_stack_ptr        @ Build address of system stack pointer
 8000254:	200001f8 	strdcs	r0, [r0], -r8
    LDR     r0, =0xE0001000                         @ Build address of DWT register
 8000258:	e0001000 	and	r1, r0, r0
    LDR     r1, =0x40FF0000                         @ SysT, PnSV, Rsrv, DbgM
 800025c:	40ff0000 	rscsmi	r0, pc, r0

08000260 <_tx_thread_schedule>:
       from the first schedule request. Subsequent scheduling occurs
       from the PendSV handling routine below. */

    /* Clear the preempt-disable flag to enable rescheduling after initialization on Cortex-M targets.  */

    MOV     r0, #0                                  // Build value for TX_FALSE
 8000260:	f04f 0000 	mov.w	r0, #0
    LDR     r2, =_tx_thread_preempt_disable         // Build address of preempt disable flag
 8000264:	4a2a      	ldr	r2, [pc, #168]	; (8000310 <tx_thread_fpu_disable+0x2>)
    STR     r0, [r2, #0]                            // Clear preempt disable flag
 8000266:	6010      	str	r0, [r2, #0]

    /* Clear CONTROL.FPCA bit so VFP registers aren't unnecessarily stacked.  */

#ifdef __ARM_FP
    MRS     r0, CONTROL                             // Pickup current CONTROL register
 8000268:	f3ef 8014 	mrs	r0, CONTROL
    BIC     r0, r0, #4                              // Clear the FPCA bit
 800026c:	f020 0004 	bic.w	r0, r0, #4
    MSR     CONTROL, r0                             // Setup new CONTROL register
 8000270:	f380 8814 	msr	CONTROL, r0
#endif

    /* Enable interrupts */
    CPSIE   i
 8000274:	b662      	cpsie	i

    /* Enter the scheduler for the first time.  */

    MOV     r0, #0x10000000                         // Load PENDSVSET bit
 8000276:	f04f 5080 	mov.w	r0, #268435456	; 0x10000000
    MOV     r1, #0xE000E000                         // Load NVIC base
 800027a:	f04f 21e0 	mov.w	r1, #3758153728	; 0xe000e000
    STR     r0, [r1, #0xD04]                        // Set PENDSVBIT in ICSR
 800027e:	f8c1 0d04 	str.w	r0, [r1, #3332]	; 0xd04
    DSB                                             // Complete all memory accesses
 8000282:	f3bf 8f4f 	dsb	sy
    ISB                                             // Flush pipeline
 8000286:	f3bf 8f6f 	isb	sy

0800028a <__tx_wait_here>:

    /* Wait here for the PendSV to take place.  */

__tx_wait_here:
    B       __tx_wait_here                          // Wait for the PendSV to happen
 800028a:	e7fe      	b.n	800028a <__tx_wait_here>

0800028c <PendSV_Handler>:
#else
    CPSIE   i                                       // Enable interrupts
#endif  /* TX_PORT_USE_BASEPRI */
#endif  /* EXECUTION PROFILE */

    LDR     r0, =_tx_thread_current_ptr             // Build current thread pointer address
 800028c:	4821      	ldr	r0, [pc, #132]	; (8000314 <tx_thread_fpu_disable+0x6>)
    LDR     r2, =_tx_thread_execute_ptr             // Build execute thread pointer address
 800028e:	4a22      	ldr	r2, [pc, #136]	; (8000318 <tx_thread_fpu_disable+0xa>)
    MOV     r3, #0                                  // Build NULL value
 8000290:	f04f 0300 	mov.w	r3, #0
    LDR     r1, [r0]                                // Pickup current thread pointer
 8000294:	6801      	ldr	r1, [r0, #0]

    /* Determine if there is a current thread to finish preserving.  */

    CBZ     r1, __tx_ts_new                         // If NULL, skip preservation
 8000296:	b191      	cbz	r1, 80002be <__tx_ts_new>

    /* Recover PSP and preserve current thread context.  */

    STR     r3, [r0]                                // Set _tx_thread_current_ptr to NULL
 8000298:	6003      	str	r3, [r0, #0]
    MRS     r12, PSP                                // Pickup PSP pointer (thread's stack pointer)
 800029a:	f3ef 8c09 	mrs	ip, PSP
    STMDB   r12!, {r4-r11}                          // Save its remaining registers
 800029e:	e92c 0ff0 	stmdb	ip!, {r4, r5, r6, r7, r8, r9, sl, fp}
#ifdef __ARM_FP
    TST     LR, #0x10                               // Determine if the VFP extended frame is present
 80002a2:	f01e 0f10 	tst.w	lr, #16
    BNE     _skip_vfp_save
 80002a6:	d101      	bne.n	80002ac <_skip_vfp_save>
    VSTMDB  r12!,{s16-s31}                          // Yes, save additional VFP registers
 80002a8:	ed2c 8a10 	vstmdb	ip!, {s16-s31}

080002ac <_skip_vfp_save>:
_skip_vfp_save:
#endif
    LDR     r4, =_tx_timer_time_slice               // Build address of time-slice variable
 80002ac:	4c1b      	ldr	r4, [pc, #108]	; (800031c <tx_thread_fpu_disable+0xe>)
    STMDB   r12!, {LR}                              // Save LR on the stack
 80002ae:	f84c ed04 	str.w	lr, [ip, #-4]!

    /* Determine if time-slice is active. If it isn't, skip time handling processing.  */

    LDR     r5, [r4]                                // Pickup current time-slice
 80002b2:	6825      	ldr	r5, [r4, #0]
    STR     r12, [r1, #8]                           // Save the thread stack pointer
 80002b4:	f8c1 c008 	str.w	ip, [r1, #8]
    CBZ     r5, __tx_ts_new                         // If not active, skip processing
 80002b8:	b10d      	cbz	r5, 80002be <__tx_ts_new>

    /* Time-slice is active, save the current thread's time-slice and clear the global time-slice variable.  */

    STR     r5, [r1, #24]                           // Save current time-slice
 80002ba:	618d      	str	r5, [r1, #24]

    /* Clear the global time-slice.  */

    STR     r3, [r4]                                // Clear time-slice
 80002bc:	6023      	str	r3, [r4, #0]

080002be <__tx_ts_new>:

#ifdef TX_PORT_USE_BASEPRI
    LDR     r1, =TX_PORT_BASEPRI                    // Mask interrupt priorities =< TX_PORT_BASEPRI
    MSR     BASEPRI, r1
#else
    CPSID   i                                       // Disable interrupts
 80002be:	b672      	cpsid	i
#endif
    LDR     r1, [r2]                                // Is there another thread ready to execute?
 80002c0:	6811      	ldr	r1, [r2, #0]
    CBZ     r1, __tx_ts_wait                        // No, skip to the wait processing
 80002c2:	b1b1      	cbz	r1, 80002f2 <__tx_ts_wait>

    /* Yes, another thread is ready for else, make the current thread the new thread.  */

    STR     r1, [r0]                                // Setup the current thread pointer to the new thread
 80002c4:	6001      	str	r1, [r0, #0]
#ifdef TX_PORT_USE_BASEPRI
    MOV     r4, #0                                  // Disable BASEPRI masking (enable interrupts)
    MSR     BASEPRI, r4
#else
    CPSIE   i                                       // Enable interrupts
 80002c6:	b662      	cpsie	i

080002c8 <__tx_ts_restore>:
#endif

    /* Increment the thread run count.  */

__tx_ts_restore:
    LDR     r7, [r1, #4]                            // Pickup the current thread run count
 80002c8:	684f      	ldr	r7, [r1, #4]
    LDR     r4, =_tx_timer_time_slice               // Build address of time-slice variable
 80002ca:	4c14      	ldr	r4, [pc, #80]	; (800031c <tx_thread_fpu_disable+0xe>)
    LDR     r5, [r1, #24]                           // Pickup thread's current time-slice
 80002cc:	698d      	ldr	r5, [r1, #24]
    ADD     r7, r7, #1                              // Increment the thread run count
 80002ce:	f107 0701 	add.w	r7, r7, #1
    STR     r7, [r1, #4]                            // Store the new run count
 80002d2:	604f      	str	r7, [r1, #4]

    /* Setup global time-slice with thread's current time-slice.  */

    STR     r5, [r4]                                // Setup global time-slice
 80002d4:	6025      	str	r5, [r4, #0]
    POP     {r0, r1}                                // Recover r0 and r1
#endif

    /* Restore the thread context and PSP.  */

    LDR     r12, [r1, #8]                           // Pickup thread's stack pointer
 80002d6:	f8d1 c008 	ldr.w	ip, [r1, #8]
    LDMIA   r12!, {LR}                              // Pickup LR
 80002da:	f85c eb04 	ldr.w	lr, [ip], #4
#ifdef __ARM_FP
    TST     LR, #0x10                               // Determine if the VFP extended frame is present
 80002de:	f01e 0f10 	tst.w	lr, #16
    BNE     _skip_vfp_restore                       // If not, skip VFP restore
 80002e2:	d101      	bne.n	80002e8 <_skip_vfp_restore>
    VLDMIA  r12!, {s16-s31}                         // Yes, restore additional VFP registers
 80002e4:	ecbc 8a10 	vldmia	ip!, {s16-s31}

080002e8 <_skip_vfp_restore>:
_skip_vfp_restore:
#endif
    LDMIA   r12!, {r4-r11}                          // Recover thread's registers
 80002e8:	e8bc 0ff0 	ldmia.w	ip!, {r4, r5, r6, r7, r8, r9, sl, fp}
    MSR     PSP, r12                                // Setup the thread's stack pointer
 80002ec:	f38c 8809 	msr	PSP, ip

    /* Return to thread.  */

    BX      lr                                      // Return to thread!
 80002f0:	4770      	bx	lr

080002f2 <__tx_ts_wait>:
__tx_ts_wait:
#ifdef TX_PORT_USE_BASEPRI
    LDR     r1, =TX_PORT_BASEPRI                    // Mask interrupt priorities =< TX_PORT_BASEPRI
    MSR     BASEPRI, r1
#else
    CPSID   i                                       // Disable interrupts
 80002f2:	b672      	cpsid	i
#endif
    LDR     r1, [r2]                                // Pickup the next thread to execute pointer
 80002f4:	6811      	ldr	r1, [r2, #0]
    STR     r1, [r0]                                // Store it in the current pointer
 80002f6:	6001      	str	r1, [r0, #0]
    CBNZ    r1, __tx_ts_ready                       // If non-NULL, a new thread is ready!
 80002f8:	b909      	cbnz	r1, 80002fe <__tx_ts_ready>

#ifdef TX_PORT_USE_BASEPRI
    MOV     r4, #0                                  // Disable BASEPRI masking (enable interrupts)
    MSR     BASEPRI, r4
#else
    CPSIE   i                                       // Enable interrupts
 80002fa:	b662      	cpsie	i
#endif
    B       __tx_ts_wait                            // Loop to continue waiting
 80002fc:	e7f9      	b.n	80002f2 <__tx_ts_wait>

080002fe <__tx_ts_ready>:

    /* At this point, we have a new thread ready to go. Clear any newly pended PendSV - since we are
       already in the handler!  */

__tx_ts_ready:
    MOV     r7, #0x08000000                         // Build clear PendSV value
 80002fe:	f04f 6700 	mov.w	r7, #134217728	; 0x8000000
    MOV     r8, #0xE000E000                         // Build base NVIC address
 8000302:	f04f 28e0 	mov.w	r8, #3758153728	; 0xe000e000
    STR     r7, [r8, #0xD04]                        // Clear any PendSV
 8000306:	f8c8 7d04 	str.w	r7, [r8, #3332]	; 0xd04
    /* Re-enable interrupts and restore new thread.  */
#ifdef TX_PORT_USE_BASEPRI
    MOV     r4, #0                                  // Disable BASEPRI masking (enable interrupts)
    MSR     BASEPRI, r4
#else
    CPSIE   i                                       // Enable interrupts
 800030a:	b662      	cpsie	i
#endif
    B       __tx_ts_restore                         // Restore the thread
 800030c:	e7dc      	b.n	80002c8 <__tx_ts_restore>

0800030e <tx_thread_fpu_disable>:
tx_thread_fpu_disable:

    /* Automatic VPF logic is supported, this function is present only for
       backward compatibility purposes and therefore simply returns.  */

    BX      LR                                      // Return to caller
 800030e:	4770      	bx	lr
    LDR     r2, =_tx_thread_preempt_disable         // Build address of preempt disable flag
 8000310:	20000170 	andcs	r0, r0, r0, ror r1
    LDR     r0, =_tx_thread_current_ptr             // Build current thread pointer address
 8000314:	2000012c 	andcs	r0, r0, ip, lsr #2
    LDR     r2, =_tx_thread_execute_ptr             // Build execute thread pointer address
 8000318:	20000130 	andcs	r0, r0, r0, lsr r1
    LDR     r4, =_tx_timer_time_slice               // Build address of time-slice variable
 800031c:	200002ec 	andcs	r0, r0, ip, ror #5

08000320 <_tx_timer_interrupt>:
       for use.  */

    /* Increment the system clock.  */
    // _tx_timer_system_clock++;

    LDR     r1, =_tx_timer_system_clock             // Pickup address of system clock
 8000320:	4922      	ldr	r1, [pc, #136]	; (80003ac <__tx_timer_nothing_expired+0x6>)
    LDR     r0, [r1, #0]                            // Pickup system clock
 8000322:	6808      	ldr	r0, [r1, #0]
    ADD     r0, r0, #1                              // Increment system clock
 8000324:	f100 0001 	add.w	r0, r0, #1
    STR     r0, [r1, #0]                            // Store new system clock
 8000328:	6008      	str	r0, [r1, #0]

    /* Test for time-slice expiration.  */
    // if (_tx_timer_time_slice)
    // {

    LDR     r3, =_tx_timer_time_slice               // Pickup address of time-slice
 800032a:	4b21      	ldr	r3, [pc, #132]	; (80003b0 <__tx_timer_nothing_expired+0xa>)
    LDR     r2, [r3, #0]                            // Pickup time-slice
 800032c:	681a      	ldr	r2, [r3, #0]
    CBZ     r2, __tx_timer_no_time_slice            // Is it non-active?
 800032e:	b13a      	cbz	r2, 8000340 <__tx_timer_no_time_slice>
                                                    // Yes, skip time-slice processing

       /* Decrement the time_slice.  */
       // _tx_timer_time_slice--;

    SUB     r2, r2, #1                              // Decrement the time-slice
 8000330:	f1a2 0201 	sub.w	r2, r2, #1
    STR     r2, [r3, #0]                            // Store new time-slice value
 8000334:	601a      	str	r2, [r3, #0]

       /* Check for expiration.  */
       // if (__tx_timer_time_slice == 0)

    CBNZ    r2, __tx_timer_no_time_slice            // Has it expired?
 8000336:	b91a      	cbnz	r2, 8000340 <__tx_timer_no_time_slice>
                                                    // No, skip expiration processing

       /* Set the time-slice expired flag.  */
       // _tx_timer_expired_time_slice =  TX_TRUE;

    LDR     r3, =_tx_timer_expired_time_slice       // Pickup address of expired flag
 8000338:	4b1e      	ldr	r3, [pc, #120]	; (80003b4 <__tx_timer_nothing_expired+0xe>)
    MOV     r0, #1                                  // Build expired value
 800033a:	f04f 0001 	mov.w	r0, #1
    STR     r0, [r3, #0]                            // Set time-slice expiration flag
 800033e:	6018      	str	r0, [r3, #0]

08000340 <__tx_timer_no_time_slice>:

    /* Test for timer expiration.  */
    // if (*_tx_timer_current_ptr)
    // {

    LDR     r1, =_tx_timer_current_ptr              // Pickup current timer pointer address
 8000340:	491d      	ldr	r1, [pc, #116]	; (80003b8 <__tx_timer_nothing_expired+0x12>)
    LDR     r0, [r1, #0]                            // Pickup current timer
 8000342:	6808      	ldr	r0, [r1, #0]
    LDR     r2, [r0, #0]                            // Pickup timer list entry
 8000344:	6802      	ldr	r2, [r0, #0]
    CBZ     r2, __tx_timer_no_timer                 // Is there anything in the list?
 8000346:	b122      	cbz	r2, 8000352 <__tx_timer_no_timer>
                                                    // No, just increment the timer

        /* Set expiration flag.  */
        // _tx_timer_expired =  TX_TRUE;

    LDR     r3, =_tx_timer_expired                  // Pickup expiration flag address
 8000348:	4b1c      	ldr	r3, [pc, #112]	; (80003bc <__tx_timer_nothing_expired+0x16>)
    MOV     r2, #1                                  // Build expired value
 800034a:	f04f 0201 	mov.w	r2, #1
    STR     r2, [r3, #0]                            // Set expired flag
 800034e:	601a      	str	r2, [r3, #0]
    B       __tx_timer_done                         // Finished timer processing
 8000350:	e008      	b.n	8000364 <__tx_timer_done>

08000352 <__tx_timer_no_timer>:
__tx_timer_no_timer:

        /* No timer expired, increment the timer pointer.  */
        // _tx_timer_current_ptr++;

    ADD     r0, r0, #4                              // Move to next timer
 8000352:	f100 0004 	add.w	r0, r0, #4

        /* Check for wrap-around.  */
        // if (_tx_timer_current_ptr == _tx_timer_list_end)

    LDR     r3, =_tx_timer_list_end                 // Pickup addr of timer list end
 8000356:	4b1a      	ldr	r3, [pc, #104]	; (80003c0 <__tx_timer_nothing_expired+0x1a>)
    LDR     r2, [r3, #0]                            // Pickup list end
 8000358:	681a      	ldr	r2, [r3, #0]
    CMP     r0, r2                                  // Are we at list end?
 800035a:	4290      	cmp	r0, r2
    BNE     __tx_timer_skip_wrap                    // No, skip wrap-around logic
 800035c:	d101      	bne.n	8000362 <__tx_timer_skip_wrap>

            /* Wrap to beginning of list.  */
            // _tx_timer_current_ptr =  _tx_timer_list_start;

    LDR     r3, =_tx_timer_list_start               // Pickup addr of timer list start
 800035e:	4b19      	ldr	r3, [pc, #100]	; (80003c4 <__tx_timer_nothing_expired+0x1e>)
    LDR     r0, [r3, #0]                            // Set current pointer to list start
 8000360:	6818      	ldr	r0, [r3, #0]

08000362 <__tx_timer_skip_wrap>:

__tx_timer_skip_wrap:

    STR     r0, [r1, #0]                            // Store new current timer pointer
 8000362:	6008      	str	r0, [r1, #0]

08000364 <__tx_timer_done>:

    /* See if anything has expired.  */
    // if ((_tx_timer_expired_time_slice) || (_tx_timer_expired))
    // {

    LDR     r3, =_tx_timer_expired_time_slice       // Pickup addr of expired flag
 8000364:	4b13      	ldr	r3, [pc, #76]	; (80003b4 <__tx_timer_nothing_expired+0xe>)
    LDR     r2, [r3, #0]                            // Pickup time-slice expired flag
 8000366:	681a      	ldr	r2, [r3, #0]
    CBNZ    r2, __tx_something_expired              // Did a time-slice expire?
 8000368:	b912      	cbnz	r2, 8000370 <__tx_something_expired>
                                                    // If non-zero, time-slice expired
    LDR     r1, =_tx_timer_expired                  // Pickup addr of other expired flag
 800036a:	4914      	ldr	r1, [pc, #80]	; (80003bc <__tx_timer_nothing_expired+0x16>)
    LDR     r0, [r1, #0]                            // Pickup timer expired flag
 800036c:	6808      	ldr	r0, [r1, #0]
    CBZ     r0, __tx_timer_nothing_expired          // Did a timer expire?
 800036e:	b1d0      	cbz	r0, 80003a6 <__tx_timer_nothing_expired>

08000370 <__tx_something_expired>:
                                                    // No, nothing expired

__tx_something_expired:

    STMDB   sp!, {r0, lr}                           // Save the lr register on the stack
 8000370:	e92d 4001 	stmdb	sp!, {r0, lr}

    /* Did a timer expire?  */
    // if (_tx_timer_expired)
    // {

    LDR     r1, =_tx_timer_expired                  // Pickup addr of expired flag
 8000374:	4911      	ldr	r1, [pc, #68]	; (80003bc <__tx_timer_nothing_expired+0x16>)
    LDR     r0, [r1, #0]                            // Pickup timer expired flag
 8000376:	6808      	ldr	r0, [r1, #0]
    CBZ     r0, __tx_timer_dont_activate            // Check for timer expiration
 8000378:	b108      	cbz	r0, 800037e <__tx_timer_dont_activate>
                                                    // If not set, skip timer activation

        /* Process timer expiration.  */
        // _tx_timer_expiration_process();

    BL      _tx_timer_expiration_process            // Call the timer expiration handling routine
 800037a:	f001 ff5b 	bl	8002234 <_tx_timer_expiration_process>

0800037e <__tx_timer_dont_activate>:

    /* Did time slice expire?  */
    // if (_tx_timer_expired_time_slice)
    // {

    LDR     r3, =_tx_timer_expired_time_slice       // Pickup addr of time-slice expired
 800037e:	4b0d      	ldr	r3, [pc, #52]	; (80003b4 <__tx_timer_nothing_expired+0xe>)
    LDR     r2, [r3, #0]                            // Pickup the actual flag
 8000380:	681a      	ldr	r2, [r3, #0]
    CBZ     r2, __tx_timer_not_ts_expiration        // See if the flag is set
 8000382:	b172      	cbz	r2, 80003a2 <__tx_timer_not_ts_expiration>
                                                    // No, skip time-slice processing

        /* Time slice interrupted thread.  */
        // _tx_thread_time_slice();

    BL      _tx_thread_time_slice                   // Call time-slice processing
 8000384:	f001 fe98 	bl	80020b8 <_tx_thread_time_slice>
    LDR     r0, =_tx_thread_preempt_disable         // Build address of preempt disable flag
 8000388:	480f      	ldr	r0, [pc, #60]	; (80003c8 <__tx_timer_nothing_expired+0x22>)
    LDR     r1, [r0]                                // Is the preempt disable flag set?
 800038a:	6801      	ldr	r1, [r0, #0]
    CBNZ    r1, __tx_timer_skip_time_slice          // Yes, skip the PendSV logic
 800038c:	b949      	cbnz	r1, 80003a2 <__tx_timer_not_ts_expiration>
    LDR     r0, =_tx_thread_current_ptr             // Build current thread pointer address
 800038e:	480f      	ldr	r0, [pc, #60]	; (80003cc <__tx_timer_nothing_expired+0x26>)
    LDR     r1, [r0]                                // Pickup the current thread pointer
 8000390:	6801      	ldr	r1, [r0, #0]
    LDR     r2, =_tx_thread_execute_ptr             // Build execute thread pointer address
 8000392:	4a0f      	ldr	r2, [pc, #60]	; (80003d0 <__tx_timer_nothing_expired+0x2a>)
    LDR     r3, [r2]                                // Pickup the execute thread pointer
 8000394:	6813      	ldr	r3, [r2, #0]
    LDR     r0, =0xE000ED04                         // Build address of control register
 8000396:	480f      	ldr	r0, [pc, #60]	; (80003d4 <__tx_timer_nothing_expired+0x2e>)
    LDR     r2, =0x10000000                         // Build value for PendSV bit
 8000398:	f04f 5280 	mov.w	r2, #268435456	; 0x10000000
    CMP     r1, r3                                  // Are they the same?
 800039c:	4299      	cmp	r1, r3
    BEQ     __tx_timer_skip_time_slice              // If the same, there was no time-slice performed
 800039e:	d000      	beq.n	80003a2 <__tx_timer_not_ts_expiration>
    STR     r2, [r0]                                // Not the same, issue the PendSV for preemption
 80003a0:	6002      	str	r2, [r0, #0]

080003a2 <__tx_timer_not_ts_expiration>:

    // }

__tx_timer_not_ts_expiration:

    LDMIA   sp!, {r0, lr}                           // Recover lr register (r0 is just there for
 80003a2:	e8bd 4001 	ldmia.w	sp!, {r0, lr}

080003a6 <__tx_timer_nothing_expired>:

    // }

__tx_timer_nothing_expired:

    DSB                                             // Complete all memory access
 80003a6:	f3bf 8f4f 	dsb	sy
    BX      lr                                      // Return to caller
 80003aa:	4770      	bx	lr
    LDR     r1, =_tx_timer_system_clock             // Pickup address of system clock
 80003ac:	20000210 	andcs	r0, r0, r0, lsl r2
    LDR     r3, =_tx_timer_time_slice               // Pickup address of time-slice
 80003b0:	200002ec 	andcs	r0, r0, ip, ror #5
    LDR     r3, =_tx_timer_expired_time_slice       // Pickup address of expired flag
 80003b4:	20000204 	andcs	r0, r0, r4, lsl #4
    LDR     r1, =_tx_timer_current_ptr              // Pickup current timer pointer address
 80003b8:	200001fc 	strdcs	r0, [r0], -ip
    LDR     r3, =_tx_timer_expired                  // Pickup expiration flag address
 80003bc:	20000200 	andcs	r0, r0, r0, lsl #4
    LDR     r3, =_tx_timer_list_end                 // Pickup addr of timer list end
 80003c0:	20000208 	andcs	r0, r0, r8, lsl #4
    LDR     r3, =_tx_timer_list_start               // Pickup addr of timer list start
 80003c4:	2000020c 	andcs	r0, r0, ip, lsl #4
    LDR     r0, =_tx_thread_preempt_disable         // Build address of preempt disable flag
 80003c8:	20000170 	andcs	r0, r0, r0, ror r1
    LDR     r0, =_tx_thread_current_ptr             // Build current thread pointer address
 80003cc:	2000012c 	andcs	r0, r0, ip, lsr #2
    LDR     r2, =_tx_thread_execute_ptr             // Build execute thread pointer address
 80003d0:	20000130 	andcs	r0, r0, r0, lsr r1
    LDR     r0, =0xE000ED04                         // Build address of control register
 80003d4:	e000ed04 	and	lr, r0, r4, lsl #26
	...

080003e0 <memchr>:
 80003e0:	f001 01ff 	and.w	r1, r1, #255	; 0xff
 80003e4:	2a10      	cmp	r2, #16
 80003e6:	db2b      	blt.n	8000440 <memchr+0x60>
 80003e8:	f010 0f07 	tst.w	r0, #7
 80003ec:	d008      	beq.n	8000400 <memchr+0x20>
 80003ee:	f810 3b01 	ldrb.w	r3, [r0], #1
 80003f2:	3a01      	subs	r2, #1
 80003f4:	428b      	cmp	r3, r1
 80003f6:	d02d      	beq.n	8000454 <memchr+0x74>
 80003f8:	f010 0f07 	tst.w	r0, #7
 80003fc:	b342      	cbz	r2, 8000450 <memchr+0x70>
 80003fe:	d1f6      	bne.n	80003ee <memchr+0xe>
 8000400:	b4f0      	push	{r4, r5, r6, r7}
 8000402:	ea41 2101 	orr.w	r1, r1, r1, lsl #8
 8000406:	ea41 4101 	orr.w	r1, r1, r1, lsl #16
 800040a:	f022 0407 	bic.w	r4, r2, #7
 800040e:	f07f 0700 	mvns.w	r7, #0
 8000412:	2300      	movs	r3, #0
 8000414:	e8f0 5602 	ldrd	r5, r6, [r0], #8
 8000418:	3c08      	subs	r4, #8
 800041a:	ea85 0501 	eor.w	r5, r5, r1
 800041e:	ea86 0601 	eor.w	r6, r6, r1
 8000422:	fa85 f547 	uadd8	r5, r5, r7
 8000426:	faa3 f587 	sel	r5, r3, r7
 800042a:	fa86 f647 	uadd8	r6, r6, r7
 800042e:	faa5 f687 	sel	r6, r5, r7
 8000432:	b98e      	cbnz	r6, 8000458 <memchr+0x78>
 8000434:	d1ee      	bne.n	8000414 <memchr+0x34>
 8000436:	bcf0      	pop	{r4, r5, r6, r7}
 8000438:	f001 01ff 	and.w	r1, r1, #255	; 0xff
 800043c:	f002 0207 	and.w	r2, r2, #7
 8000440:	b132      	cbz	r2, 8000450 <memchr+0x70>
 8000442:	f810 3b01 	ldrb.w	r3, [r0], #1
 8000446:	3a01      	subs	r2, #1
 8000448:	ea83 0301 	eor.w	r3, r3, r1
 800044c:	b113      	cbz	r3, 8000454 <memchr+0x74>
 800044e:	d1f8      	bne.n	8000442 <memchr+0x62>
 8000450:	2000      	movs	r0, #0
 8000452:	4770      	bx	lr
 8000454:	3801      	subs	r0, #1
 8000456:	4770      	bx	lr
 8000458:	2d00      	cmp	r5, #0
 800045a:	bf06      	itte	eq
 800045c:	4635      	moveq	r5, r6
 800045e:	3803      	subeq	r0, #3
 8000460:	3807      	subne	r0, #7
 8000462:	f015 0f01 	tst.w	r5, #1
 8000466:	d107      	bne.n	8000478 <memchr+0x98>
 8000468:	3001      	adds	r0, #1
 800046a:	f415 7f80 	tst.w	r5, #256	; 0x100
 800046e:	bf02      	ittt	eq
 8000470:	3001      	addeq	r0, #1
 8000472:	f415 3fc0 	tsteq.w	r5, #98304	; 0x18000
 8000476:	3001      	addeq	r0, #1
 8000478:	bcf0      	pop	{r4, r5, r6, r7}
 800047a:	3801      	subs	r0, #1
 800047c:	4770      	bx	lr
 800047e:	bf00      	nop

08000480 <__aeabi_uldivmod>:
 8000480:	b953      	cbnz	r3, 8000498 <__aeabi_uldivmod+0x18>
 8000482:	b94a      	cbnz	r2, 8000498 <__aeabi_uldivmod+0x18>
 8000484:	2900      	cmp	r1, #0
 8000486:	bf08      	it	eq
 8000488:	2800      	cmpeq	r0, #0
 800048a:	bf1c      	itt	ne
 800048c:	f04f 31ff 	movne.w	r1, #4294967295
 8000490:	f04f 30ff 	movne.w	r0, #4294967295
 8000494:	f000 b974 	b.w	8000780 <__aeabi_idiv0>
 8000498:	f1ad 0c08 	sub.w	ip, sp, #8
 800049c:	e96d ce04 	strd	ip, lr, [sp, #-16]!
 80004a0:	f000 f806 	bl	80004b0 <__udivmoddi4>
 80004a4:	f8dd e004 	ldr.w	lr, [sp, #4]
 80004a8:	e9dd 2302 	ldrd	r2, r3, [sp, #8]
 80004ac:	b004      	add	sp, #16
 80004ae:	4770      	bx	lr

080004b0 <__udivmoddi4>:
 80004b0:	e92d 47f0 	stmdb	sp!, {r4, r5, r6, r7, r8, r9, sl, lr}
 80004b4:	9d08      	ldr	r5, [sp, #32]
 80004b6:	4604      	mov	r4, r0
 80004b8:	468e      	mov	lr, r1
 80004ba:	2b00      	cmp	r3, #0
 80004bc:	d14d      	bne.n	800055a <__udivmoddi4+0xaa>
 80004be:	428a      	cmp	r2, r1
 80004c0:	4694      	mov	ip, r2
 80004c2:	d969      	bls.n	8000598 <__udivmoddi4+0xe8>
 80004c4:	fab2 f282 	clz	r2, r2
 80004c8:	b152      	cbz	r2, 80004e0 <__udivmoddi4+0x30>
 80004ca:	fa01 f302 	lsl.w	r3, r1, r2
 80004ce:	f1c2 0120 	rsb	r1, r2, #32
 80004d2:	fa20 f101 	lsr.w	r1, r0, r1
 80004d6:	fa0c fc02 	lsl.w	ip, ip, r2
 80004da:	ea41 0e03 	orr.w	lr, r1, r3
 80004de:	4094      	lsls	r4, r2
 80004e0:	ea4f 481c 	mov.w	r8, ip, lsr #16
 80004e4:	0c21      	lsrs	r1, r4, #16
 80004e6:	fbbe f6f8 	udiv	r6, lr, r8
 80004ea:	fa1f f78c 	uxth.w	r7, ip
 80004ee:	fb08 e316 	mls	r3, r8, r6, lr
 80004f2:	ea41 4303 	orr.w	r3, r1, r3, lsl #16
 80004f6:	fb06 f107 	mul.w	r1, r6, r7
 80004fa:	4299      	cmp	r1, r3
 80004fc:	d90a      	bls.n	8000514 <__udivmoddi4+0x64>
 80004fe:	eb1c 0303 	adds.w	r3, ip, r3
 8000502:	f106 30ff 	add.w	r0, r6, #4294967295
 8000506:	f080 811f 	bcs.w	8000748 <__udivmoddi4+0x298>
 800050a:	4299      	cmp	r1, r3
 800050c:	f240 811c 	bls.w	8000748 <__udivmoddi4+0x298>
 8000510:	3e02      	subs	r6, #2
 8000512:	4463      	add	r3, ip
 8000514:	1a5b      	subs	r3, r3, r1
 8000516:	b2a4      	uxth	r4, r4
 8000518:	fbb3 f0f8 	udiv	r0, r3, r8
 800051c:	fb08 3310 	mls	r3, r8, r0, r3
 8000520:	ea44 4403 	orr.w	r4, r4, r3, lsl #16
 8000524:	fb00 f707 	mul.w	r7, r0, r7
 8000528:	42a7      	cmp	r7, r4
 800052a:	d90a      	bls.n	8000542 <__udivmoddi4+0x92>
 800052c:	eb1c 0404 	adds.w	r4, ip, r4
 8000530:	f100 33ff 	add.w	r3, r0, #4294967295
 8000534:	f080 810a 	bcs.w	800074c <__udivmoddi4+0x29c>
 8000538:	42a7      	cmp	r7, r4
 800053a:	f240 8107 	bls.w	800074c <__udivmoddi4+0x29c>
 800053e:	4464      	add	r4, ip
 8000540:	3802      	subs	r0, #2
 8000542:	ea40 4006 	orr.w	r0, r0, r6, lsl #16
 8000546:	1be4      	subs	r4, r4, r7
 8000548:	2600      	movs	r6, #0
 800054a:	b11d      	cbz	r5, 8000554 <__udivmoddi4+0xa4>
 800054c:	40d4      	lsrs	r4, r2
 800054e:	2300      	movs	r3, #0
 8000550:	e9c5 4300 	strd	r4, r3, [r5]
 8000554:	4631      	mov	r1, r6
 8000556:	e8bd 87f0 	ldmia.w	sp!, {r4, r5, r6, r7, r8, r9, sl, pc}
 800055a:	428b      	cmp	r3, r1
 800055c:	d909      	bls.n	8000572 <__udivmoddi4+0xc2>
 800055e:	2d00      	cmp	r5, #0
 8000560:	f000 80ef 	beq.w	8000742 <__udivmoddi4+0x292>
 8000564:	2600      	movs	r6, #0
 8000566:	e9c5 0100 	strd	r0, r1, [r5]
 800056a:	4630      	mov	r0, r6
 800056c:	4631      	mov	r1, r6
 800056e:	e8bd 87f0 	ldmia.w	sp!, {r4, r5, r6, r7, r8, r9, sl, pc}
 8000572:	fab3 f683 	clz	r6, r3
 8000576:	2e00      	cmp	r6, #0
 8000578:	d14a      	bne.n	8000610 <__udivmoddi4+0x160>
 800057a:	428b      	cmp	r3, r1
 800057c:	d302      	bcc.n	8000584 <__udivmoddi4+0xd4>
 800057e:	4282      	cmp	r2, r0
 8000580:	f200 80f9 	bhi.w	8000776 <__udivmoddi4+0x2c6>
 8000584:	1a84      	subs	r4, r0, r2
 8000586:	eb61 0303 	sbc.w	r3, r1, r3
 800058a:	2001      	movs	r0, #1
 800058c:	469e      	mov	lr, r3
 800058e:	2d00      	cmp	r5, #0
 8000590:	d0e0      	beq.n	8000554 <__udivmoddi4+0xa4>
 8000592:	e9c5 4e00 	strd	r4, lr, [r5]
 8000596:	e7dd      	b.n	8000554 <__udivmoddi4+0xa4>
 8000598:	b902      	cbnz	r2, 800059c <__udivmoddi4+0xec>
 800059a:	deff      	udf	#255	; 0xff
 800059c:	fab2 f282 	clz	r2, r2
 80005a0:	2a00      	cmp	r2, #0
 80005a2:	f040 8092 	bne.w	80006ca <__udivmoddi4+0x21a>
 80005a6:	eba1 010c 	sub.w	r1, r1, ip
 80005aa:	ea4f 471c 	mov.w	r7, ip, lsr #16
 80005ae:	fa1f fe8c 	uxth.w	lr, ip
 80005b2:	2601      	movs	r6, #1
 80005b4:	0c20      	lsrs	r0, r4, #16
 80005b6:	fbb1 f3f7 	udiv	r3, r1, r7
 80005ba:	fb07 1113 	mls	r1, r7, r3, r1
 80005be:	ea40 4101 	orr.w	r1, r0, r1, lsl #16
 80005c2:	fb0e f003 	mul.w	r0, lr, r3
 80005c6:	4288      	cmp	r0, r1
 80005c8:	d908      	bls.n	80005dc <__udivmoddi4+0x12c>
 80005ca:	eb1c 0101 	adds.w	r1, ip, r1
 80005ce:	f103 38ff 	add.w	r8, r3, #4294967295
 80005d2:	d202      	bcs.n	80005da <__udivmoddi4+0x12a>
 80005d4:	4288      	cmp	r0, r1
 80005d6:	f200 80cb 	bhi.w	8000770 <__udivmoddi4+0x2c0>
 80005da:	4643      	mov	r3, r8
 80005dc:	1a09      	subs	r1, r1, r0
 80005de:	b2a4      	uxth	r4, r4
 80005e0:	fbb1 f0f7 	udiv	r0, r1, r7
 80005e4:	fb07 1110 	mls	r1, r7, r0, r1
 80005e8:	ea44 4401 	orr.w	r4, r4, r1, lsl #16
 80005ec:	fb0e fe00 	mul.w	lr, lr, r0
 80005f0:	45a6      	cmp	lr, r4
 80005f2:	d908      	bls.n	8000606 <__udivmoddi4+0x156>
 80005f4:	eb1c 0404 	adds.w	r4, ip, r4
 80005f8:	f100 31ff 	add.w	r1, r0, #4294967295
 80005fc:	d202      	bcs.n	8000604 <__udivmoddi4+0x154>
 80005fe:	45a6      	cmp	lr, r4
 8000600:	f200 80bb 	bhi.w	800077a <__udivmoddi4+0x2ca>
 8000604:	4608      	mov	r0, r1
 8000606:	eba4 040e 	sub.w	r4, r4, lr
 800060a:	ea40 4003 	orr.w	r0, r0, r3, lsl #16
 800060e:	e79c      	b.n	800054a <__udivmoddi4+0x9a>
 8000610:	f1c6 0720 	rsb	r7, r6, #32
 8000614:	40b3      	lsls	r3, r6
 8000616:	fa22 fc07 	lsr.w	ip, r2, r7
 800061a:	ea4c 0c03 	orr.w	ip, ip, r3
 800061e:	fa20 f407 	lsr.w	r4, r0, r7
 8000622:	fa01 f306 	lsl.w	r3, r1, r6
 8000626:	431c      	orrs	r4, r3
 8000628:	40f9      	lsrs	r1, r7
 800062a:	ea4f 491c 	mov.w	r9, ip, lsr #16
 800062e:	fa00 f306 	lsl.w	r3, r0, r6
 8000632:	fbb1 f8f9 	udiv	r8, r1, r9
 8000636:	0c20      	lsrs	r0, r4, #16
 8000638:	fa1f fe8c 	uxth.w	lr, ip
 800063c:	fb09 1118 	mls	r1, r9, r8, r1
 8000640:	ea40 4101 	orr.w	r1, r0, r1, lsl #16
 8000644:	fb08 f00e 	mul.w	r0, r8, lr
 8000648:	4288      	cmp	r0, r1
 800064a:	fa02 f206 	lsl.w	r2, r2, r6
 800064e:	d90b      	bls.n	8000668 <__udivmoddi4+0x1b8>
 8000650:	eb1c 0101 	adds.w	r1, ip, r1
 8000654:	f108 3aff 	add.w	sl, r8, #4294967295
 8000658:	f080 8088 	bcs.w	800076c <__udivmoddi4+0x2bc>
 800065c:	4288      	cmp	r0, r1
 800065e:	f240 8085 	bls.w	800076c <__udivmoddi4+0x2bc>
 8000662:	f1a8 0802 	sub.w	r8, r8, #2
 8000666:	4461      	add	r1, ip
 8000668:	1a09      	subs	r1, r1, r0
 800066a:	b2a4      	uxth	r4, r4
 800066c:	fbb1 f0f9 	udiv	r0, r1, r9
 8000670:	fb09 1110 	mls	r1, r9, r0, r1
 8000674:	ea44 4101 	orr.w	r1, r4, r1, lsl #16
 8000678:	fb00 fe0e 	mul.w	lr, r0, lr
 800067c:	458e      	cmp	lr, r1
 800067e:	d908      	bls.n	8000692 <__udivmoddi4+0x1e2>
 8000680:	eb1c 0101 	adds.w	r1, ip, r1
 8000684:	f100 34ff 	add.w	r4, r0, #4294967295
 8000688:	d26c      	bcs.n	8000764 <__udivmoddi4+0x2b4>
 800068a:	458e      	cmp	lr, r1
 800068c:	d96a      	bls.n	8000764 <__udivmoddi4+0x2b4>
 800068e:	3802      	subs	r0, #2
 8000690:	4461      	add	r1, ip
 8000692:	ea40 4008 	orr.w	r0, r0, r8, lsl #16
 8000696:	fba0 9402 	umull	r9, r4, r0, r2
 800069a:	eba1 010e 	sub.w	r1, r1, lr
 800069e:	42a1      	cmp	r1, r4
 80006a0:	46c8      	mov	r8, r9
 80006a2:	46a6      	mov	lr, r4
 80006a4:	d356      	bcc.n	8000754 <__udivmoddi4+0x2a4>
 80006a6:	d053      	beq.n	8000750 <__udivmoddi4+0x2a0>
 80006a8:	b15d      	cbz	r5, 80006c2 <__udivmoddi4+0x212>
 80006aa:	ebb3 0208 	subs.w	r2, r3, r8
 80006ae:	eb61 010e 	sbc.w	r1, r1, lr
 80006b2:	fa01 f707 	lsl.w	r7, r1, r7
 80006b6:	fa22 f306 	lsr.w	r3, r2, r6
 80006ba:	40f1      	lsrs	r1, r6
 80006bc:	431f      	orrs	r7, r3
 80006be:	e9c5 7100 	strd	r7, r1, [r5]
 80006c2:	2600      	movs	r6, #0
 80006c4:	4631      	mov	r1, r6
 80006c6:	e8bd 87f0 	ldmia.w	sp!, {r4, r5, r6, r7, r8, r9, sl, pc}
 80006ca:	f1c2 0320 	rsb	r3, r2, #32
 80006ce:	40d8      	lsrs	r0, r3
 80006d0:	fa0c fc02 	lsl.w	ip, ip, r2
 80006d4:	fa21 f303 	lsr.w	r3, r1, r3
 80006d8:	4091      	lsls	r1, r2
 80006da:	4301      	orrs	r1, r0
 80006dc:	ea4f 471c 	mov.w	r7, ip, lsr #16
 80006e0:	fa1f fe8c 	uxth.w	lr, ip
 80006e4:	fbb3 f0f7 	udiv	r0, r3, r7
 80006e8:	fb07 3610 	mls	r6, r7, r0, r3
 80006ec:	0c0b      	lsrs	r3, r1, #16
 80006ee:	ea43 4306 	orr.w	r3, r3, r6, lsl #16
 80006f2:	fb00 f60e 	mul.w	r6, r0, lr
 80006f6:	429e      	cmp	r6, r3
 80006f8:	fa04 f402 	lsl.w	r4, r4, r2
 80006fc:	d908      	bls.n	8000710 <__udivmoddi4+0x260>
 80006fe:	eb1c 0303 	adds.w	r3, ip, r3
 8000702:	f100 38ff 	add.w	r8, r0, #4294967295
 8000706:	d22f      	bcs.n	8000768 <__udivmoddi4+0x2b8>
 8000708:	429e      	cmp	r6, r3
 800070a:	d92d      	bls.n	8000768 <__udivmoddi4+0x2b8>
 800070c:	3802      	subs	r0, #2
 800070e:	4463      	add	r3, ip
 8000710:	1b9b      	subs	r3, r3, r6
 8000712:	b289      	uxth	r1, r1
 8000714:	fbb3 f6f7 	udiv	r6, r3, r7
 8000718:	fb07 3316 	mls	r3, r7, r6, r3
 800071c:	ea41 4103 	orr.w	r1, r1, r3, lsl #16
 8000720:	fb06 f30e 	mul.w	r3, r6, lr
 8000724:	428b      	cmp	r3, r1
 8000726:	d908      	bls.n	800073a <__udivmoddi4+0x28a>
 8000728:	eb1c 0101 	adds.w	r1, ip, r1
 800072c:	f106 38ff 	add.w	r8, r6, #4294967295
 8000730:	d216      	bcs.n	8000760 <__udivmoddi4+0x2b0>
 8000732:	428b      	cmp	r3, r1
 8000734:	d914      	bls.n	8000760 <__udivmoddi4+0x2b0>
 8000736:	3e02      	subs	r6, #2
 8000738:	4461      	add	r1, ip
 800073a:	1ac9      	subs	r1, r1, r3
 800073c:	ea46 4600 	orr.w	r6, r6, r0, lsl #16
 8000740:	e738      	b.n	80005b4 <__udivmoddi4+0x104>
 8000742:	462e      	mov	r6, r5
 8000744:	4628      	mov	r0, r5
 8000746:	e705      	b.n	8000554 <__udivmoddi4+0xa4>
 8000748:	4606      	mov	r6, r0
 800074a:	e6e3      	b.n	8000514 <__udivmoddi4+0x64>
 800074c:	4618      	mov	r0, r3
 800074e:	e6f8      	b.n	8000542 <__udivmoddi4+0x92>
 8000750:	454b      	cmp	r3, r9
 8000752:	d2a9      	bcs.n	80006a8 <__udivmoddi4+0x1f8>
 8000754:	ebb9 0802 	subs.w	r8, r9, r2
 8000758:	eb64 0e0c 	sbc.w	lr, r4, ip
 800075c:	3801      	subs	r0, #1
 800075e:	e7a3      	b.n	80006a8 <__udivmoddi4+0x1f8>
 8000760:	4646      	mov	r6, r8
 8000762:	e7ea      	b.n	800073a <__udivmoddi4+0x28a>
 8000764:	4620      	mov	r0, r4
 8000766:	e794      	b.n	8000692 <__udivmoddi4+0x1e2>
 8000768:	4640      	mov	r0, r8
 800076a:	e7d1      	b.n	8000710 <__udivmoddi4+0x260>
 800076c:	46d0      	mov	r8, sl
 800076e:	e77b      	b.n	8000668 <__udivmoddi4+0x1b8>
 8000770:	3b02      	subs	r3, #2
 8000772:	4461      	add	r1, ip
 8000774:	e732      	b.n	80005dc <__udivmoddi4+0x12c>
 8000776:	4630      	mov	r0, r6
 8000778:	e709      	b.n	800058e <__udivmoddi4+0xde>
 800077a:	4464      	add	r4, ip
 800077c:	3802      	subs	r0, #2
 800077e:	e742      	b.n	8000606 <__udivmoddi4+0x156>

08000780 <__aeabi_idiv0>:
 8000780:	4770      	bx	lr
 8000782:	bf00      	nop

08000784 <__io_putchar>:
#include <stdlib.h>

void SystemClock_Config(void);

#ifdef __GNUC__
int __io_putchar(int ch) {
 8000784:	b500      	push	{lr}
 8000786:	b083      	sub	sp, #12
 8000788:	9001      	str	r0, [sp, #4]
    HAL_UART_Transmit(&huart1, (uint8_t *)&ch, 1, 0xFFFF);
 800078a:	f64f 73ff 	movw	r3, #65535	; 0xffff
 800078e:	2201      	movs	r2, #1
 8000790:	a901      	add	r1, sp, #4
 8000792:	4803      	ldr	r0, [pc, #12]	; (80007a0 <__io_putchar+0x1c>)
 8000794:	f000 fda2 	bl	80012dc <HAL_UART_Transmit>
    return ch;
}
 8000798:	9801      	ldr	r0, [sp, #4]
 800079a:	b003      	add	sp, #12
 800079c:	f85d fb04 	ldr.w	pc, [sp], #4
 80007a0:	20000090 	mulcs	r0, r0, r0

080007a4 <main>:

void tx_application_define(void *first_unused_memory) {

}

int main(void) {
 80007a4:	b508      	push	{r3, lr}
    HAL_Init();
 80007a6:	f001 fa61 	bl	8001c6c <HAL_Init>
    // SystemClock_Config();
    MX_GPIO_Init();
 80007aa:	f000 f85f 	bl	800086c <MX_GPIO_Init>
    MX_USART1_UART_Init();
 80007ae:	f000 f883 	bl	80008b8 <MX_USART1_UART_Init>

    while (1) {
        printf("hello qemu.\r\n");
 80007b2:	4804      	ldr	r0, [pc, #16]	; (80007c4 <main+0x20>)
 80007b4:	f001 fe92 	bl	80024dc <puts>
        HAL_Delay(1000);
 80007b8:	f44f 707a 	mov.w	r0, #1000	; 0x3e8
 80007bc:	f001 fa76 	bl	8001cac <HAL_Delay>
    while (1) {
 80007c0:	e7f7      	b.n	80007b2 <main+0xe>
 80007c2:	bf00      	nop
 80007c4:	080033f0 	stmdaeq	r0, {r4, r5, r6, r7, r8, r9, ip, sp}

080007c8 <NMI_Handler>:
/******************************************************************************/
/**
  * @brief This function handles Non maskable interrupt.
  */
void NMI_Handler(void)
{
 80007c8:	b508      	push	{r3, lr}
  /* USER CODE BEGIN NonMaskableInt_IRQn 0 */
  printf("this is %s.\r\n", __func__);
 80007ca:	4902      	ldr	r1, [pc, #8]	; (80007d4 <NMI_Handler+0xc>)
 80007cc:	4802      	ldr	r0, [pc, #8]	; (80007d8 <NMI_Handler+0x10>)
 80007ce:	f001 fdff 	bl	80023d0 <iprintf>
  /* USER CODE END NonMaskableInt_IRQn 0 */
  /* USER CODE BEGIN NonMaskableInt_IRQn 1 */
  while (1)
 80007d2:	e7fe      	b.n	80007d2 <NMI_Handler+0xa>
 80007d4:	0800346c 	stmdaeq	r0, {r2, r3, r5, r6, sl, ip, sp}
 80007d8:	08003400 	stmdaeq	r0, {sl, ip, sp}

080007dc <MemManage_Handler>:

/**
  * @brief This function handles Memory management fault.
  */
void MemManage_Handler(void)
{
 80007dc:	b508      	push	{r3, lr}
  /* USER CODE BEGIN MemoryManagement_IRQn 0 */
  printf("this is %s.\r\n", __func__);
 80007de:	4902      	ldr	r1, [pc, #8]	; (80007e8 <MemManage_Handler+0xc>)
 80007e0:	4802      	ldr	r0, [pc, #8]	; (80007ec <MemManage_Handler+0x10>)
 80007e2:	f001 fdf5 	bl	80023d0 <iprintf>
  /* USER CODE END MemoryManagement_IRQn 0 */
  while (1)
 80007e6:	e7fe      	b.n	80007e6 <MemManage_Handler+0xa>
 80007e8:	08003458 	stmdaeq	r0, {r3, r4, r6, sl, ip, sp}
 80007ec:	08003400 	stmdaeq	r0, {sl, ip, sp}

080007f0 <BusFault_Handler>:

/**
  * @brief This function handles Pre-fetch fault, memory access fault.
  */
void BusFault_Handler(void)
{
 80007f0:	b508      	push	{r3, lr}
  /* USER CODE BEGIN BusFault_IRQn 0 */
  printf("this is %s.\r\n", __func__);
 80007f2:	4902      	ldr	r1, [pc, #8]	; (80007fc <BusFault_Handler+0xc>)
 80007f4:	4802      	ldr	r0, [pc, #8]	; (8000800 <BusFault_Handler+0x10>)
 80007f6:	f001 fdeb 	bl	80023d0 <iprintf>
  /* USER CODE END BusFault_IRQn 0 */
  while (1)
 80007fa:	e7fe      	b.n	80007fa <BusFault_Handler+0xa>
 80007fc:	08003444 	stmdaeq	r0, {r2, r6, sl, ip, sp}
 8000800:	08003400 	stmdaeq	r0, {sl, ip, sp}

08000804 <UsageFault_Handler>:

/**
  * @brief This function handles Undefined instruction or illegal state.
  */
void UsageFault_Handler(void)
{
 8000804:	b508      	push	{r3, lr}
  /* USER CODE BEGIN UsageFault_IRQn 0 */
  printf("this is %s.\r\n", __func__);
 8000806:	4902      	ldr	r1, [pc, #8]	; (8000810 <UsageFault_Handler+0xc>)
 8000808:	4802      	ldr	r0, [pc, #8]	; (8000814 <UsageFault_Handler+0x10>)
 800080a:	f001 fde1 	bl	80023d0 <iprintf>
  /* USER CODE END UsageFault_IRQn 0 */
  while (1)
 800080e:	e7fe      	b.n	800080e <UsageFault_Handler+0xa>
 8000810:	08003430 	stmdaeq	r0, {r4, r5, sl, ip, sp}
 8000814:	08003400 	stmdaeq	r0, {sl, ip, sp}

08000818 <SVC_Handler>:

  /* USER CODE END SVCall_IRQn 0 */
  /* USER CODE BEGIN SVCall_IRQn 1 */

  /* USER CODE END SVCall_IRQn 1 */
}
 8000818:	4770      	bx	lr

0800081a <DebugMon_Handler>:

  /* USER CODE END DebugMonitor_IRQn 0 */
  /* USER CODE BEGIN DebugMonitor_IRQn 1 */

  /* USER CODE END DebugMonitor_IRQn 1 */
}
 800081a:	4770      	bx	lr

0800081c <TIM1_UP_TIM10_IRQHandler>:

/**
  * @brief This function handles TIM1 update interrupt and TIM10 global interrupt.
  */
void TIM1_UP_TIM10_IRQHandler(void)
{
 800081c:	b508      	push	{r3, lr}
  /* USER CODE BEGIN TIM1_UP_TIM10_IRQn 0 */

  /* USER CODE END TIM1_UP_TIM10_IRQn 0 */
  HAL_TIM_IRQHandler(&htim1);
 800081e:	4802      	ldr	r0, [pc, #8]	; (8000828 <TIM1_UP_TIM10_IRQHandler+0xc>)
 8000820:	f000 f997 	bl	8000b52 <HAL_TIM_IRQHandler>
  /* USER CODE BEGIN TIM1_UP_TIM10_IRQn 1 */

  /* USER CODE END TIM1_UP_TIM10_IRQn 1 */
}
 8000824:	bd08      	pop	{r3, pc}
 8000826:	bf00      	nop
 8000828:	200000d8 	ldrdcs	r0, [r0], -r8

0800082c <USART1_IRQHandler>:

/**
  * @brief This function handles USART1 global interrupt.
  */
void USART1_IRQHandler(void)
{
 800082c:	b508      	push	{r3, lr}
  /* USER CODE BEGIN USART1_IRQn 0 */

  /* USER CODE END USART1_IRQn 0 */
  HAL_UART_IRQHandler(&huart1);
 800082e:	4802      	ldr	r0, [pc, #8]	; (8000838 <USART1_IRQHandler+0xc>)
 8000830:	f000 fe46 	bl	80014c0 <HAL_UART_IRQHandler>
  /* USER CODE BEGIN USART1_IRQn 1 */

  /* USER CODE END USART1_IRQn 1 */
}
 8000834:	bd08      	pop	{r3, pc}
 8000836:	bf00      	nop
 8000838:	20000090 	mulcs	r0, r0, r0

0800083c <Error_Handler>:
/**
  * @brief  This function is executed in case of error occurrence.
  * @retval None
  */
void Error_Handler(void)
{
 800083c:	b508      	push	{r3, lr}
  printf("this is %s.\r\n", __func__);
 800083e:	4903      	ldr	r1, [pc, #12]	; (800084c <Error_Handler+0x10>)
 8000840:	4803      	ldr	r0, [pc, #12]	; (8000850 <Error_Handler+0x14>)
 8000842:	f001 fdc5 	bl	80023d0 <iprintf>
  \details Disables IRQ interrupts by setting special-purpose register PRIMASK.
           Can only be executed in Privileged modes.
 */
__STATIC_FORCEINLINE void __disable_irq(void)
{
  __ASM volatile ("cpsid i" : : : "memory");
 8000846:	b672      	cpsid	i
  __disable_irq();
  while (1) {}
 8000848:	e7fe      	b.n	8000848 <Error_Handler+0xc>
 800084a:	bf00      	nop
 800084c:	08003420 	stmdaeq	r0, {r5, sl, ip, sp}
 8000850:	08003400 	stmdaeq	r0, {sl, ip, sp}

08000854 <assert_failed>:
  * @param  file: pointer to the source file name
  * @param  line: assert_param error line source number
  * @retval None
  */
void assert_failed(uint8_t *file, uint32_t line)
{
 8000854:	b508      	push	{r3, lr}
  printf("this is %s.\r\n", __func__);
 8000856:	4903      	ldr	r1, [pc, #12]	; (8000864 <assert_failed+0x10>)
 8000858:	4803      	ldr	r0, [pc, #12]	; (8000868 <assert_failed+0x14>)
 800085a:	f001 fdb9 	bl	80023d0 <iprintf>
 800085e:	b672      	cpsid	i
  __disable_irq();
  while (1) {}
 8000860:	e7fe      	b.n	8000860 <assert_failed+0xc>
 8000862:	bf00      	nop
 8000864:	08003410 	stmdaeq	r0, {r4, sl, ip, sp}
 8000868:	08003400 	stmdaeq	r0, {sl, ip, sp}

0800086c <MX_GPIO_Init>:
        * Output
        * EVENT_OUT
        * EXTI
*/
void MX_GPIO_Init(void)
{
 800086c:	b084      	sub	sp, #16

  /* GPIO Ports Clock Enable */
  __HAL_RCC_GPIOC_CLK_ENABLE();
 800086e:	2200      	movs	r2, #0
 8000870:	9201      	str	r2, [sp, #4]
 8000872:	4b10      	ldr	r3, [pc, #64]	; (80008b4 <MX_GPIO_Init+0x48>)
 8000874:	6b19      	ldr	r1, [r3, #48]	; 0x30
 8000876:	f041 0104 	orr.w	r1, r1, #4
 800087a:	6319      	str	r1, [r3, #48]	; 0x30
 800087c:	6b19      	ldr	r1, [r3, #48]	; 0x30
 800087e:	f001 0104 	and.w	r1, r1, #4
 8000882:	9101      	str	r1, [sp, #4]
 8000884:	9901      	ldr	r1, [sp, #4]
  __HAL_RCC_GPIOH_CLK_ENABLE();
 8000886:	9202      	str	r2, [sp, #8]
 8000888:	6b19      	ldr	r1, [r3, #48]	; 0x30
 800088a:	f041 0180 	orr.w	r1, r1, #128	; 0x80
 800088e:	6319      	str	r1, [r3, #48]	; 0x30
 8000890:	6b19      	ldr	r1, [r3, #48]	; 0x30
 8000892:	f001 0180 	and.w	r1, r1, #128	; 0x80
 8000896:	9102      	str	r1, [sp, #8]
 8000898:	9902      	ldr	r1, [sp, #8]
  __HAL_RCC_GPIOA_CLK_ENABLE();
 800089a:	9203      	str	r2, [sp, #12]
 800089c:	6b1a      	ldr	r2, [r3, #48]	; 0x30
 800089e:	f042 0201 	orr.w	r2, r2, #1
 80008a2:	631a      	str	r2, [r3, #48]	; 0x30
 80008a4:	6b1b      	ldr	r3, [r3, #48]	; 0x30
 80008a6:	f003 0301 	and.w	r3, r3, #1
 80008aa:	9303      	str	r3, [sp, #12]
 80008ac:	9b03      	ldr	r3, [sp, #12]

}
 80008ae:	b004      	add	sp, #16
 80008b0:	4770      	bx	lr
 80008b2:	bf00      	nop
 80008b4:	40023800 	andmi	r3, r2, r0, lsl #16

080008b8 <MX_USART1_UART_Init>:
UART_HandleTypeDef huart1;

/* USART1 init function */

void MX_USART1_UART_Init(void)
{
 80008b8:	b508      	push	{r3, lr}
  /* USER CODE END USART1_Init 0 */

  /* USER CODE BEGIN USART1_Init 1 */

  /* USER CODE END USART1_Init 1 */
  huart1.Instance = USART1;
 80008ba:	480a      	ldr	r0, [pc, #40]	; (80008e4 <MX_USART1_UART_Init+0x2c>)
 80008bc:	4b0a      	ldr	r3, [pc, #40]	; (80008e8 <MX_USART1_UART_Init+0x30>)
 80008be:	6003      	str	r3, [r0, #0]
  huart1.Init.BaudRate = 115200;
 80008c0:	f44f 33e1 	mov.w	r3, #115200	; 0x1c200
 80008c4:	6043      	str	r3, [r0, #4]
  huart1.Init.WordLength = UART_WORDLENGTH_8B;
 80008c6:	2300      	movs	r3, #0
 80008c8:	6083      	str	r3, [r0, #8]
  huart1.Init.StopBits = UART_STOPBITS_1;
 80008ca:	60c3      	str	r3, [r0, #12]
  huart1.Init.Parity = UART_PARITY_NONE;
 80008cc:	6103      	str	r3, [r0, #16]
  huart1.Init.Mode = UART_MODE_TX_RX;
 80008ce:	220c      	movs	r2, #12
 80008d0:	6142      	str	r2, [r0, #20]
  huart1.Init.HwFlowCtl = UART_HWCONTROL_NONE;
 80008d2:	6183      	str	r3, [r0, #24]
  huart1.Init.OverSampling = UART_OVERSAMPLING_16;
 80008d4:	61c3      	str	r3, [r0, #28]
  if (HAL_UART_Init(&huart1) != HAL_OK)
 80008d6:	f000 fc6b 	bl	80011b0 <HAL_UART_Init>
 80008da:	b900      	cbnz	r0, 80008de <MX_USART1_UART_Init+0x26>
  }
  /* USER CODE BEGIN USART1_Init 2 */

  /* USER CODE END USART1_Init 2 */

}
 80008dc:	bd08      	pop	{r3, pc}
    Error_Handler();
 80008de:	f7ff ffad 	bl	800083c <Error_Handler>
}
 80008e2:	e7fb      	b.n	80008dc <MX_USART1_UART_Init+0x24>
 80008e4:	20000090 	mulcs	r0, r0, r0
 80008e8:	40011000 	andmi	r1, r1, r0

080008ec <HAL_UART_MspInit>:

void HAL_UART_MspInit(UART_HandleTypeDef* uartHandle)
{
 80008ec:	b510      	push	{r4, lr}
 80008ee:	b088      	sub	sp, #32

  GPIO_InitTypeDef GPIO_InitStruct = {0};
 80008f0:	2300      	movs	r3, #0
 80008f2:	9303      	str	r3, [sp, #12]
 80008f4:	9304      	str	r3, [sp, #16]
 80008f6:	9305      	str	r3, [sp, #20]
 80008f8:	9306      	str	r3, [sp, #24]
 80008fa:	9307      	str	r3, [sp, #28]
  if(uartHandle->Instance==USART1)
 80008fc:	6802      	ldr	r2, [r0, #0]
 80008fe:	f103 4380 	add.w	r3, r3, #1073741824	; 0x40000000
 8000902:	f503 3388 	add.w	r3, r3, #69632	; 0x11000
 8000906:	429a      	cmp	r2, r3
 8000908:	d001      	beq.n	800090e <HAL_UART_MspInit+0x22>
    HAL_NVIC_EnableIRQ(USART1_IRQn);
  /* USER CODE BEGIN USART1_MspInit 1 */

  /* USER CODE END USART1_MspInit 1 */
  }
}
 800090a:	b008      	add	sp, #32
 800090c:	bd10      	pop	{r4, pc}
    __HAL_RCC_USART1_CLK_ENABLE();
 800090e:	2400      	movs	r4, #0
 8000910:	9401      	str	r4, [sp, #4]
 8000912:	f503 3394 	add.w	r3, r3, #75776	; 0x12800
 8000916:	6c5a      	ldr	r2, [r3, #68]	; 0x44
 8000918:	f042 0210 	orr.w	r2, r2, #16
 800091c:	645a      	str	r2, [r3, #68]	; 0x44
 800091e:	6c5a      	ldr	r2, [r3, #68]	; 0x44
 8000920:	f002 0210 	and.w	r2, r2, #16
 8000924:	9201      	str	r2, [sp, #4]
 8000926:	9a01      	ldr	r2, [sp, #4]
    __HAL_RCC_GPIOA_CLK_ENABLE();
 8000928:	9402      	str	r4, [sp, #8]
 800092a:	6b1a      	ldr	r2, [r3, #48]	; 0x30
 800092c:	f042 0201 	orr.w	r2, r2, #1
 8000930:	631a      	str	r2, [r3, #48]	; 0x30
 8000932:	6b1b      	ldr	r3, [r3, #48]	; 0x30
 8000934:	f003 0301 	and.w	r3, r3, #1
 8000938:	9302      	str	r3, [sp, #8]
 800093a:	9b02      	ldr	r3, [sp, #8]
    GPIO_InitStruct.Pin = GPIO_PIN_9|GPIO_PIN_10;
 800093c:	f44f 63c0 	mov.w	r3, #1536	; 0x600
 8000940:	9303      	str	r3, [sp, #12]
    GPIO_InitStruct.Mode = GPIO_MODE_AF_PP;
 8000942:	2302      	movs	r3, #2
 8000944:	9304      	str	r3, [sp, #16]
    GPIO_InitStruct.Speed = GPIO_SPEED_FREQ_VERY_HIGH;
 8000946:	2303      	movs	r3, #3
 8000948:	9306      	str	r3, [sp, #24]
    GPIO_InitStruct.Alternate = GPIO_AF7_USART1;
 800094a:	2307      	movs	r3, #7
 800094c:	9307      	str	r3, [sp, #28]
    HAL_GPIO_Init(GPIOA, &GPIO_InitStruct);
 800094e:	a903      	add	r1, sp, #12
 8000950:	4805      	ldr	r0, [pc, #20]	; (8000968 <HAL_UART_MspInit+0x7c>)
 8000952:	f000 ff3d 	bl	80017d0 <HAL_GPIO_Init>
    HAL_NVIC_SetPriority(USART1_IRQn, 0, 0);
 8000956:	4622      	mov	r2, r4
 8000958:	4621      	mov	r1, r4
 800095a:	2025      	movs	r0, #37	; 0x25
 800095c:	f001 f928 	bl	8001bb0 <HAL_NVIC_SetPriority>
    HAL_NVIC_EnableIRQ(USART1_IRQn);
 8000960:	2025      	movs	r0, #37	; 0x25
 8000962:	f001 f96b 	bl	8001c3c <HAL_NVIC_EnableIRQ>
}
 8000966:	e7d0      	b.n	800090a <HAL_UART_MspInit+0x1e>
 8000968:	40020000 	andmi	r0, r2, r0

0800096c <HAL_MspInit>:
/* USER CODE END 0 */
/**
  * Initializes the Global MSP.
  */
void HAL_MspInit(void)
{
 800096c:	b082      	sub	sp, #8

  /* USER CODE BEGIN MspInit 0 */

  /* USER CODE END MspInit 0 */

  __HAL_RCC_SYSCFG_CLK_ENABLE();
 800096e:	2100      	movs	r1, #0
 8000970:	9100      	str	r1, [sp, #0]
 8000972:	4b0b      	ldr	r3, [pc, #44]	; (80009a0 <HAL_MspInit+0x34>)
 8000974:	6c5a      	ldr	r2, [r3, #68]	; 0x44
 8000976:	f442 4280 	orr.w	r2, r2, #16384	; 0x4000
 800097a:	645a      	str	r2, [r3, #68]	; 0x44
 800097c:	6c5a      	ldr	r2, [r3, #68]	; 0x44
 800097e:	f402 4280 	and.w	r2, r2, #16384	; 0x4000
 8000982:	9200      	str	r2, [sp, #0]
 8000984:	9a00      	ldr	r2, [sp, #0]
  __HAL_RCC_PWR_CLK_ENABLE();
 8000986:	9101      	str	r1, [sp, #4]
 8000988:	6c1a      	ldr	r2, [r3, #64]	; 0x40
 800098a:	f042 5280 	orr.w	r2, r2, #268435456	; 0x10000000
 800098e:	641a      	str	r2, [r3, #64]	; 0x40
 8000990:	6c1b      	ldr	r3, [r3, #64]	; 0x40
 8000992:	f003 5380 	and.w	r3, r3, #268435456	; 0x10000000
 8000996:	9301      	str	r3, [sp, #4]
 8000998:	9b01      	ldr	r3, [sp, #4]
  /* System interrupt init*/

  /* USER CODE BEGIN MspInit 1 */

  /* USER CODE END MspInit 1 */
}
 800099a:	b002      	add	sp, #8
 800099c:	4770      	bx	lr
 800099e:	bf00      	nop
 80009a0:	40023800 	andmi	r3, r2, r0, lsl #16

080009a4 <HAL_InitTick>:
  *         reset by HAL_Init() or at any time when clock is configured, by HAL_RCC_ClockConfig().
  * @param  TickPriority: Tick interrupt priority.
  * @retval HAL status
  */
HAL_StatusTypeDef HAL_InitTick(uint32_t TickPriority)
{
 80009a4:	b530      	push	{r4, r5, lr}
 80009a6:	b089      	sub	sp, #36	; 0x24
 80009a8:	4605      	mov	r5, r0
  uint32_t              uwPrescalerValue = 0U;
  uint32_t              pFLatency;
  HAL_StatusTypeDef     status;

  /* Enable TIM1 clock */
  __HAL_RCC_TIM1_CLK_ENABLE();
 80009aa:	2400      	movs	r4, #0
 80009ac:	9401      	str	r4, [sp, #4]
 80009ae:	4b1e      	ldr	r3, [pc, #120]	; (8000a28 <HAL_InitTick+0x84>)
 80009b0:	6c5a      	ldr	r2, [r3, #68]	; 0x44
 80009b2:	f042 0201 	orr.w	r2, r2, #1
 80009b6:	645a      	str	r2, [r3, #68]	; 0x44
 80009b8:	6c5b      	ldr	r3, [r3, #68]	; 0x44
 80009ba:	f003 0301 	and.w	r3, r3, #1
 80009be:	9301      	str	r3, [sp, #4]
 80009c0:	9b01      	ldr	r3, [sp, #4]
  /* Get clock configuration */
  HAL_RCC_GetClockConfig(&clkconfig, &pFLatency);
 80009c2:	a902      	add	r1, sp, #8
 80009c4:	a803      	add	r0, sp, #12
 80009c6:	f000 fee5 	bl	8001794 <HAL_RCC_GetClockConfig>
  /* Compute TIM1 clock */
      uwTimclock = 2*HAL_RCC_GetPCLK2Freq();
 80009ca:	f000 fed3 	bl	8001774 <HAL_RCC_GetPCLK2Freq>
 80009ce:	0043      	lsls	r3, r0, #1

  /* Compute the prescaler value to have TIM1 counter clock equal to 1MHz */
  uwPrescalerValue = (uint32_t) ((uwTimclock / 1000000U) - 1U);
 80009d0:	4816      	ldr	r0, [pc, #88]	; (8000a2c <HAL_InitTick+0x88>)
 80009d2:	fba0 2303 	umull	r2, r3, r0, r3
 80009d6:	0c9b      	lsrs	r3, r3, #18
 80009d8:	3b01      	subs	r3, #1

  /* Initialize TIM1 */
  htim1.Instance = TIM1;
 80009da:	4815      	ldr	r0, [pc, #84]	; (8000a30 <HAL_InitTick+0x8c>)
 80009dc:	4a15      	ldr	r2, [pc, #84]	; (8000a34 <HAL_InitTick+0x90>)
 80009de:	6002      	str	r2, [r0, #0]
  + Period = [(TIM1CLK/1000) - 1]. to have a (1/1000) s time base.
  + Prescaler = (uwTimclock/1000000 - 1) to have a 1MHz counter clock.
  + ClockDivision = 0
  + Counter direction = Up
  */
  htim1.Init.Period = (1000000U / 1000U) - 1U;
 80009e0:	f240 32e7 	movw	r2, #999	; 0x3e7
 80009e4:	60c2      	str	r2, [r0, #12]
  htim1.Init.Prescaler = uwPrescalerValue;
 80009e6:	6043      	str	r3, [r0, #4]
  htim1.Init.ClockDivision = 0;
 80009e8:	6104      	str	r4, [r0, #16]
  htim1.Init.CounterMode = TIM_COUNTERMODE_UP;
 80009ea:	6084      	str	r4, [r0, #8]
  htim1.Init.AutoReloadPreload = TIM_AUTORELOAD_PRELOAD_DISABLE;
 80009ec:	6184      	str	r4, [r0, #24]

  status = HAL_TIM_Base_Init(&htim1);
 80009ee:	f000 f9cb 	bl	8000d88 <HAL_TIM_Base_Init>
  if (status == HAL_OK)
 80009f2:	4604      	mov	r4, r0
 80009f4:	b110      	cbz	r0, 80009fc <HAL_InitTick+0x58>
    }
  }

 /* Return function status */
  return status;
}
 80009f6:	4620      	mov	r0, r4
 80009f8:	b009      	add	sp, #36	; 0x24
 80009fa:	bd30      	pop	{r4, r5, pc}
    status = HAL_TIM_Base_Start_IT(&htim1);
 80009fc:	480c      	ldr	r0, [pc, #48]	; (8000a30 <HAL_InitTick+0x8c>)
 80009fe:	f000 f81f 	bl	8000a40 <HAL_TIM_Base_Start_IT>
    if (status == HAL_OK)
 8000a02:	4604      	mov	r4, r0
 8000a04:	2800      	cmp	r0, #0
 8000a06:	d1f6      	bne.n	80009f6 <HAL_InitTick+0x52>
        HAL_NVIC_EnableIRQ(TIM1_UP_TIM10_IRQn);
 8000a08:	2019      	movs	r0, #25
 8000a0a:	f001 f917 	bl	8001c3c <HAL_NVIC_EnableIRQ>
      if (TickPriority < (1UL << __NVIC_PRIO_BITS))
 8000a0e:	2d0f      	cmp	r5, #15
 8000a10:	d901      	bls.n	8000a16 <HAL_InitTick+0x72>
        status = HAL_ERROR;
 8000a12:	2401      	movs	r4, #1
 8000a14:	e7ef      	b.n	80009f6 <HAL_InitTick+0x52>
        HAL_NVIC_SetPriority(TIM1_UP_TIM10_IRQn, TickPriority, 0U);
 8000a16:	2200      	movs	r2, #0
 8000a18:	4629      	mov	r1, r5
 8000a1a:	2019      	movs	r0, #25
 8000a1c:	f001 f8c8 	bl	8001bb0 <HAL_NVIC_SetPriority>
        uwTickPrio = TickPriority;
 8000a20:	4b05      	ldr	r3, [pc, #20]	; (8000a38 <HAL_InitTick+0x94>)
 8000a22:	601d      	str	r5, [r3, #0]
 8000a24:	e7e7      	b.n	80009f6 <HAL_InitTick+0x52>
 8000a26:	bf00      	nop
 8000a28:	40023800 	andmi	r3, r2, r0, lsl #16
 8000a2c:	431bde83 	tstmi	fp, #2096	; 0x830
 8000a30:	200000d8 	ldrdcs	r0, [r0], -r8
 8000a34:	40010000 	andmi	r0, r1, r0
 8000a38:	20000004 	andcs	r0, r0, r4

08000a3c <HAL_TIM_Base_MspInit>:
  UNUSED(htim);

  /* NOTE : This function should not be modified, when the callback is needed,
            the HAL_TIM_Base_MspInit could be implemented in the user file
   */
}
 8000a3c:	4770      	bx	lr
	...

08000a40 <HAL_TIM_Base_Start_IT>:
  * @brief  Starts the TIM Base generation in interrupt mode.
  * @param  htim TIM Base handle
  * @retval HAL status
  */
HAL_StatusTypeDef HAL_TIM_Base_Start_IT(TIM_HandleTypeDef *htim)
{
 8000a40:	b510      	push	{r4, lr}
 8000a42:	4604      	mov	r4, r0
  uint32_t tmpsmcr;

  /* Check the parameters */
  assert_param(IS_TIM_INSTANCE(htim->Instance));
 8000a44:	6803      	ldr	r3, [r0, #0]
 8000a46:	4a3e      	ldr	r2, [pc, #248]	; (8000b40 <HAL_TIM_Base_Start_IT+0x100>)
 8000a48:	4293      	cmp	r3, r2
 8000a4a:	d037      	beq.n	8000abc <HAL_TIM_Base_Start_IT+0x7c>
 8000a4c:	f1b3 4f80 	cmp.w	r3, #1073741824	; 0x40000000
 8000a50:	d034      	beq.n	8000abc <HAL_TIM_Base_Start_IT+0x7c>
 8000a52:	f5a2 427c 	sub.w	r2, r2, #64512	; 0xfc00
 8000a56:	4293      	cmp	r3, r2
 8000a58:	d030      	beq.n	8000abc <HAL_TIM_Base_Start_IT+0x7c>
 8000a5a:	f502 6280 	add.w	r2, r2, #1024	; 0x400
 8000a5e:	4293      	cmp	r3, r2
 8000a60:	d02c      	beq.n	8000abc <HAL_TIM_Base_Start_IT+0x7c>
 8000a62:	f502 6280 	add.w	r2, r2, #1024	; 0x400
 8000a66:	4293      	cmp	r3, r2
 8000a68:	d028      	beq.n	8000abc <HAL_TIM_Base_Start_IT+0x7c>
 8000a6a:	f502 6280 	add.w	r2, r2, #1024	; 0x400
 8000a6e:	4293      	cmp	r3, r2
 8000a70:	d024      	beq.n	8000abc <HAL_TIM_Base_Start_IT+0x7c>
 8000a72:	f502 6280 	add.w	r2, r2, #1024	; 0x400
 8000a76:	4293      	cmp	r3, r2
 8000a78:	d020      	beq.n	8000abc <HAL_TIM_Base_Start_IT+0x7c>
 8000a7a:	f502 4270 	add.w	r2, r2, #61440	; 0xf000
 8000a7e:	4293      	cmp	r3, r2
 8000a80:	d01c      	beq.n	8000abc <HAL_TIM_Base_Start_IT+0x7c>
 8000a82:	f502 5270 	add.w	r2, r2, #15360	; 0x3c00
 8000a86:	4293      	cmp	r3, r2
 8000a88:	d018      	beq.n	8000abc <HAL_TIM_Base_Start_IT+0x7c>
 8000a8a:	f502 6280 	add.w	r2, r2, #1024	; 0x400
 8000a8e:	4293      	cmp	r3, r2
 8000a90:	d014      	beq.n	8000abc <HAL_TIM_Base_Start_IT+0x7c>
 8000a92:	f502 6280 	add.w	r2, r2, #1024	; 0x400
 8000a96:	4293      	cmp	r3, r2
 8000a98:	d010      	beq.n	8000abc <HAL_TIM_Base_Start_IT+0x7c>
 8000a9a:	f5a2 3298 	sub.w	r2, r2, #77824	; 0x13000
 8000a9e:	4293      	cmp	r3, r2
 8000aa0:	d00c      	beq.n	8000abc <HAL_TIM_Base_Start_IT+0x7c>
 8000aa2:	f502 6280 	add.w	r2, r2, #1024	; 0x400
 8000aa6:	4293      	cmp	r3, r2
 8000aa8:	d008      	beq.n	8000abc <HAL_TIM_Base_Start_IT+0x7c>
 8000aaa:	f502 6280 	add.w	r2, r2, #1024	; 0x400
 8000aae:	4293      	cmp	r3, r2
 8000ab0:	d004      	beq.n	8000abc <HAL_TIM_Base_Start_IT+0x7c>
 8000ab2:	f44f 71e8 	mov.w	r1, #464	; 0x1d0
 8000ab6:	4823      	ldr	r0, [pc, #140]	; (8000b44 <HAL_TIM_Base_Start_IT+0x104>)
 8000ab8:	f7ff fecc 	bl	8000854 <assert_failed>

  /* Check the TIM state */
  if (htim->State != HAL_TIM_STATE_READY)
 8000abc:	f894 303d 	ldrb.w	r3, [r4, #61]	; 0x3d
 8000ac0:	b2db      	uxtb	r3, r3
 8000ac2:	2b01      	cmp	r3, #1
 8000ac4:	d137      	bne.n	8000b36 <HAL_TIM_Base_Start_IT+0xf6>
  {
    return HAL_ERROR;
  }

  /* Set the TIM state */
  htim->State = HAL_TIM_STATE_BUSY;
 8000ac6:	2302      	movs	r3, #2
 8000ac8:	f884 303d 	strb.w	r3, [r4, #61]	; 0x3d

  /* Enable the TIM Update interrupt */
  __HAL_TIM_ENABLE_IT(htim, TIM_IT_UPDATE);
 8000acc:	6822      	ldr	r2, [r4, #0]
 8000ace:	68d3      	ldr	r3, [r2, #12]
 8000ad0:	f043 0301 	orr.w	r3, r3, #1
 8000ad4:	60d3      	str	r3, [r2, #12]

  /* Enable the Peripheral, except in trigger mode where enable is automatically done with trigger */
  if (IS_TIM_SLAVE_INSTANCE(htim->Instance))
 8000ad6:	6823      	ldr	r3, [r4, #0]
 8000ad8:	4a19      	ldr	r2, [pc, #100]	; (8000b40 <HAL_TIM_Base_Start_IT+0x100>)
 8000ada:	4293      	cmp	r3, r2
 8000adc:	d020      	beq.n	8000b20 <HAL_TIM_Base_Start_IT+0xe0>
 8000ade:	f1b3 4f80 	cmp.w	r3, #1073741824	; 0x40000000
 8000ae2:	d01d      	beq.n	8000b20 <HAL_TIM_Base_Start_IT+0xe0>
 8000ae4:	f5a2 427c 	sub.w	r2, r2, #64512	; 0xfc00
 8000ae8:	4293      	cmp	r3, r2
 8000aea:	d019      	beq.n	8000b20 <HAL_TIM_Base_Start_IT+0xe0>
 8000aec:	f502 6280 	add.w	r2, r2, #1024	; 0x400
 8000af0:	4293      	cmp	r3, r2
 8000af2:	d015      	beq.n	8000b20 <HAL_TIM_Base_Start_IT+0xe0>
 8000af4:	f502 6280 	add.w	r2, r2, #1024	; 0x400
 8000af8:	4293      	cmp	r3, r2
 8000afa:	d011      	beq.n	8000b20 <HAL_TIM_Base_Start_IT+0xe0>
 8000afc:	f502 4278 	add.w	r2, r2, #63488	; 0xf800
 8000b00:	4293      	cmp	r3, r2
 8000b02:	d00d      	beq.n	8000b20 <HAL_TIM_Base_Start_IT+0xe0>
 8000b04:	f502 5270 	add.w	r2, r2, #15360	; 0x3c00
 8000b08:	4293      	cmp	r3, r2
 8000b0a:	d009      	beq.n	8000b20 <HAL_TIM_Base_Start_IT+0xe0>
 8000b0c:	f5a2 3294 	sub.w	r2, r2, #75776	; 0x12800
 8000b10:	4293      	cmp	r3, r2
 8000b12:	d005      	beq.n	8000b20 <HAL_TIM_Base_Start_IT+0xe0>
      __HAL_TIM_ENABLE(htim);
    }
  }
  else
  {
    __HAL_TIM_ENABLE(htim);
 8000b14:	681a      	ldr	r2, [r3, #0]
 8000b16:	f042 0201 	orr.w	r2, r2, #1
 8000b1a:	601a      	str	r2, [r3, #0]
  }

  /* Return function status */
  return HAL_OK;
 8000b1c:	2000      	movs	r0, #0
 8000b1e:	e00b      	b.n	8000b38 <HAL_TIM_Base_Start_IT+0xf8>
    tmpsmcr = htim->Instance->SMCR & TIM_SMCR_SMS;
 8000b20:	689a      	ldr	r2, [r3, #8]
 8000b22:	f002 0207 	and.w	r2, r2, #7
    if (!IS_TIM_SLAVEMODE_TRIGGER_ENABLED(tmpsmcr))
 8000b26:	2a06      	cmp	r2, #6
 8000b28:	d007      	beq.n	8000b3a <HAL_TIM_Base_Start_IT+0xfa>
      __HAL_TIM_ENABLE(htim);
 8000b2a:	681a      	ldr	r2, [r3, #0]
 8000b2c:	f042 0201 	orr.w	r2, r2, #1
 8000b30:	601a      	str	r2, [r3, #0]
  return HAL_OK;
 8000b32:	2000      	movs	r0, #0
 8000b34:	e000      	b.n	8000b38 <HAL_TIM_Base_Start_IT+0xf8>
    return HAL_ERROR;
 8000b36:	2001      	movs	r0, #1
}
 8000b38:	bd10      	pop	{r4, pc}
  return HAL_OK;
 8000b3a:	2000      	movs	r0, #0
 8000b3c:	e7fc      	b.n	8000b38 <HAL_TIM_Base_Start_IT+0xf8>
 8000b3e:	bf00      	nop
 8000b40:	40010000 	andmi	r0, r1, r0
 8000b44:	08003478 	stmdaeq	r0, {r3, r4, r5, r6, sl, ip, sp}

08000b48 <HAL_TIM_PeriodElapsedCallback>:
  UNUSED(htim);

  /* NOTE : This function should not be modified, when the callback is needed,
            the HAL_TIM_PeriodElapsedCallback could be implemented in the user file
   */
}
 8000b48:	4770      	bx	lr

08000b4a <HAL_TIM_OC_DelayElapsedCallback>:
  UNUSED(htim);

  /* NOTE : This function should not be modified, when the callback is needed,
            the HAL_TIM_OC_DelayElapsedCallback could be implemented in the user file
   */
}
 8000b4a:	4770      	bx	lr

08000b4c <HAL_TIM_IC_CaptureCallback>:
  UNUSED(htim);

  /* NOTE : This function should not be modified, when the callback is needed,
            the HAL_TIM_IC_CaptureCallback could be implemented in the user file
   */
}
 8000b4c:	4770      	bx	lr

08000b4e <HAL_TIM_PWM_PulseFinishedCallback>:
  UNUSED(htim);

  /* NOTE : This function should not be modified, when the callback is needed,
            the HAL_TIM_PWM_PulseFinishedCallback could be implemented in the user file
   */
}
 8000b4e:	4770      	bx	lr

08000b50 <HAL_TIM_TriggerCallback>:
  UNUSED(htim);

  /* NOTE : This function should not be modified, when the callback is needed,
            the HAL_TIM_TriggerCallback could be implemented in the user file
   */
}
 8000b50:	4770      	bx	lr

08000b52 <HAL_TIM_IRQHandler>:
{
 8000b52:	b570      	push	{r4, r5, r6, lr}
 8000b54:	4604      	mov	r4, r0
  uint32_t itsource = htim->Instance->DIER;
 8000b56:	6803      	ldr	r3, [r0, #0]
 8000b58:	68de      	ldr	r6, [r3, #12]
  uint32_t itflag   = htim->Instance->SR;
 8000b5a:	691d      	ldr	r5, [r3, #16]
  if ((itflag & (TIM_FLAG_CC1)) == (TIM_FLAG_CC1))
 8000b5c:	f015 0f02 	tst.w	r5, #2
 8000b60:	d010      	beq.n	8000b84 <HAL_TIM_IRQHandler+0x32>
    if ((itsource & (TIM_IT_CC1)) == (TIM_IT_CC1))
 8000b62:	f016 0f02 	tst.w	r6, #2
 8000b66:	d00d      	beq.n	8000b84 <HAL_TIM_IRQHandler+0x32>
        __HAL_TIM_CLEAR_FLAG(htim, TIM_FLAG_CC1);
 8000b68:	f06f 0202 	mvn.w	r2, #2
 8000b6c:	611a      	str	r2, [r3, #16]
        htim->Channel = HAL_TIM_ACTIVE_CHANNEL_1;
 8000b6e:	2301      	movs	r3, #1
 8000b70:	7703      	strb	r3, [r0, #28]
        if ((htim->Instance->CCMR1 & TIM_CCMR1_CC1S) != 0x00U)
 8000b72:	6803      	ldr	r3, [r0, #0]
 8000b74:	699b      	ldr	r3, [r3, #24]
 8000b76:	f013 0f03 	tst.w	r3, #3
 8000b7a:	d05e      	beq.n	8000c3a <HAL_TIM_IRQHandler+0xe8>
          HAL_TIM_IC_CaptureCallback(htim);
 8000b7c:	f7ff ffe6 	bl	8000b4c <HAL_TIM_IC_CaptureCallback>
        htim->Channel = HAL_TIM_ACTIVE_CHANNEL_CLEARED;
 8000b80:	2300      	movs	r3, #0
 8000b82:	7723      	strb	r3, [r4, #28]
  if ((itflag & (TIM_FLAG_CC2)) == (TIM_FLAG_CC2))
 8000b84:	f015 0f04 	tst.w	r5, #4
 8000b88:	d012      	beq.n	8000bb0 <HAL_TIM_IRQHandler+0x5e>
    if ((itsource & (TIM_IT_CC2)) == (TIM_IT_CC2))
 8000b8a:	f016 0f04 	tst.w	r6, #4
 8000b8e:	d00f      	beq.n	8000bb0 <HAL_TIM_IRQHandler+0x5e>
      __HAL_TIM_CLEAR_FLAG(htim, TIM_FLAG_CC2);
 8000b90:	6823      	ldr	r3, [r4, #0]
 8000b92:	f06f 0204 	mvn.w	r2, #4
 8000b96:	611a      	str	r2, [r3, #16]
      htim->Channel = HAL_TIM_ACTIVE_CHANNEL_2;
 8000b98:	2302      	movs	r3, #2
 8000b9a:	7723      	strb	r3, [r4, #28]
      if ((htim->Instance->CCMR1 & TIM_CCMR1_CC2S) != 0x00U)
 8000b9c:	6823      	ldr	r3, [r4, #0]
 8000b9e:	699b      	ldr	r3, [r3, #24]
 8000ba0:	f413 7f40 	tst.w	r3, #768	; 0x300
 8000ba4:	d04f      	beq.n	8000c46 <HAL_TIM_IRQHandler+0xf4>
        HAL_TIM_IC_CaptureCallback(htim);
 8000ba6:	4620      	mov	r0, r4
 8000ba8:	f7ff ffd0 	bl	8000b4c <HAL_TIM_IC_CaptureCallback>
      htim->Channel = HAL_TIM_ACTIVE_CHANNEL_CLEARED;
 8000bac:	2300      	movs	r3, #0
 8000bae:	7723      	strb	r3, [r4, #28]
  if ((itflag & (TIM_FLAG_CC3)) == (TIM_FLAG_CC3))
 8000bb0:	f015 0f08 	tst.w	r5, #8
 8000bb4:	d012      	beq.n	8000bdc <HAL_TIM_IRQHandler+0x8a>
    if ((itsource & (TIM_IT_CC3)) == (TIM_IT_CC3))
 8000bb6:	f016 0f08 	tst.w	r6, #8
 8000bba:	d00f      	beq.n	8000bdc <HAL_TIM_IRQHandler+0x8a>
      __HAL_TIM_CLEAR_FLAG(htim, TIM_FLAG_CC3);
 8000bbc:	6823      	ldr	r3, [r4, #0]
 8000bbe:	f06f 0208 	mvn.w	r2, #8
 8000bc2:	611a      	str	r2, [r3, #16]
      htim->Channel = HAL_TIM_ACTIVE_CHANNEL_3;
 8000bc4:	2304      	movs	r3, #4
 8000bc6:	7723      	strb	r3, [r4, #28]
      if ((htim->Instance->CCMR2 & TIM_CCMR2_CC3S) != 0x00U)
 8000bc8:	6823      	ldr	r3, [r4, #0]
 8000bca:	69db      	ldr	r3, [r3, #28]
 8000bcc:	f013 0f03 	tst.w	r3, #3
 8000bd0:	d040      	beq.n	8000c54 <HAL_TIM_IRQHandler+0x102>
        HAL_TIM_IC_CaptureCallback(htim);
 8000bd2:	4620      	mov	r0, r4
 8000bd4:	f7ff ffba 	bl	8000b4c <HAL_TIM_IC_CaptureCallback>
      htim->Channel = HAL_TIM_ACTIVE_CHANNEL_CLEARED;
 8000bd8:	2300      	movs	r3, #0
 8000bda:	7723      	strb	r3, [r4, #28]
  if ((itflag & (TIM_FLAG_CC4)) == (TIM_FLAG_CC4))
 8000bdc:	f015 0f10 	tst.w	r5, #16
 8000be0:	d012      	beq.n	8000c08 <HAL_TIM_IRQHandler+0xb6>
    if ((itsource & (TIM_IT_CC4)) == (TIM_IT_CC4))
 8000be2:	f016 0f10 	tst.w	r6, #16
 8000be6:	d00f      	beq.n	8000c08 <HAL_TIM_IRQHandler+0xb6>
      __HAL_TIM_CLEAR_FLAG(htim, TIM_FLAG_CC4);
 8000be8:	6823      	ldr	r3, [r4, #0]
 8000bea:	f06f 0210 	mvn.w	r2, #16
 8000bee:	611a      	str	r2, [r3, #16]
      htim->Channel = HAL_TIM_ACTIVE_CHANNEL_4;
 8000bf0:	2308      	movs	r3, #8
 8000bf2:	7723      	strb	r3, [r4, #28]
      if ((htim->Instance->CCMR2 & TIM_CCMR2_CC4S) != 0x00U)
 8000bf4:	6823      	ldr	r3, [r4, #0]
 8000bf6:	69db      	ldr	r3, [r3, #28]
 8000bf8:	f413 7f40 	tst.w	r3, #768	; 0x300
 8000bfc:	d031      	beq.n	8000c62 <HAL_TIM_IRQHandler+0x110>
        HAL_TIM_IC_CaptureCallback(htim);
 8000bfe:	4620      	mov	r0, r4
 8000c00:	f7ff ffa4 	bl	8000b4c <HAL_TIM_IC_CaptureCallback>
      htim->Channel = HAL_TIM_ACTIVE_CHANNEL_CLEARED;
 8000c04:	2300      	movs	r3, #0
 8000c06:	7723      	strb	r3, [r4, #28]
  if ((itflag & (TIM_FLAG_UPDATE)) == (TIM_FLAG_UPDATE))
 8000c08:	f015 0f01 	tst.w	r5, #1
 8000c0c:	d002      	beq.n	8000c14 <HAL_TIM_IRQHandler+0xc2>
    if ((itsource & (TIM_IT_UPDATE)) == (TIM_IT_UPDATE))
 8000c0e:	f016 0f01 	tst.w	r6, #1
 8000c12:	d12d      	bne.n	8000c70 <HAL_TIM_IRQHandler+0x11e>
  if ((itflag & (TIM_FLAG_BREAK)) == (TIM_FLAG_BREAK))
 8000c14:	f015 0f80 	tst.w	r5, #128	; 0x80
 8000c18:	d002      	beq.n	8000c20 <HAL_TIM_IRQHandler+0xce>
    if ((itsource & (TIM_IT_BREAK)) == (TIM_IT_BREAK))
 8000c1a:	f016 0f80 	tst.w	r6, #128	; 0x80
 8000c1e:	d12f      	bne.n	8000c80 <HAL_TIM_IRQHandler+0x12e>
  if ((itflag & (TIM_FLAG_TRIGGER)) == (TIM_FLAG_TRIGGER))
 8000c20:	f015 0f40 	tst.w	r5, #64	; 0x40
 8000c24:	d002      	beq.n	8000c2c <HAL_TIM_IRQHandler+0xda>
    if ((itsource & (TIM_IT_TRIGGER)) == (TIM_IT_TRIGGER))
 8000c26:	f016 0f40 	tst.w	r6, #64	; 0x40
 8000c2a:	d131      	bne.n	8000c90 <HAL_TIM_IRQHandler+0x13e>
  if ((itflag & (TIM_FLAG_COM)) == (TIM_FLAG_COM))
 8000c2c:	f015 0f20 	tst.w	r5, #32
 8000c30:	d002      	beq.n	8000c38 <HAL_TIM_IRQHandler+0xe6>
    if ((itsource & (TIM_IT_COM)) == (TIM_IT_COM))
 8000c32:	f016 0f20 	tst.w	r6, #32
 8000c36:	d133      	bne.n	8000ca0 <HAL_TIM_IRQHandler+0x14e>
}
 8000c38:	bd70      	pop	{r4, r5, r6, pc}
          HAL_TIM_OC_DelayElapsedCallback(htim);
 8000c3a:	f7ff ff86 	bl	8000b4a <HAL_TIM_OC_DelayElapsedCallback>
          HAL_TIM_PWM_PulseFinishedCallback(htim);
 8000c3e:	4620      	mov	r0, r4
 8000c40:	f7ff ff85 	bl	8000b4e <HAL_TIM_PWM_PulseFinishedCallback>
 8000c44:	e79c      	b.n	8000b80 <HAL_TIM_IRQHandler+0x2e>
        HAL_TIM_OC_DelayElapsedCallback(htim);
 8000c46:	4620      	mov	r0, r4
 8000c48:	f7ff ff7f 	bl	8000b4a <HAL_TIM_OC_DelayElapsedCallback>
        HAL_TIM_PWM_PulseFinishedCallback(htim);
 8000c4c:	4620      	mov	r0, r4
 8000c4e:	f7ff ff7e 	bl	8000b4e <HAL_TIM_PWM_PulseFinishedCallback>
 8000c52:	e7ab      	b.n	8000bac <HAL_TIM_IRQHandler+0x5a>
        HAL_TIM_OC_DelayElapsedCallback(htim);
 8000c54:	4620      	mov	r0, r4
 8000c56:	f7ff ff78 	bl	8000b4a <HAL_TIM_OC_DelayElapsedCallback>
        HAL_TIM_PWM_PulseFinishedCallback(htim);
 8000c5a:	4620      	mov	r0, r4
 8000c5c:	f7ff ff77 	bl	8000b4e <HAL_TIM_PWM_PulseFinishedCallback>
 8000c60:	e7ba      	b.n	8000bd8 <HAL_TIM_IRQHandler+0x86>
        HAL_TIM_OC_DelayElapsedCallback(htim);
 8000c62:	4620      	mov	r0, r4
 8000c64:	f7ff ff71 	bl	8000b4a <HAL_TIM_OC_DelayElapsedCallback>
        HAL_TIM_PWM_PulseFinishedCallback(htim);
 8000c68:	4620      	mov	r0, r4
 8000c6a:	f7ff ff70 	bl	8000b4e <HAL_TIM_PWM_PulseFinishedCallback>
 8000c6e:	e7c9      	b.n	8000c04 <HAL_TIM_IRQHandler+0xb2>
      __HAL_TIM_CLEAR_FLAG(htim, TIM_FLAG_UPDATE);
 8000c70:	6823      	ldr	r3, [r4, #0]
 8000c72:	f06f 0201 	mvn.w	r2, #1
 8000c76:	611a      	str	r2, [r3, #16]
      HAL_TIM_PeriodElapsedCallback(htim);
 8000c78:	4620      	mov	r0, r4
 8000c7a:	f7ff ff65 	bl	8000b48 <HAL_TIM_PeriodElapsedCallback>
 8000c7e:	e7c9      	b.n	8000c14 <HAL_TIM_IRQHandler+0xc2>
      __HAL_TIM_CLEAR_FLAG(htim, TIM_FLAG_BREAK);
 8000c80:	6823      	ldr	r3, [r4, #0]
 8000c82:	f06f 0280 	mvn.w	r2, #128	; 0x80
 8000c86:	611a      	str	r2, [r3, #16]
      HAL_TIMEx_BreakCallback(htim);
 8000c88:	4620      	mov	r0, r4
 8000c8a:	f000 f932 	bl	8000ef2 <HAL_TIMEx_BreakCallback>
 8000c8e:	e7c7      	b.n	8000c20 <HAL_TIM_IRQHandler+0xce>
      __HAL_TIM_CLEAR_FLAG(htim, TIM_FLAG_TRIGGER);
 8000c90:	6823      	ldr	r3, [r4, #0]
 8000c92:	f06f 0240 	mvn.w	r2, #64	; 0x40
 8000c96:	611a      	str	r2, [r3, #16]
      HAL_TIM_TriggerCallback(htim);
 8000c98:	4620      	mov	r0, r4
 8000c9a:	f7ff ff59 	bl	8000b50 <HAL_TIM_TriggerCallback>
 8000c9e:	e7c5      	b.n	8000c2c <HAL_TIM_IRQHandler+0xda>
      __HAL_TIM_CLEAR_FLAG(htim, TIM_FLAG_COM);
 8000ca0:	6823      	ldr	r3, [r4, #0]
 8000ca2:	f06f 0220 	mvn.w	r2, #32
 8000ca6:	611a      	str	r2, [r3, #16]
      HAL_TIMEx_CommutCallback(htim);
 8000ca8:	4620      	mov	r0, r4
 8000caa:	f000 f921 	bl	8000ef0 <HAL_TIMEx_CommutCallback>
}
 8000cae:	e7c3      	b.n	8000c38 <HAL_TIM_IRQHandler+0xe6>

08000cb0 <TIM_Base_SetConfig>:
  * @retval None
  */
void TIM_Base_SetConfig(TIM_TypeDef *TIMx, const TIM_Base_InitTypeDef *Structure)
{
  uint32_t tmpcr1;
  tmpcr1 = TIMx->CR1;
 8000cb0:	6803      	ldr	r3, [r0, #0]

  /* Set TIM Time Base Unit parameters ---------------------------------------*/
  if (IS_TIM_COUNTER_MODE_SELECT_INSTANCE(TIMx))
 8000cb2:	4a34      	ldr	r2, [pc, #208]	; (8000d84 <TIM_Base_SetConfig+0xd4>)
 8000cb4:	4290      	cmp	r0, r2
 8000cb6:	d012      	beq.n	8000cde <TIM_Base_SetConfig+0x2e>
 8000cb8:	f1b0 4f80 	cmp.w	r0, #1073741824	; 0x40000000
 8000cbc:	d00f      	beq.n	8000cde <TIM_Base_SetConfig+0x2e>
 8000cbe:	f5a2 427c 	sub.w	r2, r2, #64512	; 0xfc00
 8000cc2:	4290      	cmp	r0, r2
 8000cc4:	d00b      	beq.n	8000cde <TIM_Base_SetConfig+0x2e>
 8000cc6:	f502 6280 	add.w	r2, r2, #1024	; 0x400
 8000cca:	4290      	cmp	r0, r2
 8000ccc:	d007      	beq.n	8000cde <TIM_Base_SetConfig+0x2e>
 8000cce:	f502 6280 	add.w	r2, r2, #1024	; 0x400
 8000cd2:	4290      	cmp	r0, r2
 8000cd4:	d003      	beq.n	8000cde <TIM_Base_SetConfig+0x2e>
 8000cd6:	f502 4278 	add.w	r2, r2, #63488	; 0xf800
 8000cda:	4290      	cmp	r0, r2
 8000cdc:	d103      	bne.n	8000ce6 <TIM_Base_SetConfig+0x36>
  {
    /* Select the Counter Mode */
    tmpcr1 &= ~(TIM_CR1_DIR | TIM_CR1_CMS);
 8000cde:	f023 0370 	bic.w	r3, r3, #112	; 0x70
    tmpcr1 |= Structure->CounterMode;
 8000ce2:	684a      	ldr	r2, [r1, #4]
 8000ce4:	4313      	orrs	r3, r2
  }

  if (IS_TIM_CLOCK_DIVISION_INSTANCE(TIMx))
 8000ce6:	4a27      	ldr	r2, [pc, #156]	; (8000d84 <TIM_Base_SetConfig+0xd4>)
 8000ce8:	4290      	cmp	r0, r2
 8000cea:	d02a      	beq.n	8000d42 <TIM_Base_SetConfig+0x92>
 8000cec:	f1b0 4f80 	cmp.w	r0, #1073741824	; 0x40000000
 8000cf0:	d027      	beq.n	8000d42 <TIM_Base_SetConfig+0x92>
 8000cf2:	f5a2 427c 	sub.w	r2, r2, #64512	; 0xfc00
 8000cf6:	4290      	cmp	r0, r2
 8000cf8:	d023      	beq.n	8000d42 <TIM_Base_SetConfig+0x92>
 8000cfa:	f502 6280 	add.w	r2, r2, #1024	; 0x400
 8000cfe:	4290      	cmp	r0, r2
 8000d00:	d01f      	beq.n	8000d42 <TIM_Base_SetConfig+0x92>
 8000d02:	f502 6280 	add.w	r2, r2, #1024	; 0x400
 8000d06:	4290      	cmp	r0, r2
 8000d08:	d01b      	beq.n	8000d42 <TIM_Base_SetConfig+0x92>
 8000d0a:	f502 4278 	add.w	r2, r2, #63488	; 0xf800
 8000d0e:	4290      	cmp	r0, r2
 8000d10:	d017      	beq.n	8000d42 <TIM_Base_SetConfig+0x92>
 8000d12:	f502 5270 	add.w	r2, r2, #15360	; 0x3c00
 8000d16:	4290      	cmp	r0, r2
 8000d18:	d013      	beq.n	8000d42 <TIM_Base_SetConfig+0x92>
 8000d1a:	f502 6280 	add.w	r2, r2, #1024	; 0x400
 8000d1e:	4290      	cmp	r0, r2
 8000d20:	d00f      	beq.n	8000d42 <TIM_Base_SetConfig+0x92>
 8000d22:	f502 6280 	add.w	r2, r2, #1024	; 0x400
 8000d26:	4290      	cmp	r0, r2
 8000d28:	d00b      	beq.n	8000d42 <TIM_Base_SetConfig+0x92>
 8000d2a:	f5a2 3298 	sub.w	r2, r2, #77824	; 0x13000
 8000d2e:	4290      	cmp	r0, r2
 8000d30:	d007      	beq.n	8000d42 <TIM_Base_SetConfig+0x92>
 8000d32:	f502 6280 	add.w	r2, r2, #1024	; 0x400
 8000d36:	4290      	cmp	r0, r2
 8000d38:	d003      	beq.n	8000d42 <TIM_Base_SetConfig+0x92>
 8000d3a:	f502 6280 	add.w	r2, r2, #1024	; 0x400
 8000d3e:	4290      	cmp	r0, r2
 8000d40:	d103      	bne.n	8000d4a <TIM_Base_SetConfig+0x9a>
  {
    /* Set the clock division */
    tmpcr1 &= ~TIM_CR1_CKD;
 8000d42:	f423 7340 	bic.w	r3, r3, #768	; 0x300
    tmpcr1 |= (uint32_t)Structure->ClockDivision;
 8000d46:	68ca      	ldr	r2, [r1, #12]
 8000d48:	4313      	orrs	r3, r2
  }

  /* Set the auto-reload preload */
  MODIFY_REG(tmpcr1, TIM_CR1_ARPE, Structure->AutoReloadPreload);
 8000d4a:	f023 0380 	bic.w	r3, r3, #128	; 0x80
 8000d4e:	694a      	ldr	r2, [r1, #20]
 8000d50:	4313      	orrs	r3, r2

  TIMx->CR1 = tmpcr1;
 8000d52:	6003      	str	r3, [r0, #0]

  /* Set the Autoreload value */
  TIMx->ARR = (uint32_t)Structure->Period ;
 8000d54:	688b      	ldr	r3, [r1, #8]
 8000d56:	62c3      	str	r3, [r0, #44]	; 0x2c

  /* Set the Prescaler value */
  TIMx->PSC = Structure->Prescaler;
 8000d58:	680b      	ldr	r3, [r1, #0]
 8000d5a:	6283      	str	r3, [r0, #40]	; 0x28

  if (IS_TIM_REPETITION_COUNTER_INSTANCE(TIMx))
 8000d5c:	4b09      	ldr	r3, [pc, #36]	; (8000d84 <TIM_Base_SetConfig+0xd4>)
 8000d5e:	4298      	cmp	r0, r3
 8000d60:	d003      	beq.n	8000d6a <TIM_Base_SetConfig+0xba>
 8000d62:	f503 6380 	add.w	r3, r3, #1024	; 0x400
 8000d66:	4298      	cmp	r0, r3
 8000d68:	d101      	bne.n	8000d6e <TIM_Base_SetConfig+0xbe>
  {
    /* Set the Repetition Counter value */
    TIMx->RCR = Structure->RepetitionCounter;
 8000d6a:	690b      	ldr	r3, [r1, #16]
 8000d6c:	6303      	str	r3, [r0, #48]	; 0x30
  }

  /* Generate an update event to reload the Prescaler
     and the repetition counter (only for advanced timer) value immediately */
  TIMx->EGR = TIM_EGR_UG;
 8000d6e:	2301      	movs	r3, #1
 8000d70:	6143      	str	r3, [r0, #20]

  /* Check if the update flag is set after the Update Generation, if so clear the UIF flag */
  if (HAL_IS_BIT_SET(TIMx->SR, TIM_FLAG_UPDATE))
 8000d72:	6903      	ldr	r3, [r0, #16]
 8000d74:	f013 0f01 	tst.w	r3, #1
 8000d78:	d003      	beq.n	8000d82 <TIM_Base_SetConfig+0xd2>
  {
    /* Clear the update flag */
    CLEAR_BIT(TIMx->SR, TIM_FLAG_UPDATE);
 8000d7a:	6903      	ldr	r3, [r0, #16]
 8000d7c:	f023 0301 	bic.w	r3, r3, #1
 8000d80:	6103      	str	r3, [r0, #16]
  }
}
 8000d82:	4770      	bx	lr
 8000d84:	40010000 	andmi	r0, r1, r0

08000d88 <HAL_TIM_Base_Init>:
  if (htim == NULL)
 8000d88:	2800      	cmp	r0, #0
 8000d8a:	f000 80a9 	beq.w	8000ee0 <HAL_TIM_Base_Init+0x158>
{
 8000d8e:	b510      	push	{r4, lr}
 8000d90:	4604      	mov	r4, r0
  assert_param(IS_TIM_INSTANCE(htim->Instance));
 8000d92:	6803      	ldr	r3, [r0, #0]
 8000d94:	4a53      	ldr	r2, [pc, #332]	; (8000ee4 <HAL_TIM_Base_Init+0x15c>)
 8000d96:	4293      	cmp	r3, r2
 8000d98:	d037      	beq.n	8000e0a <HAL_TIM_Base_Init+0x82>
 8000d9a:	f1b3 4f80 	cmp.w	r3, #1073741824	; 0x40000000
 8000d9e:	d034      	beq.n	8000e0a <HAL_TIM_Base_Init+0x82>
 8000da0:	f5a2 427c 	sub.w	r2, r2, #64512	; 0xfc00
 8000da4:	4293      	cmp	r3, r2
 8000da6:	d030      	beq.n	8000e0a <HAL_TIM_Base_Init+0x82>
 8000da8:	f502 6280 	add.w	r2, r2, #1024	; 0x400
 8000dac:	4293      	cmp	r3, r2
 8000dae:	d02c      	beq.n	8000e0a <HAL_TIM_Base_Init+0x82>
 8000db0:	f502 6280 	add.w	r2, r2, #1024	; 0x400
 8000db4:	4293      	cmp	r3, r2
 8000db6:	d028      	beq.n	8000e0a <HAL_TIM_Base_Init+0x82>
 8000db8:	f502 6280 	add.w	r2, r2, #1024	; 0x400
 8000dbc:	4293      	cmp	r3, r2
 8000dbe:	d024      	beq.n	8000e0a <HAL_TIM_Base_Init+0x82>
 8000dc0:	f502 6280 	add.w	r2, r2, #1024	; 0x400
 8000dc4:	4293      	cmp	r3, r2
 8000dc6:	d020      	beq.n	8000e0a <HAL_TIM_Base_Init+0x82>
 8000dc8:	f502 4270 	add.w	r2, r2, #61440	; 0xf000
 8000dcc:	4293      	cmp	r3, r2
 8000dce:	d01c      	beq.n	8000e0a <HAL_TIM_Base_Init+0x82>
 8000dd0:	f502 5270 	add.w	r2, r2, #15360	; 0x3c00
 8000dd4:	4293      	cmp	r3, r2
 8000dd6:	d018      	beq.n	8000e0a <HAL_TIM_Base_Init+0x82>
 8000dd8:	f502 6280 	add.w	r2, r2, #1024	; 0x400
 8000ddc:	4293      	cmp	r3, r2
 8000dde:	d014      	beq.n	8000e0a <HAL_TIM_Base_Init+0x82>
 8000de0:	f502 6280 	add.w	r2, r2, #1024	; 0x400
 8000de4:	4293      	cmp	r3, r2
 8000de6:	d010      	beq.n	8000e0a <HAL_TIM_Base_Init+0x82>
 8000de8:	f5a2 3298 	sub.w	r2, r2, #77824	; 0x13000
 8000dec:	4293      	cmp	r3, r2
 8000dee:	d00c      	beq.n	8000e0a <HAL_TIM_Base_Init+0x82>
 8000df0:	f502 6280 	add.w	r2, r2, #1024	; 0x400
 8000df4:	4293      	cmp	r3, r2
 8000df6:	d008      	beq.n	8000e0a <HAL_TIM_Base_Init+0x82>
 8000df8:	f502 6280 	add.w	r2, r2, #1024	; 0x400
 8000dfc:	4293      	cmp	r3, r2
 8000dfe:	d004      	beq.n	8000e0a <HAL_TIM_Base_Init+0x82>
 8000e00:	f240 1113 	movw	r1, #275	; 0x113
 8000e04:	4838      	ldr	r0, [pc, #224]	; (8000ee8 <HAL_TIM_Base_Init+0x160>)
 8000e06:	f7ff fd25 	bl	8000854 <assert_failed>
  assert_param(IS_TIM_COUNTER_MODE(htim->Init.CounterMode));
 8000e0a:	68a3      	ldr	r3, [r4, #8]
 8000e0c:	b13b      	cbz	r3, 8000e1e <HAL_TIM_Base_Init+0x96>
 8000e0e:	2b10      	cmp	r3, #16
 8000e10:	d005      	beq.n	8000e1e <HAL_TIM_Base_Init+0x96>
 8000e12:	2b20      	cmp	r3, #32
 8000e14:	d003      	beq.n	8000e1e <HAL_TIM_Base_Init+0x96>
 8000e16:	2b40      	cmp	r3, #64	; 0x40
 8000e18:	d001      	beq.n	8000e1e <HAL_TIM_Base_Init+0x96>
 8000e1a:	2b60      	cmp	r3, #96	; 0x60
 8000e1c:	d117      	bne.n	8000e4e <HAL_TIM_Base_Init+0xc6>
  assert_param(IS_TIM_CLOCKDIVISION_DIV(htim->Init.ClockDivision));
 8000e1e:	6923      	ldr	r3, [r4, #16]
 8000e20:	b12b      	cbz	r3, 8000e2e <HAL_TIM_Base_Init+0xa6>
 8000e22:	f5b3 7f80 	cmp.w	r3, #256	; 0x100
 8000e26:	d002      	beq.n	8000e2e <HAL_TIM_Base_Init+0xa6>
 8000e28:	f5b3 7f00 	cmp.w	r3, #512	; 0x200
 8000e2c:	d115      	bne.n	8000e5a <HAL_TIM_Base_Init+0xd2>
  assert_param(IS_TIM_PERIOD(htim, htim->Init.Period));
 8000e2e:	6823      	ldr	r3, [r4, #0]
 8000e30:	f1b3 4f80 	cmp.w	r3, #1073741824	; 0x40000000
 8000e34:	d017      	beq.n	8000e66 <HAL_TIM_Base_Init+0xde>
 8000e36:	4a2d      	ldr	r2, [pc, #180]	; (8000eec <HAL_TIM_Base_Init+0x164>)
 8000e38:	4293      	cmp	r3, r2
 8000e3a:	d014      	beq.n	8000e66 <HAL_TIM_Base_Init+0xde>
 8000e3c:	68e3      	ldr	r3, [r4, #12]
 8000e3e:	3b01      	subs	r3, #1
 8000e40:	f64f 72fe 	movw	r2, #65534	; 0xfffe
 8000e44:	4293      	cmp	r3, r2
 8000e46:	bf8c      	ite	hi
 8000e48:	2300      	movhi	r3, #0
 8000e4a:	2301      	movls	r3, #1
 8000e4c:	e00f      	b.n	8000e6e <HAL_TIM_Base_Init+0xe6>
  assert_param(IS_TIM_COUNTER_MODE(htim->Init.CounterMode));
 8000e4e:	f44f 718a 	mov.w	r1, #276	; 0x114
 8000e52:	4825      	ldr	r0, [pc, #148]	; (8000ee8 <HAL_TIM_Base_Init+0x160>)
 8000e54:	f7ff fcfe 	bl	8000854 <assert_failed>
 8000e58:	e7e1      	b.n	8000e1e <HAL_TIM_Base_Init+0x96>
  assert_param(IS_TIM_CLOCKDIVISION_DIV(htim->Init.ClockDivision));
 8000e5a:	f240 1115 	movw	r1, #277	; 0x115
 8000e5e:	4822      	ldr	r0, [pc, #136]	; (8000ee8 <HAL_TIM_Base_Init+0x160>)
 8000e60:	f7ff fcf8 	bl	8000854 <assert_failed>
 8000e64:	e7e3      	b.n	8000e2e <HAL_TIM_Base_Init+0xa6>
  assert_param(IS_TIM_PERIOD(htim, htim->Init.Period));
 8000e66:	68e3      	ldr	r3, [r4, #12]
 8000e68:	3b00      	subs	r3, #0
 8000e6a:	bf18      	it	ne
 8000e6c:	2301      	movne	r3, #1
 8000e6e:	b32b      	cbz	r3, 8000ebc <HAL_TIM_Base_Init+0x134>
  assert_param(IS_TIM_AUTORELOAD_PRELOAD(htim->Init.AutoReloadPreload));
 8000e70:	69a3      	ldr	r3, [r4, #24]
 8000e72:	b10b      	cbz	r3, 8000e78 <HAL_TIM_Base_Init+0xf0>
 8000e74:	2b80      	cmp	r3, #128	; 0x80
 8000e76:	d127      	bne.n	8000ec8 <HAL_TIM_Base_Init+0x140>
  if (htim->State == HAL_TIM_STATE_RESET)
 8000e78:	f894 303d 	ldrb.w	r3, [r4, #61]	; 0x3d
 8000e7c:	b353      	cbz	r3, 8000ed4 <HAL_TIM_Base_Init+0x14c>
  htim->State = HAL_TIM_STATE_BUSY;
 8000e7e:	2302      	movs	r3, #2
 8000e80:	f884 303d 	strb.w	r3, [r4, #61]	; 0x3d
  TIM_Base_SetConfig(htim->Instance, &htim->Init);
 8000e84:	4621      	mov	r1, r4
 8000e86:	f851 0b04 	ldr.w	r0, [r1], #4
 8000e8a:	f7ff ff11 	bl	8000cb0 <TIM_Base_SetConfig>
  htim->DMABurstState = HAL_DMA_BURST_STATE_READY;
 8000e8e:	2301      	movs	r3, #1
 8000e90:	f884 3046 	strb.w	r3, [r4, #70]	; 0x46
  TIM_CHANNEL_STATE_SET_ALL(htim, HAL_TIM_CHANNEL_STATE_READY);
 8000e94:	f884 303e 	strb.w	r3, [r4, #62]	; 0x3e
 8000e98:	f884 303f 	strb.w	r3, [r4, #63]	; 0x3f
 8000e9c:	f884 3040 	strb.w	r3, [r4, #64]	; 0x40
 8000ea0:	f884 3041 	strb.w	r3, [r4, #65]	; 0x41
  TIM_CHANNEL_N_STATE_SET_ALL(htim, HAL_TIM_CHANNEL_STATE_READY);
 8000ea4:	f884 3042 	strb.w	r3, [r4, #66]	; 0x42
 8000ea8:	f884 3043 	strb.w	r3, [r4, #67]	; 0x43
 8000eac:	f884 3044 	strb.w	r3, [r4, #68]	; 0x44
 8000eb0:	f884 3045 	strb.w	r3, [r4, #69]	; 0x45
  htim->State = HAL_TIM_STATE_READY;
 8000eb4:	f884 303d 	strb.w	r3, [r4, #61]	; 0x3d
  return HAL_OK;
 8000eb8:	2000      	movs	r0, #0
}
 8000eba:	bd10      	pop	{r4, pc}
  assert_param(IS_TIM_PERIOD(htim, htim->Init.Period));
 8000ebc:	f44f 718b 	mov.w	r1, #278	; 0x116
 8000ec0:	4809      	ldr	r0, [pc, #36]	; (8000ee8 <HAL_TIM_Base_Init+0x160>)
 8000ec2:	f7ff fcc7 	bl	8000854 <assert_failed>
 8000ec6:	e7d3      	b.n	8000e70 <HAL_TIM_Base_Init+0xe8>
  assert_param(IS_TIM_AUTORELOAD_PRELOAD(htim->Init.AutoReloadPreload));
 8000ec8:	f240 1117 	movw	r1, #279	; 0x117
 8000ecc:	4806      	ldr	r0, [pc, #24]	; (8000ee8 <HAL_TIM_Base_Init+0x160>)
 8000ece:	f7ff fcc1 	bl	8000854 <assert_failed>
 8000ed2:	e7d1      	b.n	8000e78 <HAL_TIM_Base_Init+0xf0>
    htim->Lock = HAL_UNLOCKED;
 8000ed4:	f884 303c 	strb.w	r3, [r4, #60]	; 0x3c
    HAL_TIM_Base_MspInit(htim);
 8000ed8:	4620      	mov	r0, r4
 8000eda:	f7ff fdaf 	bl	8000a3c <HAL_TIM_Base_MspInit>
 8000ede:	e7ce      	b.n	8000e7e <HAL_TIM_Base_Init+0xf6>
    return HAL_ERROR;
 8000ee0:	2001      	movs	r0, #1
}
 8000ee2:	4770      	bx	lr
 8000ee4:	40010000 	andmi	r0, r1, r0
 8000ee8:	08003478 	stmdaeq	r0, {r3, r4, r5, r6, sl, ip, sp}
 8000eec:	40000c00 	andmi	r0, r0, r0, lsl #24

08000ef0 <HAL_TIMEx_CommutCallback>:
  UNUSED(htim);

  /* NOTE : This function should not be modified, when the callback is needed,
            the HAL_TIMEx_CommutCallback could be implemented in the user file
   */
}
 8000ef0:	4770      	bx	lr

08000ef2 <HAL_TIMEx_BreakCallback>:
  UNUSED(htim);

  /* NOTE : This function should not be modified, when the callback is needed,
            the HAL_TIMEx_BreakCallback could be implemented in the user file
   */
}
 8000ef2:	4770      	bx	lr

08000ef4 <UART_EndRxTransfer>:
  * @retval None
  */
static void UART_EndRxTransfer(UART_HandleTypeDef *huart)
{
  /* Disable RXNE, PE and ERR (Frame error, noise error, overrun error) interrupts */
  ATOMIC_CLEAR_BIT(huart->Instance->CR1, (USART_CR1_RXNEIE | USART_CR1_PEIE));
 8000ef4:	6802      	ldr	r2, [r0, #0]
   __ASM volatile ("ldrex %0, %1" : "=r" (result) : "Q" (*addr) );
 8000ef6:	f102 030c 	add.w	r3, r2, #12
 8000efa:	e853 3f00 	ldrex	r3, [r3]
 8000efe:	f423 7390 	bic.w	r3, r3, #288	; 0x120
   __ASM volatile ("strex %0, %2, %1" : "=&r" (result), "=Q" (*addr) : "r" (value) );
 8000f02:	320c      	adds	r2, #12
 8000f04:	e842 3100 	strex	r1, r3, [r2]
 8000f08:	2900      	cmp	r1, #0
 8000f0a:	d1f3      	bne.n	8000ef4 <UART_EndRxTransfer>
  ATOMIC_CLEAR_BIT(huart->Instance->CR3, USART_CR3_EIE);
 8000f0c:	6802      	ldr	r2, [r0, #0]
   __ASM volatile ("ldrex %0, %1" : "=r" (result) : "Q" (*addr) );
 8000f0e:	f102 0314 	add.w	r3, r2, #20
 8000f12:	e853 3f00 	ldrex	r3, [r3]
 8000f16:	f023 0301 	bic.w	r3, r3, #1
   __ASM volatile ("strex %0, %2, %1" : "=&r" (result), "=Q" (*addr) : "r" (value) );
 8000f1a:	3214      	adds	r2, #20
 8000f1c:	e842 3100 	strex	r1, r3, [r2]
 8000f20:	2900      	cmp	r1, #0
 8000f22:	d1f3      	bne.n	8000f0c <UART_EndRxTransfer+0x18>

  /* In case of reception waiting for IDLE event, disable also the IDLE IE interrupt source */
  if (huart->ReceptionType == HAL_UART_RECEPTION_TOIDLE)
 8000f24:	6b03      	ldr	r3, [r0, #48]	; 0x30
 8000f26:	2b01      	cmp	r3, #1
 8000f28:	d005      	beq.n	8000f36 <UART_EndRxTransfer+0x42>
  {
    ATOMIC_CLEAR_BIT(huart->Instance->CR1, USART_CR1_IDLEIE);
  }

  /* At end of Rx process, restore huart->RxState to Ready */
  huart->RxState = HAL_UART_STATE_READY;
 8000f2a:	2320      	movs	r3, #32
 8000f2c:	f880 3042 	strb.w	r3, [r0, #66]	; 0x42
  huart->ReceptionType = HAL_UART_RECEPTION_STANDARD;
 8000f30:	2300      	movs	r3, #0
 8000f32:	6303      	str	r3, [r0, #48]	; 0x30
}
 8000f34:	4770      	bx	lr
    ATOMIC_CLEAR_BIT(huart->Instance->CR1, USART_CR1_IDLEIE);
 8000f36:	6802      	ldr	r2, [r0, #0]
   __ASM volatile ("ldrex %0, %1" : "=r" (result) : "Q" (*addr) );
 8000f38:	f102 030c 	add.w	r3, r2, #12
 8000f3c:	e853 3f00 	ldrex	r3, [r3]
 8000f40:	f023 0310 	bic.w	r3, r3, #16
   __ASM volatile ("strex %0, %2, %1" : "=&r" (result), "=Q" (*addr) : "r" (value) );
 8000f44:	320c      	adds	r2, #12
 8000f46:	e842 3100 	strex	r1, r3, [r2]
 8000f4a:	2900      	cmp	r1, #0
 8000f4c:	d1f3      	bne.n	8000f36 <UART_EndRxTransfer+0x42>
 8000f4e:	e7ec      	b.n	8000f2a <UART_EndRxTransfer+0x36>

08000f50 <UART_Transmit_IT>:
static HAL_StatusTypeDef UART_Transmit_IT(UART_HandleTypeDef *huart)
{
  const uint16_t *tmp;

  /* Check that a Tx process is ongoing */
  if (huart->gState == HAL_UART_STATE_BUSY_TX)
 8000f50:	f890 3041 	ldrb.w	r3, [r0, #65]	; 0x41
 8000f54:	b2db      	uxtb	r3, r3
 8000f56:	2b21      	cmp	r3, #33	; 0x21
 8000f58:	d001      	beq.n	8000f5e <UART_Transmit_IT+0xe>
    }
    return HAL_OK;
  }
  else
  {
    return HAL_BUSY;
 8000f5a:	2002      	movs	r0, #2
  }
}
 8000f5c:	4770      	bx	lr
    if ((huart->Init.WordLength == UART_WORDLENGTH_9B) && (huart->Init.Parity == UART_PARITY_NONE))
 8000f5e:	6883      	ldr	r3, [r0, #8]
 8000f60:	f5b3 5f80 	cmp.w	r3, #4096	; 0x1000
 8000f64:	d017      	beq.n	8000f96 <UART_Transmit_IT+0x46>
      huart->Instance->DR = (uint8_t)(*huart->pTxBuffPtr++ & (uint8_t)0x00FF);
 8000f66:	6a03      	ldr	r3, [r0, #32]
 8000f68:	1c5a      	adds	r2, r3, #1
 8000f6a:	6202      	str	r2, [r0, #32]
 8000f6c:	781a      	ldrb	r2, [r3, #0]
 8000f6e:	6803      	ldr	r3, [r0, #0]
 8000f70:	605a      	str	r2, [r3, #4]
    if (--huart->TxXferCount == 0U)
 8000f72:	8cc3      	ldrh	r3, [r0, #38]	; 0x26
 8000f74:	b29b      	uxth	r3, r3
 8000f76:	3b01      	subs	r3, #1
 8000f78:	b29b      	uxth	r3, r3
 8000f7a:	84c3      	strh	r3, [r0, #38]	; 0x26
 8000f7c:	b94b      	cbnz	r3, 8000f92 <UART_Transmit_IT+0x42>
      __HAL_UART_DISABLE_IT(huart, UART_IT_TXE);
 8000f7e:	6802      	ldr	r2, [r0, #0]
 8000f80:	68d3      	ldr	r3, [r2, #12]
 8000f82:	f023 0380 	bic.w	r3, r3, #128	; 0x80
 8000f86:	60d3      	str	r3, [r2, #12]
      __HAL_UART_ENABLE_IT(huart, UART_IT_TC);
 8000f88:	6802      	ldr	r2, [r0, #0]
 8000f8a:	68d3      	ldr	r3, [r2, #12]
 8000f8c:	f043 0340 	orr.w	r3, r3, #64	; 0x40
 8000f90:	60d3      	str	r3, [r2, #12]
    return HAL_OK;
 8000f92:	2000      	movs	r0, #0
 8000f94:	4770      	bx	lr
    if ((huart->Init.WordLength == UART_WORDLENGTH_9B) && (huart->Init.Parity == UART_PARITY_NONE))
 8000f96:	6903      	ldr	r3, [r0, #16]
 8000f98:	2b00      	cmp	r3, #0
 8000f9a:	d1e4      	bne.n	8000f66 <UART_Transmit_IT+0x16>
      tmp = (const uint16_t *) huart->pTxBuffPtr;
 8000f9c:	6a03      	ldr	r3, [r0, #32]
      huart->Instance->DR = (uint16_t)(*tmp & (uint16_t)0x01FF);
 8000f9e:	881b      	ldrh	r3, [r3, #0]
 8000fa0:	6802      	ldr	r2, [r0, #0]
 8000fa2:	f3c3 0308 	ubfx	r3, r3, #0, #9
 8000fa6:	6053      	str	r3, [r2, #4]
      huart->pTxBuffPtr += 2U;
 8000fa8:	6a03      	ldr	r3, [r0, #32]
 8000faa:	3302      	adds	r3, #2
 8000fac:	6203      	str	r3, [r0, #32]
 8000fae:	e7e0      	b.n	8000f72 <UART_Transmit_IT+0x22>

08000fb0 <UART_SetConfig>:
  * @param  huart  Pointer to a UART_HandleTypeDef structure that contains
  *                the configuration information for the specified UART module.
  * @retval None
  */
static void UART_SetConfig(UART_HandleTypeDef *huart)
{
 8000fb0:	b538      	push	{r3, r4, r5, lr}
 8000fb2:	4604      	mov	r4, r0
  uint32_t tmpreg;
  uint32_t pclk;

  /* Check the parameters */
  assert_param(IS_UART_BAUDRATE(huart->Init.BaudRate));
 8000fb4:	6842      	ldr	r2, [r0, #4]
 8000fb6:	4b57      	ldr	r3, [pc, #348]	; (8001114 <UART_SetConfig+0x164>)
 8000fb8:	429a      	cmp	r2, r3
 8000fba:	d83f      	bhi.n	800103c <UART_SetConfig+0x8c>
  assert_param(IS_UART_STOPBITS(huart->Init.StopBits));
 8000fbc:	68e3      	ldr	r3, [r4, #12]
 8000fbe:	b113      	cbz	r3, 8000fc6 <UART_SetConfig+0x16>
 8000fc0:	f5b3 5f00 	cmp.w	r3, #8192	; 0x2000
 8000fc4:	d140      	bne.n	8001048 <UART_SetConfig+0x98>
  assert_param(IS_UART_PARITY(huart->Init.Parity));
 8000fc6:	6923      	ldr	r3, [r4, #16]
 8000fc8:	b12b      	cbz	r3, 8000fd6 <UART_SetConfig+0x26>
 8000fca:	f5b3 6f80 	cmp.w	r3, #1024	; 0x400
 8000fce:	d002      	beq.n	8000fd6 <UART_SetConfig+0x26>
 8000fd0:	f5b3 6fc0 	cmp.w	r3, #1536	; 0x600
 8000fd4:	d13e      	bne.n	8001054 <UART_SetConfig+0xa4>
  assert_param(IS_UART_MODE(huart->Init.Mode));
 8000fd6:	6963      	ldr	r3, [r4, #20]
 8000fd8:	f64f 72f3 	movw	r2, #65523	; 0xfff3
 8000fdc:	4213      	tst	r3, r2
 8000fde:	d100      	bne.n	8000fe2 <UART_SetConfig+0x32>
 8000fe0:	b923      	cbnz	r3, 8000fec <UART_SetConfig+0x3c>
 8000fe2:	f640 6178 	movw	r1, #3704	; 0xe78
 8000fe6:	484c      	ldr	r0, [pc, #304]	; (8001118 <UART_SetConfig+0x168>)
 8000fe8:	f7ff fc34 	bl	8000854 <assert_failed>

  /*-------------------------- USART CR2 Configuration -----------------------*/
  /* Configure the UART Stop Bits: Set STOP[13:12] bits
     according to huart->Init.StopBits value */
  MODIFY_REG(huart->Instance->CR2, USART_CR2_STOP, huart->Init.StopBits);
 8000fec:	6822      	ldr	r2, [r4, #0]
 8000fee:	6913      	ldr	r3, [r2, #16]
 8000ff0:	f423 5340 	bic.w	r3, r3, #12288	; 0x3000
 8000ff4:	68e1      	ldr	r1, [r4, #12]
 8000ff6:	430b      	orrs	r3, r1
 8000ff8:	6113      	str	r3, [r2, #16]
     Set the M bits according to huart->Init.WordLength value
     Set PCE and PS bits according to huart->Init.Parity value
     Set TE and RE bits according to huart->Init.Mode value
     Set OVER8 bit according to huart->Init.OverSampling value */

  tmpreg = (uint32_t)huart->Init.WordLength | huart->Init.Parity | huart->Init.Mode | huart->Init.OverSampling;
 8000ffa:	68a3      	ldr	r3, [r4, #8]
 8000ffc:	6922      	ldr	r2, [r4, #16]
 8000ffe:	4313      	orrs	r3, r2
 8001000:	6962      	ldr	r2, [r4, #20]
 8001002:	4313      	orrs	r3, r2
 8001004:	69e2      	ldr	r2, [r4, #28]
 8001006:	431a      	orrs	r2, r3
  MODIFY_REG(huart->Instance->CR1,
 8001008:	6821      	ldr	r1, [r4, #0]
 800100a:	68cb      	ldr	r3, [r1, #12]
 800100c:	f423 4316 	bic.w	r3, r3, #38400	; 0x9600
 8001010:	f023 030c 	bic.w	r3, r3, #12
 8001014:	4313      	orrs	r3, r2
 8001016:	60cb      	str	r3, [r1, #12]
             (uint32_t)(USART_CR1_M | USART_CR1_PCE | USART_CR1_PS | USART_CR1_TE | USART_CR1_RE | USART_CR1_OVER8),
             tmpreg);

  /*-------------------------- USART CR3 Configuration -----------------------*/
  /* Configure the UART HFC: Set CTSE and RTSE bits according to huart->Init.HwFlowCtl value */
  MODIFY_REG(huart->Instance->CR3, (USART_CR3_RTSE | USART_CR3_CTSE), huart->Init.HwFlowCtl);
 8001018:	6822      	ldr	r2, [r4, #0]
 800101a:	6953      	ldr	r3, [r2, #20]
 800101c:	f423 7340 	bic.w	r3, r3, #768	; 0x300
 8001020:	69a1      	ldr	r1, [r4, #24]
 8001022:	430b      	orrs	r3, r1
 8001024:	6153      	str	r3, [r2, #20]
    if ((huart->Instance == USART1) || (huart->Instance == USART6) || (huart->Instance == UART9) || (huart->Instance == UART10))
    {
      pclk = HAL_RCC_GetPCLK2Freq();
    }
#elif defined(USART6)
    if ((huart->Instance == USART1) || (huart->Instance == USART6))
 8001026:	6823      	ldr	r3, [r4, #0]
 8001028:	4a3c      	ldr	r2, [pc, #240]	; (800111c <UART_SetConfig+0x16c>)
 800102a:	4293      	cmp	r3, r2
 800102c:	d018      	beq.n	8001060 <UART_SetConfig+0xb0>
 800102e:	f502 6280 	add.w	r2, r2, #1024	; 0x400
 8001032:	4293      	cmp	r3, r2
 8001034:	d014      	beq.n	8001060 <UART_SetConfig+0xb0>
      pclk = HAL_RCC_GetPCLK2Freq();
    }
#endif /* USART6 */
    else
    {
      pclk = HAL_RCC_GetPCLK1Freq();
 8001036:	f000 fb8d 	bl	8001754 <HAL_RCC_GetPCLK1Freq>
 800103a:	e013      	b.n	8001064 <UART_SetConfig+0xb4>
  assert_param(IS_UART_BAUDRATE(huart->Init.BaudRate));
 800103c:	f640 6175 	movw	r1, #3701	; 0xe75
 8001040:	4835      	ldr	r0, [pc, #212]	; (8001118 <UART_SetConfig+0x168>)
 8001042:	f7ff fc07 	bl	8000854 <assert_failed>
 8001046:	e7b9      	b.n	8000fbc <UART_SetConfig+0xc>
  assert_param(IS_UART_STOPBITS(huart->Init.StopBits));
 8001048:	f640 6176 	movw	r1, #3702	; 0xe76
 800104c:	4832      	ldr	r0, [pc, #200]	; (8001118 <UART_SetConfig+0x168>)
 800104e:	f7ff fc01 	bl	8000854 <assert_failed>
 8001052:	e7b8      	b.n	8000fc6 <UART_SetConfig+0x16>
  assert_param(IS_UART_PARITY(huart->Init.Parity));
 8001054:	f640 6177 	movw	r1, #3703	; 0xe77
 8001058:	482f      	ldr	r0, [pc, #188]	; (8001118 <UART_SetConfig+0x168>)
 800105a:	f7ff fbfb 	bl	8000854 <assert_failed>
 800105e:	e7ba      	b.n	8000fd6 <UART_SetConfig+0x26>
      pclk = HAL_RCC_GetPCLK2Freq();
 8001060:	f000 fb88 	bl	8001774 <HAL_RCC_GetPCLK2Freq>
    }
  /*-------------------------- USART BRR Configuration ---------------------*/
  if (huart->Init.OverSampling == UART_OVERSAMPLING_8)
 8001064:	69e3      	ldr	r3, [r4, #28]
 8001066:	f5b3 4f00 	cmp.w	r3, #32768	; 0x8000
 800106a:	d029      	beq.n	80010c0 <UART_SetConfig+0x110>
  {
    huart->Instance->BRR = UART_BRR_SAMPLING8(pclk, huart->Init.BaudRate);
  }
  else
  {
    huart->Instance->BRR = UART_BRR_SAMPLING16(pclk, huart->Init.BaudRate);
 800106c:	2100      	movs	r1, #0
 800106e:	1803      	adds	r3, r0, r0
 8001070:	4149      	adcs	r1, r1
 8001072:	181b      	adds	r3, r3, r0
 8001074:	f141 0100 	adc.w	r1, r1, #0
 8001078:	00c9      	lsls	r1, r1, #3
 800107a:	ea41 7153 	orr.w	r1, r1, r3, lsr #29
 800107e:	00db      	lsls	r3, r3, #3
 8001080:	1818      	adds	r0, r3, r0
 8001082:	6863      	ldr	r3, [r4, #4]
 8001084:	ea4f 0283 	mov.w	r2, r3, lsl #2
 8001088:	ea4f 7393 	mov.w	r3, r3, lsr #30
 800108c:	f141 0100 	adc.w	r1, r1, #0
 8001090:	f7ff f9f6 	bl	8000480 <__aeabi_uldivmod>
 8001094:	4d22      	ldr	r5, [pc, #136]	; (8001120 <UART_SetConfig+0x170>)
 8001096:	fba5 3200 	umull	r3, r2, r5, r0
 800109a:	0951      	lsrs	r1, r2, #5
 800109c:	2364      	movs	r3, #100	; 0x64
 800109e:	fb03 0311 	mls	r3, r3, r1, r0
 80010a2:	011b      	lsls	r3, r3, #4
 80010a4:	3332      	adds	r3, #50	; 0x32
 80010a6:	fba5 2303 	umull	r2, r3, r5, r3
 80010aa:	095b      	lsrs	r3, r3, #5
 80010ac:	f003 02f0 	and.w	r2, r3, #240	; 0xf0
 80010b0:	eb02 1201 	add.w	r2, r2, r1, lsl #4
 80010b4:	f003 030f 	and.w	r3, r3, #15
 80010b8:	6821      	ldr	r1, [r4, #0]
 80010ba:	4413      	add	r3, r2
 80010bc:	608b      	str	r3, [r1, #8]
  }
}
 80010be:	bd38      	pop	{r3, r4, r5, pc}
    huart->Instance->BRR = UART_BRR_SAMPLING8(pclk, huart->Init.BaudRate);
 80010c0:	2300      	movs	r3, #0
 80010c2:	1802      	adds	r2, r0, r0
 80010c4:	eb43 0103 	adc.w	r1, r3, r3
 80010c8:	1812      	adds	r2, r2, r0
 80010ca:	f141 0100 	adc.w	r1, r1, #0
 80010ce:	00c9      	lsls	r1, r1, #3
 80010d0:	ea41 7152 	orr.w	r1, r1, r2, lsr #29
 80010d4:	00d2      	lsls	r2, r2, #3
 80010d6:	1810      	adds	r0, r2, r0
 80010d8:	f141 0100 	adc.w	r1, r1, #0
 80010dc:	6862      	ldr	r2, [r4, #4]
 80010de:	1892      	adds	r2, r2, r2
 80010e0:	415b      	adcs	r3, r3
 80010e2:	f7ff f9cd 	bl	8000480 <__aeabi_uldivmod>
 80010e6:	4d0e      	ldr	r5, [pc, #56]	; (8001120 <UART_SetConfig+0x170>)
 80010e8:	fba5 3200 	umull	r3, r2, r5, r0
 80010ec:	0951      	lsrs	r1, r2, #5
 80010ee:	2364      	movs	r3, #100	; 0x64
 80010f0:	fb03 0311 	mls	r3, r3, r1, r0
 80010f4:	00db      	lsls	r3, r3, #3
 80010f6:	3332      	adds	r3, #50	; 0x32
 80010f8:	fba5 2303 	umull	r2, r3, r5, r3
 80010fc:	095b      	lsrs	r3, r3, #5
 80010fe:	005a      	lsls	r2, r3, #1
 8001100:	f402 72f8 	and.w	r2, r2, #496	; 0x1f0
 8001104:	eb02 1201 	add.w	r2, r2, r1, lsl #4
 8001108:	f003 0307 	and.w	r3, r3, #7
 800110c:	6821      	ldr	r1, [r4, #0]
 800110e:	4413      	add	r3, r2
 8001110:	608b      	str	r3, [r1, #8]
 8001112:	e7d4      	b.n	80010be <UART_SetConfig+0x10e>
 8001114:	00a037a0 	adceq	r3, r0, r0, lsr #15
 8001118:	080034b0 	stmdaeq	r0, {r4, r5, r7, sl, ip, sp}
 800111c:	40011000 	andmi	r1, r1, r0
 8001120:	51eb851f 	mvnpl	r8, pc, lsl r5

08001124 <UART_WaitOnFlagUntilTimeout>:
{
 8001124:	e92d 43f0 	stmdb	sp!, {r4, r5, r6, r7, r8, r9, lr}
 8001128:	b083      	sub	sp, #12
 800112a:	4605      	mov	r5, r0
 800112c:	460e      	mov	r6, r1
 800112e:	4617      	mov	r7, r2
 8001130:	4699      	mov	r9, r3
 8001132:	f8dd 8028 	ldr.w	r8, [sp, #40]	; 0x28
  while ((__HAL_UART_GET_FLAG(huart, Flag) ? SET : RESET) == Status)
 8001136:	682c      	ldr	r4, [r5, #0]
 8001138:	6824      	ldr	r4, [r4, #0]
 800113a:	ea36 0304 	bics.w	r3, r6, r4
 800113e:	bf0c      	ite	eq
 8001140:	f04f 0c01 	moveq.w	ip, #1
 8001144:	f04f 0c00 	movne.w	ip, #0
 8001148:	45bc      	cmp	ip, r7
 800114a:	d128      	bne.n	800119e <UART_WaitOnFlagUntilTimeout+0x7a>
    if (Timeout != HAL_MAX_DELAY)
 800114c:	f1b8 3fff 	cmp.w	r8, #4294967295
 8001150:	d0f1      	beq.n	8001136 <UART_WaitOnFlagUntilTimeout+0x12>
      if (((HAL_GetTick() - Tickstart) > Timeout) || (Timeout == 0U))
 8001152:	f000 fda5 	bl	8001ca0 <HAL_GetTick>
 8001156:	eba0 0009 	sub.w	r0, r0, r9
 800115a:	4540      	cmp	r0, r8
 800115c:	d823      	bhi.n	80011a6 <UART_WaitOnFlagUntilTimeout+0x82>
 800115e:	f1b8 0f00 	cmp.w	r8, #0
 8001162:	d022      	beq.n	80011aa <UART_WaitOnFlagUntilTimeout+0x86>
      if ((READ_BIT(huart->Instance->CR1, USART_CR1_RE) != 0U) && (Flag != UART_FLAG_TXE) && (Flag != UART_FLAG_TC))
 8001164:	682b      	ldr	r3, [r5, #0]
 8001166:	68da      	ldr	r2, [r3, #12]
 8001168:	f012 0f04 	tst.w	r2, #4
 800116c:	d0e3      	beq.n	8001136 <UART_WaitOnFlagUntilTimeout+0x12>
 800116e:	2e80      	cmp	r6, #128	; 0x80
 8001170:	d0e1      	beq.n	8001136 <UART_WaitOnFlagUntilTimeout+0x12>
 8001172:	2e40      	cmp	r6, #64	; 0x40
 8001174:	d0df      	beq.n	8001136 <UART_WaitOnFlagUntilTimeout+0x12>
        if (__HAL_UART_GET_FLAG(huart, UART_FLAG_ORE) == SET)
 8001176:	681a      	ldr	r2, [r3, #0]
 8001178:	f012 0f08 	tst.w	r2, #8
 800117c:	d0db      	beq.n	8001136 <UART_WaitOnFlagUntilTimeout+0x12>
          __HAL_UART_CLEAR_OREFLAG(huart);
 800117e:	2400      	movs	r4, #0
 8001180:	9401      	str	r4, [sp, #4]
 8001182:	681a      	ldr	r2, [r3, #0]
 8001184:	9201      	str	r2, [sp, #4]
 8001186:	685b      	ldr	r3, [r3, #4]
 8001188:	9301      	str	r3, [sp, #4]
 800118a:	9b01      	ldr	r3, [sp, #4]
          UART_EndRxTransfer(huart);
 800118c:	4628      	mov	r0, r5
 800118e:	f7ff feb1 	bl	8000ef4 <UART_EndRxTransfer>
          huart->ErrorCode = HAL_UART_ERROR_ORE;
 8001192:	2308      	movs	r3, #8
 8001194:	646b      	str	r3, [r5, #68]	; 0x44
          __HAL_UNLOCK(huart);
 8001196:	f885 4040 	strb.w	r4, [r5, #64]	; 0x40
          return HAL_ERROR;
 800119a:	2001      	movs	r0, #1
 800119c:	e000      	b.n	80011a0 <UART_WaitOnFlagUntilTimeout+0x7c>
  return HAL_OK;
 800119e:	2000      	movs	r0, #0
}
 80011a0:	b003      	add	sp, #12
 80011a2:	e8bd 83f0 	ldmia.w	sp!, {r4, r5, r6, r7, r8, r9, pc}
        return HAL_TIMEOUT;
 80011a6:	2003      	movs	r0, #3
 80011a8:	e7fa      	b.n	80011a0 <UART_WaitOnFlagUntilTimeout+0x7c>
 80011aa:	2003      	movs	r0, #3
 80011ac:	e7f8      	b.n	80011a0 <UART_WaitOnFlagUntilTimeout+0x7c>
	...

080011b0 <HAL_UART_Init>:
  if (huart == NULL)
 80011b0:	2800      	cmp	r0, #0
 80011b2:	f000 808c 	beq.w	80012ce <HAL_UART_Init+0x11e>
{
 80011b6:	b510      	push	{r4, lr}
 80011b8:	4604      	mov	r4, r0
  if (huart->Init.HwFlowCtl != UART_HWCONTROL_NONE)
 80011ba:	6983      	ldr	r3, [r0, #24]
 80011bc:	2b00      	cmp	r3, #0
 80011be:	d056      	beq.n	800126e <HAL_UART_Init+0xbe>
    assert_param(IS_UART_HWFLOW_INSTANCE(huart->Instance));
 80011c0:	6803      	ldr	r3, [r0, #0]
 80011c2:	4a44      	ldr	r2, [pc, #272]	; (80012d4 <HAL_UART_Init+0x124>)
 80011c4:	4293      	cmp	r3, r2
 80011c6:	d010      	beq.n	80011ea <HAL_UART_Init+0x3a>
 80011c8:	f5a2 424c 	sub.w	r2, r2, #52224	; 0xcc00
 80011cc:	4293      	cmp	r3, r2
 80011ce:	d00c      	beq.n	80011ea <HAL_UART_Init+0x3a>
 80011d0:	f502 6280 	add.w	r2, r2, #1024	; 0x400
 80011d4:	4293      	cmp	r3, r2
 80011d6:	d008      	beq.n	80011ea <HAL_UART_Init+0x3a>
 80011d8:	f502 424c 	add.w	r2, r2, #52224	; 0xcc00
 80011dc:	4293      	cmp	r3, r2
 80011de:	d004      	beq.n	80011ea <HAL_UART_Init+0x3a>
 80011e0:	f240 1173 	movw	r1, #371	; 0x173
 80011e4:	483c      	ldr	r0, [pc, #240]	; (80012d8 <HAL_UART_Init+0x128>)
 80011e6:	f7ff fb35 	bl	8000854 <assert_failed>
    assert_param(IS_UART_HARDWARE_FLOW_CONTROL(huart->Init.HwFlowCtl));
 80011ea:	69a3      	ldr	r3, [r4, #24]
 80011ec:	b143      	cbz	r3, 8001200 <HAL_UART_Init+0x50>
 80011ee:	f5b3 7f80 	cmp.w	r3, #256	; 0x100
 80011f2:	d005      	beq.n	8001200 <HAL_UART_Init+0x50>
 80011f4:	f5b3 7f00 	cmp.w	r3, #512	; 0x200
 80011f8:	d002      	beq.n	8001200 <HAL_UART_Init+0x50>
 80011fa:	f5b3 7f40 	cmp.w	r3, #768	; 0x300
 80011fe:	d130      	bne.n	8001262 <HAL_UART_Init+0xb2>
  assert_param(IS_UART_WORD_LENGTH(huart->Init.WordLength));
 8001200:	68a3      	ldr	r3, [r4, #8]
 8001202:	b113      	cbz	r3, 800120a <HAL_UART_Init+0x5a>
 8001204:	f5b3 5f80 	cmp.w	r3, #4096	; 0x1000
 8001208:	d14f      	bne.n	80012aa <HAL_UART_Init+0xfa>
  assert_param(IS_UART_OVERSAMPLING(huart->Init.OverSampling));
 800120a:	69e3      	ldr	r3, [r4, #28]
 800120c:	b113      	cbz	r3, 8001214 <HAL_UART_Init+0x64>
 800120e:	f5b3 4f00 	cmp.w	r3, #32768	; 0x8000
 8001212:	d150      	bne.n	80012b6 <HAL_UART_Init+0x106>
  if (huart->gState == HAL_UART_STATE_RESET)
 8001214:	f894 3041 	ldrb.w	r3, [r4, #65]	; 0x41
 8001218:	2b00      	cmp	r3, #0
 800121a:	d052      	beq.n	80012c2 <HAL_UART_Init+0x112>
  huart->gState = HAL_UART_STATE_BUSY;
 800121c:	2324      	movs	r3, #36	; 0x24
 800121e:	f884 3041 	strb.w	r3, [r4, #65]	; 0x41
  __HAL_UART_DISABLE(huart);
 8001222:	6822      	ldr	r2, [r4, #0]
 8001224:	68d3      	ldr	r3, [r2, #12]
 8001226:	f423 5300 	bic.w	r3, r3, #8192	; 0x2000
 800122a:	60d3      	str	r3, [r2, #12]
  UART_SetConfig(huart);
 800122c:	4620      	mov	r0, r4
 800122e:	f7ff febf 	bl	8000fb0 <UART_SetConfig>
  CLEAR_BIT(huart->Instance->CR2, (USART_CR2_LINEN | USART_CR2_CLKEN));
 8001232:	6822      	ldr	r2, [r4, #0]
 8001234:	6913      	ldr	r3, [r2, #16]
 8001236:	f423 4390 	bic.w	r3, r3, #18432	; 0x4800
 800123a:	6113      	str	r3, [r2, #16]
  CLEAR_BIT(huart->Instance->CR3, (USART_CR3_SCEN | USART_CR3_HDSEL | USART_CR3_IREN));
 800123c:	6822      	ldr	r2, [r4, #0]
 800123e:	6953      	ldr	r3, [r2, #20]
 8001240:	f023 032a 	bic.w	r3, r3, #42	; 0x2a
 8001244:	6153      	str	r3, [r2, #20]
  __HAL_UART_ENABLE(huart);
 8001246:	6822      	ldr	r2, [r4, #0]
 8001248:	68d3      	ldr	r3, [r2, #12]
 800124a:	f443 5300 	orr.w	r3, r3, #8192	; 0x2000
 800124e:	60d3      	str	r3, [r2, #12]
  huart->ErrorCode = HAL_UART_ERROR_NONE;
 8001250:	2000      	movs	r0, #0
 8001252:	6460      	str	r0, [r4, #68]	; 0x44
  huart->gState = HAL_UART_STATE_READY;
 8001254:	2320      	movs	r3, #32
 8001256:	f884 3041 	strb.w	r3, [r4, #65]	; 0x41
  huart->RxState = HAL_UART_STATE_READY;
 800125a:	f884 3042 	strb.w	r3, [r4, #66]	; 0x42
  huart->RxEventType = HAL_UART_RXEVENT_TC;
 800125e:	6360      	str	r0, [r4, #52]	; 0x34
}
 8001260:	bd10      	pop	{r4, pc}
    assert_param(IS_UART_HARDWARE_FLOW_CONTROL(huart->Init.HwFlowCtl));
 8001262:	f44f 71ba 	mov.w	r1, #372	; 0x174
 8001266:	481c      	ldr	r0, [pc, #112]	; (80012d8 <HAL_UART_Init+0x128>)
 8001268:	f7ff faf4 	bl	8000854 <assert_failed>
 800126c:	e7c8      	b.n	8001200 <HAL_UART_Init+0x50>
    assert_param(IS_UART_INSTANCE(huart->Instance));
 800126e:	6803      	ldr	r3, [r0, #0]
 8001270:	4a18      	ldr	r2, [pc, #96]	; (80012d4 <HAL_UART_Init+0x124>)
 8001272:	4293      	cmp	r3, r2
 8001274:	d0c4      	beq.n	8001200 <HAL_UART_Init+0x50>
 8001276:	f5a2 424c 	sub.w	r2, r2, #52224	; 0xcc00
 800127a:	4293      	cmp	r3, r2
 800127c:	d0c0      	beq.n	8001200 <HAL_UART_Init+0x50>
 800127e:	f502 6280 	add.w	r2, r2, #1024	; 0x400
 8001282:	4293      	cmp	r3, r2
 8001284:	d0bc      	beq.n	8001200 <HAL_UART_Init+0x50>
 8001286:	f502 6280 	add.w	r2, r2, #1024	; 0x400
 800128a:	4293      	cmp	r3, r2
 800128c:	d0b8      	beq.n	8001200 <HAL_UART_Init+0x50>
 800128e:	f502 6280 	add.w	r2, r2, #1024	; 0x400
 8001292:	4293      	cmp	r3, r2
 8001294:	d0b4      	beq.n	8001200 <HAL_UART_Init+0x50>
 8001296:	f502 4244 	add.w	r2, r2, #50176	; 0xc400
 800129a:	4293      	cmp	r3, r2
 800129c:	d0b0      	beq.n	8001200 <HAL_UART_Init+0x50>
 800129e:	f44f 71bc 	mov.w	r1, #376	; 0x178
 80012a2:	480d      	ldr	r0, [pc, #52]	; (80012d8 <HAL_UART_Init+0x128>)
 80012a4:	f7ff fad6 	bl	8000854 <assert_failed>
 80012a8:	e7aa      	b.n	8001200 <HAL_UART_Init+0x50>
  assert_param(IS_UART_WORD_LENGTH(huart->Init.WordLength));
 80012aa:	f44f 71bd 	mov.w	r1, #378	; 0x17a
 80012ae:	480a      	ldr	r0, [pc, #40]	; (80012d8 <HAL_UART_Init+0x128>)
 80012b0:	f7ff fad0 	bl	8000854 <assert_failed>
 80012b4:	e7a9      	b.n	800120a <HAL_UART_Init+0x5a>
  assert_param(IS_UART_OVERSAMPLING(huart->Init.OverSampling));
 80012b6:	f240 117b 	movw	r1, #379	; 0x17b
 80012ba:	4807      	ldr	r0, [pc, #28]	; (80012d8 <HAL_UART_Init+0x128>)
 80012bc:	f7ff faca 	bl	8000854 <assert_failed>
 80012c0:	e7a8      	b.n	8001214 <HAL_UART_Init+0x64>
    huart->Lock = HAL_UNLOCKED;
 80012c2:	f884 3040 	strb.w	r3, [r4, #64]	; 0x40
    HAL_UART_MspInit(huart);
 80012c6:	4620      	mov	r0, r4
 80012c8:	f7ff fb10 	bl	80008ec <HAL_UART_MspInit>
 80012cc:	e7a6      	b.n	800121c <HAL_UART_Init+0x6c>
    return HAL_ERROR;
 80012ce:	2001      	movs	r0, #1
}
 80012d0:	4770      	bx	lr
 80012d2:	bf00      	nop
 80012d4:	40011000 	andmi	r1, r1, r0
 80012d8:	080034b0 	stmdaeq	r0, {r4, r5, r7, sl, ip, sp}

080012dc <HAL_UART_Transmit>:
{
 80012dc:	e92d 41f0 	stmdb	sp!, {r4, r5, r6, r7, r8, lr}
 80012e0:	b082      	sub	sp, #8
 80012e2:	461e      	mov	r6, r3
  if (huart->gState == HAL_UART_STATE_READY)
 80012e4:	f890 3041 	ldrb.w	r3, [r0, #65]	; 0x41
 80012e8:	b2db      	uxtb	r3, r3
 80012ea:	2b20      	cmp	r3, #32
 80012ec:	d156      	bne.n	800139c <HAL_UART_Transmit+0xc0>
 80012ee:	4604      	mov	r4, r0
 80012f0:	460d      	mov	r5, r1
 80012f2:	4690      	mov	r8, r2
    if ((pData == NULL) || (Size == 0U))
 80012f4:	2900      	cmp	r1, #0
 80012f6:	d055      	beq.n	80013a4 <HAL_UART_Transmit+0xc8>
 80012f8:	b90a      	cbnz	r2, 80012fe <HAL_UART_Transmit+0x22>
      return  HAL_ERROR;
 80012fa:	2001      	movs	r0, #1
 80012fc:	e04f      	b.n	800139e <HAL_UART_Transmit+0xc2>
    huart->ErrorCode = HAL_UART_ERROR_NONE;
 80012fe:	2300      	movs	r3, #0
 8001300:	6443      	str	r3, [r0, #68]	; 0x44
    huart->gState = HAL_UART_STATE_BUSY_TX;
 8001302:	2321      	movs	r3, #33	; 0x21
 8001304:	f880 3041 	strb.w	r3, [r0, #65]	; 0x41
    tickstart = HAL_GetTick();
 8001308:	f000 fcca 	bl	8001ca0 <HAL_GetTick>
 800130c:	4607      	mov	r7, r0
    huart->TxXferSize = Size;
 800130e:	f8a4 8024 	strh.w	r8, [r4, #36]	; 0x24
    huart->TxXferCount = Size;
 8001312:	f8a4 8026 	strh.w	r8, [r4, #38]	; 0x26
    if ((huart->Init.WordLength == UART_WORDLENGTH_9B) && (huart->Init.Parity == UART_PARITY_NONE))
 8001316:	68a3      	ldr	r3, [r4, #8]
 8001318:	f5b3 5f80 	cmp.w	r3, #4096	; 0x1000
 800131c:	d002      	beq.n	8001324 <HAL_UART_Transmit+0x48>
      pdata16bits = NULL;
 800131e:	f04f 0800 	mov.w	r8, #0
 8001322:	e014      	b.n	800134e <HAL_UART_Transmit+0x72>
    if ((huart->Init.WordLength == UART_WORDLENGTH_9B) && (huart->Init.Parity == UART_PARITY_NONE))
 8001324:	6923      	ldr	r3, [r4, #16]
 8001326:	b32b      	cbz	r3, 8001374 <HAL_UART_Transmit+0x98>
      pdata16bits = NULL;
 8001328:	f04f 0800 	mov.w	r8, #0
 800132c:	e00f      	b.n	800134e <HAL_UART_Transmit+0x72>
        huart->gState = HAL_UART_STATE_READY;
 800132e:	2320      	movs	r3, #32
 8001330:	f884 3041 	strb.w	r3, [r4, #65]	; 0x41
        return HAL_TIMEOUT;
 8001334:	2003      	movs	r0, #3
 8001336:	e032      	b.n	800139e <HAL_UART_Transmit+0xc2>
        huart->Instance->DR = (uint16_t)(*pdata16bits & 0x01FFU);
 8001338:	f838 3b02 	ldrh.w	r3, [r8], #2
 800133c:	6822      	ldr	r2, [r4, #0]
 800133e:	f3c3 0308 	ubfx	r3, r3, #0, #9
 8001342:	6053      	str	r3, [r2, #4]
      huart->TxXferCount--;
 8001344:	8ce2      	ldrh	r2, [r4, #38]	; 0x26
 8001346:	b292      	uxth	r2, r2
 8001348:	3a01      	subs	r2, #1
 800134a:	b292      	uxth	r2, r2
 800134c:	84e2      	strh	r2, [r4, #38]	; 0x26
    while (huart->TxXferCount > 0U)
 800134e:	8ce3      	ldrh	r3, [r4, #38]	; 0x26
 8001350:	b29b      	uxth	r3, r3
 8001352:	b193      	cbz	r3, 800137a <HAL_UART_Transmit+0x9e>
      if (UART_WaitOnFlagUntilTimeout(huart, UART_FLAG_TXE, RESET, tickstart, Timeout) != HAL_OK)
 8001354:	9600      	str	r6, [sp, #0]
 8001356:	463b      	mov	r3, r7
 8001358:	2200      	movs	r2, #0
 800135a:	2180      	movs	r1, #128	; 0x80
 800135c:	4620      	mov	r0, r4
 800135e:	f7ff fee1 	bl	8001124 <UART_WaitOnFlagUntilTimeout>
 8001362:	2800      	cmp	r0, #0
 8001364:	d1e3      	bne.n	800132e <HAL_UART_Transmit+0x52>
      if (pdata8bits == NULL)
 8001366:	2d00      	cmp	r5, #0
 8001368:	d0e6      	beq.n	8001338 <HAL_UART_Transmit+0x5c>
        huart->Instance->DR = (uint8_t)(*pdata8bits & 0xFFU);
 800136a:	f815 2b01 	ldrb.w	r2, [r5], #1
 800136e:	6823      	ldr	r3, [r4, #0]
 8001370:	605a      	str	r2, [r3, #4]
        pdata8bits++;
 8001372:	e7e7      	b.n	8001344 <HAL_UART_Transmit+0x68>
      pdata16bits = (const uint16_t *) pData;
 8001374:	46a8      	mov	r8, r5
      pdata8bits  = NULL;
 8001376:	2500      	movs	r5, #0
 8001378:	e7e9      	b.n	800134e <HAL_UART_Transmit+0x72>
    if (UART_WaitOnFlagUntilTimeout(huart, UART_FLAG_TC, RESET, tickstart, Timeout) != HAL_OK)
 800137a:	9600      	str	r6, [sp, #0]
 800137c:	463b      	mov	r3, r7
 800137e:	2200      	movs	r2, #0
 8001380:	2140      	movs	r1, #64	; 0x40
 8001382:	4620      	mov	r0, r4
 8001384:	f7ff fece 	bl	8001124 <UART_WaitOnFlagUntilTimeout>
 8001388:	b918      	cbnz	r0, 8001392 <HAL_UART_Transmit+0xb6>
    huart->gState = HAL_UART_STATE_READY;
 800138a:	2320      	movs	r3, #32
 800138c:	f884 3041 	strb.w	r3, [r4, #65]	; 0x41
    return HAL_OK;
 8001390:	e005      	b.n	800139e <HAL_UART_Transmit+0xc2>
      huart->gState = HAL_UART_STATE_READY;
 8001392:	2320      	movs	r3, #32
 8001394:	f884 3041 	strb.w	r3, [r4, #65]	; 0x41
      return HAL_TIMEOUT;
 8001398:	2003      	movs	r0, #3
 800139a:	e000      	b.n	800139e <HAL_UART_Transmit+0xc2>
    return HAL_BUSY;
 800139c:	2002      	movs	r0, #2
}
 800139e:	b002      	add	sp, #8
 80013a0:	e8bd 81f0 	ldmia.w	sp!, {r4, r5, r6, r7, r8, pc}
      return  HAL_ERROR;
 80013a4:	2001      	movs	r0, #1
 80013a6:	e7fa      	b.n	800139e <HAL_UART_Transmit+0xc2>

080013a8 <HAL_UART_TxCpltCallback>:
}
 80013a8:	4770      	bx	lr

080013aa <UART_EndTransmit_IT>:
{
 80013aa:	b508      	push	{r3, lr}
  __HAL_UART_DISABLE_IT(huart, UART_IT_TC);
 80013ac:	6801      	ldr	r1, [r0, #0]
 80013ae:	68ca      	ldr	r2, [r1, #12]
 80013b0:	f022 0240 	bic.w	r2, r2, #64	; 0x40
 80013b4:	60ca      	str	r2, [r1, #12]
  huart->gState = HAL_UART_STATE_READY;
 80013b6:	2220      	movs	r2, #32
 80013b8:	f880 2041 	strb.w	r2, [r0, #65]	; 0x41
  HAL_UART_TxCpltCallback(huart);
 80013bc:	f7ff fff4 	bl	80013a8 <HAL_UART_TxCpltCallback>
}
 80013c0:	2000      	movs	r0, #0
 80013c2:	bd08      	pop	{r3, pc}

080013c4 <HAL_UART_RxCpltCallback>:
}
 80013c4:	4770      	bx	lr

080013c6 <HAL_UART_ErrorCallback>:
}
 80013c6:	4770      	bx	lr

080013c8 <UART_DMAAbortOnError>:
{
 80013c8:	b508      	push	{r3, lr}
  UART_HandleTypeDef *huart = (UART_HandleTypeDef *)((DMA_HandleTypeDef *)hdma)->Parent;
 80013ca:	6b80      	ldr	r0, [r0, #56]	; 0x38
  huart->RxXferCount = 0x00U;
 80013cc:	2300      	movs	r3, #0
 80013ce:	85c3      	strh	r3, [r0, #46]	; 0x2e
  huart->TxXferCount = 0x00U;
 80013d0:	84c3      	strh	r3, [r0, #38]	; 0x26
  HAL_UART_ErrorCallback(huart);
 80013d2:	f7ff fff8 	bl	80013c6 <HAL_UART_ErrorCallback>
}
 80013d6:	bd08      	pop	{r3, pc}

080013d8 <HAL_UARTEx_RxEventCallback>:
}
 80013d8:	4770      	bx	lr

080013da <UART_Receive_IT>:
  if (huart->RxState == HAL_UART_STATE_BUSY_RX)
 80013da:	f890 3042 	ldrb.w	r3, [r0, #66]	; 0x42
 80013de:	b2db      	uxtb	r3, r3
 80013e0:	2b22      	cmp	r3, #34	; 0x22
 80013e2:	d169      	bne.n	80014b8 <UART_Receive_IT+0xde>
    if ((huart->Init.WordLength == UART_WORDLENGTH_9B) && (huart->Init.Parity == UART_PARITY_NONE))
 80013e4:	6883      	ldr	r3, [r0, #8]
 80013e6:	f5b3 5f80 	cmp.w	r3, #4096	; 0x1000
 80013ea:	d04f      	beq.n	800148c <UART_Receive_IT+0xb2>
      pdata8bits = (uint8_t *) huart->pRxBuffPtr;
 80013ec:	6a82      	ldr	r2, [r0, #40]	; 0x28
      if ((huart->Init.WordLength == UART_WORDLENGTH_9B) || ((huart->Init.WordLength == UART_WORDLENGTH_8B) && (huart->Init.Parity == UART_PARITY_NONE)))
 80013ee:	f5b3 5f80 	cmp.w	r3, #4096	; 0x1000
 80013f2:	d004      	beq.n	80013fe <UART_Receive_IT+0x24>
 80013f4:	2b00      	cmp	r3, #0
 80013f6:	d156      	bne.n	80014a6 <UART_Receive_IT+0xcc>
 80013f8:	6903      	ldr	r3, [r0, #16]
 80013fa:	2b00      	cmp	r3, #0
 80013fc:	d153      	bne.n	80014a6 <UART_Receive_IT+0xcc>
        *pdata8bits = (uint8_t)(huart->Instance->DR & (uint8_t)0x00FF);
 80013fe:	6803      	ldr	r3, [r0, #0]
 8001400:	685b      	ldr	r3, [r3, #4]
 8001402:	7013      	strb	r3, [r2, #0]
      huart->pRxBuffPtr += 1U;
 8001404:	6a83      	ldr	r3, [r0, #40]	; 0x28
 8001406:	3301      	adds	r3, #1
 8001408:	6283      	str	r3, [r0, #40]	; 0x28
    if (--huart->RxXferCount == 0U)
 800140a:	8dc3      	ldrh	r3, [r0, #46]	; 0x2e
 800140c:	b29b      	uxth	r3, r3
 800140e:	3b01      	subs	r3, #1
 8001410:	b29b      	uxth	r3, r3
 8001412:	85c3      	strh	r3, [r0, #46]	; 0x2e
 8001414:	2b00      	cmp	r3, #0
 8001416:	d151      	bne.n	80014bc <UART_Receive_IT+0xe2>
{
 8001418:	b500      	push	{lr}
 800141a:	b083      	sub	sp, #12
      __HAL_UART_DISABLE_IT(huart, UART_IT_RXNE);
 800141c:	6802      	ldr	r2, [r0, #0]
 800141e:	68d3      	ldr	r3, [r2, #12]
 8001420:	f023 0320 	bic.w	r3, r3, #32
 8001424:	60d3      	str	r3, [r2, #12]
      __HAL_UART_DISABLE_IT(huart, UART_IT_PE);
 8001426:	6802      	ldr	r2, [r0, #0]
 8001428:	68d3      	ldr	r3, [r2, #12]
 800142a:	f423 7380 	bic.w	r3, r3, #256	; 0x100
 800142e:	60d3      	str	r3, [r2, #12]
      __HAL_UART_DISABLE_IT(huart, UART_IT_ERR);
 8001430:	6802      	ldr	r2, [r0, #0]
 8001432:	6953      	ldr	r3, [r2, #20]
 8001434:	f023 0301 	bic.w	r3, r3, #1
 8001438:	6153      	str	r3, [r2, #20]
      huart->RxState = HAL_UART_STATE_READY;
 800143a:	2320      	movs	r3, #32
 800143c:	f880 3042 	strb.w	r3, [r0, #66]	; 0x42
      huart->RxEventType = HAL_UART_RXEVENT_TC;
 8001440:	2300      	movs	r3, #0
 8001442:	6343      	str	r3, [r0, #52]	; 0x34
      if (huart->ReceptionType == HAL_UART_RECEPTION_TOIDLE)
 8001444:	6b03      	ldr	r3, [r0, #48]	; 0x30
 8001446:	2b01      	cmp	r3, #1
 8001448:	d133      	bne.n	80014b2 <UART_Receive_IT+0xd8>
        huart->ReceptionType = HAL_UART_RECEPTION_STANDARD;
 800144a:	2300      	movs	r3, #0
 800144c:	6303      	str	r3, [r0, #48]	; 0x30
        ATOMIC_CLEAR_BIT(huart->Instance->CR1, USART_CR1_IDLEIE);
 800144e:	6802      	ldr	r2, [r0, #0]
   __ASM volatile ("ldrex %0, %1" : "=r" (result) : "Q" (*addr) );
 8001450:	f102 030c 	add.w	r3, r2, #12
 8001454:	e853 3f00 	ldrex	r3, [r3]
 8001458:	f023 0310 	bic.w	r3, r3, #16
   __ASM volatile ("strex %0, %2, %1" : "=&r" (result), "=Q" (*addr) : "r" (value) );
 800145c:	320c      	adds	r2, #12
 800145e:	e842 3100 	strex	r1, r3, [r2]
 8001462:	2900      	cmp	r1, #0
 8001464:	d1f3      	bne.n	800144e <UART_Receive_IT+0x74>
        if (__HAL_UART_GET_FLAG(huart, UART_FLAG_IDLE))
 8001466:	6803      	ldr	r3, [r0, #0]
 8001468:	681a      	ldr	r2, [r3, #0]
 800146a:	f012 0f10 	tst.w	r2, #16
 800146e:	d006      	beq.n	800147e <UART_Receive_IT+0xa4>
          __HAL_UART_CLEAR_IDLEFLAG(huart);
 8001470:	2200      	movs	r2, #0
 8001472:	9201      	str	r2, [sp, #4]
 8001474:	681a      	ldr	r2, [r3, #0]
 8001476:	9201      	str	r2, [sp, #4]
 8001478:	685b      	ldr	r3, [r3, #4]
 800147a:	9301      	str	r3, [sp, #4]
 800147c:	9b01      	ldr	r3, [sp, #4]
        HAL_UARTEx_RxEventCallback(huart, huart->RxXferSize);
 800147e:	8d81      	ldrh	r1, [r0, #44]	; 0x2c
 8001480:	f7ff ffaa 	bl	80013d8 <HAL_UARTEx_RxEventCallback>
      return HAL_OK;
 8001484:	2000      	movs	r0, #0
}
 8001486:	b003      	add	sp, #12
 8001488:	f85d fb04 	ldr.w	pc, [sp], #4
    if ((huart->Init.WordLength == UART_WORDLENGTH_9B) && (huart->Init.Parity == UART_PARITY_NONE))
 800148c:	6902      	ldr	r2, [r0, #16]
 800148e:	2a00      	cmp	r2, #0
 8001490:	d1ac      	bne.n	80013ec <UART_Receive_IT+0x12>
      pdata16bits = (uint16_t *) huart->pRxBuffPtr;
 8001492:	6a82      	ldr	r2, [r0, #40]	; 0x28
      *pdata16bits = (uint16_t)(huart->Instance->DR & (uint16_t)0x01FF);
 8001494:	6803      	ldr	r3, [r0, #0]
 8001496:	685b      	ldr	r3, [r3, #4]
 8001498:	f3c3 0308 	ubfx	r3, r3, #0, #9
 800149c:	8013      	strh	r3, [r2, #0]
      huart->pRxBuffPtr += 2U;
 800149e:	6a83      	ldr	r3, [r0, #40]	; 0x28
 80014a0:	3302      	adds	r3, #2
 80014a2:	6283      	str	r3, [r0, #40]	; 0x28
 80014a4:	e7b1      	b.n	800140a <UART_Receive_IT+0x30>
        *pdata8bits = (uint8_t)(huart->Instance->DR & (uint8_t)0x007F);
 80014a6:	6803      	ldr	r3, [r0, #0]
 80014a8:	685b      	ldr	r3, [r3, #4]
 80014aa:	f003 037f 	and.w	r3, r3, #127	; 0x7f
 80014ae:	7013      	strb	r3, [r2, #0]
 80014b0:	e7a8      	b.n	8001404 <UART_Receive_IT+0x2a>
        HAL_UART_RxCpltCallback(huart);
 80014b2:	f7ff ff87 	bl	80013c4 <HAL_UART_RxCpltCallback>
 80014b6:	e7e5      	b.n	8001484 <UART_Receive_IT+0xaa>
    return HAL_BUSY;
 80014b8:	2002      	movs	r0, #2
 80014ba:	4770      	bx	lr
    return HAL_OK;
 80014bc:	2000      	movs	r0, #0
}
 80014be:	4770      	bx	lr

080014c0 <HAL_UART_IRQHandler>:
{
 80014c0:	b530      	push	{r4, r5, lr}
 80014c2:	b083      	sub	sp, #12
 80014c4:	4604      	mov	r4, r0
  uint32_t isrflags   = READ_REG(huart->Instance->SR);
 80014c6:	6802      	ldr	r2, [r0, #0]
 80014c8:	6813      	ldr	r3, [r2, #0]
  uint32_t cr1its     = READ_REG(huart->Instance->CR1);
 80014ca:	68d0      	ldr	r0, [r2, #12]
  uint32_t cr3its     = READ_REG(huart->Instance->CR3);
 80014cc:	6951      	ldr	r1, [r2, #20]
  if (errorflags == RESET)
 80014ce:	f013 050f 	ands.w	r5, r3, #15
 80014d2:	d105      	bne.n	80014e0 <HAL_UART_IRQHandler+0x20>
    if (((isrflags & USART_SR_RXNE) != RESET) && ((cr1its & USART_CR1_RXNEIE) != RESET))
 80014d4:	f013 0f20 	tst.w	r3, #32
 80014d8:	d002      	beq.n	80014e0 <HAL_UART_IRQHandler+0x20>
 80014da:	f010 0f20 	tst.w	r0, #32
 80014de:	d119      	bne.n	8001514 <HAL_UART_IRQHandler+0x54>
  if ((errorflags != RESET) && (((cr3its & USART_CR3_EIE) != RESET)
 80014e0:	b12d      	cbz	r5, 80014ee <HAL_UART_IRQHandler+0x2e>
 80014e2:	f011 0101 	ands.w	r1, r1, #1
 80014e6:	d119      	bne.n	800151c <HAL_UART_IRQHandler+0x5c>
                                || ((cr1its & (USART_CR1_RXNEIE | USART_CR1_PEIE)) != RESET)))
 80014e8:	f410 7f90 	tst.w	r0, #288	; 0x120
 80014ec:	d116      	bne.n	800151c <HAL_UART_IRQHandler+0x5c>
  if ((huart->ReceptionType == HAL_UART_RECEPTION_TOIDLE)
 80014ee:	6b21      	ldr	r1, [r4, #48]	; 0x30
 80014f0:	2901      	cmp	r1, #1
 80014f2:	d07d      	beq.n	80015f0 <HAL_UART_IRQHandler+0x130>
  if (((isrflags & USART_SR_TXE) != RESET) && ((cr1its & USART_CR1_TXEIE) != RESET))
 80014f4:	f013 0f80 	tst.w	r3, #128	; 0x80
 80014f8:	d003      	beq.n	8001502 <HAL_UART_IRQHandler+0x42>
 80014fa:	f010 0f80 	tst.w	r0, #128	; 0x80
 80014fe:	f040 8119 	bne.w	8001734 <HAL_UART_IRQHandler+0x274>
  if (((isrflags & USART_SR_TC) != RESET) && ((cr1its & USART_CR1_TCIE) != RESET))
 8001502:	f013 0f40 	tst.w	r3, #64	; 0x40
 8001506:	d003      	beq.n	8001510 <HAL_UART_IRQHandler+0x50>
 8001508:	f010 0f40 	tst.w	r0, #64	; 0x40
 800150c:	f040 8116 	bne.w	800173c <HAL_UART_IRQHandler+0x27c>
}
 8001510:	b003      	add	sp, #12
 8001512:	bd30      	pop	{r4, r5, pc}
      UART_Receive_IT(huart);
 8001514:	4620      	mov	r0, r4
 8001516:	f7ff ff60 	bl	80013da <UART_Receive_IT>
      return;
 800151a:	e7f9      	b.n	8001510 <HAL_UART_IRQHandler+0x50>
    if (((isrflags & USART_SR_PE) != RESET) && ((cr1its & USART_CR1_PEIE) != RESET))
 800151c:	f013 0f01 	tst.w	r3, #1
 8001520:	d006      	beq.n	8001530 <HAL_UART_IRQHandler+0x70>
 8001522:	f410 7f80 	tst.w	r0, #256	; 0x100
 8001526:	d003      	beq.n	8001530 <HAL_UART_IRQHandler+0x70>
      huart->ErrorCode |= HAL_UART_ERROR_PE;
 8001528:	6c62      	ldr	r2, [r4, #68]	; 0x44
 800152a:	f042 0201 	orr.w	r2, r2, #1
 800152e:	6462      	str	r2, [r4, #68]	; 0x44
    if (((isrflags & USART_SR_NE) != RESET) && ((cr3its & USART_CR3_EIE) != RESET))
 8001530:	f013 0f04 	tst.w	r3, #4
 8001534:	d004      	beq.n	8001540 <HAL_UART_IRQHandler+0x80>
 8001536:	b119      	cbz	r1, 8001540 <HAL_UART_IRQHandler+0x80>
      huart->ErrorCode |= HAL_UART_ERROR_NE;
 8001538:	6c62      	ldr	r2, [r4, #68]	; 0x44
 800153a:	f042 0202 	orr.w	r2, r2, #2
 800153e:	6462      	str	r2, [r4, #68]	; 0x44
    if (((isrflags & USART_SR_FE) != RESET) && ((cr3its & USART_CR3_EIE) != RESET))
 8001540:	f013 0f02 	tst.w	r3, #2
 8001544:	d004      	beq.n	8001550 <HAL_UART_IRQHandler+0x90>
 8001546:	b119      	cbz	r1, 8001550 <HAL_UART_IRQHandler+0x90>
      huart->ErrorCode |= HAL_UART_ERROR_FE;
 8001548:	6c62      	ldr	r2, [r4, #68]	; 0x44
 800154a:	f042 0204 	orr.w	r2, r2, #4
 800154e:	6462      	str	r2, [r4, #68]	; 0x44
    if (((isrflags & USART_SR_ORE) != RESET) && (((cr1its & USART_CR1_RXNEIE) != RESET)
 8001550:	f013 0f08 	tst.w	r3, #8
 8001554:	d007      	beq.n	8001566 <HAL_UART_IRQHandler+0xa6>
 8001556:	f010 0f20 	tst.w	r0, #32
 800155a:	d100      	bne.n	800155e <HAL_UART_IRQHandler+0x9e>
                                                 || ((cr3its & USART_CR3_EIE) != RESET)))
 800155c:	b119      	cbz	r1, 8001566 <HAL_UART_IRQHandler+0xa6>
      huart->ErrorCode |= HAL_UART_ERROR_ORE;
 800155e:	6c62      	ldr	r2, [r4, #68]	; 0x44
 8001560:	f042 0208 	orr.w	r2, r2, #8
 8001564:	6462      	str	r2, [r4, #68]	; 0x44
    if (huart->ErrorCode != HAL_UART_ERROR_NONE)
 8001566:	6c62      	ldr	r2, [r4, #68]	; 0x44
 8001568:	2a00      	cmp	r2, #0
 800156a:	d0d1      	beq.n	8001510 <HAL_UART_IRQHandler+0x50>
      if (((isrflags & USART_SR_RXNE) != RESET) && ((cr1its & USART_CR1_RXNEIE) != RESET))
 800156c:	f013 0f20 	tst.w	r3, #32
 8001570:	d002      	beq.n	8001578 <HAL_UART_IRQHandler+0xb8>
 8001572:	f010 0f20 	tst.w	r0, #32
 8001576:	d129      	bne.n	80015cc <HAL_UART_IRQHandler+0x10c>
      dmarequest = HAL_IS_BIT_SET(huart->Instance->CR3, USART_CR3_DMAR);
 8001578:	6823      	ldr	r3, [r4, #0]
 800157a:	695b      	ldr	r3, [r3, #20]
 800157c:	f003 0340 	and.w	r3, r3, #64	; 0x40
      if (((huart->ErrorCode & HAL_UART_ERROR_ORE) != RESET) || dmarequest)
 8001580:	6c62      	ldr	r2, [r4, #68]	; 0x44
 8001582:	f012 0f08 	tst.w	r2, #8
 8001586:	d100      	bne.n	800158a <HAL_UART_IRQHandler+0xca>
 8001588:	b363      	cbz	r3, 80015e4 <HAL_UART_IRQHandler+0x124>
        UART_EndRxTransfer(huart);
 800158a:	4620      	mov	r0, r4
 800158c:	f7ff fcb2 	bl	8000ef4 <UART_EndRxTransfer>
        if (HAL_IS_BIT_SET(huart->Instance->CR3, USART_CR3_DMAR))
 8001590:	6823      	ldr	r3, [r4, #0]
 8001592:	695b      	ldr	r3, [r3, #20]
 8001594:	f013 0f40 	tst.w	r3, #64	; 0x40
 8001598:	d020      	beq.n	80015dc <HAL_UART_IRQHandler+0x11c>
          ATOMIC_CLEAR_BIT(huart->Instance->CR3, USART_CR3_DMAR);
 800159a:	6822      	ldr	r2, [r4, #0]
   __ASM volatile ("ldrex %0, %1" : "=r" (result) : "Q" (*addr) );
 800159c:	f102 0314 	add.w	r3, r2, #20
 80015a0:	e853 3f00 	ldrex	r3, [r3]
 80015a4:	f023 0340 	bic.w	r3, r3, #64	; 0x40
   __ASM volatile ("strex %0, %2, %1" : "=&r" (result), "=Q" (*addr) : "r" (value) );
 80015a8:	3214      	adds	r2, #20
 80015aa:	e842 3100 	strex	r1, r3, [r2]
 80015ae:	2900      	cmp	r1, #0
 80015b0:	d1f3      	bne.n	800159a <HAL_UART_IRQHandler+0xda>
          if (huart->hdmarx != NULL)
 80015b2:	6be3      	ldr	r3, [r4, #60]	; 0x3c
 80015b4:	b173      	cbz	r3, 80015d4 <HAL_UART_IRQHandler+0x114>
            huart->hdmarx->XferAbortCallback = UART_DMAAbortOnError;
 80015b6:	4a63      	ldr	r2, [pc, #396]	; (8001744 <HAL_UART_IRQHandler+0x284>)
 80015b8:	651a      	str	r2, [r3, #80]	; 0x50
            if (HAL_DMA_Abort_IT(huart->hdmarx) != HAL_OK)
 80015ba:	6be0      	ldr	r0, [r4, #60]	; 0x3c
 80015bc:	f000 fac6 	bl	8001b4c <HAL_DMA_Abort_IT>
 80015c0:	2800      	cmp	r0, #0
 80015c2:	d0a5      	beq.n	8001510 <HAL_UART_IRQHandler+0x50>
              huart->hdmarx->XferAbortCallback(huart->hdmarx);
 80015c4:	6be0      	ldr	r0, [r4, #60]	; 0x3c
 80015c6:	6d03      	ldr	r3, [r0, #80]	; 0x50
 80015c8:	4798      	blx	r3
 80015ca:	e7a1      	b.n	8001510 <HAL_UART_IRQHandler+0x50>
        UART_Receive_IT(huart);
 80015cc:	4620      	mov	r0, r4
 80015ce:	f7ff ff04 	bl	80013da <UART_Receive_IT>
 80015d2:	e7d1      	b.n	8001578 <HAL_UART_IRQHandler+0xb8>
            HAL_UART_ErrorCallback(huart);
 80015d4:	4620      	mov	r0, r4
 80015d6:	f7ff fef6 	bl	80013c6 <HAL_UART_ErrorCallback>
 80015da:	e799      	b.n	8001510 <HAL_UART_IRQHandler+0x50>
          HAL_UART_ErrorCallback(huart);
 80015dc:	4620      	mov	r0, r4
 80015de:	f7ff fef2 	bl	80013c6 <HAL_UART_ErrorCallback>
 80015e2:	e795      	b.n	8001510 <HAL_UART_IRQHandler+0x50>
        HAL_UART_ErrorCallback(huart);
 80015e4:	4620      	mov	r0, r4
 80015e6:	f7ff feee 	bl	80013c6 <HAL_UART_ErrorCallback>
        huart->ErrorCode = HAL_UART_ERROR_NONE;
 80015ea:	2300      	movs	r3, #0
 80015ec:	6463      	str	r3, [r4, #68]	; 0x44
    return;
 80015ee:	e78f      	b.n	8001510 <HAL_UART_IRQHandler+0x50>
      && ((isrflags & USART_SR_IDLE) != 0U)
 80015f0:	f013 0f10 	tst.w	r3, #16
 80015f4:	f43f af7e 	beq.w	80014f4 <HAL_UART_IRQHandler+0x34>
      && ((cr1its & USART_SR_IDLE) != 0U))
 80015f8:	f010 0f10 	tst.w	r0, #16
 80015fc:	f43f af7a 	beq.w	80014f4 <HAL_UART_IRQHandler+0x34>
    __HAL_UART_CLEAR_IDLEFLAG(huart);
 8001600:	2300      	movs	r3, #0
 8001602:	9301      	str	r3, [sp, #4]
 8001604:	6813      	ldr	r3, [r2, #0]
 8001606:	9301      	str	r3, [sp, #4]
 8001608:	6853      	ldr	r3, [r2, #4]
 800160a:	9301      	str	r3, [sp, #4]
 800160c:	9b01      	ldr	r3, [sp, #4]
    if (HAL_IS_BIT_SET(huart->Instance->CR3, USART_CR3_DMAR))
 800160e:	6953      	ldr	r3, [r2, #20]
 8001610:	f013 0f40 	tst.w	r3, #64	; 0x40
 8001614:	d052      	beq.n	80016bc <HAL_UART_IRQHandler+0x1fc>
      uint16_t nb_remaining_rx_data = (uint16_t) __HAL_DMA_GET_COUNTER(huart->hdmarx);
 8001616:	6be2      	ldr	r2, [r4, #60]	; 0x3c
 8001618:	6813      	ldr	r3, [r2, #0]
 800161a:	685b      	ldr	r3, [r3, #4]
 800161c:	b29b      	uxth	r3, r3
      if ((nb_remaining_rx_data > 0U)
 800161e:	2b00      	cmp	r3, #0
 8001620:	f43f af76 	beq.w	8001510 <HAL_UART_IRQHandler+0x50>
          && (nb_remaining_rx_data < huart->RxXferSize))
 8001624:	8da1      	ldrh	r1, [r4, #44]	; 0x2c
 8001626:	4299      	cmp	r1, r3
 8001628:	f67f af72 	bls.w	8001510 <HAL_UART_IRQHandler+0x50>
        huart->RxXferCount = nb_remaining_rx_data;
 800162c:	85e3      	strh	r3, [r4, #46]	; 0x2e
        if (huart->hdmarx->Init.Mode != DMA_CIRCULAR)
 800162e:	69d3      	ldr	r3, [r2, #28]
 8001630:	f5b3 7f80 	cmp.w	r3, #256	; 0x100
 8001634:	d037      	beq.n	80016a6 <HAL_UART_IRQHandler+0x1e6>
          ATOMIC_CLEAR_BIT(huart->Instance->CR1, USART_CR1_PEIE);
 8001636:	6822      	ldr	r2, [r4, #0]
   __ASM volatile ("ldrex %0, %1" : "=r" (result) : "Q" (*addr) );
 8001638:	f102 030c 	add.w	r3, r2, #12
 800163c:	e853 3f00 	ldrex	r3, [r3]
 8001640:	f423 7380 	bic.w	r3, r3, #256	; 0x100
   __ASM volatile ("strex %0, %2, %1" : "=&r" (result), "=Q" (*addr) : "r" (value) );
 8001644:	320c      	adds	r2, #12
 8001646:	e842 3100 	strex	r1, r3, [r2]
 800164a:	2900      	cmp	r1, #0
 800164c:	d1f3      	bne.n	8001636 <HAL_UART_IRQHandler+0x176>
          ATOMIC_CLEAR_BIT(huart->Instance->CR3, USART_CR3_EIE);
 800164e:	6822      	ldr	r2, [r4, #0]
   __ASM volatile ("ldrex %0, %1" : "=r" (result) : "Q" (*addr) );
 8001650:	f102 0314 	add.w	r3, r2, #20
 8001654:	e853 3f00 	ldrex	r3, [r3]
 8001658:	f023 0301 	bic.w	r3, r3, #1
   __ASM volatile ("strex %0, %2, %1" : "=&r" (result), "=Q" (*addr) : "r" (value) );
 800165c:	3214      	adds	r2, #20
 800165e:	e842 3100 	strex	r1, r3, [r2]
 8001662:	2900      	cmp	r1, #0
 8001664:	d1f3      	bne.n	800164e <HAL_UART_IRQHandler+0x18e>
          ATOMIC_CLEAR_BIT(huart->Instance->CR3, USART_CR3_DMAR);
 8001666:	6822      	ldr	r2, [r4, #0]
   __ASM volatile ("ldrex %0, %1" : "=r" (result) : "Q" (*addr) );
 8001668:	f102 0314 	add.w	r3, r2, #20
 800166c:	e853 3f00 	ldrex	r3, [r3]
 8001670:	f023 0340 	bic.w	r3, r3, #64	; 0x40
   __ASM volatile ("strex %0, %2, %1" : "=&r" (result), "=Q" (*addr) : "r" (value) );
 8001674:	3214      	adds	r2, #20
 8001676:	e842 3100 	strex	r1, r3, [r2]
 800167a:	2900      	cmp	r1, #0
 800167c:	d1f3      	bne.n	8001666 <HAL_UART_IRQHandler+0x1a6>
          huart->RxState = HAL_UART_STATE_READY;
 800167e:	2320      	movs	r3, #32
 8001680:	f884 3042 	strb.w	r3, [r4, #66]	; 0x42
          huart->ReceptionType = HAL_UART_RECEPTION_STANDARD;
 8001684:	2300      	movs	r3, #0
 8001686:	6323      	str	r3, [r4, #48]	; 0x30
          ATOMIC_CLEAR_BIT(huart->Instance->CR1, USART_CR1_IDLEIE);
 8001688:	6822      	ldr	r2, [r4, #0]
   __ASM volatile ("ldrex %0, %1" : "=r" (result) : "Q" (*addr) );
 800168a:	f102 030c 	add.w	r3, r2, #12
 800168e:	e853 3f00 	ldrex	r3, [r3]
 8001692:	f023 0310 	bic.w	r3, r3, #16
   __ASM volatile ("strex %0, %2, %1" : "=&r" (result), "=Q" (*addr) : "r" (value) );
 8001696:	320c      	adds	r2, #12
 8001698:	e842 3100 	strex	r1, r3, [r2]
 800169c:	2900      	cmp	r1, #0
 800169e:	d1f3      	bne.n	8001688 <HAL_UART_IRQHandler+0x1c8>
          (void)HAL_DMA_Abort(huart->hdmarx);
 80016a0:	6be0      	ldr	r0, [r4, #60]	; 0x3c
 80016a2:	f000 fa09 	bl	8001ab8 <HAL_DMA_Abort>
        huart->RxEventType = HAL_UART_RXEVENT_IDLE;
 80016a6:	2302      	movs	r3, #2
 80016a8:	6363      	str	r3, [r4, #52]	; 0x34
        HAL_UARTEx_RxEventCallback(huart, (huart->RxXferSize - huart->RxXferCount));
 80016aa:	8da1      	ldrh	r1, [r4, #44]	; 0x2c
 80016ac:	8de3      	ldrh	r3, [r4, #46]	; 0x2e
 80016ae:	b29b      	uxth	r3, r3
 80016b0:	1ac9      	subs	r1, r1, r3
 80016b2:	b289      	uxth	r1, r1
 80016b4:	4620      	mov	r0, r4
 80016b6:	f7ff fe8f 	bl	80013d8 <HAL_UARTEx_RxEventCallback>
      return;
 80016ba:	e729      	b.n	8001510 <HAL_UART_IRQHandler+0x50>
      uint16_t nb_rx_data = huart->RxXferSize - huart->RxXferCount;
 80016bc:	8da1      	ldrh	r1, [r4, #44]	; 0x2c
 80016be:	8de3      	ldrh	r3, [r4, #46]	; 0x2e
 80016c0:	b29b      	uxth	r3, r3
 80016c2:	1ac9      	subs	r1, r1, r3
 80016c4:	b289      	uxth	r1, r1
      if ((huart->RxXferCount > 0U)
 80016c6:	8de3      	ldrh	r3, [r4, #46]	; 0x2e
 80016c8:	b29b      	uxth	r3, r3
 80016ca:	2b00      	cmp	r3, #0
 80016cc:	f43f af20 	beq.w	8001510 <HAL_UART_IRQHandler+0x50>
          && (nb_rx_data > 0U))
 80016d0:	2900      	cmp	r1, #0
 80016d2:	f43f af1d 	beq.w	8001510 <HAL_UART_IRQHandler+0x50>
        ATOMIC_CLEAR_BIT(huart->Instance->CR1, (USART_CR1_RXNEIE | USART_CR1_PEIE));
 80016d6:	6822      	ldr	r2, [r4, #0]
   __ASM volatile ("ldrex %0, %1" : "=r" (result) : "Q" (*addr) );
 80016d8:	f102 030c 	add.w	r3, r2, #12
 80016dc:	e853 3f00 	ldrex	r3, [r3]
 80016e0:	f423 7390 	bic.w	r3, r3, #288	; 0x120
   __ASM volatile ("strex %0, %2, %1" : "=&r" (result), "=Q" (*addr) : "r" (value) );
 80016e4:	320c      	adds	r2, #12
 80016e6:	e842 3000 	strex	r0, r3, [r2]
 80016ea:	2800      	cmp	r0, #0
 80016ec:	d1f3      	bne.n	80016d6 <HAL_UART_IRQHandler+0x216>
        ATOMIC_CLEAR_BIT(huart->Instance->CR3, USART_CR3_EIE);
 80016ee:	6822      	ldr	r2, [r4, #0]
   __ASM volatile ("ldrex %0, %1" : "=r" (result) : "Q" (*addr) );
 80016f0:	f102 0314 	add.w	r3, r2, #20
 80016f4:	e853 3f00 	ldrex	r3, [r3]
 80016f8:	f023 0301 	bic.w	r3, r3, #1
   __ASM volatile ("strex %0, %2, %1" : "=&r" (result), "=Q" (*addr) : "r" (value) );
 80016fc:	3214      	adds	r2, #20
 80016fe:	e842 3000 	strex	r0, r3, [r2]
 8001702:	2800      	cmp	r0, #0
 8001704:	d1f3      	bne.n	80016ee <HAL_UART_IRQHandler+0x22e>
        huart->RxState = HAL_UART_STATE_READY;
 8001706:	2320      	movs	r3, #32
 8001708:	f884 3042 	strb.w	r3, [r4, #66]	; 0x42
        huart->ReceptionType = HAL_UART_RECEPTION_STANDARD;
 800170c:	2300      	movs	r3, #0
 800170e:	6323      	str	r3, [r4, #48]	; 0x30
        ATOMIC_CLEAR_BIT(huart->Instance->CR1, USART_CR1_IDLEIE);
 8001710:	6822      	ldr	r2, [r4, #0]
   __ASM volatile ("ldrex %0, %1" : "=r" (result) : "Q" (*addr) );
 8001712:	f102 030c 	add.w	r3, r2, #12
 8001716:	e853 3f00 	ldrex	r3, [r3]
 800171a:	f023 0310 	bic.w	r3, r3, #16
   __ASM volatile ("strex %0, %2, %1" : "=&r" (result), "=Q" (*addr) : "r" (value) );
 800171e:	320c      	adds	r2, #12
 8001720:	e842 3000 	strex	r0, r3, [r2]
 8001724:	2800      	cmp	r0, #0
 8001726:	d1f3      	bne.n	8001710 <HAL_UART_IRQHandler+0x250>
        huart->RxEventType = HAL_UART_RXEVENT_IDLE;
 8001728:	2302      	movs	r3, #2
 800172a:	6363      	str	r3, [r4, #52]	; 0x34
        HAL_UARTEx_RxEventCallback(huart, nb_rx_data);
 800172c:	4620      	mov	r0, r4
 800172e:	f7ff fe53 	bl	80013d8 <HAL_UARTEx_RxEventCallback>
      return;
 8001732:	e6ed      	b.n	8001510 <HAL_UART_IRQHandler+0x50>
    UART_Transmit_IT(huart);
 8001734:	4620      	mov	r0, r4
 8001736:	f7ff fc0b 	bl	8000f50 <UART_Transmit_IT>
    return;
 800173a:	e6e9      	b.n	8001510 <HAL_UART_IRQHandler+0x50>
    UART_EndTransmit_IT(huart);
 800173c:	4620      	mov	r0, r4
 800173e:	f7ff fe34 	bl	80013aa <UART_EndTransmit_IT>
    return;
 8001742:	e6e5      	b.n	8001510 <HAL_UART_IRQHandler+0x50>
 8001744:	080013c9 	stmdaeq	r0, {r0, r3, r6, r7, r8, r9, ip}

08001748 <HAL_RCC_GetHCLKFreq>:
  * @retval HCLK frequency
  */
uint32_t HAL_RCC_GetHCLKFreq(void)
{
  return SystemCoreClock;
}
 8001748:	4b01      	ldr	r3, [pc, #4]	; (8001750 <HAL_RCC_GetHCLKFreq+0x8>)
 800174a:	6818      	ldr	r0, [r3, #0]
 800174c:	4770      	bx	lr
 800174e:	bf00      	nop
 8001750:	20000008 	andcs	r0, r0, r8

08001754 <HAL_RCC_GetPCLK1Freq>:
  * @note   Each time PCLK1 changes, this function must be called to update the
  *         right PCLK1 value. Otherwise, any configuration based on this function will be incorrect.
  * @retval PCLK1 frequency
  */
uint32_t HAL_RCC_GetPCLK1Freq(void)
{
 8001754:	b508      	push	{r3, lr}
  /* Get HCLK source and Compute PCLK1 frequency ---------------------------*/
  return (HAL_RCC_GetHCLKFreq() >> APBPrescTable[(RCC->CFGR & RCC_CFGR_PPRE1)>> RCC_CFGR_PPRE1_Pos]);
 8001756:	f7ff fff7 	bl	8001748 <HAL_RCC_GetHCLKFreq>
 800175a:	4b04      	ldr	r3, [pc, #16]	; (800176c <HAL_RCC_GetPCLK1Freq+0x18>)
 800175c:	689b      	ldr	r3, [r3, #8]
 800175e:	f3c3 2382 	ubfx	r3, r3, #10, #3
 8001762:	4a03      	ldr	r2, [pc, #12]	; (8001770 <HAL_RCC_GetPCLK1Freq+0x1c>)
 8001764:	5cd3      	ldrb	r3, [r2, r3]
}
 8001766:	40d8      	lsrs	r0, r3
 8001768:	bd08      	pop	{r3, pc}
 800176a:	bf00      	nop
 800176c:	40023800 	andmi	r3, r2, r0, lsl #16
 8001770:	08003564 	stmdaeq	r0, {r2, r5, r6, r8, sl, ip, sp}

08001774 <HAL_RCC_GetPCLK2Freq>:
  * @note   Each time PCLK2 changes, this function must be called to update the
  *         right PCLK2 value. Otherwise, any configuration based on this function will be incorrect.
  * @retval PCLK2 frequency
  */
uint32_t HAL_RCC_GetPCLK2Freq(void)
{
 8001774:	b508      	push	{r3, lr}
  /* Get HCLK source and Compute PCLK2 frequency ---------------------------*/
  return (HAL_RCC_GetHCLKFreq()>> APBPrescTable[(RCC->CFGR & RCC_CFGR_PPRE2)>> RCC_CFGR_PPRE2_Pos]);
 8001776:	f7ff ffe7 	bl	8001748 <HAL_RCC_GetHCLKFreq>
 800177a:	4b04      	ldr	r3, [pc, #16]	; (800178c <HAL_RCC_GetPCLK2Freq+0x18>)
 800177c:	689b      	ldr	r3, [r3, #8]
 800177e:	f3c3 3342 	ubfx	r3, r3, #13, #3
 8001782:	4a03      	ldr	r2, [pc, #12]	; (8001790 <HAL_RCC_GetPCLK2Freq+0x1c>)
 8001784:	5cd3      	ldrb	r3, [r2, r3]
}
 8001786:	40d8      	lsrs	r0, r3
 8001788:	bd08      	pop	{r3, pc}
 800178a:	bf00      	nop
 800178c:	40023800 	andmi	r3, r2, r0, lsl #16
 8001790:	08003564 	stmdaeq	r0, {r2, r5, r6, r8, sl, ip, sp}

08001794 <HAL_RCC_GetClockConfig>:
  * @retval None
  */
void HAL_RCC_GetClockConfig(RCC_ClkInitTypeDef  *RCC_ClkInitStruct, uint32_t *pFLatency)
{
  /* Set all possible values for the Clock type parameter --------------------*/
  RCC_ClkInitStruct->ClockType = RCC_CLOCKTYPE_SYSCLK | RCC_CLOCKTYPE_HCLK | RCC_CLOCKTYPE_PCLK1 | RCC_CLOCKTYPE_PCLK2;
 8001794:	230f      	movs	r3, #15
 8001796:	6003      	str	r3, [r0, #0]

  /* Get the SYSCLK configuration --------------------------------------------*/
  RCC_ClkInitStruct->SYSCLKSource = (uint32_t)(RCC->CFGR & RCC_CFGR_SW);
 8001798:	4b0b      	ldr	r3, [pc, #44]	; (80017c8 <HAL_RCC_GetClockConfig+0x34>)
 800179a:	689a      	ldr	r2, [r3, #8]
 800179c:	f002 0203 	and.w	r2, r2, #3
 80017a0:	6042      	str	r2, [r0, #4]

  /* Get the HCLK configuration ----------------------------------------------*/
  RCC_ClkInitStruct->AHBCLKDivider = (uint32_t)(RCC->CFGR & RCC_CFGR_HPRE);
 80017a2:	689a      	ldr	r2, [r3, #8]
 80017a4:	f002 02f0 	and.w	r2, r2, #240	; 0xf0
 80017a8:	6082      	str	r2, [r0, #8]

  /* Get the APB1 configuration ----------------------------------------------*/
  RCC_ClkInitStruct->APB1CLKDivider = (uint32_t)(RCC->CFGR & RCC_CFGR_PPRE1);
 80017aa:	689a      	ldr	r2, [r3, #8]
 80017ac:	f402 52e0 	and.w	r2, r2, #7168	; 0x1c00
 80017b0:	60c2      	str	r2, [r0, #12]

  /* Get the APB2 configuration ----------------------------------------------*/
  RCC_ClkInitStruct->APB2CLKDivider = (uint32_t)((RCC->CFGR & RCC_CFGR_PPRE2) >> 3U);
 80017b2:	689b      	ldr	r3, [r3, #8]
 80017b4:	08db      	lsrs	r3, r3, #3
 80017b6:	f403 53e0 	and.w	r3, r3, #7168	; 0x1c00
 80017ba:	6103      	str	r3, [r0, #16]

  /* Get the Flash Wait State (Latency) configuration ------------------------*/
  *pFLatency = (uint32_t)(FLASH->ACR & FLASH_ACR_LATENCY);
 80017bc:	4b03      	ldr	r3, [pc, #12]	; (80017cc <HAL_RCC_GetClockConfig+0x38>)
 80017be:	681b      	ldr	r3, [r3, #0]
 80017c0:	f003 0307 	and.w	r3, r3, #7
 80017c4:	600b      	str	r3, [r1, #0]
}
 80017c6:	4770      	bx	lr
 80017c8:	40023800 	andmi	r3, r2, r0, lsl #16
 80017cc:	40023c00 	andmi	r3, r2, r0, lsl #24

080017d0 <HAL_GPIO_Init>:
  * @param  GPIO_Init pointer to a GPIO_InitTypeDef structure that contains
  *         the configuration information for the specified GPIO peripheral.
  * @retval None
  */
void HAL_GPIO_Init(GPIO_TypeDef  *GPIOx, GPIO_InitTypeDef *GPIO_Init)
{
 80017d0:	e92d 41f0 	stmdb	sp!, {r4, r5, r6, r7, r8, lr}
 80017d4:	b082      	sub	sp, #8
 80017d6:	4607      	mov	r7, r0
 80017d8:	460e      	mov	r6, r1
  uint32_t ioposition = 0x00U;
  uint32_t iocurrent = 0x00U;
  uint32_t temp = 0x00U;

  /* Check the parameters */
  assert_param(IS_GPIO_ALL_INSTANCE(GPIOx));
 80017da:	4b54      	ldr	r3, [pc, #336]	; (800192c <HAL_GPIO_Init+0x15c>)
 80017dc:	4298      	cmp	r0, r3
 80017de:	d023      	beq.n	8001828 <HAL_GPIO_Init+0x58>
 80017e0:	f503 6380 	add.w	r3, r3, #1024	; 0x400
 80017e4:	4298      	cmp	r0, r3
 80017e6:	d01f      	beq.n	8001828 <HAL_GPIO_Init+0x58>
 80017e8:	f503 6380 	add.w	r3, r3, #1024	; 0x400
 80017ec:	4298      	cmp	r0, r3
 80017ee:	d01b      	beq.n	8001828 <HAL_GPIO_Init+0x58>
 80017f0:	f503 6380 	add.w	r3, r3, #1024	; 0x400
 80017f4:	4298      	cmp	r0, r3
 80017f6:	d017      	beq.n	8001828 <HAL_GPIO_Init+0x58>
 80017f8:	f503 6380 	add.w	r3, r3, #1024	; 0x400
 80017fc:	4298      	cmp	r0, r3
 80017fe:	d013      	beq.n	8001828 <HAL_GPIO_Init+0x58>
 8001800:	f503 6380 	add.w	r3, r3, #1024	; 0x400
 8001804:	4298      	cmp	r0, r3
 8001806:	d00f      	beq.n	8001828 <HAL_GPIO_Init+0x58>
 8001808:	f503 6380 	add.w	r3, r3, #1024	; 0x400
 800180c:	4298      	cmp	r0, r3
 800180e:	d00b      	beq.n	8001828 <HAL_GPIO_Init+0x58>
 8001810:	f503 6380 	add.w	r3, r3, #1024	; 0x400
 8001814:	4298      	cmp	r0, r3
 8001816:	d007      	beq.n	8001828 <HAL_GPIO_Init+0x58>
 8001818:	f503 6380 	add.w	r3, r3, #1024	; 0x400
 800181c:	4298      	cmp	r0, r3
 800181e:	d003      	beq.n	8001828 <HAL_GPIO_Init+0x58>
 8001820:	21ac      	movs	r1, #172	; 0xac
 8001822:	4843      	ldr	r0, [pc, #268]	; (8001930 <HAL_GPIO_Init+0x160>)
 8001824:	f7ff f816 	bl	8000854 <assert_failed>
  assert_param(IS_GPIO_PIN(GPIO_Init->Pin));
 8001828:	6833      	ldr	r3, [r6, #0]
 800182a:	b29a      	uxth	r2, r3
 800182c:	b112      	cbz	r2, 8001834 <HAL_GPIO_Init+0x64>
 800182e:	0c1b      	lsrs	r3, r3, #16
 8001830:	041b      	lsls	r3, r3, #16
 8001832:	b11b      	cbz	r3, 800183c <HAL_GPIO_Init+0x6c>
 8001834:	21ad      	movs	r1, #173	; 0xad
 8001836:	483e      	ldr	r0, [pc, #248]	; (8001930 <HAL_GPIO_Init+0x160>)
 8001838:	f7ff f80c 	bl	8000854 <assert_failed>
  assert_param(IS_GPIO_MODE(GPIO_Init->Mode));
 800183c:	6873      	ldr	r3, [r6, #4]
 800183e:	2b01      	cmp	r3, #1
 8001840:	d919      	bls.n	8001876 <HAL_GPIO_Init+0xa6>
 8001842:	2b11      	cmp	r3, #17
 8001844:	d017      	beq.n	8001876 <HAL_GPIO_Init+0xa6>
 8001846:	2b02      	cmp	r3, #2
 8001848:	d015      	beq.n	8001876 <HAL_GPIO_Init+0xa6>
 800184a:	2b12      	cmp	r3, #18
 800184c:	d013      	beq.n	8001876 <HAL_GPIO_Init+0xa6>
 800184e:	f5b3 1f88 	cmp.w	r3, #1114112	; 0x110000
 8001852:	d010      	beq.n	8001876 <HAL_GPIO_Init+0xa6>
 8001854:	f5b3 1f04 	cmp.w	r3, #2162688	; 0x210000
 8001858:	d00d      	beq.n	8001876 <HAL_GPIO_Init+0xa6>
 800185a:	f5b3 1f44 	cmp.w	r3, #3211264	; 0x310000
 800185e:	d00a      	beq.n	8001876 <HAL_GPIO_Init+0xa6>
 8001860:	f5b3 1f90 	cmp.w	r3, #1179648	; 0x120000
 8001864:	d007      	beq.n	8001876 <HAL_GPIO_Init+0xa6>
 8001866:	f5b3 1f08 	cmp.w	r3, #2228224	; 0x220000
 800186a:	d004      	beq.n	8001876 <HAL_GPIO_Init+0xa6>
 800186c:	f5b3 1f48 	cmp.w	r3, #3276800	; 0x320000
 8001870:	d001      	beq.n	8001876 <HAL_GPIO_Init+0xa6>
 8001872:	2b03      	cmp	r3, #3
 8001874:	d101      	bne.n	800187a <HAL_GPIO_Init+0xaa>
        /* Enable SYSCFG Clock */
        __HAL_RCC_SYSCFG_CLK_ENABLE();

        temp = SYSCFG->EXTICR[position >> 2U];
        temp &= ~(0x0FU << (4U * (position & 0x03U)));
        temp |= ((uint32_t)(GPIO_GET_INDEX(GPIOx)) << (4U * (position & 0x03U)));
 8001876:	2400      	movs	r4, #0
 8001878:	e092      	b.n	80019a0 <HAL_GPIO_Init+0x1d0>
  assert_param(IS_GPIO_MODE(GPIO_Init->Mode));
 800187a:	21ae      	movs	r1, #174	; 0xae
 800187c:	482c      	ldr	r0, [pc, #176]	; (8001930 <HAL_GPIO_Init+0x160>)
 800187e:	f7fe ffe9 	bl	8000854 <assert_failed>
 8001882:	e7f8      	b.n	8001876 <HAL_GPIO_Init+0xa6>
        assert_param(IS_GPIO_SPEED(GPIO_Init->Speed));
 8001884:	68f3      	ldr	r3, [r6, #12]
 8001886:	2b03      	cmp	r3, #3
 8001888:	d813      	bhi.n	80018b2 <HAL_GPIO_Init+0xe2>
        temp = GPIOx->OSPEEDR; 
 800188a:	68ba      	ldr	r2, [r7, #8]
        temp &= ~(GPIO_OSPEEDER_OSPEEDR0 << (position * 2U));
 800188c:	0061      	lsls	r1, r4, #1
 800188e:	2303      	movs	r3, #3
 8001890:	408b      	lsls	r3, r1
 8001892:	ea22 0203 	bic.w	r2, r2, r3
        temp |= (GPIO_Init->Speed << (position * 2U));
 8001896:	68f3      	ldr	r3, [r6, #12]
 8001898:	408b      	lsls	r3, r1
 800189a:	4313      	orrs	r3, r2
        GPIOx->OSPEEDR = temp;
 800189c:	60bb      	str	r3, [r7, #8]
        temp = GPIOx->OTYPER;
 800189e:	687a      	ldr	r2, [r7, #4]
        temp &= ~(GPIO_OTYPER_OT_0 << position) ;
 80018a0:	ea22 0205 	bic.w	r2, r2, r5
        temp |= (((GPIO_Init->Mode & OUTPUT_TYPE) >> OUTPUT_TYPE_Pos) << position);
 80018a4:	6873      	ldr	r3, [r6, #4]
 80018a6:	f3c3 1500 	ubfx	r5, r3, #4, #1
 80018aa:	40a5      	lsls	r5, r4
 80018ac:	4315      	orrs	r5, r2
        GPIOx->OTYPER = temp;
 80018ae:	607d      	str	r5, [r7, #4]
 80018b0:	e087      	b.n	80019c2 <HAL_GPIO_Init+0x1f2>
        assert_param(IS_GPIO_SPEED(GPIO_Init->Speed));
 80018b2:	21c0      	movs	r1, #192	; 0xc0
 80018b4:	481e      	ldr	r0, [pc, #120]	; (8001930 <HAL_GPIO_Init+0x160>)
 80018b6:	f7fe ffcd 	bl	8000854 <assert_failed>
 80018ba:	e7e6      	b.n	800188a <HAL_GPIO_Init+0xba>
        assert_param(IS_GPIO_PULL(GPIO_Init->Pull));
 80018bc:	21d1      	movs	r1, #209	; 0xd1
 80018be:	481c      	ldr	r0, [pc, #112]	; (8001930 <HAL_GPIO_Init+0x160>)
 80018c0:	f7fe ffc8 	bl	8000854 <assert_failed>
 80018c4:	e086      	b.n	80019d4 <HAL_GPIO_Init+0x204>
        assert_param(IS_GPIO_AF(GPIO_Init->Alternate));
 80018c6:	6933      	ldr	r3, [r6, #16]
 80018c8:	b1bb      	cbz	r3, 80018fa <HAL_GPIO_Init+0x12a>
 80018ca:	2b09      	cmp	r3, #9
 80018cc:	d015      	beq.n	80018fa <HAL_GPIO_Init+0x12a>
 80018ce:	2b01      	cmp	r3, #1
 80018d0:	d013      	beq.n	80018fa <HAL_GPIO_Init+0x12a>
 80018d2:	2b02      	cmp	r3, #2
 80018d4:	d011      	beq.n	80018fa <HAL_GPIO_Init+0x12a>
 80018d6:	2b03      	cmp	r3, #3
 80018d8:	d00f      	beq.n	80018fa <HAL_GPIO_Init+0x12a>
 80018da:	2b04      	cmp	r3, #4
 80018dc:	d00d      	beq.n	80018fa <HAL_GPIO_Init+0x12a>
 80018de:	2b05      	cmp	r3, #5
 80018e0:	d00b      	beq.n	80018fa <HAL_GPIO_Init+0x12a>
 80018e2:	2b06      	cmp	r3, #6
 80018e4:	d009      	beq.n	80018fa <HAL_GPIO_Init+0x12a>
 80018e6:	2b07      	cmp	r3, #7
 80018e8:	d007      	beq.n	80018fa <HAL_GPIO_Init+0x12a>
 80018ea:	2b08      	cmp	r3, #8
 80018ec:	d005      	beq.n	80018fa <HAL_GPIO_Init+0x12a>
 80018ee:	2b0a      	cmp	r3, #10
 80018f0:	d003      	beq.n	80018fa <HAL_GPIO_Init+0x12a>
 80018f2:	2b0c      	cmp	r3, #12
 80018f4:	d001      	beq.n	80018fa <HAL_GPIO_Init+0x12a>
 80018f6:	2b0f      	cmp	r3, #15
 80018f8:	d110      	bne.n	800191c <HAL_GPIO_Init+0x14c>
        temp = GPIOx->AFR[position >> 3U];
 80018fa:	08e2      	lsrs	r2, r4, #3
 80018fc:	3208      	adds	r2, #8
 80018fe:	f857 0022 	ldr.w	r0, [r7, r2, lsl #2]
        temp &= ~(0xFU << ((uint32_t)(position & 0x07U) * 4U)) ;
 8001902:	f004 0307 	and.w	r3, r4, #7
 8001906:	0099      	lsls	r1, r3, #2
 8001908:	230f      	movs	r3, #15
 800190a:	408b      	lsls	r3, r1
 800190c:	ea20 0003 	bic.w	r0, r0, r3
        temp |= ((uint32_t)(GPIO_Init->Alternate) << (((uint32_t)position & 0x07U) * 4U));
 8001910:	6933      	ldr	r3, [r6, #16]
 8001912:	408b      	lsls	r3, r1
 8001914:	4303      	orrs	r3, r0
        GPIOx->AFR[position >> 3U] = temp;
 8001916:	f847 3022 	str.w	r3, [r7, r2, lsl #2]
 800191a:	e06b      	b.n	80019f4 <HAL_GPIO_Init+0x224>
        assert_param(IS_GPIO_AF(GPIO_Init->Alternate));
 800191c:	21de      	movs	r1, #222	; 0xde
 800191e:	4804      	ldr	r0, [pc, #16]	; (8001930 <HAL_GPIO_Init+0x160>)
 8001920:	f7fe ff98 	bl	8000854 <assert_failed>
 8001924:	e7e9      	b.n	80018fa <HAL_GPIO_Init+0x12a>
        temp |= ((uint32_t)(GPIO_GET_INDEX(GPIOx)) << (4U * (position & 0x03U)));
 8001926:	2307      	movs	r3, #7
 8001928:	e005      	b.n	8001936 <HAL_GPIO_Init+0x166>
 800192a:	bf00      	nop
 800192c:	40020000 	andmi	r0, r2, r0
 8001930:	080034ec 	stmdaeq	r0, {r2, r3, r5, r6, r7, sl, ip, sp}
 8001934:	2300      	movs	r3, #0
 8001936:	408b      	lsls	r3, r1
 8001938:	4303      	orrs	r3, r0
        SYSCFG->EXTICR[position >> 2U] = temp;
 800193a:	3202      	adds	r2, #2
 800193c:	495a      	ldr	r1, [pc, #360]	; (8001aa8 <HAL_GPIO_Init+0x2d8>)
 800193e:	f841 3022 	str.w	r3, [r1, r2, lsl #2]

        /* Clear Rising Falling edge configuration */
        temp = EXTI->RTSR;
 8001942:	4b5a      	ldr	r3, [pc, #360]	; (8001aac <HAL_GPIO_Init+0x2dc>)
 8001944:	689a      	ldr	r2, [r3, #8]
        temp &= ~((uint32_t)iocurrent);
 8001946:	ea6f 0308 	mvn.w	r3, r8
 800194a:	ea22 0108 	bic.w	r1, r2, r8
        if((GPIO_Init->Mode & TRIGGER_RISING) != 0x00U)
 800194e:	6870      	ldr	r0, [r6, #4]
 8001950:	f410 1f80 	tst.w	r0, #1048576	; 0x100000
 8001954:	d001      	beq.n	800195a <HAL_GPIO_Init+0x18a>
        {
          temp |= iocurrent;
 8001956:	ea48 0102 	orr.w	r1, r8, r2
        }
        EXTI->RTSR = temp;
 800195a:	4a54      	ldr	r2, [pc, #336]	; (8001aac <HAL_GPIO_Init+0x2dc>)
 800195c:	6091      	str	r1, [r2, #8]

        temp = EXTI->FTSR;
 800195e:	68d2      	ldr	r2, [r2, #12]
        temp &= ~((uint32_t)iocurrent);
 8001960:	ea03 0102 	and.w	r1, r3, r2
        if((GPIO_Init->Mode & TRIGGER_FALLING) != 0x00U)
 8001964:	6870      	ldr	r0, [r6, #4]
 8001966:	f410 1f00 	tst.w	r0, #2097152	; 0x200000
 800196a:	d001      	beq.n	8001970 <HAL_GPIO_Init+0x1a0>
        {
          temp |= iocurrent;
 800196c:	ea48 0102 	orr.w	r1, r8, r2
        }
        EXTI->FTSR = temp;
 8001970:	4a4e      	ldr	r2, [pc, #312]	; (8001aac <HAL_GPIO_Init+0x2dc>)
 8001972:	60d1      	str	r1, [r2, #12]

        temp = EXTI->EMR;
 8001974:	6852      	ldr	r2, [r2, #4]
        temp &= ~((uint32_t)iocurrent);
 8001976:	ea03 0102 	and.w	r1, r3, r2
        if((GPIO_Init->Mode & EXTI_EVT) != 0x00U)
 800197a:	6870      	ldr	r0, [r6, #4]
 800197c:	f410 3f00 	tst.w	r0, #131072	; 0x20000
 8001980:	d001      	beq.n	8001986 <HAL_GPIO_Init+0x1b6>
        {
          temp |= iocurrent;
 8001982:	ea48 0102 	orr.w	r1, r8, r2
        }
        EXTI->EMR = temp;
 8001986:	4a49      	ldr	r2, [pc, #292]	; (8001aac <HAL_GPIO_Init+0x2dc>)
 8001988:	6051      	str	r1, [r2, #4]

        /* Clear EXTI line configuration */
        temp = EXTI->IMR;
 800198a:	6812      	ldr	r2, [r2, #0]
        temp &= ~((uint32_t)iocurrent);
 800198c:	4013      	ands	r3, r2
        if((GPIO_Init->Mode & EXTI_IT) != 0x00U)
 800198e:	6871      	ldr	r1, [r6, #4]
 8001990:	f411 3f80 	tst.w	r1, #65536	; 0x10000
 8001994:	d001      	beq.n	800199a <HAL_GPIO_Init+0x1ca>
        {
          temp |= iocurrent;
 8001996:	ea48 0302 	orr.w	r3, r8, r2
        }
        EXTI->IMR = temp;
 800199a:	4a44      	ldr	r2, [pc, #272]	; (8001aac <HAL_GPIO_Init+0x2dc>)
 800199c:	6013      	str	r3, [r2, #0]
  for(position = 0U; position < GPIO_NUMBER; position++)
 800199e:	3401      	adds	r4, #1
 80019a0:	2c0f      	cmp	r4, #15
 80019a2:	d87e      	bhi.n	8001aa2 <HAL_GPIO_Init+0x2d2>
    ioposition = 0x01U << position;
 80019a4:	2501      	movs	r5, #1
 80019a6:	40a5      	lsls	r5, r4
    iocurrent = (uint32_t)(GPIO_Init->Pin) & ioposition;
 80019a8:	6833      	ldr	r3, [r6, #0]
 80019aa:	ea03 0805 	and.w	r8, r3, r5
    if(iocurrent == ioposition)
 80019ae:	ea35 0303 	bics.w	r3, r5, r3
 80019b2:	d1f4      	bne.n	800199e <HAL_GPIO_Init+0x1ce>
      if(((GPIO_Init->Mode & GPIO_MODE) == MODE_OUTPUT) || \
 80019b4:	6873      	ldr	r3, [r6, #4]
 80019b6:	f003 0303 	and.w	r3, r3, #3
 80019ba:	3b01      	subs	r3, #1
 80019bc:	2b01      	cmp	r3, #1
 80019be:	f67f af61 	bls.w	8001884 <HAL_GPIO_Init+0xb4>
      if((GPIO_Init->Mode & GPIO_MODE) != MODE_ANALOG)
 80019c2:	6873      	ldr	r3, [r6, #4]
 80019c4:	f003 0303 	and.w	r3, r3, #3
 80019c8:	2b03      	cmp	r3, #3
 80019ca:	d00d      	beq.n	80019e8 <HAL_GPIO_Init+0x218>
        assert_param(IS_GPIO_PULL(GPIO_Init->Pull));
 80019cc:	68b3      	ldr	r3, [r6, #8]
 80019ce:	2b02      	cmp	r3, #2
 80019d0:	f63f af74 	bhi.w	80018bc <HAL_GPIO_Init+0xec>
        temp = GPIOx->PUPDR;
 80019d4:	68fa      	ldr	r2, [r7, #12]
        temp &= ~(GPIO_PUPDR_PUPDR0 << (position * 2U));
 80019d6:	0061      	lsls	r1, r4, #1
 80019d8:	2303      	movs	r3, #3
 80019da:	408b      	lsls	r3, r1
 80019dc:	ea22 0203 	bic.w	r2, r2, r3
        temp |= ((GPIO_Init->Pull) << (position * 2U));
 80019e0:	68b3      	ldr	r3, [r6, #8]
 80019e2:	408b      	lsls	r3, r1
 80019e4:	4313      	orrs	r3, r2
        GPIOx->PUPDR = temp;
 80019e6:	60fb      	str	r3, [r7, #12]
      if((GPIO_Init->Mode & GPIO_MODE) == MODE_AF)
 80019e8:	6873      	ldr	r3, [r6, #4]
 80019ea:	f003 0303 	and.w	r3, r3, #3
 80019ee:	2b02      	cmp	r3, #2
 80019f0:	f43f af69 	beq.w	80018c6 <HAL_GPIO_Init+0xf6>
      temp = GPIOx->MODER;
 80019f4:	683a      	ldr	r2, [r7, #0]
      temp &= ~(GPIO_MODER_MODER0 << (position * 2U));
 80019f6:	0061      	lsls	r1, r4, #1
 80019f8:	2303      	movs	r3, #3
 80019fa:	408b      	lsls	r3, r1
 80019fc:	ea22 0203 	bic.w	r2, r2, r3
      temp |= ((GPIO_Init->Mode & GPIO_MODE) << (position * 2U));
 8001a00:	6873      	ldr	r3, [r6, #4]
 8001a02:	f003 0303 	and.w	r3, r3, #3
 8001a06:	408b      	lsls	r3, r1
 8001a08:	4313      	orrs	r3, r2
      GPIOx->MODER = temp;
 8001a0a:	603b      	str	r3, [r7, #0]
      if((GPIO_Init->Mode & EXTI_MODE) != 0x00U)
 8001a0c:	6873      	ldr	r3, [r6, #4]
 8001a0e:	f413 3f40 	tst.w	r3, #196608	; 0x30000
 8001a12:	d0c4      	beq.n	800199e <HAL_GPIO_Init+0x1ce>
        __HAL_RCC_SYSCFG_CLK_ENABLE();
 8001a14:	2300      	movs	r3, #0
 8001a16:	9301      	str	r3, [sp, #4]
 8001a18:	4b25      	ldr	r3, [pc, #148]	; (8001ab0 <HAL_GPIO_Init+0x2e0>)
 8001a1a:	6c5a      	ldr	r2, [r3, #68]	; 0x44
 8001a1c:	f442 4280 	orr.w	r2, r2, #16384	; 0x4000
 8001a20:	645a      	str	r2, [r3, #68]	; 0x44
 8001a22:	6c5b      	ldr	r3, [r3, #68]	; 0x44
 8001a24:	f403 4380 	and.w	r3, r3, #16384	; 0x4000
 8001a28:	9301      	str	r3, [sp, #4]
 8001a2a:	9b01      	ldr	r3, [sp, #4]
        temp = SYSCFG->EXTICR[position >> 2U];
 8001a2c:	08a2      	lsrs	r2, r4, #2
 8001a2e:	1c91      	adds	r1, r2, #2
 8001a30:	4b1d      	ldr	r3, [pc, #116]	; (8001aa8 <HAL_GPIO_Init+0x2d8>)
 8001a32:	f853 0021 	ldr.w	r0, [r3, r1, lsl #2]
        temp &= ~(0x0FU << (4U * (position & 0x03U)));
 8001a36:	f004 0303 	and.w	r3, r4, #3
 8001a3a:	0099      	lsls	r1, r3, #2
 8001a3c:	230f      	movs	r3, #15
 8001a3e:	408b      	lsls	r3, r1
 8001a40:	ea20 0003 	bic.w	r0, r0, r3
        temp |= ((uint32_t)(GPIO_GET_INDEX(GPIOx)) << (4U * (position & 0x03U)));
 8001a44:	4b1b      	ldr	r3, [pc, #108]	; (8001ab4 <HAL_GPIO_Init+0x2e4>)
 8001a46:	429f      	cmp	r7, r3
 8001a48:	f43f af74 	beq.w	8001934 <HAL_GPIO_Init+0x164>
 8001a4c:	f503 6380 	add.w	r3, r3, #1024	; 0x400
 8001a50:	429f      	cmp	r7, r3
 8001a52:	d01a      	beq.n	8001a8a <HAL_GPIO_Init+0x2ba>
 8001a54:	f503 6380 	add.w	r3, r3, #1024	; 0x400
 8001a58:	429f      	cmp	r7, r3
 8001a5a:	d018      	beq.n	8001a8e <HAL_GPIO_Init+0x2be>
 8001a5c:	f503 6380 	add.w	r3, r3, #1024	; 0x400
 8001a60:	429f      	cmp	r7, r3
 8001a62:	d016      	beq.n	8001a92 <HAL_GPIO_Init+0x2c2>
 8001a64:	f503 6380 	add.w	r3, r3, #1024	; 0x400
 8001a68:	429f      	cmp	r7, r3
 8001a6a:	d014      	beq.n	8001a96 <HAL_GPIO_Init+0x2c6>
 8001a6c:	f503 6380 	add.w	r3, r3, #1024	; 0x400
 8001a70:	429f      	cmp	r7, r3
 8001a72:	d012      	beq.n	8001a9a <HAL_GPIO_Init+0x2ca>
 8001a74:	f503 6380 	add.w	r3, r3, #1024	; 0x400
 8001a78:	429f      	cmp	r7, r3
 8001a7a:	d010      	beq.n	8001a9e <HAL_GPIO_Init+0x2ce>
 8001a7c:	f503 6380 	add.w	r3, r3, #1024	; 0x400
 8001a80:	429f      	cmp	r7, r3
 8001a82:	f43f af50 	beq.w	8001926 <HAL_GPIO_Init+0x156>
 8001a86:	2308      	movs	r3, #8
 8001a88:	e755      	b.n	8001936 <HAL_GPIO_Init+0x166>
 8001a8a:	2301      	movs	r3, #1
 8001a8c:	e753      	b.n	8001936 <HAL_GPIO_Init+0x166>
 8001a8e:	2302      	movs	r3, #2
 8001a90:	e751      	b.n	8001936 <HAL_GPIO_Init+0x166>
 8001a92:	2303      	movs	r3, #3
 8001a94:	e74f      	b.n	8001936 <HAL_GPIO_Init+0x166>
 8001a96:	2304      	movs	r3, #4
 8001a98:	e74d      	b.n	8001936 <HAL_GPIO_Init+0x166>
 8001a9a:	2305      	movs	r3, #5
 8001a9c:	e74b      	b.n	8001936 <HAL_GPIO_Init+0x166>
 8001a9e:	2306      	movs	r3, #6
 8001aa0:	e749      	b.n	8001936 <HAL_GPIO_Init+0x166>
      }
    }
  }
}
 8001aa2:	b002      	add	sp, #8
 8001aa4:	e8bd 81f0 	ldmia.w	sp!, {r4, r5, r6, r7, r8, pc}
 8001aa8:	40013800 	andmi	r3, r1, r0, lsl #16
 8001aac:	40013c00 	andmi	r3, r1, r0, lsl #24
 8001ab0:	40023800 	andmi	r3, r2, r0, lsl #16
 8001ab4:	40020000 	andmi	r0, r2, r0

08001ab8 <HAL_DMA_Abort>:
  *        and the Stream will be effectively disabled only after the transfer of
  *        this single data is finished.  
  * @retval HAL status
  */
HAL_StatusTypeDef HAL_DMA_Abort(DMA_HandleTypeDef *hdma)
{
 8001ab8:	b570      	push	{r4, r5, r6, lr}
 8001aba:	4604      	mov	r4, r0
  /* calculate DMA base and stream number */
  DMA_Base_Registers *regs = (DMA_Base_Registers *)hdma->StreamBaseAddress;
 8001abc:	6d86      	ldr	r6, [r0, #88]	; 0x58
  
  uint32_t tickstart = HAL_GetTick();
 8001abe:	f000 f8ef 	bl	8001ca0 <HAL_GetTick>
  
  if(hdma->State != HAL_DMA_STATE_BUSY)
 8001ac2:	f894 3035 	ldrb.w	r3, [r4, #53]	; 0x35
 8001ac6:	b2db      	uxtb	r3, r3
 8001ac8:	2b02      	cmp	r3, #2
 8001aca:	d006      	beq.n	8001ada <HAL_DMA_Abort+0x22>
  {
    hdma->ErrorCode = HAL_DMA_ERROR_NO_XFER;
 8001acc:	2380      	movs	r3, #128	; 0x80
 8001ace:	6563      	str	r3, [r4, #84]	; 0x54
    
    /* Process Unlocked */
    __HAL_UNLOCK(hdma);
 8001ad0:	2300      	movs	r3, #0
 8001ad2:	f884 3034 	strb.w	r3, [r4, #52]	; 0x34
    
    return HAL_ERROR;
 8001ad6:	2001      	movs	r0, #1
    
    /* Process Unlocked */
    __HAL_UNLOCK(hdma);
  }
  return HAL_OK;
}
 8001ad8:	bd70      	pop	{r4, r5, r6, pc}
 8001ada:	4605      	mov	r5, r0
    hdma->Instance->CR  &= ~(DMA_IT_TC | DMA_IT_TE | DMA_IT_DME);
 8001adc:	6822      	ldr	r2, [r4, #0]
 8001ade:	6813      	ldr	r3, [r2, #0]
 8001ae0:	f023 0316 	bic.w	r3, r3, #22
 8001ae4:	6013      	str	r3, [r2, #0]
    hdma->Instance->FCR &= ~(DMA_IT_FE);
 8001ae6:	6822      	ldr	r2, [r4, #0]
 8001ae8:	6953      	ldr	r3, [r2, #20]
 8001aea:	f023 0380 	bic.w	r3, r3, #128	; 0x80
 8001aee:	6153      	str	r3, [r2, #20]
    if((hdma->XferHalfCpltCallback != NULL) || (hdma->XferM1HalfCpltCallback != NULL))
 8001af0:	6c23      	ldr	r3, [r4, #64]	; 0x40
 8001af2:	b1e3      	cbz	r3, 8001b2e <HAL_DMA_Abort+0x76>
      hdma->Instance->CR  &= ~(DMA_IT_HT);
 8001af4:	6822      	ldr	r2, [r4, #0]
 8001af6:	6813      	ldr	r3, [r2, #0]
 8001af8:	f023 0308 	bic.w	r3, r3, #8
 8001afc:	6013      	str	r3, [r2, #0]
    __HAL_DMA_DISABLE(hdma);
 8001afe:	6822      	ldr	r2, [r4, #0]
 8001b00:	6813      	ldr	r3, [r2, #0]
 8001b02:	f023 0301 	bic.w	r3, r3, #1
 8001b06:	6013      	str	r3, [r2, #0]
    while((hdma->Instance->CR & DMA_SxCR_EN) != RESET)
 8001b08:	6823      	ldr	r3, [r4, #0]
 8001b0a:	681b      	ldr	r3, [r3, #0]
 8001b0c:	f013 0f01 	tst.w	r3, #1
 8001b10:	d011      	beq.n	8001b36 <HAL_DMA_Abort+0x7e>
      if((HAL_GetTick() - tickstart ) > HAL_TIMEOUT_DMA_ABORT)
 8001b12:	f000 f8c5 	bl	8001ca0 <HAL_GetTick>
 8001b16:	1b43      	subs	r3, r0, r5
 8001b18:	2b05      	cmp	r3, #5
 8001b1a:	d9f5      	bls.n	8001b08 <HAL_DMA_Abort+0x50>
        hdma->ErrorCode = HAL_DMA_ERROR_TIMEOUT;
 8001b1c:	2320      	movs	r3, #32
 8001b1e:	6563      	str	r3, [r4, #84]	; 0x54
        hdma->State = HAL_DMA_STATE_TIMEOUT;
 8001b20:	2003      	movs	r0, #3
 8001b22:	f884 0035 	strb.w	r0, [r4, #53]	; 0x35
        __HAL_UNLOCK(hdma);
 8001b26:	2300      	movs	r3, #0
 8001b28:	f884 3034 	strb.w	r3, [r4, #52]	; 0x34
        return HAL_TIMEOUT;
 8001b2c:	e7d4      	b.n	8001ad8 <HAL_DMA_Abort+0x20>
    if((hdma->XferHalfCpltCallback != NULL) || (hdma->XferM1HalfCpltCallback != NULL))
 8001b2e:	6ca3      	ldr	r3, [r4, #72]	; 0x48
 8001b30:	2b00      	cmp	r3, #0
 8001b32:	d1df      	bne.n	8001af4 <HAL_DMA_Abort+0x3c>
 8001b34:	e7e3      	b.n	8001afe <HAL_DMA_Abort+0x46>
    regs->IFCR = 0x3FU << hdma->StreamIndex;
 8001b36:	6de2      	ldr	r2, [r4, #92]	; 0x5c
 8001b38:	233f      	movs	r3, #63	; 0x3f
 8001b3a:	4093      	lsls	r3, r2
 8001b3c:	60b3      	str	r3, [r6, #8]
    hdma->State = HAL_DMA_STATE_READY;
 8001b3e:	2301      	movs	r3, #1
 8001b40:	f884 3035 	strb.w	r3, [r4, #53]	; 0x35
    __HAL_UNLOCK(hdma);
 8001b44:	2000      	movs	r0, #0
 8001b46:	f884 0034 	strb.w	r0, [r4, #52]	; 0x34
  return HAL_OK;
 8001b4a:	e7c5      	b.n	8001ad8 <HAL_DMA_Abort+0x20>

08001b4c <HAL_DMA_Abort_IT>:
  *                 the configuration information for the specified DMA Stream.
  * @retval HAL status
  */
HAL_StatusTypeDef HAL_DMA_Abort_IT(DMA_HandleTypeDef *hdma)
{
  if(hdma->State != HAL_DMA_STATE_BUSY)
 8001b4c:	f890 3035 	ldrb.w	r3, [r0, #53]	; 0x35
 8001b50:	b2db      	uxtb	r3, r3
 8001b52:	2b02      	cmp	r3, #2
 8001b54:	d003      	beq.n	8001b5e <HAL_DMA_Abort_IT+0x12>
  {
    hdma->ErrorCode = HAL_DMA_ERROR_NO_XFER;
 8001b56:	2380      	movs	r3, #128	; 0x80
 8001b58:	6543      	str	r3, [r0, #84]	; 0x54
    return HAL_ERROR;
 8001b5a:	2001      	movs	r0, #1
 8001b5c:	4770      	bx	lr
  }
  else
  {
    /* Set Abort State  */
    hdma->State = HAL_DMA_STATE_ABORT;
 8001b5e:	2305      	movs	r3, #5
 8001b60:	f880 3035 	strb.w	r3, [r0, #53]	; 0x35
    
    /* Disable the stream */
    __HAL_DMA_DISABLE(hdma);
 8001b64:	6802      	ldr	r2, [r0, #0]
 8001b66:	6813      	ldr	r3, [r2, #0]
 8001b68:	f023 0301 	bic.w	r3, r3, #1
 8001b6c:	6013      	str	r3, [r2, #0]
  }

  return HAL_OK;
 8001b6e:	2000      	movs	r0, #0
}
 8001b70:	4770      	bx	lr
	...

08001b74 <HAL_NVIC_SetPriorityGrouping>:
  * @note   When the NVIC_PriorityGroup_0 is selected, IRQ preemption is no more possible. 
  *         The pending IRQ priority will be managed only by the subpriority. 
  * @retval None
  */
void HAL_NVIC_SetPriorityGrouping(uint32_t PriorityGroup)
{
 8001b74:	b510      	push	{r4, lr}
 8001b76:	4604      	mov	r4, r0
  /* Check the parameters */
  assert_param(IS_NVIC_PRIORITY_GROUP(PriorityGroup));
 8001b78:	1ec3      	subs	r3, r0, #3
 8001b7a:	2b04      	cmp	r3, #4
 8001b7c:	d80f      	bhi.n	8001b9e <HAL_NVIC_SetPriorityGrouping+0x2a>
__STATIC_INLINE void __NVIC_SetPriorityGrouping(uint32_t PriorityGroup)
{
  uint32_t reg_value;
  uint32_t PriorityGroupTmp = (PriorityGroup & (uint32_t)0x07UL);             /* only values 0..7 are used          */

  reg_value  =  SCB->AIRCR;                                                   /* read old register configuration    */
 8001b7e:	4a0a      	ldr	r2, [pc, #40]	; (8001ba8 <HAL_NVIC_SetPriorityGrouping+0x34>)
 8001b80:	68d3      	ldr	r3, [r2, #12]
  reg_value &= ~((uint32_t)(SCB_AIRCR_VECTKEY_Msk | SCB_AIRCR_PRIGROUP_Msk)); /* clear bits to change               */
 8001b82:	f423 63e0 	bic.w	r3, r3, #1792	; 0x700
 8001b86:	041b      	lsls	r3, r3, #16
 8001b88:	0c1b      	lsrs	r3, r3, #16
  reg_value  =  (reg_value                                   |
                ((uint32_t)0x5FAUL << SCB_AIRCR_VECTKEY_Pos) |
                (PriorityGroupTmp << SCB_AIRCR_PRIGROUP_Pos)  );              /* Insert write key and priority group */
 8001b8a:	0224      	lsls	r4, r4, #8
 8001b8c:	f404 64e0 	and.w	r4, r4, #1792	; 0x700
                ((uint32_t)0x5FAUL << SCB_AIRCR_VECTKEY_Pos) |
 8001b90:	4323      	orrs	r3, r4
  reg_value  =  (reg_value                                   |
 8001b92:	f043 63bf 	orr.w	r3, r3, #100139008	; 0x5f80000
 8001b96:	f443 3300 	orr.w	r3, r3, #131072	; 0x20000
  SCB->AIRCR =  reg_value;
 8001b9a:	60d3      	str	r3, [r2, #12]
  
  /* Set the PRIGROUP[10:8] bits according to the PriorityGroup parameter value */
  NVIC_SetPriorityGrouping(PriorityGroup);
}
 8001b9c:	bd10      	pop	{r4, pc}
  assert_param(IS_NVIC_PRIORITY_GROUP(PriorityGroup));
 8001b9e:	2190      	movs	r1, #144	; 0x90
 8001ba0:	4802      	ldr	r0, [pc, #8]	; (8001bac <HAL_NVIC_SetPriorityGrouping+0x38>)
 8001ba2:	f7fe fe57 	bl	8000854 <assert_failed>
 8001ba6:	e7ea      	b.n	8001b7e <HAL_NVIC_SetPriorityGrouping+0xa>
 8001ba8:	e000ed00 	and	lr, r0, r0, lsl #26
 8001bac:	08003528 	stmdaeq	r0, {r3, r5, r8, sl, ip, sp}

08001bb0 <HAL_NVIC_SetPriority>:
  *         This parameter can be a value between 0 and 15
  *         A lower priority value indicates a higher priority.          
  * @retval None
  */
void HAL_NVIC_SetPriority(IRQn_Type IRQn, uint32_t PreemptPriority, uint32_t SubPriority)
{ 
 8001bb0:	b570      	push	{r4, r5, r6, lr}
 8001bb2:	4605      	mov	r5, r0
 8001bb4:	460c      	mov	r4, r1
 8001bb6:	4616      	mov	r6, r2
  uint32_t prioritygroup = 0x00U;
  
  /* Check the parameters */
  assert_param(IS_NVIC_SUB_PRIORITY(SubPriority));
 8001bb8:	2a0f      	cmp	r2, #15
 8001bba:	d825      	bhi.n	8001c08 <HAL_NVIC_SetPriority+0x58>
  assert_param(IS_NVIC_PREEMPTION_PRIORITY(PreemptPriority));
 8001bbc:	2c0f      	cmp	r4, #15
 8001bbe:	d828      	bhi.n	8001c12 <HAL_NVIC_SetPriority+0x62>
  \details Reads the priority grouping field from the NVIC Interrupt Controller.
  \return                Priority grouping field (SCB->AIRCR [10:8] PRIGROUP field).
 */
__STATIC_INLINE uint32_t __NVIC_GetPriorityGrouping(void)
{
  return ((uint32_t)((SCB->AIRCR & SCB_AIRCR_PRIGROUP_Msk) >> SCB_AIRCR_PRIGROUP_Pos));
 8001bc0:	4b1b      	ldr	r3, [pc, #108]	; (8001c30 <HAL_NVIC_SetPriority+0x80>)
 8001bc2:	68db      	ldr	r3, [r3, #12]
 8001bc4:	f3c3 2302 	ubfx	r3, r3, #8, #3
{
  uint32_t PriorityGroupTmp = (PriorityGroup & (uint32_t)0x07UL);   /* only values 0..7 are used          */
  uint32_t PreemptPriorityBits;
  uint32_t SubPriorityBits;

  PreemptPriorityBits = ((7UL - PriorityGroupTmp) > (uint32_t)(__NVIC_PRIO_BITS)) ? (uint32_t)(__NVIC_PRIO_BITS) : (uint32_t)(7UL - PriorityGroupTmp);
 8001bc8:	f1c3 0107 	rsb	r1, r3, #7
 8001bcc:	2904      	cmp	r1, #4
 8001bce:	bf28      	it	cs
 8001bd0:	2104      	movcs	r1, #4
  SubPriorityBits     = ((PriorityGroupTmp + (uint32_t)(__NVIC_PRIO_BITS)) < (uint32_t)7UL) ? (uint32_t)0UL : (uint32_t)((PriorityGroupTmp - 7UL) + (uint32_t)(__NVIC_PRIO_BITS));
 8001bd2:	1d1a      	adds	r2, r3, #4
 8001bd4:	2a06      	cmp	r2, #6
 8001bd6:	d921      	bls.n	8001c1c <HAL_NVIC_SetPriority+0x6c>
 8001bd8:	3b03      	subs	r3, #3

  return (
           ((PreemptPriority & (uint32_t)((1UL << (PreemptPriorityBits)) - 1UL)) << SubPriorityBits) |
 8001bda:	f04f 32ff 	mov.w	r2, #4294967295
 8001bde:	fa02 f101 	lsl.w	r1, r2, r1
 8001be2:	ea24 0401 	bic.w	r4, r4, r1
 8001be6:	409c      	lsls	r4, r3
           ((SubPriority     & (uint32_t)((1UL << (SubPriorityBits    )) - 1UL)))
 8001be8:	fa02 f303 	lsl.w	r3, r2, r3
 8001bec:	ea26 0603 	bic.w	r6, r6, r3
           ((PreemptPriority & (uint32_t)((1UL << (PreemptPriorityBits)) - 1UL)) << SubPriorityBits) |
 8001bf0:	4334      	orrs	r4, r6
  if ((int32_t)(IRQn) >= 0)
 8001bf2:	2d00      	cmp	r5, #0
 8001bf4:	db14      	blt.n	8001c20 <HAL_NVIC_SetPriority+0x70>
    NVIC->IP[((uint32_t)IRQn)]               = (uint8_t)((priority << (8U - __NVIC_PRIO_BITS)) & (uint32_t)0xFFUL);
 8001bf6:	0124      	lsls	r4, r4, #4
 8001bf8:	b2e4      	uxtb	r4, r4
 8001bfa:	f105 4560 	add.w	r5, r5, #3758096384	; 0xe0000000
 8001bfe:	f505 4561 	add.w	r5, r5, #57600	; 0xe100
 8001c02:	f885 4300 	strb.w	r4, [r5, #768]	; 0x300
  
  prioritygroup = NVIC_GetPriorityGrouping();
  
  NVIC_SetPriority(IRQn, NVIC_EncodePriority(prioritygroup, PreemptPriority, SubPriority));
}
 8001c06:	bd70      	pop	{r4, r5, r6, pc}
  assert_param(IS_NVIC_SUB_PRIORITY(SubPriority));
 8001c08:	21a8      	movs	r1, #168	; 0xa8
 8001c0a:	480a      	ldr	r0, [pc, #40]	; (8001c34 <HAL_NVIC_SetPriority+0x84>)
 8001c0c:	f7fe fe22 	bl	8000854 <assert_failed>
 8001c10:	e7d4      	b.n	8001bbc <HAL_NVIC_SetPriority+0xc>
  assert_param(IS_NVIC_PREEMPTION_PRIORITY(PreemptPriority));
 8001c12:	21a9      	movs	r1, #169	; 0xa9
 8001c14:	4807      	ldr	r0, [pc, #28]	; (8001c34 <HAL_NVIC_SetPriority+0x84>)
 8001c16:	f7fe fe1d 	bl	8000854 <assert_failed>
 8001c1a:	e7d1      	b.n	8001bc0 <HAL_NVIC_SetPriority+0x10>
  SubPriorityBits     = ((PriorityGroupTmp + (uint32_t)(__NVIC_PRIO_BITS)) < (uint32_t)7UL) ? (uint32_t)0UL : (uint32_t)((PriorityGroupTmp - 7UL) + (uint32_t)(__NVIC_PRIO_BITS));
 8001c1c:	2300      	movs	r3, #0
 8001c1e:	e7dc      	b.n	8001bda <HAL_NVIC_SetPriority+0x2a>
    SCB->SHP[(((uint32_t)IRQn) & 0xFUL)-4UL] = (uint8_t)((priority << (8U - __NVIC_PRIO_BITS)) & (uint32_t)0xFFUL);
 8001c20:	f005 050f 	and.w	r5, r5, #15
 8001c24:	0124      	lsls	r4, r4, #4
 8001c26:	b2e4      	uxtb	r4, r4
 8001c28:	4b03      	ldr	r3, [pc, #12]	; (8001c38 <HAL_NVIC_SetPriority+0x88>)
 8001c2a:	555c      	strb	r4, [r3, r5]
}
 8001c2c:	e7eb      	b.n	8001c06 <HAL_NVIC_SetPriority+0x56>
 8001c2e:	bf00      	nop
 8001c30:	e000ed00 	and	lr, r0, r0, lsl #26
 8001c34:	08003528 	stmdaeq	r0, {r3, r5, r8, sl, ip, sp}
 8001c38:	e000ed14 	and	lr, r0, r4, lsl sp

08001c3c <HAL_NVIC_EnableIRQ>:
  *         This parameter can be an enumerator of IRQn_Type enumeration
  *         (For the complete STM32 Devices IRQ Channels list, please refer to the appropriate CMSIS device file (stm32f4xxxx.h))
  * @retval None
  */
void HAL_NVIC_EnableIRQ(IRQn_Type IRQn)
{
 8001c3c:	b510      	push	{r4, lr}
  /* Check the parameters */
  assert_param(IS_NVIC_DEVICE_IRQ(IRQn));
 8001c3e:	1e04      	subs	r4, r0, #0
 8001c40:	db0a      	blt.n	8001c58 <HAL_NVIC_EnableIRQ+0x1c>
  if ((int32_t)(IRQn) >= 0)
 8001c42:	2c00      	cmp	r4, #0
 8001c44:	db07      	blt.n	8001c56 <HAL_NVIC_EnableIRQ+0x1a>
    NVIC->ISER[(((uint32_t)IRQn) >> 5UL)] = (uint32_t)(1UL << (((uint32_t)IRQn) & 0x1FUL));
 8001c46:	f004 021f 	and.w	r2, r4, #31
 8001c4a:	0964      	lsrs	r4, r4, #5
 8001c4c:	2301      	movs	r3, #1
 8001c4e:	4093      	lsls	r3, r2
 8001c50:	4a04      	ldr	r2, [pc, #16]	; (8001c64 <HAL_NVIC_EnableIRQ+0x28>)
 8001c52:	f842 3024 	str.w	r3, [r2, r4, lsl #2]
  
  /* Enable interrupt */
  NVIC_EnableIRQ(IRQn);
}
 8001c56:	bd10      	pop	{r4, pc}
  assert_param(IS_NVIC_DEVICE_IRQ(IRQn));
 8001c58:	21bc      	movs	r1, #188	; 0xbc
 8001c5a:	4803      	ldr	r0, [pc, #12]	; (8001c68 <HAL_NVIC_EnableIRQ+0x2c>)
 8001c5c:	f7fe fdfa 	bl	8000854 <assert_failed>
 8001c60:	e7ef      	b.n	8001c42 <HAL_NVIC_EnableIRQ+0x6>
 8001c62:	bf00      	nop
 8001c64:	e000e100 	and	lr, r0, r0, lsl #2
 8001c68:	08003528 	stmdaeq	r0, {r3, r5, r8, sl, ip, sp}

08001c6c <HAL_Init>:
  *         need to ensure that the SysTick time base is always set to 1 millisecond
  *         to have correct HAL operation.
  * @retval HAL status
  */
HAL_StatusTypeDef HAL_Init(void)
{
 8001c6c:	b508      	push	{r3, lr}
  /* Configure Flash prefetch, Instruction cache, Data cache */ 
#if (INSTRUCTION_CACHE_ENABLE != 0U)
  __HAL_FLASH_INSTRUCTION_CACHE_ENABLE();
 8001c6e:	4b0b      	ldr	r3, [pc, #44]	; (8001c9c <HAL_Init+0x30>)
 8001c70:	681a      	ldr	r2, [r3, #0]
 8001c72:	f442 7200 	orr.w	r2, r2, #512	; 0x200
 8001c76:	601a      	str	r2, [r3, #0]
#endif /* INSTRUCTION_CACHE_ENABLE */

#if (DATA_CACHE_ENABLE != 0U)
  __HAL_FLASH_DATA_CACHE_ENABLE();
 8001c78:	681a      	ldr	r2, [r3, #0]
 8001c7a:	f442 6280 	orr.w	r2, r2, #1024	; 0x400
 8001c7e:	601a      	str	r2, [r3, #0]
#endif /* DATA_CACHE_ENABLE */

#if (PREFETCH_ENABLE != 0U)
  __HAL_FLASH_PREFETCH_BUFFER_ENABLE();
 8001c80:	681a      	ldr	r2, [r3, #0]
 8001c82:	f442 7280 	orr.w	r2, r2, #256	; 0x100
 8001c86:	601a      	str	r2, [r3, #0]
#endif /* PREFETCH_ENABLE */

  /* Set Interrupt Group Priority */
  HAL_NVIC_SetPriorityGrouping(NVIC_PRIORITYGROUP_4);
 8001c88:	2003      	movs	r0, #3
 8001c8a:	f7ff ff73 	bl	8001b74 <HAL_NVIC_SetPriorityGrouping>

  /* Use systick as time base source and configure 1ms tick (default clock after Reset is HSI) */
  HAL_InitTick(TICK_INT_PRIORITY);
 8001c8e:	200f      	movs	r0, #15
 8001c90:	f7fe fe88 	bl	80009a4 <HAL_InitTick>

  /* Init the low level hardware */
  HAL_MspInit();
 8001c94:	f7fe fe6a 	bl	800096c <HAL_MspInit>

  /* Return function status */
  return HAL_OK;
}
 8001c98:	2000      	movs	r0, #0
 8001c9a:	bd08      	pop	{r3, pc}
 8001c9c:	40023c00 	andmi	r3, r2, r0, lsl #24

08001ca0 <HAL_GetTick>:
  *       implementations in user file.
  * @retval tick value
  */
__weak uint32_t HAL_GetTick(void)
{
  return uwTick;
 8001ca0:	4b01      	ldr	r3, [pc, #4]	; (8001ca8 <HAL_GetTick+0x8>)
 8001ca2:	6818      	ldr	r0, [r3, #0]
}
 8001ca4:	4770      	bx	lr
 8001ca6:	bf00      	nop
 8001ca8:	20000120 	andcs	r0, r0, r0, lsr #2

08001cac <HAL_Delay>:
  *       implementations in user file.
  * @param Delay specifies the delay time length, in milliseconds.
  * @retval None
  */
__weak void HAL_Delay(uint32_t Delay)
{
 8001cac:	b538      	push	{r3, r4, r5, lr}
 8001cae:	4604      	mov	r4, r0
  uint32_t tickstart = HAL_GetTick();
 8001cb0:	f7ff fff6 	bl	8001ca0 <HAL_GetTick>
 8001cb4:	4605      	mov	r5, r0
  uint32_t wait = Delay;

  /* Add a freq to guarantee minimum wait */
  if (wait < HAL_MAX_DELAY)
 8001cb6:	f1b4 3fff 	cmp.w	r4, #4294967295
 8001cba:	d002      	beq.n	8001cc2 <HAL_Delay+0x16>
  {
    wait += (uint32_t)(uwTickFreq);
 8001cbc:	4b04      	ldr	r3, [pc, #16]	; (8001cd0 <HAL_Delay+0x24>)
 8001cbe:	781b      	ldrb	r3, [r3, #0]
 8001cc0:	441c      	add	r4, r3
  }

  while((HAL_GetTick() - tickstart) < wait)
 8001cc2:	f7ff ffed 	bl	8001ca0 <HAL_GetTick>
 8001cc6:	1b40      	subs	r0, r0, r5
 8001cc8:	42a0      	cmp	r0, r4
 8001cca:	d3fa      	bcc.n	8001cc2 <HAL_Delay+0x16>
  {
  }
}
 8001ccc:	bd38      	pop	{r3, r4, r5, pc}
 8001cce:	bf00      	nop
 8001cd0:	20000000 	andcs	r0, r0, r0

08001cd4 <SystemInit>:
  */
void SystemInit(void)
{
  /* FPU settings ------------------------------------------------------------*/
  #if (__FPU_PRESENT == 1) && (__FPU_USED == 1)
    SCB->CPACR |= ((3UL << 10*2)|(3UL << 11*2));  /* set CP10 and CP11 Full Access */
 8001cd4:	4a03      	ldr	r2, [pc, #12]	; (8001ce4 <SystemInit+0x10>)
 8001cd6:	f8d2 3088 	ldr.w	r3, [r2, #136]	; 0x88
 8001cda:	f443 0370 	orr.w	r3, r3, #15728640	; 0xf00000
 8001cde:	f8c2 3088 	str.w	r3, [r2, #136]	; 0x88

  /* Configure the Vector Table location -------------------------------------*/
#if defined(USER_VECT_TAB_ADDRESS)
  SCB->VTOR = VECT_TAB_BASE_ADDRESS | VECT_TAB_OFFSET; /* Vector Table Relocation in Internal SRAM */
#endif /* USER_VECT_TAB_ADDRESS */
}
 8001ce2:	4770      	bx	lr
 8001ce4:	e000ed00 	and	lr, r0, r0, lsl #26

08001ce8 <_tx_thread_stack_analyze>:
{
unsigned int posture;
#ifdef TX_PORT_USE_BASEPRI
    __asm__ volatile ("MRS  %0, BASEPRI ": "=r" (posture));
#else
    __asm__ volatile ("MRS  %0, PRIMASK ": "=r" (posture));
 8001ce8:	f3ef 8310 	mrs	r3, PRIMASK
    int_posture = __get_interrupt_posture();

#ifdef TX_PORT_USE_BASEPRI
    __set_basepri_value(TX_PORT_BASEPRI);
#else
    __asm__ volatile ("CPSID i" : : : "memory");
 8001cec:	b672      	cpsid	i

    /* Disable interrupts.  */
    TX_DISABLE

    /* Determine if the thread pointer is NULL.  */
    if (thread_ptr != TX_NULL)
 8001cee:	b118      	cbz	r0, 8001cf8 <_tx_thread_stack_analyze+0x10>
    {

        /* Determine if the thread ID is invalid.  */
        if (thread_ptr -> tx_thread_id == TX_THREAD_ID)
 8001cf0:	6801      	ldr	r1, [r0, #0]
 8001cf2:	4a1f      	ldr	r2, [pc, #124]	; (8001d70 <_tx_thread_stack_analyze+0x88>)
 8001cf4:	4291      	cmp	r1, r2
 8001cf6:	d002      	beq.n	8001cfe <_tx_thread_stack_analyze+0x16>
    __asm__ volatile ("MSR  PRIMASK,%0": : "r" (int_posture): "memory");
 8001cf8:	f383 8810 	msr	PRIMASK, r3
 8001cfc:	4770      	bx	lr
        {

            /* Pickup the current stack variables.  */
            stack_lowest =   TX_VOID_TO_ULONG_POINTER_CONVERT(thread_ptr -> tx_thread_stack_start);
 8001cfe:	68c1      	ldr	r1, [r0, #12]

            /* Determine if the pointer is null.  */
            if (stack_lowest != TX_NULL)
 8001d00:	2900      	cmp	r1, #0
 8001d02:	d0f9      	beq.n	8001cf8 <_tx_thread_stack_analyze+0x10>
{
 8001d04:	b470      	push	{r4, r5, r6}
            {

                /* Pickup the highest stack pointer.  */
                stack_highest =  TX_VOID_TO_ULONG_POINTER_CONVERT(thread_ptr -> tx_thread_stack_highest_ptr);
 8001d06:	f8d0 60cc 	ldr.w	r6, [r0, #204]	; 0xcc

                /* Determine if the pointer is null.  */
                if (stack_highest != TX_NULL)
 8001d0a:	b1ee      	cbz	r6, 8001d48 <_tx_thread_stack_analyze+0x60>
 8001d0c:	f383 8810 	msr	PRIMASK, r3
}
 8001d10:	e002      	b.n	8001d18 <_tx_thread_stack_analyze+0x30>
                        }
                        else
                        {

                            /* Update the stack lowest, since we need to look in the lower half now.  */
                            stack_lowest =  stack_ptr;
 8001d12:	4611      	mov	r1, r2
                        }

                    } while(size > ((ULONG) 1));
 8001d14:	2b03      	cmp	r3, #3
 8001d16:	d90d      	bls.n	8001d34 <_tx_thread_stack_analyze+0x4c>
                        size =  (ULONG) (TX_ULONG_POINTER_DIF(stack_highest, stack_lowest))/((ULONG) 2);
 8001d18:	1a73      	subs	r3, r6, r1
 8001d1a:	109b      	asrs	r3, r3, #2
 8001d1c:	085c      	lsrs	r4, r3, #1
                        stack_ptr =  TX_ULONG_POINTER_ADD(stack_lowest, size);
 8001d1e:	eb01 0284 	add.w	r2, r1, r4, lsl #2
                        if (*stack_ptr != TX_STACK_FILL)
 8001d22:	f851 5024 	ldr.w	r5, [r1, r4, lsl #2]
 8001d26:	f8d0 40d4 	ldr.w	r4, [r0, #212]	; 0xd4
 8001d2a:	42a5      	cmp	r5, r4
 8001d2c:	d0f1      	beq.n	8001d12 <_tx_thread_stack_analyze+0x2a>
                            stack_highest =  stack_ptr;
 8001d2e:	4616      	mov	r6, r2
 8001d30:	e7f0      	b.n	8001d14 <_tx_thread_stack_analyze+0x2c>
                    /* Position to first used word - at this point we are within a few words.  */
                    while (*stack_ptr == TX_STACK_FILL)
                    {

                        /* Position to next word in stack.  */
                        stack_ptr =  TX_ULONG_POINTER_ADD(stack_ptr, 1);
 8001d32:	3204      	adds	r2, #4
                    while (*stack_ptr == TX_STACK_FILL)
 8001d34:	6813      	ldr	r3, [r2, #0]
 8001d36:	429c      	cmp	r4, r3
 8001d38:	d0fb      	beq.n	8001d32 <_tx_thread_stack_analyze+0x4a>
    __asm__ volatile ("MRS  %0, PRIMASK ": "=r" (posture));
 8001d3a:	f3ef 8310 	mrs	r3, PRIMASK
    __asm__ volatile ("CPSID i" : : : "memory");
 8001d3e:	b672      	cpsid	i

                    /* Disable interrupts.  */
                    TX_DISABLE

                    /* Check to see if the thread is still created.  */
                    if (thread_ptr -> tx_thread_id == TX_THREAD_ID)
 8001d40:	6804      	ldr	r4, [r0, #0]
 8001d42:	490b      	ldr	r1, [pc, #44]	; (8001d70 <_tx_thread_stack_analyze+0x88>)
 8001d44:	428c      	cmp	r4, r1
 8001d46:	d003      	beq.n	8001d50 <_tx_thread_stack_analyze+0x68>
    __asm__ volatile ("MSR  PRIMASK,%0": : "r" (int_posture): "memory");
 8001d48:	f383 8810 	msr	PRIMASK, r3
        }
    }

    /* Restore interrupts.  */
    TX_RESTORE
}
 8001d4c:	bc70      	pop	{r4, r5, r6}
 8001d4e:	4770      	bx	lr
                        if (stack_ptr > (TX_VOID_TO_ULONG_POINTER_CONVERT(thread_ptr -> tx_thread_stack_start)))
 8001d50:	68c1      	ldr	r1, [r0, #12]
 8001d52:	4291      	cmp	r1, r2
 8001d54:	d2f8      	bcs.n	8001d48 <_tx_thread_stack_analyze+0x60>
                            if (stack_ptr < (TX_VOID_TO_ULONG_POINTER_CONVERT(thread_ptr -> tx_thread_stack_highest_ptr)))
 8001d56:	f8d0 10cc 	ldr.w	r1, [r0, #204]	; 0xcc
 8001d5a:	4291      	cmp	r1, r2
 8001d5c:	d9f4      	bls.n	8001d48 <_tx_thread_stack_analyze+0x60>
                                if (*stack_ptr != TX_STACK_FILL)
 8001d5e:	6814      	ldr	r4, [r2, #0]
 8001d60:	f8d0 10d4 	ldr.w	r1, [r0, #212]	; 0xd4
 8001d64:	428c      	cmp	r4, r1
 8001d66:	d0ef      	beq.n	8001d48 <_tx_thread_stack_analyze+0x60>
                                    thread_ptr -> tx_thread_stack_highest_ptr =  stack_ptr;
 8001d68:	f8c0 20cc 	str.w	r2, [r0, #204]	; 0xcc
 8001d6c:	e7ec      	b.n	8001d48 <_tx_thread_stack_analyze+0x60>
 8001d6e:	bf00      	nop
 8001d70:	54485244 	strbpl	r5, [r8], #-580	; 0xfffffdbc

08001d74 <_tx_thread_stack_error_handler>:
/*                                            stack check error handling, */
/*                                            resulting in version 6.1.9  */
/*                                                                        */
/**************************************************************************/
VOID  _tx_thread_stack_error_handler(TX_THREAD *thread_ptr)
{
 8001d74:	b510      	push	{r4, lr}
    __asm__ volatile ("MRS  %0, PRIMASK ": "=r" (posture));
 8001d76:	f3ef 8410 	mrs	r4, PRIMASK
    __asm__ volatile ("CPSID i" : : : "memory");
 8001d7a:	b672      	cpsid	i

    /* Disable interrupts.  */
    TX_DISABLE

    /* Determine if the application has registered an error handler.  */
    if (_tx_thread_application_stack_error_handler != TX_NULL)
 8001d7c:	4b03      	ldr	r3, [pc, #12]	; (8001d8c <_tx_thread_stack_error_handler+0x18>)
 8001d7e:	681b      	ldr	r3, [r3, #0]
 8001d80:	b103      	cbz	r3, 8001d84 <_tx_thread_stack_error_handler+0x10>
    {

        /* Yes, an error handler is present, simply call the application error handler.  */
        (_tx_thread_application_stack_error_handler)(thread_ptr);
 8001d82:	4798      	blx	r3
    __asm__ volatile ("MSR  PRIMASK,%0": : "r" (int_posture): "memory");
 8001d84:	f384 8810 	msr	PRIMASK, r4

        /* Restore interrupts.  */
        TX_RESTORE
    }
#endif
}
 8001d88:	bd10      	pop	{r4, pc}
 8001d8a:	bf00      	nop
 8001d8c:	20000128 	andcs	r0, r0, r8, lsr #2

08001d90 <_tx_thread_system_ni_resume>:

/* Define the non-interruptable version of thread resume. It is assumed at this point that
   all interrupts are disabled and will remain so during this function.  */

VOID  _tx_thread_system_ni_resume(TX_THREAD *thread_ptr)
{
 8001d90:	b510      	push	{r4, lr}
 8001d92:	4604      	mov	r4, r0


#ifndef TX_NO_TIMER

    /* Deactivate the timeout timer if necessary.  */
    if (thread_ptr -> tx_thread_timer.tx_timer_internal_list_head != TX_NULL)
 8001d94:	6e43      	ldr	r3, [r0, #100]	; 0x64
 8001d96:	b113      	cbz	r3, 8001d9e <_tx_thread_system_ni_resume+0xe>
    {

        /* Deactivate the thread's timeout timer.  */
        _tx_timer_system_deactivate(&(thread_ptr -> tx_thread_timer));
 8001d98:	304c      	adds	r0, #76	; 0x4c
 8001d9a:	f000 fa57 	bl	800224c <_tx_timer_system_deactivate>
    __asm__ volatile ("MRS  %0, PRIMASK ": "=r" (posture));
 8001d9e:	f3ef 8310 	mrs	r3, PRIMASK
    __asm__ volatile ("CPSID i" : : : "memory");
 8001da2:	b672      	cpsid	i
#endif

#ifdef TX_ENABLE_STACK_CHECKING

    /* Check this thread's stack.  */
    TX_THREAD_STACK_CHECK(thread_ptr)
 8001da4:	b11c      	cbz	r4, 8001dae <_tx_thread_system_ni_resume+0x1e>
 8001da6:	6821      	ldr	r1, [r4, #0]
 8001da8:	4a9d      	ldr	r2, [pc, #628]	; (8002020 <_tx_thread_system_ni_resume+0x290>)
 8001daa:	4291      	cmp	r1, r2
 8001dac:	d01f      	beq.n	8001dee <_tx_thread_system_ni_resume+0x5e>
    __asm__ volatile ("MSR  PRIMASK,%0": : "r" (int_posture): "memory");
 8001dae:	f383 8810 	msr	PRIMASK, r3
#endif

    /* Thread is not in the process of suspending. Now check to make sure the thread
       has not already been resumed.  */
    if (thread_ptr -> tx_thread_state != TX_READY)
 8001db2:	6b23      	ldr	r3, [r4, #48]	; 0x30
 8001db4:	2b00      	cmp	r3, #0
 8001db6:	f000 80f9 	beq.w	8001fac <_tx_thread_system_ni_resume+0x21c>
    {

        /* No, now check to see if the delayed suspension flag is set.  */
        if (thread_ptr -> tx_thread_delayed_suspend == TX_FALSE)
 8001dba:	6b63      	ldr	r3, [r4, #52]	; 0x34
 8001dbc:	2b00      	cmp	r3, #0
 8001dbe:	f040 80f1 	bne.w	8001fa4 <_tx_thread_system_ni_resume+0x214>
            /* Resume the thread!  */

            /* Make this thread ready.  */

            /* Change the state to ready.  */
            thread_ptr -> tx_thread_state =  TX_READY;
 8001dc2:	6323      	str	r3, [r4, #48]	; 0x30

            /* Log the thread status change.  */
            TX_EL_THREAD_STATUS_CHANGE_INSERT(thread_ptr, TX_READY)

            /* Pickup priority of thread.  */
            priority =  thread_ptr -> tx_thread_priority;
 8001dc4:	6ae2      	ldr	r2, [r4, #44]	; 0x2c

#ifdef TX_THREAD_ENABLE_PERFORMANCE_INFO

            /* Increment the total number of thread resumptions.  */
            _tx_thread_performance_resume_count++;
 8001dc6:	4997      	ldr	r1, [pc, #604]	; (8002024 <_tx_thread_system_ni_resume+0x294>)
 8001dc8:	680b      	ldr	r3, [r1, #0]
 8001dca:	3301      	adds	r3, #1
 8001dcc:	600b      	str	r3, [r1, #0]

            /* Increment this thread's resume count.  */
            thread_ptr -> tx_thread_performance_resume_count++;
 8001dce:	f8d4 30a4 	ldr.w	r3, [r4, #164]	; 0xa4
 8001dd2:	3301      	adds	r3, #1
 8001dd4:	f8c4 30a4 	str.w	r3, [r4, #164]	; 0xa4
#endif

            /* Determine if there are other threads at this priority that are
               ready.  */
            head_ptr =  _tx_thread_priority_list[priority];
 8001dd8:	4b93      	ldr	r3, [pc, #588]	; (8002028 <_tx_thread_system_ni_resume+0x298>)
 8001dda:	f853 3022 	ldr.w	r3, [r3, r2, lsl #2]
            if (head_ptr == TX_NULL)
 8001dde:	2b00      	cmp	r3, #0
 8001de0:	d035      	beq.n	8001e4e <_tx_thread_system_ni_resume+0xbe>
            {

                /* No, there are other threads at this priority already ready.  */

                /* Just add this thread to the priority list.  */
                tail_ptr =                                 head_ptr -> tx_thread_ready_previous;
 8001de2:	6a5a      	ldr	r2, [r3, #36]	; 0x24
                tail_ptr -> tx_thread_ready_next =         thread_ptr;
 8001de4:	6214      	str	r4, [r2, #32]
                head_ptr -> tx_thread_ready_previous =     thread_ptr;
 8001de6:	625c      	str	r4, [r3, #36]	; 0x24
                thread_ptr -> tx_thread_ready_previous =   tail_ptr;
 8001de8:	6262      	str	r2, [r4, #36]	; 0x24
                thread_ptr -> tx_thread_ready_next =       head_ptr;
 8001dea:	6223      	str	r3, [r4, #32]
 8001dec:	e0de      	b.n	8001fac <_tx_thread_system_ni_resume+0x21c>
    TX_THREAD_STACK_CHECK(thread_ptr)
 8001dee:	68a2      	ldr	r2, [r4, #8]
 8001df0:	f8d4 10cc 	ldr.w	r1, [r4, #204]	; 0xcc
 8001df4:	428a      	cmp	r2, r1
 8001df6:	d201      	bcs.n	8001dfc <_tx_thread_system_ni_resume+0x6c>
 8001df8:	f8c4 20cc 	str.w	r2, [r4, #204]	; 0xcc
 8001dfc:	68e1      	ldr	r1, [r4, #12]
 8001dfe:	6808      	ldr	r0, [r1, #0]
 8001e00:	f8d4 20d4 	ldr.w	r2, [r4, #212]	; 0xd4
 8001e04:	4290      	cmp	r0, r2
 8001e06:	d104      	bne.n	8001e12 <_tx_thread_system_ni_resume+0x82>
 8001e08:	6920      	ldr	r0, [r4, #16]
 8001e0a:	f8d0 0001 	ldr.w	r0, [r0, #1]
 8001e0e:	4282      	cmp	r2, r0
 8001e10:	d018      	beq.n	8001e44 <_tx_thread_system_ni_resume+0xb4>
 8001e12:	f383 8810 	msr	PRIMASK, r3
 8001e16:	4620      	mov	r0, r4
 8001e18:	f7ff ffac 	bl	8001d74 <_tx_thread_stack_error_handler>
    __asm__ volatile ("MRS  %0, PRIMASK ": "=r" (posture));
 8001e1c:	f3ef 8310 	mrs	r3, PRIMASK
    __asm__ volatile ("CPSID i" : : : "memory");
 8001e20:	b672      	cpsid	i
 8001e22:	f8d4 20cc 	ldr.w	r2, [r4, #204]	; 0xcc
 8001e26:	f852 1c04 	ldr.w	r1, [r2, #-4]
 8001e2a:	f8d4 20d4 	ldr.w	r2, [r4, #212]	; 0xd4
 8001e2e:	4291      	cmp	r1, r2
 8001e30:	d0bd      	beq.n	8001dae <_tx_thread_system_ni_resume+0x1e>
    __asm__ volatile ("MSR  PRIMASK,%0": : "r" (int_posture): "memory");
 8001e32:	f383 8810 	msr	PRIMASK, r3
 8001e36:	4620      	mov	r0, r4
 8001e38:	f7ff ff56 	bl	8001ce8 <_tx_thread_stack_analyze>
    __asm__ volatile ("MRS  %0, PRIMASK ": "=r" (posture));
 8001e3c:	f3ef 8310 	mrs	r3, PRIMASK
    __asm__ volatile ("CPSID i" : : : "memory");
 8001e40:	b672      	cpsid	i
#endif
    return(int_posture);
 8001e42:	e7b4      	b.n	8001dae <_tx_thread_system_ni_resume+0x1e>
 8001e44:	f8d4 20cc 	ldr.w	r2, [r4, #204]	; 0xcc
 8001e48:	4291      	cmp	r1, r2
 8001e4a:	d9ea      	bls.n	8001e22 <_tx_thread_system_ni_resume+0x92>
 8001e4c:	e7e1      	b.n	8001e12 <_tx_thread_system_ni_resume+0x82>
                _tx_thread_priority_list[priority] =       thread_ptr;
 8001e4e:	4b76      	ldr	r3, [pc, #472]	; (8002028 <_tx_thread_system_ni_resume+0x298>)
 8001e50:	f843 4022 	str.w	r4, [r3, r2, lsl #2]
                thread_ptr -> tx_thread_ready_next =       thread_ptr;
 8001e54:	6224      	str	r4, [r4, #32]
                thread_ptr -> tx_thread_ready_previous =   thread_ptr;
 8001e56:	6264      	str	r4, [r4, #36]	; 0x24
                TX_MOD32_BIT_SET(priority, priority_bit)
 8001e58:	2301      	movs	r3, #1
 8001e5a:	fa03 f102 	lsl.w	r1, r3, r2
                _tx_thread_priority_maps[MAP_INDEX] =  _tx_thread_priority_maps[MAP_INDEX] | priority_bit;
 8001e5e:	4873      	ldr	r0, [pc, #460]	; (800202c <_tx_thread_system_ni_resume+0x29c>)
 8001e60:	6803      	ldr	r3, [r0, #0]
 8001e62:	430b      	orrs	r3, r1
 8001e64:	6003      	str	r3, [r0, #0]
                if (priority < _tx_thread_highest_priority)
 8001e66:	4b72      	ldr	r3, [pc, #456]	; (8002030 <_tx_thread_system_ni_resume+0x2a0>)
 8001e68:	681b      	ldr	r3, [r3, #0]
 8001e6a:	4293      	cmp	r3, r2
 8001e6c:	f240 809e 	bls.w	8001fac <_tx_thread_system_ni_resume+0x21c>
                    _tx_thread_highest_priority =  priority;
 8001e70:	4b6f      	ldr	r3, [pc, #444]	; (8002030 <_tx_thread_system_ni_resume+0x2a0>)
 8001e72:	601a      	str	r2, [r3, #0]
                    execute_ptr =  _tx_thread_execute_ptr;
 8001e74:	4b6f      	ldr	r3, [pc, #444]	; (8002034 <_tx_thread_system_ni_resume+0x2a4>)
 8001e76:	681b      	ldr	r3, [r3, #0]
                    if (execute_ptr == TX_NULL)
 8001e78:	2b00      	cmp	r3, #0
 8001e7a:	d04e      	beq.n	8001f1a <_tx_thread_system_ni_resume+0x18a>
                        if (priority < execute_ptr -> tx_thread_preempt_threshold)
 8001e7c:	6bd9      	ldr	r1, [r3, #60]	; 0x3c
 8001e7e:	4291      	cmp	r1, r2
 8001e80:	f240 8094 	bls.w	8001fac <_tx_thread_system_ni_resume+0x21c>
    __asm__ volatile (" MRS  %0,IPSR ": "=r" (ipsr_value) );
 8001e84:	f3ef 8205 	mrs	r2, IPSR
                            if (TX_THREAD_GET_SYSTEM_STATE() == ((ULONG) 0))
 8001e88:	496b      	ldr	r1, [pc, #428]	; (8002038 <_tx_thread_system_ni_resume+0x2a8>)
 8001e8a:	6809      	ldr	r1, [r1, #0]
 8001e8c:	430a      	orrs	r2, r1
 8001e8e:	d147      	bne.n	8001f20 <_tx_thread_system_ni_resume+0x190>
                                _tx_thread_performance_solicited_preemption_count++;
 8001e90:	496a      	ldr	r1, [pc, #424]	; (800203c <_tx_thread_system_ni_resume+0x2ac>)
 8001e92:	680a      	ldr	r2, [r1, #0]
 8001e94:	3201      	adds	r2, #1
 8001e96:	600a      	str	r2, [r1, #0]
                                execute_ptr -> tx_thread_performance_solicited_preemption_count++;
 8001e98:	f8d3 20ac 	ldr.w	r2, [r3, #172]	; 0xac
 8001e9c:	3201      	adds	r2, #1
 8001e9e:	f8c3 20ac 	str.w	r2, [r3, #172]	; 0xac
                            execute_ptr -> tx_thread_performance_last_preempting_thread =  thread_ptr;
 8001ea2:	f8c3 40b8 	str.w	r4, [r3, #184]	; 0xb8
                            _tx_thread_execute_ptr =  thread_ptr;
 8001ea6:	4b63      	ldr	r3, [pc, #396]	; (8002034 <_tx_thread_system_ni_resume+0x2a4>)
 8001ea8:	601c      	str	r4, [r3, #0]
                            if (_tx_thread_performance_execute_log[_tx_thread_performance__execute_log_index] != _tx_thread_execute_ptr)
 8001eaa:	4b65      	ldr	r3, [pc, #404]	; (8002040 <_tx_thread_system_ni_resume+0x2b0>)
 8001eac:	681b      	ldr	r3, [r3, #0]
 8001eae:	4a65      	ldr	r2, [pc, #404]	; (8002044 <_tx_thread_system_ni_resume+0x2b4>)
 8001eb0:	f852 2023 	ldr.w	r2, [r2, r3, lsl #2]
 8001eb4:	42a2      	cmp	r2, r4
 8001eb6:	d00c      	beq.n	8001ed2 <_tx_thread_system_ni_resume+0x142>
                                _tx_thread_performance__execute_log_index++;
 8001eb8:	3301      	adds	r3, #1
 8001eba:	4a61      	ldr	r2, [pc, #388]	; (8002040 <_tx_thread_system_ni_resume+0x2b0>)
 8001ebc:	6013      	str	r3, [r2, #0]
                                if (_tx_thread_performance__execute_log_index >= TX_THREAD_EXECUTE_LOG_SIZE)
 8001ebe:	2b07      	cmp	r3, #7
 8001ec0:	d902      	bls.n	8001ec8 <_tx_thread_system_ni_resume+0x138>
                                    _tx_thread_performance__execute_log_index =  ((UINT) 0);
 8001ec2:	4613      	mov	r3, r2
 8001ec4:	2200      	movs	r2, #0
 8001ec6:	601a      	str	r2, [r3, #0]
                                _tx_thread_performance_execute_log[_tx_thread_performance__execute_log_index] =  _tx_thread_execute_ptr;
 8001ec8:	4b5d      	ldr	r3, [pc, #372]	; (8002040 <_tx_thread_system_ni_resume+0x2b0>)
 8001eca:	681a      	ldr	r2, [r3, #0]
 8001ecc:	4b5d      	ldr	r3, [pc, #372]	; (8002044 <_tx_thread_system_ni_resume+0x2b4>)
 8001ece:	f843 4022 	str.w	r4, [r3, r2, lsl #2]
    __asm__ volatile ("MRS  %0, PRIMASK ": "=r" (posture));
 8001ed2:	f3ef 8310 	mrs	r3, PRIMASK
    __asm__ volatile ("CPSID i" : : : "memory");
 8001ed6:	b672      	cpsid	i
                            TX_THREAD_STACK_CHECK(thread_ptr)
 8001ed8:	b11c      	cbz	r4, 8001ee2 <_tx_thread_system_ni_resume+0x152>
 8001eda:	6821      	ldr	r1, [r4, #0]
 8001edc:	4a50      	ldr	r2, [pc, #320]	; (8002020 <_tx_thread_system_ni_resume+0x290>)
 8001ede:	4291      	cmp	r1, r2
 8001ee0:	d030      	beq.n	8001f44 <_tx_thread_system_ni_resume+0x1b4>
    __asm__ volatile ("MSR  PRIMASK,%0": : "r" (int_posture): "memory");
 8001ee2:	f383 8810 	msr	PRIMASK, r3
                            TX_THREAD_SYSTEM_RETURN_CHECK(combined_flags)
 8001ee6:	4b58      	ldr	r3, [pc, #352]	; (8002048 <_tx_thread_system_ni_resume+0x2b8>)
 8001ee8:	681b      	ldr	r3, [r3, #0]
                            if (combined_flags == ((ULONG) 0))
 8001eea:	2b00      	cmp	r3, #0
 8001eec:	f040 8097 	bne.w	800201e <_tx_thread_system_ni_resume+0x28e>
                                _tx_thread_performance_non_idle_return_count++;
 8001ef0:	4a56      	ldr	r2, [pc, #344]	; (800204c <_tx_thread_system_ni_resume+0x2bc>)
 8001ef2:	6813      	ldr	r3, [r2, #0]
 8001ef4:	3301      	adds	r3, #1
 8001ef6:	6013      	str	r3, [r2, #0]
__attribute__( ( always_inline ) ) static inline void _tx_thread_system_return_inline(void)
{
unsigned int interrupt_save;

    /* Set PendSV to invoke ThreadX scheduler.  */
    *((volatile ULONG *) 0xE000ED04) = ((ULONG) 0x10000000);
 8001ef8:	f04f 23e0 	mov.w	r3, #3758153728	; 0xe000e000
 8001efc:	f04f 5280 	mov.w	r2, #268435456	; 0x10000000
 8001f00:	f8c3 2d04 	str.w	r2, [r3, #3332]	; 0xd04
    __asm__ volatile (" MRS  %0,IPSR ": "=r" (ipsr_value) );
 8001f04:	f3ef 8305 	mrs	r3, IPSR
    if (__get_ipsr_value() == 0)
 8001f08:	2b00      	cmp	r3, #0
 8001f0a:	f040 8088 	bne.w	800201e <_tx_thread_system_ni_resume+0x28e>
    __asm__ volatile ("MRS  %0, PRIMASK ": "=r" (posture));
 8001f0e:	f3ef 8310 	mrs	r3, PRIMASK
    __asm__ volatile ("CPSIE  i": : : "memory");
 8001f12:	b662      	cpsie	i
    __asm__ volatile ("MSR  PRIMASK,%0": : "r" (int_posture): "memory");
 8001f14:	f383 8810 	msr	PRIMASK, r3
                            return;
 8001f18:	e081      	b.n	800201e <_tx_thread_system_ni_resume+0x28e>
                        _tx_thread_execute_ptr =  thread_ptr;
 8001f1a:	4b46      	ldr	r3, [pc, #280]	; (8002034 <_tx_thread_system_ni_resume+0x2a4>)
 8001f1c:	601c      	str	r4, [r3, #0]
 8001f1e:	e045      	b.n	8001fac <_tx_thread_system_ni_resume+0x21c>
    __asm__ volatile (" MRS  %0,IPSR ": "=r" (ipsr_value) );
 8001f20:	f3ef 8105 	mrs	r1, IPSR
                                if (TX_THREAD_GET_SYSTEM_STATE() < TX_INITIALIZE_IN_PROGRESS)
 8001f24:	4a44      	ldr	r2, [pc, #272]	; (8002038 <_tx_thread_system_ni_resume+0x2a8>)
 8001f26:	6812      	ldr	r2, [r2, #0]
 8001f28:	430a      	orrs	r2, r1
 8001f2a:	f1b2 3ff0 	cmp.w	r2, #4042322160	; 0xf0f0f0f0
 8001f2e:	d2b8      	bcs.n	8001ea2 <_tx_thread_system_ni_resume+0x112>
                                    _tx_thread_performance_interrupt_preemption_count++;
 8001f30:	4947      	ldr	r1, [pc, #284]	; (8002050 <_tx_thread_system_ni_resume+0x2c0>)
 8001f32:	680a      	ldr	r2, [r1, #0]
 8001f34:	3201      	adds	r2, #1
 8001f36:	600a      	str	r2, [r1, #0]
                                    execute_ptr -> tx_thread_performance_interrupt_preemption_count++;
 8001f38:	f8d3 20b0 	ldr.w	r2, [r3, #176]	; 0xb0
 8001f3c:	3201      	adds	r2, #1
 8001f3e:	f8c3 20b0 	str.w	r2, [r3, #176]	; 0xb0
 8001f42:	e7ae      	b.n	8001ea2 <_tx_thread_system_ni_resume+0x112>
                            TX_THREAD_STACK_CHECK(thread_ptr)
 8001f44:	68a2      	ldr	r2, [r4, #8]
 8001f46:	f8d4 10cc 	ldr.w	r1, [r4, #204]	; 0xcc
 8001f4a:	428a      	cmp	r2, r1
 8001f4c:	d201      	bcs.n	8001f52 <_tx_thread_system_ni_resume+0x1c2>
 8001f4e:	f8c4 20cc 	str.w	r2, [r4, #204]	; 0xcc
 8001f52:	68e2      	ldr	r2, [r4, #12]
 8001f54:	6810      	ldr	r0, [r2, #0]
 8001f56:	f8d4 10d4 	ldr.w	r1, [r4, #212]	; 0xd4
 8001f5a:	4288      	cmp	r0, r1
 8001f5c:	d104      	bne.n	8001f68 <_tx_thread_system_ni_resume+0x1d8>
 8001f5e:	6920      	ldr	r0, [r4, #16]
 8001f60:	f8d0 0001 	ldr.w	r0, [r0, #1]
 8001f64:	4281      	cmp	r1, r0
 8001f66:	d018      	beq.n	8001f9a <_tx_thread_system_ni_resume+0x20a>
    __asm__ volatile ("MSR  PRIMASK,%0": : "r" (int_posture): "memory");
 8001f68:	f383 8810 	msr	PRIMASK, r3
 8001f6c:	4620      	mov	r0, r4
 8001f6e:	f7ff ff01 	bl	8001d74 <_tx_thread_stack_error_handler>
    __asm__ volatile ("MRS  %0, PRIMASK ": "=r" (posture));
 8001f72:	f3ef 8310 	mrs	r3, PRIMASK
    __asm__ volatile ("CPSID i" : : : "memory");
 8001f76:	b672      	cpsid	i
 8001f78:	f8d4 20cc 	ldr.w	r2, [r4, #204]	; 0xcc
 8001f7c:	f852 1c04 	ldr.w	r1, [r2, #-4]
 8001f80:	f8d4 20d4 	ldr.w	r2, [r4, #212]	; 0xd4
 8001f84:	4291      	cmp	r1, r2
 8001f86:	d0ac      	beq.n	8001ee2 <_tx_thread_system_ni_resume+0x152>
    __asm__ volatile ("MSR  PRIMASK,%0": : "r" (int_posture): "memory");
 8001f88:	f383 8810 	msr	PRIMASK, r3
 8001f8c:	4620      	mov	r0, r4
 8001f8e:	f7ff feab 	bl	8001ce8 <_tx_thread_stack_analyze>
    __asm__ volatile ("MRS  %0, PRIMASK ": "=r" (posture));
 8001f92:	f3ef 8310 	mrs	r3, PRIMASK
    __asm__ volatile ("CPSID i" : : : "memory");
 8001f96:	b672      	cpsid	i
    return(int_posture);
 8001f98:	e7a3      	b.n	8001ee2 <_tx_thread_system_ni_resume+0x152>
 8001f9a:	f8d4 10cc 	ldr.w	r1, [r4, #204]	; 0xcc
 8001f9e:	428a      	cmp	r2, r1
 8001fa0:	d9ea      	bls.n	8001f78 <_tx_thread_system_ni_resume+0x1e8>
 8001fa2:	e7e1      	b.n	8001f68 <_tx_thread_system_ni_resume+0x1d8>
        /* Else, delayed suspend flag was set.  */
        else
        {

            /* Clear the delayed suspend flag and change the state.  */
            thread_ptr -> tx_thread_delayed_suspend =  TX_FALSE;
 8001fa4:	2300      	movs	r3, #0
 8001fa6:	6363      	str	r3, [r4, #52]	; 0x34
            thread_ptr -> tx_thread_state =            TX_SUSPENDED;
 8001fa8:	2303      	movs	r3, #3
 8001faa:	6323      	str	r3, [r4, #48]	; 0x30
    }

#ifdef TX_THREAD_ENABLE_PERFORMANCE_INFO

    /* Is the execute pointer different?  */
    if (_tx_thread_performance_execute_log[_tx_thread_performance__execute_log_index] != _tx_thread_execute_ptr)
 8001fac:	4b24      	ldr	r3, [pc, #144]	; (8002040 <_tx_thread_system_ni_resume+0x2b0>)
 8001fae:	681b      	ldr	r3, [r3, #0]
 8001fb0:	4a24      	ldr	r2, [pc, #144]	; (8002044 <_tx_thread_system_ni_resume+0x2b4>)
 8001fb2:	f852 2023 	ldr.w	r2, [r2, r3, lsl #2]
 8001fb6:	491f      	ldr	r1, [pc, #124]	; (8002034 <_tx_thread_system_ni_resume+0x2a4>)
 8001fb8:	680c      	ldr	r4, [r1, #0]
 8001fba:	42a2      	cmp	r2, r4
 8001fbc:	d00c      	beq.n	8001fd8 <_tx_thread_system_ni_resume+0x248>
    {

        /* Move to next entry.  */
        _tx_thread_performance__execute_log_index++;
 8001fbe:	3301      	adds	r3, #1
 8001fc0:	4a1f      	ldr	r2, [pc, #124]	; (8002040 <_tx_thread_system_ni_resume+0x2b0>)
 8001fc2:	6013      	str	r3, [r2, #0]

        /* Check for wrap condition.  */
        if (_tx_thread_performance__execute_log_index >= TX_THREAD_EXECUTE_LOG_SIZE)
 8001fc4:	2b07      	cmp	r3, #7
 8001fc6:	d902      	bls.n	8001fce <_tx_thread_system_ni_resume+0x23e>
        {

            /* Set the index to the beginning.  */
            _tx_thread_performance__execute_log_index =  ((UINT) 0);
 8001fc8:	4613      	mov	r3, r2
 8001fca:	2200      	movs	r2, #0
 8001fcc:	601a      	str	r2, [r3, #0]
        }

        /* Log the new execute pointer.  */
        _tx_thread_performance_execute_log[_tx_thread_performance__execute_log_index] =  _tx_thread_execute_ptr;
 8001fce:	4b1c      	ldr	r3, [pc, #112]	; (8002040 <_tx_thread_system_ni_resume+0x2b0>)
 8001fd0:	681a      	ldr	r2, [r3, #0]
 8001fd2:	4b1c      	ldr	r3, [pc, #112]	; (8002044 <_tx_thread_system_ni_resume+0x2b4>)
 8001fd4:	f843 4022 	str.w	r4, [r3, r2, lsl #2]
        }
    }
#endif

    /* Pickup thread pointer.  */
    TX_THREAD_GET_CURRENT(current_thread)
 8001fd8:	4b1e      	ldr	r3, [pc, #120]	; (8002054 <_tx_thread_system_ni_resume+0x2c4>)
 8001fda:	681b      	ldr	r3, [r3, #0]

    /* Determine if a preemption condition is present.  */
    if (current_thread != _tx_thread_execute_ptr)
 8001fdc:	429c      	cmp	r4, r3
 8001fde:	d01e      	beq.n	800201e <_tx_thread_system_ni_resume+0x28e>
    __asm__ volatile ("MRS  %0, PRIMASK ": "=r" (posture));
 8001fe0:	f3ef 8310 	mrs	r3, PRIMASK
    __asm__ volatile ("CPSID i" : : : "memory");
 8001fe4:	b672      	cpsid	i

        /* Pickup the next execute pointer.  */
        thread_ptr =  _tx_thread_execute_ptr;

        /* Check this thread's stack.  */
        TX_THREAD_STACK_CHECK(thread_ptr)
 8001fe6:	b11c      	cbz	r4, 8001ff0 <_tx_thread_system_ni_resume+0x260>
 8001fe8:	6821      	ldr	r1, [r4, #0]
 8001fea:	4a0d      	ldr	r2, [pc, #52]	; (8002020 <_tx_thread_system_ni_resume+0x290>)
 8001fec:	4291      	cmp	r1, r2
 8001fee:	d033      	beq.n	8002058 <_tx_thread_system_ni_resume+0x2c8>
    __asm__ volatile ("MSR  PRIMASK,%0": : "r" (int_posture): "memory");
 8001ff0:	f383 8810 	msr	PRIMASK, r3
#endif

        /* Now determine if preemption should take place. This is only possible if the current thread pointer is
           not the same as the execute thread pointer AND the system state and preempt disable flags are clear.  */
        TX_THREAD_SYSTEM_RETURN_CHECK(combined_flags)
 8001ff4:	4b14      	ldr	r3, [pc, #80]	; (8002048 <_tx_thread_system_ni_resume+0x2b8>)
 8001ff6:	681b      	ldr	r3, [r3, #0]
        if (combined_flags == ((ULONG) 0))
 8001ff8:	b98b      	cbnz	r3, 800201e <_tx_thread_system_ni_resume+0x28e>
        {

#ifdef TX_THREAD_ENABLE_PERFORMANCE_INFO

            /* There is another thread ready to run and will be scheduled upon return.  */
            _tx_thread_performance_non_idle_return_count++;
 8001ffa:	4a14      	ldr	r2, [pc, #80]	; (800204c <_tx_thread_system_ni_resume+0x2bc>)
 8001ffc:	6813      	ldr	r3, [r2, #0]
 8001ffe:	3301      	adds	r3, #1
 8002000:	6013      	str	r3, [r2, #0]
    *((volatile ULONG *) 0xE000ED04) = ((ULONG) 0x10000000);
 8002002:	f04f 23e0 	mov.w	r3, #3758153728	; 0xe000e000
 8002006:	f04f 5280 	mov.w	r2, #268435456	; 0x10000000
 800200a:	f8c3 2d04 	str.w	r2, [r3, #3332]	; 0xd04
    __asm__ volatile (" MRS  %0,IPSR ": "=r" (ipsr_value) );
 800200e:	f3ef 8305 	mrs	r3, IPSR
    if (__get_ipsr_value() == 0)
 8002012:	b923      	cbnz	r3, 800201e <_tx_thread_system_ni_resume+0x28e>
    __asm__ volatile ("MRS  %0, PRIMASK ": "=r" (posture));
 8002014:	f3ef 8310 	mrs	r3, PRIMASK
    __asm__ volatile ("CPSIE  i": : : "memory");
 8002018:	b662      	cpsie	i
    __asm__ volatile ("MSR  PRIMASK,%0": : "r" (int_posture): "memory");
 800201a:	f383 8810 	msr	PRIMASK, r3

            /* Preemption is needed - return to the system!  */
            _tx_thread_system_return();
        }
    }
}
 800201e:	bd10      	pop	{r4, pc}
 8002020:	54485244 	strbpl	r5, [r8], #-580	; 0xfffffdbc
 8002024:	20000164 	andcs	r0, r0, r4, ror #2
 8002028:	20000174 	andcs	r0, r0, r4, ror r1
 800202c:	200001f4 	strdcs	r0, [r0], -r4
 8002030:	20000134 	andcs	r0, r0, r4, lsr r1
 8002034:	20000130 	andcs	r0, r0, r0, lsr r1
 8002038:	2000000c 	andcs	r0, r0, ip
 800203c:	20000168 	andcs	r0, r0, r8, ror #2
 8002040:	20000138 	andcs	r0, r0, r8, lsr r1
 8002044:	2000013c 	andcs	r0, r0, ip, lsr r1
 8002048:	20000170 	andcs	r0, r0, r0, ror r1
 800204c:	20000160 	andcs	r0, r0, r0, ror #2
 8002050:	2000015c 	andcs	r0, r0, ip, asr r1
 8002054:	2000012c 	andcs	r0, r0, ip, lsr #2
        TX_THREAD_STACK_CHECK(thread_ptr)
 8002058:	68a2      	ldr	r2, [r4, #8]
 800205a:	f8d4 10cc 	ldr.w	r1, [r4, #204]	; 0xcc
 800205e:	428a      	cmp	r2, r1
 8002060:	d201      	bcs.n	8002066 <_tx_thread_system_ni_resume+0x2d6>
 8002062:	f8c4 20cc 	str.w	r2, [r4, #204]	; 0xcc
 8002066:	68e1      	ldr	r1, [r4, #12]
 8002068:	6808      	ldr	r0, [r1, #0]
 800206a:	f8d4 20d4 	ldr.w	r2, [r4, #212]	; 0xd4
 800206e:	4290      	cmp	r0, r2
 8002070:	d104      	bne.n	800207c <_tx_thread_system_ni_resume+0x2ec>
 8002072:	6920      	ldr	r0, [r4, #16]
 8002074:	f8d0 0001 	ldr.w	r0, [r0, #1]
 8002078:	4282      	cmp	r2, r0
 800207a:	d018      	beq.n	80020ae <_tx_thread_system_ni_resume+0x31e>
 800207c:	f383 8810 	msr	PRIMASK, r3
 8002080:	4620      	mov	r0, r4
 8002082:	f7ff fe77 	bl	8001d74 <_tx_thread_stack_error_handler>
    __asm__ volatile ("MRS  %0, PRIMASK ": "=r" (posture));
 8002086:	f3ef 8310 	mrs	r3, PRIMASK
    __asm__ volatile ("CPSID i" : : : "memory");
 800208a:	b672      	cpsid	i
 800208c:	f8d4 20cc 	ldr.w	r2, [r4, #204]	; 0xcc
 8002090:	f852 1c04 	ldr.w	r1, [r2, #-4]
 8002094:	f8d4 20d4 	ldr.w	r2, [r4, #212]	; 0xd4
 8002098:	4291      	cmp	r1, r2
 800209a:	d0a9      	beq.n	8001ff0 <_tx_thread_system_ni_resume+0x260>
    __asm__ volatile ("MSR  PRIMASK,%0": : "r" (int_posture): "memory");
 800209c:	f383 8810 	msr	PRIMASK, r3
 80020a0:	4620      	mov	r0, r4
 80020a2:	f7ff fe21 	bl	8001ce8 <_tx_thread_stack_analyze>
    __asm__ volatile ("MRS  %0, PRIMASK ": "=r" (posture));
 80020a6:	f3ef 8310 	mrs	r3, PRIMASK
    __asm__ volatile ("CPSID i" : : : "memory");
 80020aa:	b672      	cpsid	i
    return(int_posture);
 80020ac:	e7a0      	b.n	8001ff0 <_tx_thread_system_ni_resume+0x260>
 80020ae:	f8d4 20cc 	ldr.w	r2, [r4, #204]	; 0xcc
 80020b2:	4291      	cmp	r1, r2
 80020b4:	d9ea      	bls.n	800208c <_tx_thread_system_ni_resume+0x2fc>
 80020b6:	e7e1      	b.n	800207c <_tx_thread_system_ni_resume+0x2ec>

080020b8 <_tx_thread_time_slice>:
/*                                            TX_NO_TIMER is defined,     */
/*                                            resulting in version 6.1    */
/*                                                                        */
/**************************************************************************/
VOID  _tx_thread_time_slice(VOID)
{
 80020b8:	b538      	push	{r3, r4, r5, lr}
ULONG           system_state;
UINT            preempt_disable;
#endif

    /* Pickup thread pointer.  */
    TX_THREAD_GET_CURRENT(thread_ptr)
 80020ba:	4b56      	ldr	r3, [pc, #344]	; (8002214 <_tx_thread_time_slice+0x15c>)
 80020bc:	681c      	ldr	r4, [r3, #0]
    __asm__ volatile ("MRS  %0, PRIMASK ": "=r" (posture));
 80020be:	f3ef 8310 	mrs	r3, PRIMASK
    __asm__ volatile ("CPSID i" : : : "memory");
 80020c2:	b672      	cpsid	i

#ifdef TX_ENABLE_STACK_CHECKING

    /* Check this thread's stack.  */
    TX_THREAD_STACK_CHECK(thread_ptr)
 80020c4:	b11c      	cbz	r4, 80020ce <_tx_thread_time_slice+0x16>
 80020c6:	6821      	ldr	r1, [r4, #0]
 80020c8:	4a53      	ldr	r2, [pc, #332]	; (8002218 <_tx_thread_time_slice+0x160>)
 80020ca:	4291      	cmp	r1, r2
 80020cc:	d00d      	beq.n	80020ea <_tx_thread_time_slice+0x32>
    __asm__ volatile ("MSR  PRIMASK,%0": : "r" (int_posture): "memory");
 80020ce:	f383 8810 	msr	PRIMASK, r3
    __asm__ volatile ("MRS  %0, PRIMASK ": "=r" (posture));
 80020d2:	f3ef 8110 	mrs	r1, PRIMASK
    __asm__ volatile ("CPSID i" : : : "memory");
 80020d6:	b672      	cpsid	i

    /* Lockout interrupts while the time-slice is evaluated.  */
    TX_DISABLE

    /* Clear the expired time-slice flag.  */
    _tx_timer_expired_time_slice =  TX_FALSE;
 80020d8:	4b50      	ldr	r3, [pc, #320]	; (800221c <_tx_thread_time_slice+0x164>)
 80020da:	2200      	movs	r2, #0
 80020dc:	601a      	str	r2, [r3, #0]

    /* Make sure the thread pointer is valid.  */
    if (thread_ptr != TX_NULL)
 80020de:	b3a4      	cbz	r4, 800214a <_tx_thread_time_slice+0x92>
    {

        /* Make sure the thread is still active, i.e. not suspended.  */
        if (thread_ptr -> tx_thread_state == TX_READY)
 80020e0:	6b23      	ldr	r3, [r4, #48]	; 0x30
 80020e2:	b3ab      	cbz	r3, 8002150 <_tx_thread_time_slice+0x98>
    __asm__ volatile ("MSR  PRIMASK,%0": : "r" (int_posture): "memory");
 80020e4:	f381 8810 	msr	PRIMASK, r1

        /* Yes, check this thread's stack.  */
        TX_THREAD_STACK_CHECK(next_thread_ptr)
    }
#endif
}
 80020e8:	bd38      	pop	{r3, r4, r5, pc}
    TX_THREAD_STACK_CHECK(thread_ptr)
 80020ea:	68a2      	ldr	r2, [r4, #8]
 80020ec:	f8d4 10cc 	ldr.w	r1, [r4, #204]	; 0xcc
 80020f0:	428a      	cmp	r2, r1
 80020f2:	d201      	bcs.n	80020f8 <_tx_thread_time_slice+0x40>
 80020f4:	f8c4 20cc 	str.w	r2, [r4, #204]	; 0xcc
 80020f8:	68e1      	ldr	r1, [r4, #12]
 80020fa:	6808      	ldr	r0, [r1, #0]
 80020fc:	f8d4 20d4 	ldr.w	r2, [r4, #212]	; 0xd4
 8002100:	4290      	cmp	r0, r2
 8002102:	d104      	bne.n	800210e <_tx_thread_time_slice+0x56>
 8002104:	6920      	ldr	r0, [r4, #16]
 8002106:	f8d0 0001 	ldr.w	r0, [r0, #1]
 800210a:	4282      	cmp	r2, r0
 800210c:	d018      	beq.n	8002140 <_tx_thread_time_slice+0x88>
 800210e:	f383 8810 	msr	PRIMASK, r3
 8002112:	4620      	mov	r0, r4
 8002114:	f7ff fe2e 	bl	8001d74 <_tx_thread_stack_error_handler>
    __asm__ volatile ("MRS  %0, PRIMASK ": "=r" (posture));
 8002118:	f3ef 8310 	mrs	r3, PRIMASK
    __asm__ volatile ("CPSID i" : : : "memory");
 800211c:	b672      	cpsid	i
 800211e:	f8d4 20cc 	ldr.w	r2, [r4, #204]	; 0xcc
 8002122:	f852 1c04 	ldr.w	r1, [r2, #-4]
 8002126:	f8d4 20d4 	ldr.w	r2, [r4, #212]	; 0xd4
 800212a:	4291      	cmp	r1, r2
 800212c:	d0cf      	beq.n	80020ce <_tx_thread_time_slice+0x16>
    __asm__ volatile ("MSR  PRIMASK,%0": : "r" (int_posture): "memory");
 800212e:	f383 8810 	msr	PRIMASK, r3
 8002132:	4620      	mov	r0, r4
 8002134:	f7ff fdd8 	bl	8001ce8 <_tx_thread_stack_analyze>
    __asm__ volatile ("MRS  %0, PRIMASK ": "=r" (posture));
 8002138:	f3ef 8310 	mrs	r3, PRIMASK
    __asm__ volatile ("CPSID i" : : : "memory");
 800213c:	b672      	cpsid	i
    return(int_posture);
 800213e:	e7c6      	b.n	80020ce <_tx_thread_time_slice+0x16>
 8002140:	f8d4 20cc 	ldr.w	r2, [r4, #204]	; 0xcc
 8002144:	4291      	cmp	r1, r2
 8002146:	d9ea      	bls.n	800211e <_tx_thread_time_slice+0x66>
 8002148:	e7e1      	b.n	800210e <_tx_thread_time_slice+0x56>
    __asm__ volatile ("MSR  PRIMASK,%0": : "r" (int_posture): "memory");
 800214a:	f381 8810 	msr	PRIMASK, r1
    if (next_thread_ptr != TX_NULL)
 800214e:	e7cb      	b.n	80020e8 <_tx_thread_time_slice+0x30>
            thread_ptr -> tx_thread_time_slice =  thread_ptr -> tx_thread_new_time_slice;
 8002150:	69e3      	ldr	r3, [r4, #28]
 8002152:	61a3      	str	r3, [r4, #24]
            _tx_timer_time_slice =  thread_ptr -> tx_thread_time_slice;
 8002154:	4a32      	ldr	r2, [pc, #200]	; (8002220 <_tx_thread_time_slice+0x168>)
 8002156:	6013      	str	r3, [r2, #0]
            if (thread_ptr -> tx_thread_ready_next != thread_ptr)
 8002158:	6a23      	ldr	r3, [r4, #32]
 800215a:	42a3      	cmp	r3, r4
 800215c:	d006      	beq.n	800216c <_tx_thread_time_slice+0xb4>
                if (thread_ptr -> tx_thread_priority == thread_ptr -> tx_thread_preempt_threshold)
 800215e:	6ae2      	ldr	r2, [r4, #44]	; 0x2c
 8002160:	6be0      	ldr	r0, [r4, #60]	; 0x3c
 8002162:	4282      	cmp	r2, r0
 8002164:	d005      	beq.n	8002172 <_tx_thread_time_slice+0xba>
 8002166:	f381 8810 	msr	PRIMASK, r1
    if (next_thread_ptr != TX_NULL)
 800216a:	e7bd      	b.n	80020e8 <_tx_thread_time_slice+0x30>
 800216c:	f381 8810 	msr	PRIMASK, r1
 8002170:	e7ba      	b.n	80020e8 <_tx_thread_time_slice+0x30>
                    _tx_thread_priority_list[thread_ptr -> tx_thread_priority] =  thread_ptr -> tx_thread_ready_next;
 8002172:	482c      	ldr	r0, [pc, #176]	; (8002224 <_tx_thread_time_slice+0x16c>)
 8002174:	f840 3022 	str.w	r3, [r0, r2, lsl #2]
                    _tx_thread_execute_ptr =  _tx_thread_priority_list[_tx_thread_highest_priority];
 8002178:	4b2b      	ldr	r3, [pc, #172]	; (8002228 <_tx_thread_time_slice+0x170>)
 800217a:	681b      	ldr	r3, [r3, #0]
 800217c:	f850 5023 	ldr.w	r5, [r0, r3, lsl #2]
 8002180:	4b2a      	ldr	r3, [pc, #168]	; (800222c <_tx_thread_time_slice+0x174>)
 8002182:	601d      	str	r5, [r3, #0]
                    thread_ptr -> tx_thread_performance_time_slice_count++;
 8002184:	f8d4 30bc 	ldr.w	r3, [r4, #188]	; 0xbc
 8002188:	3301      	adds	r3, #1
 800218a:	f8c4 30bc 	str.w	r3, [r4, #188]	; 0xbc
                    _tx_thread_performance_time_slice_count++;
 800218e:	4a28      	ldr	r2, [pc, #160]	; (8002230 <_tx_thread_time_slice+0x178>)
 8002190:	6813      	ldr	r3, [r2, #0]
 8002192:	3301      	adds	r3, #1
 8002194:	6013      	str	r3, [r2, #0]
 8002196:	f381 8810 	msr	PRIMASK, r1
    if (next_thread_ptr != TX_NULL)
 800219a:	2d00      	cmp	r5, #0
 800219c:	d0a4      	beq.n	80020e8 <_tx_thread_time_slice+0x30>
    __asm__ volatile ("MRS  %0, PRIMASK ": "=r" (posture));
 800219e:	f3ef 8310 	mrs	r3, PRIMASK
    __asm__ volatile ("CPSID i" : : : "memory");
 80021a2:	b672      	cpsid	i
        TX_THREAD_STACK_CHECK(next_thread_ptr)
 80021a4:	6829      	ldr	r1, [r5, #0]
 80021a6:	4a1c      	ldr	r2, [pc, #112]	; (8002218 <_tx_thread_time_slice+0x160>)
 80021a8:	4291      	cmp	r1, r2
 80021aa:	d002      	beq.n	80021b2 <_tx_thread_time_slice+0xfa>
    __asm__ volatile ("MSR  PRIMASK,%0": : "r" (int_posture): "memory");
 80021ac:	f383 8810 	msr	PRIMASK, r3
}
 80021b0:	e79a      	b.n	80020e8 <_tx_thread_time_slice+0x30>
        TX_THREAD_STACK_CHECK(next_thread_ptr)
 80021b2:	68aa      	ldr	r2, [r5, #8]
 80021b4:	f8d5 10cc 	ldr.w	r1, [r5, #204]	; 0xcc
 80021b8:	428a      	cmp	r2, r1
 80021ba:	d201      	bcs.n	80021c0 <_tx_thread_time_slice+0x108>
 80021bc:	f8c5 20cc 	str.w	r2, [r5, #204]	; 0xcc
 80021c0:	68e9      	ldr	r1, [r5, #12]
 80021c2:	6808      	ldr	r0, [r1, #0]
 80021c4:	f8d4 20d4 	ldr.w	r2, [r4, #212]	; 0xd4
 80021c8:	4290      	cmp	r0, r2
 80021ca:	d104      	bne.n	80021d6 <_tx_thread_time_slice+0x11e>
 80021cc:	6928      	ldr	r0, [r5, #16]
 80021ce:	f8d0 0001 	ldr.w	r0, [r0, #1]
 80021d2:	4282      	cmp	r2, r0
 80021d4:	d018      	beq.n	8002208 <_tx_thread_time_slice+0x150>
 80021d6:	f383 8810 	msr	PRIMASK, r3
 80021da:	4628      	mov	r0, r5
 80021dc:	f7ff fdca 	bl	8001d74 <_tx_thread_stack_error_handler>
    __asm__ volatile ("MRS  %0, PRIMASK ": "=r" (posture));
 80021e0:	f3ef 8310 	mrs	r3, PRIMASK
    __asm__ volatile ("CPSID i" : : : "memory");
 80021e4:	b672      	cpsid	i
 80021e6:	f8d5 20cc 	ldr.w	r2, [r5, #204]	; 0xcc
 80021ea:	f852 1c04 	ldr.w	r1, [r2, #-4]
 80021ee:	f8d4 20d4 	ldr.w	r2, [r4, #212]	; 0xd4
 80021f2:	4291      	cmp	r1, r2
 80021f4:	d0da      	beq.n	80021ac <_tx_thread_time_slice+0xf4>
    __asm__ volatile ("MSR  PRIMASK,%0": : "r" (int_posture): "memory");
 80021f6:	f383 8810 	msr	PRIMASK, r3
 80021fa:	4628      	mov	r0, r5
 80021fc:	f7ff fd74 	bl	8001ce8 <_tx_thread_stack_analyze>
    __asm__ volatile ("MRS  %0, PRIMASK ": "=r" (posture));
 8002200:	f3ef 8310 	mrs	r3, PRIMASK
    __asm__ volatile ("CPSID i" : : : "memory");
 8002204:	b672      	cpsid	i
    return(int_posture);
 8002206:	e7d1      	b.n	80021ac <_tx_thread_time_slice+0xf4>
 8002208:	f8d5 20cc 	ldr.w	r2, [r5, #204]	; 0xcc
 800220c:	4291      	cmp	r1, r2
 800220e:	d9ea      	bls.n	80021e6 <_tx_thread_time_slice+0x12e>
 8002210:	e7e1      	b.n	80021d6 <_tx_thread_time_slice+0x11e>
 8002212:	bf00      	nop
 8002214:	2000012c 	andcs	r0, r0, ip, lsr #2
 8002218:	54485244 	strbpl	r5, [r8], #-580	; 0xfffffdbc
 800221c:	20000204 	andcs	r0, r0, r4, lsl #4
 8002220:	200002ec 	andcs	r0, r0, ip, ror #5
 8002224:	20000174 	andcs	r0, r0, r4, ror r1
 8002228:	20000134 	andcs	r0, r0, r4, lsr r1
 800222c:	20000130 	andcs	r0, r0, r0, lsr r1
 8002230:	2000016c 	andcs	r0, r0, ip, ror #2

08002234 <_tx_timer_expiration_process>:
/*                                            TX_NO_TIMER is defined,     */
/*                                            resulting in version 6.1    */
/*                                                                        */
/**************************************************************************/
VOID  _tx_timer_expiration_process(VOID)
{
 8002234:	b510      	push	{r4, lr}
    __asm__ volatile ("MRS  %0, PRIMASK ": "=r" (posture));
 8002236:	f3ef 8410 	mrs	r4, PRIMASK
    __asm__ volatile ("CPSID i" : : : "memory");
 800223a:	b672      	cpsid	i
    TX_DISABLE

#ifdef TX_NOT_INTERRUPTABLE

    /* Resume the thread!  */
    _tx_thread_system_ni_resume(&_tx_timer_thread);
 800223c:	4802      	ldr	r0, [pc, #8]	; (8002248 <_tx_timer_expiration_process+0x14>)
 800223e:	f7ff fda7 	bl	8001d90 <_tx_thread_system_ni_resume>
    __asm__ volatile ("MSR  PRIMASK,%0": : "r" (int_posture): "memory");
 8002242:	f384 8810 	msr	PRIMASK, r4
    }

    /* Restore interrupts.  */
    TX_RESTORE
#endif
}
 8002246:	bd10      	pop	{r4, pc}
 8002248:	20000214 	andcs	r0, r0, r4, lsl r2

0800224c <_tx_timer_system_deactivate>:
TX_TIMER_INTERNAL   *next_timer;
TX_TIMER_INTERNAL   *previous_timer;


    /* Pickup the list head pointer.  */
    list_head =  timer_ptr -> tx_timer_internal_list_head;
 800224c:	6983      	ldr	r3, [r0, #24]

    /* Determine if the timer still needs deactivation.  */
    if (list_head != TX_NULL)
 800224e:	b153      	cbz	r3, 8002266 <_tx_timer_system_deactivate+0x1a>
    {

        /* Deactivate the timer.  */

        /* Pickup the next active timer.  */
        next_timer =  timer_ptr -> tx_timer_internal_active_next;
 8002250:	6902      	ldr	r2, [r0, #16]

        /* See if this is the only timer in the list.  */
        if (timer_ptr == next_timer)
 8002252:	4290      	cmp	r0, r2
 8002254:	d008      	beq.n	8002268 <_tx_timer_system_deactivate+0x1c>
        {

            /* At least one more timer is on the same expiration list.  */

            /* Update the links of the adjacent timers.  */
            previous_timer =                                   timer_ptr -> tx_timer_internal_active_previous;
 8002256:	6941      	ldr	r1, [r0, #20]
            next_timer -> tx_timer_internal_active_previous =  previous_timer;
 8002258:	6151      	str	r1, [r2, #20]
            previous_timer -> tx_timer_internal_active_next =  next_timer;
 800225a:	610a      	str	r2, [r1, #16]

            /* Determine if the head pointer needs to be updated.  */
            if (*(list_head) == timer_ptr)
 800225c:	6819      	ldr	r1, [r3, #0]
 800225e:	4281      	cmp	r1, r0
 8002260:	d008      	beq.n	8002274 <_tx_timer_system_deactivate+0x28>
                *(list_head) =  next_timer;
            }
        }

        /* Clear the timer's list head pointer.  */
        timer_ptr -> tx_timer_internal_list_head =  TX_NULL;
 8002262:	2300      	movs	r3, #0
 8002264:	6183      	str	r3, [r0, #24]
    }
}
 8002266:	4770      	bx	lr
            if (*(list_head) == timer_ptr)
 8002268:	681a      	ldr	r2, [r3, #0]
 800226a:	4282      	cmp	r2, r0
 800226c:	d1f9      	bne.n	8002262 <_tx_timer_system_deactivate+0x16>
                *(list_head) =  TX_NULL;
 800226e:	2200      	movs	r2, #0
 8002270:	601a      	str	r2, [r3, #0]
 8002272:	e7f6      	b.n	8002262 <_tx_timer_system_deactivate+0x16>
                next_timer -> tx_timer_internal_list_head =  list_head;
 8002274:	6193      	str	r3, [r2, #24]
                *(list_head) =  next_timer;
 8002276:	601a      	str	r2, [r3, #0]
 8002278:	e7f3      	b.n	8002262 <_tx_timer_system_deactivate+0x16>
	...

0800227c <_sbrk>:
 *
 * @param incr Memory size
 * @return Pointer to allocated memory
 */
void *_sbrk(ptrdiff_t incr)
{
 800227c:	b510      	push	{r4, lr}
 800227e:	4603      	mov	r3, r0
  extern uint8_t _end; /* Symbol defined in the linker script */
  extern uint8_t _estack; /* Symbol defined in the linker script */
  extern uint32_t _Min_Stack_Size; /* Symbol defined in the linker script */
  const uint32_t stack_limit = (uint32_t)&_estack - (uint32_t)&_Min_Stack_Size;
 8002280:	4a0c      	ldr	r2, [pc, #48]	; (80022b4 <_sbrk+0x38>)
 8002282:	490d      	ldr	r1, [pc, #52]	; (80022b8 <_sbrk+0x3c>)
  const uint8_t *max_heap = (uint8_t *)stack_limit;
  uint8_t *prev_heap_end;

  /* Initialize heap end at first call */
  if (NULL == __sbrk_heap_end)
 8002284:	480d      	ldr	r0, [pc, #52]	; (80022bc <_sbrk+0x40>)
 8002286:	6800      	ldr	r0, [r0, #0]
 8002288:	b140      	cbz	r0, 800229c <_sbrk+0x20>
  {
    __sbrk_heap_end = &_end;
  }

  /* Protect heap from growing into the reserved MSP stack */
  if (__sbrk_heap_end + incr > max_heap)
 800228a:	480c      	ldr	r0, [pc, #48]	; (80022bc <_sbrk+0x40>)
 800228c:	6800      	ldr	r0, [r0, #0]
 800228e:	4403      	add	r3, r0
 8002290:	1a52      	subs	r2, r2, r1
 8002292:	4293      	cmp	r3, r2
 8002294:	d806      	bhi.n	80022a4 <_sbrk+0x28>
    errno = ENOMEM;
    return (void *)-1;
  }

  prev_heap_end = __sbrk_heap_end;
  __sbrk_heap_end += incr;
 8002296:	4a09      	ldr	r2, [pc, #36]	; (80022bc <_sbrk+0x40>)
 8002298:	6013      	str	r3, [r2, #0]

  return (void *)prev_heap_end;
}
 800229a:	bd10      	pop	{r4, pc}
    __sbrk_heap_end = &_end;
 800229c:	4807      	ldr	r0, [pc, #28]	; (80022bc <_sbrk+0x40>)
 800229e:	4c08      	ldr	r4, [pc, #32]	; (80022c0 <_sbrk+0x44>)
 80022a0:	6004      	str	r4, [r0, #0]
 80022a2:	e7f2      	b.n	800228a <_sbrk+0xe>
    errno = ENOMEM;
 80022a4:	f000 f862 	bl	800236c <__errno>
 80022a8:	230c      	movs	r3, #12
 80022aa:	6003      	str	r3, [r0, #0]
    return (void *)-1;
 80022ac:	f04f 30ff 	mov.w	r0, #4294967295
 80022b0:	e7f3      	b.n	800229a <_sbrk+0x1e>
 80022b2:	bf00      	nop
 80022b4:	20001308 	andcs	r1, r0, r8, lsl #6
 80022b8:	00000800 	andeq	r0, r0, r0, lsl #16
 80022bc:	200002f0 	strdcs	r0, [r0], -r0	; <UNPREDICTABLE>
 80022c0:	20000308 	andcs	r0, r0, r8, lsl #6

080022c4 <_read>:
  _kill(status, -1);
  while (1) {}    /* Make sure we hang here */
}

__attribute__((weak)) int _read(int file, char *ptr, int len)
{
 80022c4:	b570      	push	{r4, r5, r6, lr}
 80022c6:	460c      	mov	r4, r1
 80022c8:	4616      	mov	r6, r2
  (void)file;
  int DataIdx;

  for (DataIdx = 0; DataIdx < len; DataIdx++)
 80022ca:	2500      	movs	r5, #0
 80022cc:	e006      	b.n	80022dc <_read+0x18>
  {
    *ptr++ = __io_getchar();
 80022ce:	f3af 8000 	nop.w
 80022d2:	4621      	mov	r1, r4
 80022d4:	f801 0b01 	strb.w	r0, [r1], #1
  for (DataIdx = 0; DataIdx < len; DataIdx++)
 80022d8:	3501      	adds	r5, #1
    *ptr++ = __io_getchar();
 80022da:	460c      	mov	r4, r1
  for (DataIdx = 0; DataIdx < len; DataIdx++)
 80022dc:	42b5      	cmp	r5, r6
 80022de:	dbf6      	blt.n	80022ce <_read+0xa>
  }

  return len;
}
 80022e0:	4630      	mov	r0, r6
 80022e2:	bd70      	pop	{r4, r5, r6, pc}

080022e4 <_write>:

__attribute__((weak)) int _write(int file, char *ptr, int len)
{
 80022e4:	b570      	push	{r4, r5, r6, lr}
 80022e6:	460c      	mov	r4, r1
 80022e8:	4616      	mov	r6, r2
  (void)file;
  int DataIdx;

  for (DataIdx = 0; DataIdx < len; DataIdx++)
 80022ea:	2500      	movs	r5, #0
 80022ec:	e004      	b.n	80022f8 <_write+0x14>
  {
    __io_putchar(*ptr++);
 80022ee:	f814 0b01 	ldrb.w	r0, [r4], #1
 80022f2:	f7fe fa47 	bl	8000784 <__io_putchar>
  for (DataIdx = 0; DataIdx < len; DataIdx++)
 80022f6:	3501      	adds	r5, #1
 80022f8:	42b5      	cmp	r5, r6
 80022fa:	dbf8      	blt.n	80022ee <_write+0xa>
  }
  return len;
}
 80022fc:	4630      	mov	r0, r6
 80022fe:	bd70      	pop	{r4, r5, r6, pc}

08002300 <_close>:

int _close(int file)
{
  (void)file;
  return -1;
}
 8002300:	f04f 30ff 	mov.w	r0, #4294967295
 8002304:	4770      	bx	lr

08002306 <_fstat>:


int _fstat(int file, struct stat *st)
{
  (void)file;
  st->st_mode = S_IFCHR;
 8002306:	f44f 5300 	mov.w	r3, #8192	; 0x2000
 800230a:	604b      	str	r3, [r1, #4]
  return 0;
}
 800230c:	2000      	movs	r0, #0
 800230e:	4770      	bx	lr

08002310 <_isatty>:

int _isatty(int file)
{
  (void)file;
  return 1;
}
 8002310:	2001      	movs	r0, #1
 8002312:	4770      	bx	lr

08002314 <_lseek>:
{
  (void)file;
  (void)ptr;
  (void)dir;
  return 0;
}
 8002314:	2000      	movs	r0, #0
 8002316:	4770      	bx	lr

08002318 <Reset_Handler>:

    .section  .text.Reset_Handler
  .weak  Reset_Handler
  .type  Reset_Handler, %function
Reset_Handler:  
  ldr   sp, =_estack     /* set stack pointer */
 8002318:	f8df d034 	ldr.w	sp, [pc, #52]	; 8002350 <LoopFillZerobss+0xe>
  
/* Call the clock system initialization function.*/
  bl  SystemInit  
 800231c:	f7ff fcda 	bl	8001cd4 <SystemInit>

/* Copy the data segment initializers from flash to SRAM */  
  ldr r0, =_sdata
 8002320:	480c      	ldr	r0, [pc, #48]	; (8002354 <LoopFillZerobss+0x12>)
  ldr r1, =_edata
 8002322:	490d      	ldr	r1, [pc, #52]	; (8002358 <LoopFillZerobss+0x16>)
  ldr r2, =_sidata
 8002324:	4a0d      	ldr	r2, [pc, #52]	; (800235c <LoopFillZerobss+0x1a>)
  movs r3, #0
 8002326:	2300      	movs	r3, #0
  b LoopCopyDataInit
 8002328:	e002      	b.n	8002330 <LoopCopyDataInit>

0800232a <CopyDataInit>:

CopyDataInit:
  ldr r4, [r2, r3]
 800232a:	58d4      	ldr	r4, [r2, r3]
  str r4, [r0, r3]
 800232c:	50c4      	str	r4, [r0, r3]
  adds r3, r3, #4
 800232e:	3304      	adds	r3, #4

08002330 <LoopCopyDataInit>:

LoopCopyDataInit:
  adds r4, r0, r3
 8002330:	18c4      	adds	r4, r0, r3
  cmp r4, r1
 8002332:	428c      	cmp	r4, r1
  bcc CopyDataInit
 8002334:	d3f9      	bcc.n	800232a <CopyDataInit>
  
/* Zero fill the bss segment. */
  ldr r2, =_sbss
 8002336:	4a0a      	ldr	r2, [pc, #40]	; (8002360 <LoopFillZerobss+0x1e>)
  ldr r4, =_ebss
 8002338:	4c0a      	ldr	r4, [pc, #40]	; (8002364 <LoopFillZerobss+0x22>)
  movs r3, #0
 800233a:	2300      	movs	r3, #0
  b LoopFillZerobss
 800233c:	e001      	b.n	8002342 <LoopFillZerobss>

0800233e <FillZerobss>:

FillZerobss:
  str  r3, [r2]
 800233e:	6013      	str	r3, [r2, #0]
  adds r2, r2, #4
 8002340:	3204      	adds	r2, #4

08002342 <LoopFillZerobss>:

LoopFillZerobss:
  cmp r2, r4
 8002342:	42a2      	cmp	r2, r4
  bcc FillZerobss
 8002344:	d3fb      	bcc.n	800233e <FillZerobss>
 
/* Call static constructors */
    bl __libc_init_array
 8002346:	f000 f817 	bl	8002378 <__libc_init_array>
/* Call the application's entry point.*/
  bl  main
 800234a:	f7fe fa2b 	bl	80007a4 <main>
  bx  lr    
 800234e:	4770      	bx	lr
  ldr   sp, =_estack     /* set stack pointer */
 8002350:	20001308 	andcs	r1, r0, r8, lsl #6
  ldr r0, =_sdata
 8002354:	20000000 	andcs	r0, r0, r0
  ldr r1, =_edata
 8002358:	20000074 	andcs	r0, r0, r4, ror r0
  ldr r2, =_sidata
 800235c:	08003614 	stmdaeq	r0, {r2, r4, r9, sl, ip, sp}
  ldr r2, =_sbss
 8002360:	20000074 	andcs	r0, r0, r4, ror r0
  ldr r4, =_ebss
 8002364:	20000304 	andcs	r0, r0, r4, lsl #6

08002368 <ADC_IRQHandler>:
 * @retval None       
*/
    .section  .text.Default_Handler,"ax",%progbits
Default_Handler:
Infinite_Loop:
  b  Infinite_Loop
 8002368:	e7fe      	b.n	8002368 <ADC_IRQHandler>
	...

0800236c <__errno>:
 800236c:	4b01      	ldr	r3, [pc, #4]	; (8002374 <__errno+0x8>)
 800236e:	6818      	ldr	r0, [r3, #0]
 8002370:	4770      	bx	lr
 8002372:	bf00      	nop
 8002374:	20000010 	andcs	r0, r0, r0, lsl r0

08002378 <__libc_init_array>:
 8002378:	b570      	push	{r4, r5, r6, lr}
 800237a:	4d0d      	ldr	r5, [pc, #52]	; (80023b0 <__libc_init_array+0x38>)
 800237c:	4c0d      	ldr	r4, [pc, #52]	; (80023b4 <__libc_init_array+0x3c>)
 800237e:	1b64      	subs	r4, r4, r5
 8002380:	10a4      	asrs	r4, r4, #2
 8002382:	2600      	movs	r6, #0
 8002384:	42a6      	cmp	r6, r4
 8002386:	d109      	bne.n	800239c <__libc_init_array+0x24>
 8002388:	4d0b      	ldr	r5, [pc, #44]	; (80023b8 <__libc_init_array+0x40>)
 800238a:	4c0c      	ldr	r4, [pc, #48]	; (80023bc <__libc_init_array+0x44>)
 800238c:	f001 f824 	bl	80033d8 <_init>
 8002390:	1b64      	subs	r4, r4, r5
 8002392:	10a4      	asrs	r4, r4, #2
 8002394:	2600      	movs	r6, #0
 8002396:	42a6      	cmp	r6, r4
 8002398:	d105      	bne.n	80023a6 <__libc_init_array+0x2e>
 800239a:	bd70      	pop	{r4, r5, r6, pc}
 800239c:	f855 3b04 	ldr.w	r3, [r5], #4
 80023a0:	4798      	blx	r3
 80023a2:	3601      	adds	r6, #1
 80023a4:	e7ee      	b.n	8002384 <__libc_init_array+0xc>
 80023a6:	f855 3b04 	ldr.w	r3, [r5], #4
 80023aa:	4798      	blx	r3
 80023ac:	3601      	adds	r6, #1
 80023ae:	e7f2      	b.n	8002396 <__libc_init_array+0x1e>
 80023b0:	0800360c 	stmdaeq	r0, {r2, r3, r9, sl, ip, sp}
 80023b4:	0800360c 	stmdaeq	r0, {r2, r3, r9, sl, ip, sp}
 80023b8:	0800360c 	stmdaeq	r0, {r2, r3, r9, sl, ip, sp}
 80023bc:	08003610 	stmdaeq	r0, {r4, r9, sl, ip, sp}

080023c0 <memset>:
 80023c0:	4402      	add	r2, r0
 80023c2:	4603      	mov	r3, r0
 80023c4:	4293      	cmp	r3, r2
 80023c6:	d100      	bne.n	80023ca <memset+0xa>
 80023c8:	4770      	bx	lr
 80023ca:	f803 1b01 	strb.w	r1, [r3], #1
 80023ce:	e7f9      	b.n	80023c4 <memset+0x4>

080023d0 <iprintf>:
 80023d0:	b40f      	push	{r0, r1, r2, r3}
 80023d2:	4b0a      	ldr	r3, [pc, #40]	; (80023fc <iprintf+0x2c>)
 80023d4:	b513      	push	{r0, r1, r4, lr}
 80023d6:	681c      	ldr	r4, [r3, #0]
 80023d8:	b124      	cbz	r4, 80023e4 <iprintf+0x14>
 80023da:	69a3      	ldr	r3, [r4, #24]
 80023dc:	b913      	cbnz	r3, 80023e4 <iprintf+0x14>
 80023de:	4620      	mov	r0, r4
 80023e0:	f000 fa5e 	bl	80028a0 <__sinit>
 80023e4:	ab05      	add	r3, sp, #20
 80023e6:	9a04      	ldr	r2, [sp, #16]
 80023e8:	68a1      	ldr	r1, [r4, #8]
 80023ea:	9301      	str	r3, [sp, #4]
 80023ec:	4620      	mov	r0, r4
 80023ee:	f000 fc67 	bl	8002cc0 <_vfiprintf_r>
 80023f2:	b002      	add	sp, #8
 80023f4:	e8bd 4010 	ldmia.w	sp!, {r4, lr}
 80023f8:	b004      	add	sp, #16
 80023fa:	4770      	bx	lr
 80023fc:	20000010 	andcs	r0, r0, r0, lsl r0

08002400 <_puts_r>:
 8002400:	b570      	push	{r4, r5, r6, lr}
 8002402:	460e      	mov	r6, r1
 8002404:	4605      	mov	r5, r0
 8002406:	b118      	cbz	r0, 8002410 <_puts_r+0x10>
 8002408:	6983      	ldr	r3, [r0, #24]
 800240a:	b90b      	cbnz	r3, 8002410 <_puts_r+0x10>
 800240c:	f000 fa48 	bl	80028a0 <__sinit>
 8002410:	69ab      	ldr	r3, [r5, #24]
 8002412:	68ac      	ldr	r4, [r5, #8]
 8002414:	b913      	cbnz	r3, 800241c <_puts_r+0x1c>
 8002416:	4628      	mov	r0, r5
 8002418:	f000 fa42 	bl	80028a0 <__sinit>
 800241c:	4b2c      	ldr	r3, [pc, #176]	; (80024d0 <_puts_r+0xd0>)
 800241e:	429c      	cmp	r4, r3
 8002420:	d120      	bne.n	8002464 <_puts_r+0x64>
 8002422:	686c      	ldr	r4, [r5, #4]
 8002424:	6e63      	ldr	r3, [r4, #100]	; 0x64
 8002426:	07db      	lsls	r3, r3, #31
 8002428:	d405      	bmi.n	8002436 <_puts_r+0x36>
 800242a:	89a3      	ldrh	r3, [r4, #12]
 800242c:	0598      	lsls	r0, r3, #22
 800242e:	d402      	bmi.n	8002436 <_puts_r+0x36>
 8002430:	6da0      	ldr	r0, [r4, #88]	; 0x58
 8002432:	f000 fad3 	bl	80029dc <__retarget_lock_acquire_recursive>
 8002436:	89a3      	ldrh	r3, [r4, #12]
 8002438:	0719      	lsls	r1, r3, #28
 800243a:	d51d      	bpl.n	8002478 <_puts_r+0x78>
 800243c:	6923      	ldr	r3, [r4, #16]
 800243e:	b1db      	cbz	r3, 8002478 <_puts_r+0x78>
 8002440:	3e01      	subs	r6, #1
 8002442:	68a3      	ldr	r3, [r4, #8]
 8002444:	f816 1f01 	ldrb.w	r1, [r6, #1]!
 8002448:	3b01      	subs	r3, #1
 800244a:	60a3      	str	r3, [r4, #8]
 800244c:	bb39      	cbnz	r1, 800249e <_puts_r+0x9e>
 800244e:	2b00      	cmp	r3, #0
 8002450:	da38      	bge.n	80024c4 <_puts_r+0xc4>
 8002452:	4622      	mov	r2, r4
 8002454:	210a      	movs	r1, #10
 8002456:	4628      	mov	r0, r5
 8002458:	f000 f848 	bl	80024ec <__swbuf_r>
 800245c:	3001      	adds	r0, #1
 800245e:	d011      	beq.n	8002484 <_puts_r+0x84>
 8002460:	250a      	movs	r5, #10
 8002462:	e011      	b.n	8002488 <_puts_r+0x88>
 8002464:	4b1b      	ldr	r3, [pc, #108]	; (80024d4 <_puts_r+0xd4>)
 8002466:	429c      	cmp	r4, r3
 8002468:	d101      	bne.n	800246e <_puts_r+0x6e>
 800246a:	68ac      	ldr	r4, [r5, #8]
 800246c:	e7da      	b.n	8002424 <_puts_r+0x24>
 800246e:	4b1a      	ldr	r3, [pc, #104]	; (80024d8 <_puts_r+0xd8>)
 8002470:	429c      	cmp	r4, r3
 8002472:	bf08      	it	eq
 8002474:	68ec      	ldreq	r4, [r5, #12]
 8002476:	e7d5      	b.n	8002424 <_puts_r+0x24>
 8002478:	4621      	mov	r1, r4
 800247a:	4628      	mov	r0, r5
 800247c:	f000 f888 	bl	8002590 <__swsetup_r>
 8002480:	2800      	cmp	r0, #0
 8002482:	d0dd      	beq.n	8002440 <_puts_r+0x40>
 8002484:	f04f 35ff 	mov.w	r5, #4294967295
 8002488:	6e63      	ldr	r3, [r4, #100]	; 0x64
 800248a:	07da      	lsls	r2, r3, #31
 800248c:	d405      	bmi.n	800249a <_puts_r+0x9a>
 800248e:	89a3      	ldrh	r3, [r4, #12]
 8002490:	059b      	lsls	r3, r3, #22
 8002492:	d402      	bmi.n	800249a <_puts_r+0x9a>
 8002494:	6da0      	ldr	r0, [r4, #88]	; 0x58
 8002496:	f000 faa2 	bl	80029de <__retarget_lock_release_recursive>
 800249a:	4628      	mov	r0, r5
 800249c:	bd70      	pop	{r4, r5, r6, pc}
 800249e:	2b00      	cmp	r3, #0
 80024a0:	da04      	bge.n	80024ac <_puts_r+0xac>
 80024a2:	69a2      	ldr	r2, [r4, #24]
 80024a4:	429a      	cmp	r2, r3
 80024a6:	dc06      	bgt.n	80024b6 <_puts_r+0xb6>
 80024a8:	290a      	cmp	r1, #10
 80024aa:	d004      	beq.n	80024b6 <_puts_r+0xb6>
 80024ac:	6823      	ldr	r3, [r4, #0]
 80024ae:	1c5a      	adds	r2, r3, #1
 80024b0:	6022      	str	r2, [r4, #0]
 80024b2:	7019      	strb	r1, [r3, #0]
 80024b4:	e7c5      	b.n	8002442 <_puts_r+0x42>
 80024b6:	4622      	mov	r2, r4
 80024b8:	4628      	mov	r0, r5
 80024ba:	f000 f817 	bl	80024ec <__swbuf_r>
 80024be:	3001      	adds	r0, #1
 80024c0:	d1bf      	bne.n	8002442 <_puts_r+0x42>
 80024c2:	e7df      	b.n	8002484 <_puts_r+0x84>
 80024c4:	6823      	ldr	r3, [r4, #0]
 80024c6:	250a      	movs	r5, #10
 80024c8:	1c5a      	adds	r2, r3, #1
 80024ca:	6022      	str	r2, [r4, #0]
 80024cc:	701d      	strb	r5, [r3, #0]
 80024ce:	e7db      	b.n	8002488 <_puts_r+0x88>
 80024d0:	08003590 	stmdaeq	r0, {r4, r7, r8, sl, ip, sp}
 80024d4:	080035b0 	stmdaeq	r0, {r4, r5, r7, r8, sl, ip, sp}
 80024d8:	08003570 	stmdaeq	r0, {r4, r5, r6, r8, sl, ip, sp}

080024dc <puts>:
 80024dc:	4b02      	ldr	r3, [pc, #8]	; (80024e8 <puts+0xc>)
 80024de:	4601      	mov	r1, r0
 80024e0:	6818      	ldr	r0, [r3, #0]
 80024e2:	f7ff bf8d 	b.w	8002400 <_puts_r>
 80024e6:	bf00      	nop
 80024e8:	20000010 	andcs	r0, r0, r0, lsl r0

080024ec <__swbuf_r>:
 80024ec:	b5f8      	push	{r3, r4, r5, r6, r7, lr}
 80024ee:	460e      	mov	r6, r1
 80024f0:	4614      	mov	r4, r2
