
build/stm32-qemu.elf:     file format elf32-littlearm


Disassembly of section .isr_vector:

08000000 <g_pfnVectors>:
 8000000:	20001238 	andcs	r1, r0, r8, lsr r2
 8000004:	08001af5 	stmdaeq	r0, {r0, r2, r4, r5, r6, r7, r9, fp, ip}
 8000008:	080008b5 	stmdaeq	r0, {r0, r2, r4, r5, r7, fp}
 800000c:	080001d1 	stmdaeq	r0, {r0, r4, r6, r7, r8}
 8000010:	080008c9 	stmdaeq	r0, {r0, r3, r6, r7, fp}
 8000014:	080008dd 	stmdaeq	r0, {r0, r2, r3, r4, r6, r7, fp}
 8000018:	080008f1 	stmdaeq	r0, {r0, r4, r5, r6, r7, fp}
	...
 800002c:	08000905 	stmdaeq	r0, {r0, r2, r8, fp}
 8000030:	08000907 	stmdaeq	r0, {r0, r1, r2, r8, fp}
 8000034:	00000000 	andeq	r0, r0, r0
 8000038:	08000909 	stmdaeq	r0, {r0, r3, r8, fp}
 800003c:	0800090b 	stmdaeq	r0, {r0, r1, r3, r8, fp}
 8000040:	08001b45 	stmdaeq	r0, {r0, r2, r6, r8, r9, fp, ip}
 8000044:	08001b45 	stmdaeq	r0, {r0, r2, r6, r8, r9, fp, ip}
 8000048:	08001b45 	stmdaeq	r0, {r0, r2, r6, r8, r9, fp, ip}
 800004c:	08001b45 	stmdaeq	r0, {r0, r2, r6, r8, r9, fp, ip}
 8000050:	08001b45 	stmdaeq	r0, {r0, r2, r6, r8, r9, fp, ip}
 8000054:	08001b45 	stmdaeq	r0, {r0, r2, r6, r8, r9, fp, ip}
 8000058:	08001b45 	stmdaeq	r0, {r0, r2, r6, r8, r9, fp, ip}
 800005c:	08001b45 	stmdaeq	r0, {r0, r2, r6, r8, r9, fp, ip}
 8000060:	08001b45 	stmdaeq	r0, {r0, r2, r6, r8, r9, fp, ip}
 8000064:	08001b45 	stmdaeq	r0, {r0, r2, r6, r8, r9, fp, ip}
 8000068:	08001b45 	stmdaeq	r0, {r0, r2, r6, r8, r9, fp, ip}
 800006c:	08001b45 	stmdaeq	r0, {r0, r2, r6, r8, r9, fp, ip}
 8000070:	08001b45 	stmdaeq	r0, {r0, r2, r6, r8, r9, fp, ip}
 8000074:	08001b45 	stmdaeq	r0, {r0, r2, r6, r8, r9, fp, ip}
 8000078:	08001b45 	stmdaeq	r0, {r0, r2, r6, r8, r9, fp, ip}
 800007c:	08001b45 	stmdaeq	r0, {r0, r2, r6, r8, r9, fp, ip}
 8000080:	08001b45 	stmdaeq	r0, {r0, r2, r6, r8, r9, fp, ip}
 8000084:	08001b45 	stmdaeq	r0, {r0, r2, r6, r8, r9, fp, ip}
 8000088:	08001b45 	stmdaeq	r0, {r0, r2, r6, r8, r9, fp, ip}
 800008c:	08001b45 	stmdaeq	r0, {r0, r2, r6, r8, r9, fp, ip}
 8000090:	08001b45 	stmdaeq	r0, {r0, r2, r6, r8, r9, fp, ip}
 8000094:	08001b45 	stmdaeq	r0, {r0, r2, r6, r8, r9, fp, ip}
 8000098:	08001b45 	stmdaeq	r0, {r0, r2, r6, r8, r9, fp, ip}
 800009c:	08001b45 	stmdaeq	r0, {r0, r2, r6, r8, r9, fp, ip}
 80000a0:	08001b45 	stmdaeq	r0, {r0, r2, r6, r8, r9, fp, ip}
 80000a4:	08001b45 	stmdaeq	r0, {r0, r2, r6, r8, r9, fp, ip}
 80000a8:	08001b45 	stmdaeq	r0, {r0, r2, r6, r8, r9, fp, ip}
 80000ac:	08001b45 	stmdaeq	r0, {r0, r2, r6, r8, r9, fp, ip}
 80000b0:	08001b45 	stmdaeq	r0, {r0, r2, r6, r8, r9, fp, ip}
 80000b4:	08001b45 	stmdaeq	r0, {r0, r2, r6, r8, r9, fp, ip}
 80000b8:	08001b45 	stmdaeq	r0, {r0, r2, r6, r8, r9, fp, ip}
 80000bc:	08001b45 	stmdaeq	r0, {r0, r2, r6, r8, r9, fp, ip}
 80000c0:	08001b45 	stmdaeq	r0, {r0, r2, r6, r8, r9, fp, ip}
 80000c4:	08001b45 	stmdaeq	r0, {r0, r2, r6, r8, r9, fp, ip}
 80000c8:	08001b45 	stmdaeq	r0, {r0, r2, r6, r8, r9, fp, ip}
 80000cc:	08001b45 	stmdaeq	r0, {r0, r2, r6, r8, r9, fp, ip}
 80000d0:	08001b45 	stmdaeq	r0, {r0, r2, r6, r8, r9, fp, ip}
 80000d4:	08000915 	stmdaeq	r0, {r0, r2, r4, r8, fp}
 80000d8:	08001b45 	stmdaeq	r0, {r0, r2, r6, r8, r9, fp, ip}
 80000dc:	08001b45 	stmdaeq	r0, {r0, r2, r6, r8, r9, fp, ip}
 80000e0:	08001b45 	stmdaeq	r0, {r0, r2, r6, r8, r9, fp, ip}
 80000e4:	08001b45 	stmdaeq	r0, {r0, r2, r6, r8, r9, fp, ip}
 80000e8:	08001b45 	stmdaeq	r0, {r0, r2, r6, r8, r9, fp, ip}
 80000ec:	08001b45 	stmdaeq	r0, {r0, r2, r6, r8, r9, fp, ip}
 80000f0:	08001b45 	stmdaeq	r0, {r0, r2, r6, r8, r9, fp, ip}
 80000f4:	08001b45 	stmdaeq	r0, {r0, r2, r6, r8, r9, fp, ip}
 80000f8:	08001b45 	stmdaeq	r0, {r0, r2, r6, r8, r9, fp, ip}
 80000fc:	08001b45 	stmdaeq	r0, {r0, r2, r6, r8, r9, fp, ip}
 8000100:	08001b45 	stmdaeq	r0, {r0, r2, r6, r8, r9, fp, ip}
 8000104:	08001b45 	stmdaeq	r0, {r0, r2, r6, r8, r9, fp, ip}
 8000108:	08001b45 	stmdaeq	r0, {r0, r2, r6, r8, r9, fp, ip}
 800010c:	08001b45 	stmdaeq	r0, {r0, r2, r6, r8, r9, fp, ip}
 8000110:	08001b45 	stmdaeq	r0, {r0, r2, r6, r8, r9, fp, ip}
 8000114:	08001b45 	stmdaeq	r0, {r0, r2, r6, r8, r9, fp, ip}
 8000118:	08001b45 	stmdaeq	r0, {r0, r2, r6, r8, r9, fp, ip}
 800011c:	08001b45 	stmdaeq	r0, {r0, r2, r6, r8, r9, fp, ip}
 8000120:	08001b45 	stmdaeq	r0, {r0, r2, r6, r8, r9, fp, ip}
 8000124:	08001b45 	stmdaeq	r0, {r0, r2, r6, r8, r9, fp, ip}
 8000128:	08001b45 	stmdaeq	r0, {r0, r2, r6, r8, r9, fp, ip}
 800012c:	08001b45 	stmdaeq	r0, {r0, r2, r6, r8, r9, fp, ip}
 8000130:	08001b45 	stmdaeq	r0, {r0, r2, r6, r8, r9, fp, ip}
	...
 800013c:	08001b45 	stmdaeq	r0, {r0, r2, r6, r8, r9, fp, ip}
 8000140:	08001b45 	stmdaeq	r0, {r0, r2, r6, r8, r9, fp, ip}
 8000144:	08001b45 	stmdaeq	r0, {r0, r2, r6, r8, r9, fp, ip}
 8000148:	08001b45 	stmdaeq	r0, {r0, r2, r6, r8, r9, fp, ip}
 800014c:	08001b45 	stmdaeq	r0, {r0, r2, r6, r8, r9, fp, ip}
 8000150:	08001b45 	stmdaeq	r0, {r0, r2, r6, r8, r9, fp, ip}
 8000154:	08001b45 	stmdaeq	r0, {r0, r2, r6, r8, r9, fp, ip}
 8000158:	08001b45 	stmdaeq	r0, {r0, r2, r6, r8, r9, fp, ip}
 800015c:	08001b45 	stmdaeq	r0, {r0, r2, r6, r8, r9, fp, ip}
 8000160:	08001b45 	stmdaeq	r0, {r0, r2, r6, r8, r9, fp, ip}
 8000164:	08001b45 	stmdaeq	r0, {r0, r2, r6, r8, r9, fp, ip}
 8000168:	08001b45 	stmdaeq	r0, {r0, r2, r6, r8, r9, fp, ip}
 800016c:	08001b45 	stmdaeq	r0, {r0, r2, r6, r8, r9, fp, ip}
 8000170:	08001b45 	stmdaeq	r0, {r0, r2, r6, r8, r9, fp, ip}
 8000174:	08001b45 	stmdaeq	r0, {r0, r2, r6, r8, r9, fp, ip}
	...
 8000180:	08001b45 	stmdaeq	r0, {r0, r2, r6, r8, r9, fp, ip}
 8000184:	08001b45 	stmdaeq	r0, {r0, r2, r6, r8, r9, fp, ip}

Disassembly of section .text:

08000190 <__do_global_dtors_aux>:
 8000190:	b510      	push	{r4, lr}
 8000192:	4c05      	ldr	r4, [pc, #20]	; (80001a8 <__do_global_dtors_aux+0x18>)
 8000194:	7823      	ldrb	r3, [r4, #0]
 8000196:	b933      	cbnz	r3, 80001a6 <__do_global_dtors_aux+0x16>
 8000198:	4b04      	ldr	r3, [pc, #16]	; (80001ac <__do_global_dtors_aux+0x1c>)
 800019a:	b113      	cbz	r3, 80001a2 <__do_global_dtors_aux+0x12>
 800019c:	4804      	ldr	r0, [pc, #16]	; (80001b0 <__do_global_dtors_aux+0x20>)
 800019e:	f3af 8000 	nop.w
 80001a2:	2301      	movs	r3, #1
 80001a4:	7023      	strb	r3, [r4, #0]
 80001a6:	bd10      	pop	{r4, pc}
 80001a8:	20000070 	andcs	r0, r0, r0, ror r0
 80001ac:	00000000 	andeq	r0, r0, r0
 80001b0:	08002bb4 	stmdaeq	r0, {r2, r4, r5, r7, r8, r9, fp, sp}

080001b4 <frame_dummy>:
 80001b4:	b508      	push	{r3, lr}
 80001b6:	4b03      	ldr	r3, [pc, #12]	; (80001c4 <frame_dummy+0x10>)
 80001b8:	b11b      	cbz	r3, 80001c2 <frame_dummy+0xe>
 80001ba:	4903      	ldr	r1, [pc, #12]	; (80001c8 <frame_dummy+0x14>)
 80001bc:	4803      	ldr	r0, [pc, #12]	; (80001cc <frame_dummy+0x18>)
 80001be:	f3af 8000 	nop.w
 80001c2:	bd08      	pop	{r3, pc}
 80001c4:	00000000 	andeq	r0, r0, r0
 80001c8:	20000074 	andcs	r0, r0, r4, ror r0
 80001cc:	08002bb4 	stmdaeq	r0, {r2, r4, r5, r7, r8, r9, fp, sp}

080001d0 <HardFault_Handler>:
.global fault_dump_handler

.global HardFault_Handler
.type HardFault_Handler, % function
HardFault_Handler:
    cpsid   i                           /* disable interrupts */
 80001d0:	b672      	cpsid	i
    ldr     r3, =fd_main_stack_base     /* r3 = &fd_main_stack_base */
 80001d2:	4b0e      	ldr	r3, [pc, #56]	; (800020c <stack_invalid+0xe>)
    ldr     r1, [r3]                    /* r1 = fd_main_stack_base  */
 80001d4:	6819      	ldr	r1, [r3, #0]
    ldr     r3, =fd_main_stack_full     /* r3 = &fd_main_stack_full */
 80001d6:	4b0e      	ldr	r3, [pc, #56]	; (8000210 <stack_invalid+0x12>)
    ldr     r2, [r3]                    /* r2 = fd_main_stack_full  */
 80001d8:	681a      	ldr	r2, [r3, #0]

    tst     lr, #4                      /* use exc_return value get sp value */
 80001da:	f01e 0f04 	tst.w	lr, #4
    bne     stack_checked               /* if (sp != msp), jump to stack_checked */
 80001de:	d105      	bne.n	80001ec <stack_checked>

    mrs     r0, msp                     /* else (sp == msp), r0 = sp = msp */
 80001e0:	f3ef 8008 	mrs	r0, MSP
    cmp     r0, r1                      /* compare msp and stack base addr */
 80001e4:	4288      	cmp	r0, r1
    blt     stack_invalid               /* msp < stack_base_addr, msp is invalid */
 80001e6:	db0a      	blt.n	80001fe <stack_invalid>
    cmp     r0, r2                      /* compare msp and stack full addr */
 80001e8:	4290      	cmp	r0, r2
    bgt     stack_invalid               /* msp > stack_base_addr, msp is invalid */
 80001ea:	dc08      	bgt.n	80001fe <stack_invalid>

080001ec <stack_checked>:
    
stack_checked:
    push    {r4 - r11}                  /* sp value is in stack range, push r4 - r11 to stack */
 80001ec:	e92d 0ff0 	stmdb	sp!, {r4, r5, r6, r7, r8, r9, sl, fp}

    tst     lr, #4                      /* update sp value to r0 */
 80001f0:	f01e 0f04 	tst.w	lr, #4
    ite     eq
 80001f4:	bf0c      	ite	eq
    mrseq   r0, msp                     /* lr & 0x04 == 1, r0 = sp = msp */
 80001f6:	f3ef 8008 	mrseq	r0, MSP
    mrsne   r0, psp                     /* lr & 0x04 == 0, r0 = sp = psp */
 80001fa:	f3ef 8009 	mrsne	r0, PSP

080001fe <stack_invalid>:
stack_invalid:
    mov     r1, lr                      /* now, r0 = sp, r1 = lr */
 80001fe:	4671      	mov	r1, lr
    ldr     r2, =fault_dump_handler     /* now, r2 = fault_dump_handler */
 8000200:	4a04      	ldr	r2, [pc, #16]	; (8000214 <stack_invalid+0x16>)
    dsb                                 /* wait for memory access to complete */
 8000202:	f3bf 8f4f 	dsb	sy
    cpsie   i                           /* enable interrupts */
 8000206:	b662      	cpsie	i
    bx      r2                          /* jump to fault_dump_handler */
 8000208:	4710      	bx	r2
 800020a:	01dc0000 	bicseq	r0, ip, r0
    ldr     r3, =fd_main_stack_base     /* r3 = &fd_main_stack_base */
 800020e:	01e02000 	mvneq	r2, r0
    ldr     r3, =fd_main_stack_full     /* r3 = &fd_main_stack_full */
 8000212:	18e92000 	stmiane	r9!, {sp}^
    ldr     r2, =fault_dump_handler     /* now, r2 = fault_dump_handler */
 8000216:	00000800 	andeq	r0, r0, r0, lsl #16
 800021a:	00000000 	andeq	r0, r0, r0
	...

08000220 <memchr>:
 8000220:	f001 01ff 	and.w	r1, r1, #255	; 0xff
 8000224:	2a10      	cmp	r2, #16
 8000226:	db2b      	blt.n	8000280 <memchr+0x60>
 8000228:	f010 0f07 	tst.w	r0, #7
 800022c:	d008      	beq.n	8000240 <memchr+0x20>
 800022e:	f810 3b01 	ldrb.w	r3, [r0], #1
 8000232:	3a01      	subs	r2, #1
 8000234:	428b      	cmp	r3, r1
 8000236:	d02d      	beq.n	8000294 <memchr+0x74>
 8000238:	f010 0f07 	tst.w	r0, #7
 800023c:	b342      	cbz	r2, 8000290 <memchr+0x70>
 800023e:	d1f6      	bne.n	800022e <memchr+0xe>
 8000240:	b4f0      	push	{r4, r5, r6, r7}
 8000242:	ea41 2101 	orr.w	r1, r1, r1, lsl #8
 8000246:	ea41 4101 	orr.w	r1, r1, r1, lsl #16
 800024a:	f022 0407 	bic.w	r4, r2, #7
 800024e:	f07f 0700 	mvns.w	r7, #0
 8000252:	2300      	movs	r3, #0
 8000254:	e8f0 5602 	ldrd	r5, r6, [r0], #8
 8000258:	3c08      	subs	r4, #8
 800025a:	ea85 0501 	eor.w	r5, r5, r1
 800025e:	ea86 0601 	eor.w	r6, r6, r1
 8000262:	fa85 f547 	uadd8	r5, r5, r7
 8000266:	faa3 f587 	sel	r5, r3, r7
 800026a:	fa86 f647 	uadd8	r6, r6, r7
 800026e:	faa5 f687 	sel	r6, r5, r7
 8000272:	b98e      	cbnz	r6, 8000298 <memchr+0x78>
 8000274:	d1ee      	bne.n	8000254 <memchr+0x34>
 8000276:	bcf0      	pop	{r4, r5, r6, r7}
 8000278:	f001 01ff 	and.w	r1, r1, #255	; 0xff
 800027c:	f002 0207 	and.w	r2, r2, #7
 8000280:	b132      	cbz	r2, 8000290 <memchr+0x70>
 8000282:	f810 3b01 	ldrb.w	r3, [r0], #1
 8000286:	3a01      	subs	r2, #1
 8000288:	ea83 0301 	eor.w	r3, r3, r1
 800028c:	b113      	cbz	r3, 8000294 <memchr+0x74>
 800028e:	d1f8      	bne.n	8000282 <memchr+0x62>
 8000290:	2000      	movs	r0, #0
 8000292:	4770      	bx	lr
 8000294:	3801      	subs	r0, #1
 8000296:	4770      	bx	lr
 8000298:	2d00      	cmp	r5, #0
 800029a:	bf06      	itte	eq
 800029c:	4635      	moveq	r5, r6
 800029e:	3803      	subeq	r0, #3
 80002a0:	3807      	subne	r0, #7
 80002a2:	f015 0f01 	tst.w	r5, #1
 80002a6:	d107      	bne.n	80002b8 <memchr+0x98>
 80002a8:	3001      	adds	r0, #1
 80002aa:	f415 7f80 	tst.w	r5, #256	; 0x100
 80002ae:	bf02      	ittt	eq
 80002b0:	3001      	addeq	r0, #1
 80002b2:	f415 3fc0 	tsteq.w	r5, #98304	; 0x18000
 80002b6:	3001      	addeq	r0, #1
 80002b8:	bcf0      	pop	{r4, r5, r6, r7}
 80002ba:	3801      	subs	r0, #1
 80002bc:	4770      	bx	lr
 80002be:	bf00      	nop

080002c0 <__aeabi_uldivmod>:
 80002c0:	b953      	cbnz	r3, 80002d8 <__aeabi_uldivmod+0x18>
 80002c2:	b94a      	cbnz	r2, 80002d8 <__aeabi_uldivmod+0x18>
 80002c4:	2900      	cmp	r1, #0
 80002c6:	bf08      	it	eq
 80002c8:	2800      	cmpeq	r0, #0
 80002ca:	bf1c      	itt	ne
 80002cc:	f04f 31ff 	movne.w	r1, #4294967295
 80002d0:	f04f 30ff 	movne.w	r0, #4294967295
 80002d4:	f000 b974 	b.w	80005c0 <__aeabi_idiv0>
 80002d8:	f1ad 0c08 	sub.w	ip, sp, #8
 80002dc:	e96d ce04 	strd	ip, lr, [sp, #-16]!
 80002e0:	f000 f806 	bl	80002f0 <__udivmoddi4>
 80002e4:	f8dd e004 	ldr.w	lr, [sp, #4]
 80002e8:	e9dd 2302 	ldrd	r2, r3, [sp, #8]
 80002ec:	b004      	add	sp, #16
 80002ee:	4770      	bx	lr

080002f0 <__udivmoddi4>:
 80002f0:	e92d 47f0 	stmdb	sp!, {r4, r5, r6, r7, r8, r9, sl, lr}
 80002f4:	9d08      	ldr	r5, [sp, #32]
 80002f6:	4604      	mov	r4, r0
 80002f8:	468e      	mov	lr, r1
 80002fa:	2b00      	cmp	r3, #0
 80002fc:	d14d      	bne.n	800039a <__udivmoddi4+0xaa>
 80002fe:	428a      	cmp	r2, r1
 8000300:	4694      	mov	ip, r2
 8000302:	d969      	bls.n	80003d8 <__udivmoddi4+0xe8>
 8000304:	fab2 f282 	clz	r2, r2
 8000308:	b152      	cbz	r2, 8000320 <__udivmoddi4+0x30>
 800030a:	fa01 f302 	lsl.w	r3, r1, r2
 800030e:	f1c2 0120 	rsb	r1, r2, #32
 8000312:	fa20 f101 	lsr.w	r1, r0, r1
 8000316:	fa0c fc02 	lsl.w	ip, ip, r2
 800031a:	ea41 0e03 	orr.w	lr, r1, r3
 800031e:	4094      	lsls	r4, r2
 8000320:	ea4f 481c 	mov.w	r8, ip, lsr #16
 8000324:	0c21      	lsrs	r1, r4, #16
 8000326:	fbbe f6f8 	udiv	r6, lr, r8
 800032a:	fa1f f78c 	uxth.w	r7, ip
 800032e:	fb08 e316 	mls	r3, r8, r6, lr
 8000332:	ea41 4303 	orr.w	r3, r1, r3, lsl #16
 8000336:	fb06 f107 	mul.w	r1, r6, r7
 800033a:	4299      	cmp	r1, r3
 800033c:	d90a      	bls.n	8000354 <__udivmoddi4+0x64>
 800033e:	eb1c 0303 	adds.w	r3, ip, r3
 8000342:	f106 30ff 	add.w	r0, r6, #4294967295
 8000346:	f080 811f 	bcs.w	8000588 <__udivmoddi4+0x298>
 800034a:	4299      	cmp	r1, r3
 800034c:	f240 811c 	bls.w	8000588 <__udivmoddi4+0x298>
 8000350:	3e02      	subs	r6, #2
 8000352:	4463      	add	r3, ip
 8000354:	1a5b      	subs	r3, r3, r1
 8000356:	b2a4      	uxth	r4, r4
 8000358:	fbb3 f0f8 	udiv	r0, r3, r8
 800035c:	fb08 3310 	mls	r3, r8, r0, r3
 8000360:	ea44 4403 	orr.w	r4, r4, r3, lsl #16
 8000364:	fb00 f707 	mul.w	r7, r0, r7
 8000368:	42a7      	cmp	r7, r4
 800036a:	d90a      	bls.n	8000382 <__udivmoddi4+0x92>
 800036c:	eb1c 0404 	adds.w	r4, ip, r4
 8000370:	f100 33ff 	add.w	r3, r0, #4294967295
 8000374:	f080 810a 	bcs.w	800058c <__udivmoddi4+0x29c>
 8000378:	42a7      	cmp	r7, r4
 800037a:	f240 8107 	bls.w	800058c <__udivmoddi4+0x29c>
 800037e:	4464      	add	r4, ip
 8000380:	3802      	subs	r0, #2
 8000382:	ea40 4006 	orr.w	r0, r0, r6, lsl #16
 8000386:	1be4      	subs	r4, r4, r7
 8000388:	2600      	movs	r6, #0
 800038a:	b11d      	cbz	r5, 8000394 <__udivmoddi4+0xa4>
 800038c:	40d4      	lsrs	r4, r2
 800038e:	2300      	movs	r3, #0
 8000390:	e9c5 4300 	strd	r4, r3, [r5]
 8000394:	4631      	mov	r1, r6
 8000396:	e8bd 87f0 	ldmia.w	sp!, {r4, r5, r6, r7, r8, r9, sl, pc}
 800039a:	428b      	cmp	r3, r1
 800039c:	d909      	bls.n	80003b2 <__udivmoddi4+0xc2>
 800039e:	2d00      	cmp	r5, #0
 80003a0:	f000 80ef 	beq.w	8000582 <__udivmoddi4+0x292>
 80003a4:	2600      	movs	r6, #0
 80003a6:	e9c5 0100 	strd	r0, r1, [r5]
 80003aa:	4630      	mov	r0, r6
 80003ac:	4631      	mov	r1, r6
 80003ae:	e8bd 87f0 	ldmia.w	sp!, {r4, r5, r6, r7, r8, r9, sl, pc}
 80003b2:	fab3 f683 	clz	r6, r3
 80003b6:	2e00      	cmp	r6, #0
 80003b8:	d14a      	bne.n	8000450 <__udivmoddi4+0x160>
 80003ba:	428b      	cmp	r3, r1
 80003bc:	d302      	bcc.n	80003c4 <__udivmoddi4+0xd4>
 80003be:	4282      	cmp	r2, r0
 80003c0:	f200 80f9 	bhi.w	80005b6 <__udivmoddi4+0x2c6>
 80003c4:	1a84      	subs	r4, r0, r2
 80003c6:	eb61 0303 	sbc.w	r3, r1, r3
 80003ca:	2001      	movs	r0, #1
 80003cc:	469e      	mov	lr, r3
 80003ce:	2d00      	cmp	r5, #0
 80003d0:	d0e0      	beq.n	8000394 <__udivmoddi4+0xa4>
 80003d2:	e9c5 4e00 	strd	r4, lr, [r5]
 80003d6:	e7dd      	b.n	8000394 <__udivmoddi4+0xa4>
 80003d8:	b902      	cbnz	r2, 80003dc <__udivmoddi4+0xec>
 80003da:	deff      	udf	#255	; 0xff
 80003dc:	fab2 f282 	clz	r2, r2
 80003e0:	2a00      	cmp	r2, #0
 80003e2:	f040 8092 	bne.w	800050a <__udivmoddi4+0x21a>
 80003e6:	eba1 010c 	sub.w	r1, r1, ip
 80003ea:	ea4f 471c 	mov.w	r7, ip, lsr #16
 80003ee:	fa1f fe8c 	uxth.w	lr, ip
 80003f2:	2601      	movs	r6, #1
 80003f4:	0c20      	lsrs	r0, r4, #16
 80003f6:	fbb1 f3f7 	udiv	r3, r1, r7
 80003fa:	fb07 1113 	mls	r1, r7, r3, r1
 80003fe:	ea40 4101 	orr.w	r1, r0, r1, lsl #16
 8000402:	fb0e f003 	mul.w	r0, lr, r3
 8000406:	4288      	cmp	r0, r1
 8000408:	d908      	bls.n	800041c <__udivmoddi4+0x12c>
 800040a:	eb1c 0101 	adds.w	r1, ip, r1
 800040e:	f103 38ff 	add.w	r8, r3, #4294967295
 8000412:	d202      	bcs.n	800041a <__udivmoddi4+0x12a>
 8000414:	4288      	cmp	r0, r1
 8000416:	f200 80cb 	bhi.w	80005b0 <__udivmoddi4+0x2c0>
 800041a:	4643      	mov	r3, r8
 800041c:	1a09      	subs	r1, r1, r0
 800041e:	b2a4      	uxth	r4, r4
 8000420:	fbb1 f0f7 	udiv	r0, r1, r7
 8000424:	fb07 1110 	mls	r1, r7, r0, r1
 8000428:	ea44 4401 	orr.w	r4, r4, r1, lsl #16
 800042c:	fb0e fe00 	mul.w	lr, lr, r0
 8000430:	45a6      	cmp	lr, r4
 8000432:	d908      	bls.n	8000446 <__udivmoddi4+0x156>
 8000434:	eb1c 0404 	adds.w	r4, ip, r4
 8000438:	f100 31ff 	add.w	r1, r0, #4294967295
 800043c:	d202      	bcs.n	8000444 <__udivmoddi4+0x154>
 800043e:	45a6      	cmp	lr, r4
 8000440:	f200 80bb 	bhi.w	80005ba <__udivmoddi4+0x2ca>
 8000444:	4608      	mov	r0, r1
 8000446:	eba4 040e 	sub.w	r4, r4, lr
 800044a:	ea40 4003 	orr.w	r0, r0, r3, lsl #16
 800044e:	e79c      	b.n	800038a <__udivmoddi4+0x9a>
 8000450:	f1c6 0720 	rsb	r7, r6, #32
 8000454:	40b3      	lsls	r3, r6
 8000456:	fa22 fc07 	lsr.w	ip, r2, r7
 800045a:	ea4c 0c03 	orr.w	ip, ip, r3
 800045e:	fa20 f407 	lsr.w	r4, r0, r7
 8000462:	fa01 f306 	lsl.w	r3, r1, r6
 8000466:	431c      	orrs	r4, r3
 8000468:	40f9      	lsrs	r1, r7
 800046a:	ea4f 491c 	mov.w	r9, ip, lsr #16
 800046e:	fa00 f306 	lsl.w	r3, r0, r6
 8000472:	fbb1 f8f9 	udiv	r8, r1, r9
 8000476:	0c20      	lsrs	r0, r4, #16
 8000478:	fa1f fe8c 	uxth.w	lr, ip
 800047c:	fb09 1118 	mls	r1, r9, r8, r1
 8000480:	ea40 4101 	orr.w	r1, r0, r1, lsl #16
 8000484:	fb08 f00e 	mul.w	r0, r8, lr
 8000488:	4288      	cmp	r0, r1
 800048a:	fa02 f206 	lsl.w	r2, r2, r6
 800048e:	d90b      	bls.n	80004a8 <__udivmoddi4+0x1b8>
 8000490:	eb1c 0101 	adds.w	r1, ip, r1
 8000494:	f108 3aff 	add.w	sl, r8, #4294967295
 8000498:	f080 8088 	bcs.w	80005ac <__udivmoddi4+0x2bc>
 800049c:	4288      	cmp	r0, r1
 800049e:	f240 8085 	bls.w	80005ac <__udivmoddi4+0x2bc>
 80004a2:	f1a8 0802 	sub.w	r8, r8, #2
 80004a6:	4461      	add	r1, ip
 80004a8:	1a09      	subs	r1, r1, r0
 80004aa:	b2a4      	uxth	r4, r4
 80004ac:	fbb1 f0f9 	udiv	r0, r1, r9
 80004b0:	fb09 1110 	mls	r1, r9, r0, r1
 80004b4:	ea44 4101 	orr.w	r1, r4, r1, lsl #16
 80004b8:	fb00 fe0e 	mul.w	lr, r0, lr
 80004bc:	458e      	cmp	lr, r1
 80004be:	d908      	bls.n	80004d2 <__udivmoddi4+0x1e2>
 80004c0:	eb1c 0101 	adds.w	r1, ip, r1
 80004c4:	f100 34ff 	add.w	r4, r0, #4294967295
 80004c8:	d26c      	bcs.n	80005a4 <__udivmoddi4+0x2b4>
 80004ca:	458e      	cmp	lr, r1
 80004cc:	d96a      	bls.n	80005a4 <__udivmoddi4+0x2b4>
 80004ce:	3802      	subs	r0, #2
 80004d0:	4461      	add	r1, ip
 80004d2:	ea40 4008 	orr.w	r0, r0, r8, lsl #16
 80004d6:	fba0 9402 	umull	r9, r4, r0, r2
 80004da:	eba1 010e 	sub.w	r1, r1, lr
 80004de:	42a1      	cmp	r1, r4
 80004e0:	46c8      	mov	r8, r9
 80004e2:	46a6      	mov	lr, r4
 80004e4:	d356      	bcc.n	8000594 <__udivmoddi4+0x2a4>
 80004e6:	d053      	beq.n	8000590 <__udivmoddi4+0x2a0>
 80004e8:	b15d      	cbz	r5, 8000502 <__udivmoddi4+0x212>
 80004ea:	ebb3 0208 	subs.w	r2, r3, r8
 80004ee:	eb61 010e 	sbc.w	r1, r1, lr
 80004f2:	fa01 f707 	lsl.w	r7, r1, r7
 80004f6:	fa22 f306 	lsr.w	r3, r2, r6
 80004fa:	40f1      	lsrs	r1, r6
 80004fc:	431f      	orrs	r7, r3
 80004fe:	e9c5 7100 	strd	r7, r1, [r5]
 8000502:	2600      	movs	r6, #0
 8000504:	4631      	mov	r1, r6
 8000506:	e8bd 87f0 	ldmia.w	sp!, {r4, r5, r6, r7, r8, r9, sl, pc}
 800050a:	f1c2 0320 	rsb	r3, r2, #32
 800050e:	40d8      	lsrs	r0, r3
 8000510:	fa0c fc02 	lsl.w	ip, ip, r2
 8000514:	fa21 f303 	lsr.w	r3, r1, r3
 8000518:	4091      	lsls	r1, r2
 800051a:	4301      	orrs	r1, r0
 800051c:	ea4f 471c 	mov.w	r7, ip, lsr #16
 8000520:	fa1f fe8c 	uxth.w	lr, ip
 8000524:	fbb3 f0f7 	udiv	r0, r3, r7
 8000528:	fb07 3610 	mls	r6, r7, r0, r3
 800052c:	0c0b      	lsrs	r3, r1, #16
 800052e:	ea43 4306 	orr.w	r3, r3, r6, lsl #16
 8000532:	fb00 f60e 	mul.w	r6, r0, lr
 8000536:	429e      	cmp	r6, r3
 8000538:	fa04 f402 	lsl.w	r4, r4, r2
 800053c:	d908      	bls.n	8000550 <__udivmoddi4+0x260>
 800053e:	eb1c 0303 	adds.w	r3, ip, r3
 8000542:	f100 38ff 	add.w	r8, r0, #4294967295
 8000546:	d22f      	bcs.n	80005a8 <__udivmoddi4+0x2b8>
 8000548:	429e      	cmp	r6, r3
 800054a:	d92d      	bls.n	80005a8 <__udivmoddi4+0x2b8>
 800054c:	3802      	subs	r0, #2
 800054e:	4463      	add	r3, ip
 8000550:	1b9b      	subs	r3, r3, r6
 8000552:	b289      	uxth	r1, r1
 8000554:	fbb3 f6f7 	udiv	r6, r3, r7
 8000558:	fb07 3316 	mls	r3, r7, r6, r3
 800055c:	ea41 4103 	orr.w	r1, r1, r3, lsl #16
 8000560:	fb06 f30e 	mul.w	r3, r6, lr
 8000564:	428b      	cmp	r3, r1
 8000566:	d908      	bls.n	800057a <__udivmoddi4+0x28a>
 8000568:	eb1c 0101 	adds.w	r1, ip, r1
 800056c:	f106 38ff 	add.w	r8, r6, #4294967295
 8000570:	d216      	bcs.n	80005a0 <__udivmoddi4+0x2b0>
 8000572:	428b      	cmp	r3, r1
 8000574:	d914      	bls.n	80005a0 <__udivmoddi4+0x2b0>
 8000576:	3e02      	subs	r6, #2
 8000578:	4461      	add	r1, ip
 800057a:	1ac9      	subs	r1, r1, r3
 800057c:	ea46 4600 	orr.w	r6, r6, r0, lsl #16
 8000580:	e738      	b.n	80003f4 <__udivmoddi4+0x104>
 8000582:	462e      	mov	r6, r5
 8000584:	4628      	mov	r0, r5
 8000586:	e705      	b.n	8000394 <__udivmoddi4+0xa4>
 8000588:	4606      	mov	r6, r0
 800058a:	e6e3      	b.n	8000354 <__udivmoddi4+0x64>
 800058c:	4618      	mov	r0, r3
 800058e:	e6f8      	b.n	8000382 <__udivmoddi4+0x92>
 8000590:	454b      	cmp	r3, r9
 8000592:	d2a9      	bcs.n	80004e8 <__udivmoddi4+0x1f8>
 8000594:	ebb9 0802 	subs.w	r8, r9, r2
 8000598:	eb64 0e0c 	sbc.w	lr, r4, ip
 800059c:	3801      	subs	r0, #1
 800059e:	e7a3      	b.n	80004e8 <__udivmoddi4+0x1f8>
 80005a0:	4646      	mov	r6, r8
 80005a2:	e7ea      	b.n	800057a <__udivmoddi4+0x28a>
 80005a4:	4620      	mov	r0, r4
 80005a6:	e794      	b.n	80004d2 <__udivmoddi4+0x1e2>
 80005a8:	4640      	mov	r0, r8
 80005aa:	e7d1      	b.n	8000550 <__udivmoddi4+0x260>
 80005ac:	46d0      	mov	r8, sl
 80005ae:	e77b      	b.n	80004a8 <__udivmoddi4+0x1b8>
 80005b0:	3b02      	subs	r3, #2
 80005b2:	4461      	add	r1, ip
 80005b4:	e732      	b.n	800041c <__udivmoddi4+0x12c>
 80005b6:	4630      	mov	r0, r6
 80005b8:	e709      	b.n	80003ce <__udivmoddi4+0xde>
 80005ba:	4464      	add	r4, ip
 80005bc:	3802      	subs	r0, #2
 80005be:	e742      	b.n	8000446 <__udivmoddi4+0x156>

080005c0 <__aeabi_idiv0>:
 80005c0:	4770      	bx	lr
 80005c2:	bf00      	nop

080005c4 <_sbrk>:
 *
 * @param incr Memory size
 * @return Pointer to allocated memory
 */
void *_sbrk(ptrdiff_t incr)
{
 80005c4:	b510      	push	{r4, lr}
 80005c6:	4603      	mov	r3, r0
  extern uint8_t _end; /* Symbol defined in the linker script */
  extern uint8_t _estack; /* Symbol defined in the linker script */
  extern uint32_t _Min_Stack_Size; /* Symbol defined in the linker script */
  const uint32_t stack_limit = (uint32_t)&_estack - (uint32_t)&_Min_Stack_Size;
 80005c8:	4a0c      	ldr	r2, [pc, #48]	; (80005fc <_sbrk+0x38>)
 80005ca:	490d      	ldr	r1, [pc, #52]	; (8000600 <_sbrk+0x3c>)
  const uint8_t *max_heap = (uint8_t *)stack_limit;
  uint8_t *prev_heap_end;

  /* Initialize heap end at first call */
  if (NULL == __sbrk_heap_end)
 80005cc:	480d      	ldr	r0, [pc, #52]	; (8000604 <_sbrk+0x40>)
 80005ce:	6800      	ldr	r0, [r0, #0]
 80005d0:	b140      	cbz	r0, 80005e4 <_sbrk+0x20>
  {
    __sbrk_heap_end = &_end;
  }

  /* Protect heap from growing into the reserved MSP stack */
  if (__sbrk_heap_end + incr > max_heap)
 80005d2:	480c      	ldr	r0, [pc, #48]	; (8000604 <_sbrk+0x40>)
 80005d4:	6800      	ldr	r0, [r0, #0]
 80005d6:	4403      	add	r3, r0
 80005d8:	1a52      	subs	r2, r2, r1
 80005da:	4293      	cmp	r3, r2
 80005dc:	d806      	bhi.n	80005ec <_sbrk+0x28>
    errno = ENOMEM;
    return (void *)-1;
  }

  prev_heap_end = __sbrk_heap_end;
  __sbrk_heap_end += incr;
 80005de:	4a09      	ldr	r2, [pc, #36]	; (8000604 <_sbrk+0x40>)
 80005e0:	6013      	str	r3, [r2, #0]

  return (void *)prev_heap_end;
}
 80005e2:	bd10      	pop	{r4, pc}
    __sbrk_heap_end = &_end;
 80005e4:	4807      	ldr	r0, [pc, #28]	; (8000604 <_sbrk+0x40>)
 80005e6:	4c08      	ldr	r4, [pc, #32]	; (8000608 <_sbrk+0x44>)
 80005e8:	6004      	str	r4, [r0, #0]
 80005ea:	e7f2      	b.n	80005d2 <_sbrk+0xe>
    errno = ENOMEM;
 80005ec:	f001 faac 	bl	8001b48 <__errno>
 80005f0:	230c      	movs	r3, #12
 80005f2:	6003      	str	r3, [r0, #0]
    return (void *)-1;
 80005f4:	f04f 30ff 	mov.w	r0, #4294967295
 80005f8:	e7f3      	b.n	80005e2 <_sbrk+0x1e>
 80005fa:	bf00      	nop
 80005fc:	20001238 	andcs	r1, r0, r8, lsr r2
 8000600:	00000800 	andeq	r0, r0, r0, lsl #16
 8000604:	2000008c 	andcs	r0, r0, ip, lsl #1
 8000608:	20000238 	andcs	r0, r0, r8, lsr r2

0800060c <_read>:
  _kill(status, -1);
  while (1) {}    /* Make sure we hang here */
}

__attribute__((weak)) int _read(int file, char *ptr, int len)
{
 800060c:	b570      	push	{r4, r5, r6, lr}
 800060e:	460c      	mov	r4, r1
 8000610:	4616      	mov	r6, r2
  (void)file;
  int DataIdx;

  for (DataIdx = 0; DataIdx < len; DataIdx++)
 8000612:	2500      	movs	r5, #0
 8000614:	e006      	b.n	8000624 <_read+0x18>
  {
    *ptr++ = __io_getchar();
 8000616:	f3af 8000 	nop.w
 800061a:	4621      	mov	r1, r4
 800061c:	f801 0b01 	strb.w	r0, [r1], #1
  for (DataIdx = 0; DataIdx < len; DataIdx++)
 8000620:	3501      	adds	r5, #1
    *ptr++ = __io_getchar();
 8000622:	460c      	mov	r4, r1
  for (DataIdx = 0; DataIdx < len; DataIdx++)
 8000624:	42b5      	cmp	r5, r6
 8000626:	dbf6      	blt.n	8000616 <_read+0xa>
  }

  return len;
}
 8000628:	4630      	mov	r0, r6
 800062a:	bd70      	pop	{r4, r5, r6, pc}

0800062c <_write>:

__attribute__((weak)) int _write(int file, char *ptr, int len)
{
 800062c:	b570      	push	{r4, r5, r6, lr}
 800062e:	460c      	mov	r4, r1
 8000630:	4616      	mov	r6, r2
  (void)file;
  int DataIdx;

  for (DataIdx = 0; DataIdx < len; DataIdx++)
 8000632:	2500      	movs	r5, #0
 8000634:	e004      	b.n	8000640 <_write+0x14>
  {
    __io_putchar(*ptr++);
 8000636:	f814 0b01 	ldrb.w	r0, [r4], #1
 800063a:	f000 f811 	bl	8000660 <__io_putchar>
  for (DataIdx = 0; DataIdx < len; DataIdx++)
 800063e:	3501      	adds	r5, #1
 8000640:	42b5      	cmp	r5, r6
 8000642:	dbf8      	blt.n	8000636 <_write+0xa>
  }
  return len;
}
 8000644:	4630      	mov	r0, r6
 8000646:	bd70      	pop	{r4, r5, r6, pc}

08000648 <_close>:

int _close(int file)
{
  (void)file;
  return -1;
}
 8000648:	f04f 30ff 	mov.w	r0, #4294967295
 800064c:	4770      	bx	lr

0800064e <_fstat>:


int _fstat(int file, struct stat *st)
{
  (void)file;
  st->st_mode = S_IFCHR;
 800064e:	f44f 5300 	mov.w	r3, #8192	; 0x2000
 8000652:	604b      	str	r3, [r1, #4]
  return 0;
}
 8000654:	2000      	movs	r0, #0
 8000656:	4770      	bx	lr

08000658 <_isatty>:

int _isatty(int file)
{
  (void)file;
  return 1;
}
 8000658:	2001      	movs	r0, #1
 800065a:	4770      	bx	lr

0800065c <_lseek>:
{
  (void)file;
  (void)ptr;
  (void)dir;
  return 0;
}
 800065c:	2000      	movs	r0, #0
 800065e:	4770      	bx	lr

08000660 <__io_putchar>:
  * @brief  Retargets the C library printf function to the USART.
  * @param  None
  * @retval None
  */
PUTCHAR_PROTOTYPE
{
 8000660:	b500      	push	{lr}
 8000662:	b083      	sub	sp, #12
 8000664:	9001      	str	r0, [sp, #4]
  /* Place your implementation of fputc here */
  /* e.g. write a character to the EVAL_COM1 and Loop until the end of transmission */
  HAL_UART_Transmit(&huart1, (uint8_t *)&ch, 1, 0xFFFF);
 8000666:	f64f 73ff 	movw	r3, #65535	; 0xffff
 800066a:	2201      	movs	r2, #1
 800066c:	a901      	add	r1, sp, #4
 800066e:	4803      	ldr	r0, [pc, #12]	; (800067c <__io_putchar+0x1c>)
 8000670:	f000 fb68 	bl	8000d44 <HAL_UART_Transmit>
  return ch;
}
 8000674:	9801      	ldr	r0, [sp, #4]
 8000676:	b003      	add	sp, #12
 8000678:	f85d fb04 	ldr.w	pc, [sp], #4
 800067c:	20000090 	mulcs	r0, r0, r0

08000680 <fault_unalign_trigger>:
  c = (a + (b / c));
  printf("c = %d\r\n", c);
}

void fault_unalign_trigger(void) 
{
 8000680:	b530      	push	{r4, r5, lr}
 8000682:	b083      	sub	sp, #12
  volatile int *addr = NULL;
  volatile int value = 0;
 8000684:	2400      	movs	r4, #0
 8000686:	9401      	str	r4, [sp, #4]
  SCB->CCR |= SCB_CCR_UNALIGN_TRP_Msk;
 8000688:	4a0e      	ldr	r2, [pc, #56]	; (80006c4 <fault_unalign_trigger+0x44>)
 800068a:	6953      	ldr	r3, [r2, #20]
 800068c:	f043 0308 	orr.w	r3, r3, #8
 8000690:	6153      	str	r3, [r2, #20]

  addr = (int*)0x00;
  value = *addr;
 8000692:	6823      	ldr	r3, [r4, #0]
 8000694:	9301      	str	r3, [sp, #4]
  printf("addr:0x%02X-value:0x%08X\r\n", (int)addr, value);
 8000696:	9a01      	ldr	r2, [sp, #4]
 8000698:	4d0b      	ldr	r5, [pc, #44]	; (80006c8 <fault_unalign_trigger+0x48>)
 800069a:	4621      	mov	r1, r4
 800069c:	4628      	mov	r0, r5
 800069e:	f001 fa85 	bl	8001bac <iprintf>
  addr = (int*)0x04;
  value = *addr;
 80006a2:	6863      	ldr	r3, [r4, #4]
 80006a4:	9301      	str	r3, [sp, #4]
  printf("addr:0x%02X-value:0x%08X\r\n", (int)addr, value);
 80006a6:	9a01      	ldr	r2, [sp, #4]
 80006a8:	2104      	movs	r1, #4
 80006aa:	4628      	mov	r0, r5
 80006ac:	f001 fa7e 	bl	8001bac <iprintf>
  addr = (int*)0x03;
  value = *addr;
 80006b0:	f8d4 3003 	ldr.w	r3, [r4, #3]
 80006b4:	9301      	str	r3, [sp, #4]
  printf("addr:0x%02X-value:0x%08X\r\n", (int)addr, value);
 80006b6:	9a01      	ldr	r2, [sp, #4]
 80006b8:	2103      	movs	r1, #3
 80006ba:	4628      	mov	r0, r5
 80006bc:	f001 fa76 	bl	8001bac <iprintf>
}
 80006c0:	b003      	add	sp, #12
 80006c2:	bd30      	pop	{r4, r5, pc}
 80006c4:	e000ed00 	and	lr, r0, r0, lsl #26
 80006c8:	08002bcc 	stmdaeq	r0, {r2, r3, r6, r7, r8, r9, fp, sp}

080006cc <test0>:

void test0(void)
{
 80006cc:	b508      	push	{r3, lr}
  printf("this is %s.\r\n", __func__);
 80006ce:	4903      	ldr	r1, [pc, #12]	; (80006dc <test0+0x10>)
 80006d0:	4803      	ldr	r0, [pc, #12]	; (80006e0 <test0+0x14>)
 80006d2:	f001 fa6b 	bl	8001bac <iprintf>
  // trigger a fault.
  //float a = 0.0, b = 1.1;
  //printf("this is %f.\r\n", (a + b));
  fault_unalign_trigger();
 80006d6:	f7ff ffd3 	bl	8000680 <fault_unalign_trigger>
}
 80006da:	bd08      	pop	{r3, pc}
 80006dc:	08002c50 	stmdaeq	r0, {r4, r6, sl, fp, sp}
 80006e0:	08002be8 	stmdaeq	r0, {r3, r5, r6, r7, r8, r9, fp, sp}

080006e4 <test1>:

void test1(void)
{
 80006e4:	b508      	push	{r3, lr}
  printf("this is %s.\r\n", __func__);
 80006e6:	4903      	ldr	r1, [pc, #12]	; (80006f4 <test1+0x10>)
 80006e8:	4803      	ldr	r0, [pc, #12]	; (80006f8 <test1+0x14>)
 80006ea:	f001 fa5f 	bl	8001bac <iprintf>
  test0();
 80006ee:	f7ff ffed 	bl	80006cc <test0>
}
 80006f2:	bd08      	pop	{r3, pc}
 80006f4:	08002c48 	stmdaeq	r0, {r3, r6, sl, fp, sp}
 80006f8:	08002be8 	stmdaeq	r0, {r3, r5, r6, r7, r8, r9, fp, sp}

080006fc <test2>:

void test2(void)
{
 80006fc:	b508      	push	{r3, lr}
  printf("this is %s.\r\n", __func__);
 80006fe:	4903      	ldr	r1, [pc, #12]	; (800070c <test2+0x10>)
 8000700:	4803      	ldr	r0, [pc, #12]	; (8000710 <test2+0x14>)
 8000702:	f001 fa53 	bl	8001bac <iprintf>
  test1();
 8000706:	f7ff ffed 	bl	80006e4 <test1>
}
 800070a:	bd08      	pop	{r3, pc}
 800070c:	08002c40 	stmdaeq	r0, {r6, sl, fp, sp}
 8000710:	08002be8 	stmdaeq	r0, {r3, r5, r6, r7, r8, r9, fp, sp}

08000714 <test3>:

void test3(void)
{
 8000714:	b508      	push	{r3, lr}
  printf("this is %s.\r\n", __func__);
 8000716:	4903      	ldr	r1, [pc, #12]	; (8000724 <test3+0x10>)
 8000718:	4803      	ldr	r0, [pc, #12]	; (8000728 <test3+0x14>)
 800071a:	f001 fa47 	bl	8001bac <iprintf>
  test2();
 800071e:	f7ff ffed 	bl	80006fc <test2>
}
 8000722:	bd08      	pop	{r3, pc}
 8000724:	08002c38 	stmdaeq	r0, {r3, r4, r5, sl, fp, sp}
 8000728:	08002be8 	stmdaeq	r0, {r3, r5, r6, r7, r8, r9, fp, sp}

0800072c <test4>:

void test4(void)
{
 800072c:	b508      	push	{r3, lr}
  printf("this is %s.\r\n", __func__);
 800072e:	4903      	ldr	r1, [pc, #12]	; (800073c <test4+0x10>)
 8000730:	4803      	ldr	r0, [pc, #12]	; (8000740 <test4+0x14>)
 8000732:	f001 fa3b 	bl	8001bac <iprintf>
  test3();
 8000736:	f7ff ffed 	bl	8000714 <test3>
}
 800073a:	bd08      	pop	{r3, pc}
 800073c:	08002c30 	stmdaeq	r0, {r4, r5, sl, fp, sp}
 8000740:	08002be8 	stmdaeq	r0, {r3, r5, r6, r7, r8, r9, fp, sp}

08000744 <test5>:

void test5(void)
{
 8000744:	b508      	push	{r3, lr}
  printf("this is %s.\r\n", __func__);
 8000746:	4903      	ldr	r1, [pc, #12]	; (8000754 <test5+0x10>)
 8000748:	4803      	ldr	r0, [pc, #12]	; (8000758 <test5+0x14>)
 800074a:	f001 fa2f 	bl	8001bac <iprintf>
  test4();
 800074e:	f7ff ffed 	bl	800072c <test4>
}
 8000752:	bd08      	pop	{r3, pc}
 8000754:	08002c28 	stmdaeq	r0, {r3, r5, sl, fp, sp}
 8000758:	08002be8 	stmdaeq	r0, {r3, r5, r6, r7, r8, r9, fp, sp}

0800075c <main>:
/**
  * @brief  The application entry point.
  * @retval int
  */
int main(void)
{
 800075c:	b508      	push	{r3, lr}
  /* USER CODE END 1 */

  /* MCU Configuration--------------------------------------------------------*/

  /* Reset of all peripherals, Initializes the Flash interface and the Systick. */
  HAL_Init();
 800075e:	f000 ffd5 	bl	800170c <HAL_Init>
  /* USER CODE BEGIN SysInit */

  /* USER CODE END SysInit */

  /* Initialize all configured peripherals */
  MX_GPIO_Init();
 8000762:	f000 f827 	bl	80007b4 <MX_GPIO_Init>
  MX_USART1_UART_Init();
 8000766:	f000 f84b 	bl	8000800 <MX_USART1_UART_Init>
  /* USER CODE BEGIN 2 */
  fault_dump_init();
 800076a:	f001 f857 	bl	800181c <fault_dump_init>
  test5();
 800076e:	f7ff ffe9 	bl	8000744 <test5>

  /* Infinite loop */
  /* USER CODE BEGIN WHILE */
  while (1)
  {
    printf("%s", "hello qemu.\r\n");
 8000772:	4804      	ldr	r0, [pc, #16]	; (8000784 <main+0x28>)
 8000774:	f001 faa0 	bl	8001cb8 <puts>
    HAL_Delay(1000);
 8000778:	f44f 707a 	mov.w	r0, #1000	; 0x3e8
 800077c:	f000 fff2 	bl	8001764 <HAL_Delay>
  while (1)
 8000780:	e7f7      	b.n	8000772 <main+0x16>
 8000782:	bf00      	nop
 8000784:	08002bf8 	stmdaeq	r0, {r3, r4, r5, r6, r7, r8, r9, fp, sp}

08000788 <Error_Handler>:
/**
  * @brief  This function is executed in case of error occurrence.
  * @retval None
  */
void Error_Handler(void)
{
 8000788:	b508      	push	{r3, lr}
  /* USER CODE BEGIN Error_Handler_Debug */
	printf("this is %s.\r\n", __func__);
 800078a:	4903      	ldr	r1, [pc, #12]	; (8000798 <Error_Handler+0x10>)
 800078c:	4803      	ldr	r0, [pc, #12]	; (800079c <Error_Handler+0x14>)
 800078e:	f001 fa0d 	bl	8001bac <iprintf>
  \details Disables IRQ interrupts by setting special-purpose register PRIMASK.
           Can only be executed in Privileged modes.
 */
__STATIC_FORCEINLINE void __disable_irq(void)
{
  __ASM volatile ("cpsid i" : : : "memory");
 8000792:	b672      	cpsid	i
  /* User can add his own implementation to report the HAL error return state */
  __disable_irq();
  while (1)
 8000794:	e7fe      	b.n	8000794 <Error_Handler+0xc>
 8000796:	bf00      	nop
 8000798:	08002c18 	stmdaeq	r0, {r3, r4, sl, fp, sp}
 800079c:	08002be8 	stmdaeq	r0, {r3, r5, r6, r7, r8, r9, fp, sp}

080007a0 <assert_failed>:
  * @param  file: pointer to the source file name
  * @param  line: assert_param error line source number
  * @retval None
  */
void assert_failed(uint8_t *file, uint32_t line)
{
 80007a0:	b508      	push	{r3, lr}
  /* USER CODE BEGIN 6 */
  printf("this is %s.\r\n", __func__);
 80007a2:	4902      	ldr	r1, [pc, #8]	; (80007ac <assert_failed+0xc>)
 80007a4:	4802      	ldr	r0, [pc, #8]	; (80007b0 <assert_failed+0x10>)
 80007a6:	f001 fa01 	bl	8001bac <iprintf>
  /* User can add his own implementation to report the file name and line number,
     ex: printf("Wrong parameters value: file %s on line %d\r\n", file, line) */
  /* USER CODE END 6 */
}
 80007aa:	bd08      	pop	{r3, pc}
 80007ac:	08002c08 	stmdaeq	r0, {r3, sl, fp, sp}
 80007b0:	08002be8 	stmdaeq	r0, {r3, r5, r6, r7, r8, r9, fp, sp}

080007b4 <MX_GPIO_Init>:
        * Output
        * EVENT_OUT
        * EXTI
*/
void MX_GPIO_Init(void)
{
 80007b4:	b084      	sub	sp, #16

  /* GPIO Ports Clock Enable */
  __HAL_RCC_GPIOC_CLK_ENABLE();
 80007b6:	2200      	movs	r2, #0
 80007b8:	9201      	str	r2, [sp, #4]
 80007ba:	4b10      	ldr	r3, [pc, #64]	; (80007fc <MX_GPIO_Init+0x48>)
 80007bc:	6b19      	ldr	r1, [r3, #48]	; 0x30
 80007be:	f041 0104 	orr.w	r1, r1, #4
 80007c2:	6319      	str	r1, [r3, #48]	; 0x30
 80007c4:	6b19      	ldr	r1, [r3, #48]	; 0x30
 80007c6:	f001 0104 	and.w	r1, r1, #4
 80007ca:	9101      	str	r1, [sp, #4]
 80007cc:	9901      	ldr	r1, [sp, #4]
  __HAL_RCC_GPIOH_CLK_ENABLE();
 80007ce:	9202      	str	r2, [sp, #8]
 80007d0:	6b19      	ldr	r1, [r3, #48]	; 0x30
 80007d2:	f041 0180 	orr.w	r1, r1, #128	; 0x80
 80007d6:	6319      	str	r1, [r3, #48]	; 0x30
 80007d8:	6b19      	ldr	r1, [r3, #48]	; 0x30
 80007da:	f001 0180 	and.w	r1, r1, #128	; 0x80
 80007de:	9102      	str	r1, [sp, #8]
 80007e0:	9902      	ldr	r1, [sp, #8]
  __HAL_RCC_GPIOA_CLK_ENABLE();
 80007e2:	9203      	str	r2, [sp, #12]
 80007e4:	6b1a      	ldr	r2, [r3, #48]	; 0x30
 80007e6:	f042 0201 	orr.w	r2, r2, #1
 80007ea:	631a      	str	r2, [r3, #48]	; 0x30
 80007ec:	6b1b      	ldr	r3, [r3, #48]	; 0x30
 80007ee:	f003 0301 	and.w	r3, r3, #1
 80007f2:	9303      	str	r3, [sp, #12]
 80007f4:	9b03      	ldr	r3, [sp, #12]

}
 80007f6:	b004      	add	sp, #16
 80007f8:	4770      	bx	lr
 80007fa:	bf00      	nop
 80007fc:	40023800 	andmi	r3, r2, r0, lsl #16

08000800 <MX_USART1_UART_Init>:
UART_HandleTypeDef huart1;

/* USART1 init function */

void MX_USART1_UART_Init(void)
{
 8000800:	b508      	push	{r3, lr}
  /* USER CODE END USART1_Init 0 */

  /* USER CODE BEGIN USART1_Init 1 */

  /* USER CODE END USART1_Init 1 */
  huart1.Instance = USART1;
 8000802:	480a      	ldr	r0, [pc, #40]	; (800082c <MX_USART1_UART_Init+0x2c>)
 8000804:	4b0a      	ldr	r3, [pc, #40]	; (8000830 <MX_USART1_UART_Init+0x30>)
 8000806:	6003      	str	r3, [r0, #0]
  huart1.Init.BaudRate = 115200;
 8000808:	f44f 33e1 	mov.w	r3, #115200	; 0x1c200
 800080c:	6043      	str	r3, [r0, #4]
  huart1.Init.WordLength = UART_WORDLENGTH_8B;
 800080e:	2300      	movs	r3, #0
 8000810:	6083      	str	r3, [r0, #8]
  huart1.Init.StopBits = UART_STOPBITS_1;
 8000812:	60c3      	str	r3, [r0, #12]
  huart1.Init.Parity = UART_PARITY_NONE;
 8000814:	6103      	str	r3, [r0, #16]
  huart1.Init.Mode = UART_MODE_TX_RX;
 8000816:	220c      	movs	r2, #12
 8000818:	6142      	str	r2, [r0, #20]
  huart1.Init.HwFlowCtl = UART_HWCONTROL_NONE;
 800081a:	6183      	str	r3, [r0, #24]
  huart1.Init.OverSampling = UART_OVERSAMPLING_16;
 800081c:	61c3      	str	r3, [r0, #28]
  if (HAL_UART_Init(&huart1) != HAL_OK)
 800081e:	f000 f9fb 	bl	8000c18 <HAL_UART_Init>
 8000822:	b900      	cbnz	r0, 8000826 <MX_USART1_UART_Init+0x26>
  }
  /* USER CODE BEGIN USART1_Init 2 */

  /* USER CODE END USART1_Init 2 */

}
 8000824:	bd08      	pop	{r3, pc}
    Error_Handler();
 8000826:	f7ff ffaf 	bl	8000788 <Error_Handler>
}
 800082a:	e7fb      	b.n	8000824 <MX_USART1_UART_Init+0x24>
 800082c:	20000090 	mulcs	r0, r0, r0
 8000830:	40011000 	andmi	r1, r1, r0

08000834 <HAL_UART_MspInit>:

void HAL_UART_MspInit(UART_HandleTypeDef* uartHandle)
{
 8000834:	b510      	push	{r4, lr}
 8000836:	b088      	sub	sp, #32

  GPIO_InitTypeDef GPIO_InitStruct = {0};
 8000838:	2300      	movs	r3, #0
 800083a:	9303      	str	r3, [sp, #12]
 800083c:	9304      	str	r3, [sp, #16]
 800083e:	9305      	str	r3, [sp, #20]
 8000840:	9306      	str	r3, [sp, #24]
 8000842:	9307      	str	r3, [sp, #28]
  if(uartHandle->Instance==USART1)
 8000844:	6802      	ldr	r2, [r0, #0]
 8000846:	f103 4380 	add.w	r3, r3, #1073741824	; 0x40000000
 800084a:	f503 3388 	add.w	r3, r3, #69632	; 0x11000
 800084e:	429a      	cmp	r2, r3
 8000850:	d001      	beq.n	8000856 <HAL_UART_MspInit+0x22>
    HAL_NVIC_EnableIRQ(USART1_IRQn);
  /* USER CODE BEGIN USART1_MspInit 1 */

  /* USER CODE END USART1_MspInit 1 */
  }
}
 8000852:	b008      	add	sp, #32
 8000854:	bd10      	pop	{r4, pc}
    __HAL_RCC_USART1_CLK_ENABLE();
 8000856:	2400      	movs	r4, #0
 8000858:	9401      	str	r4, [sp, #4]
 800085a:	f503 3394 	add.w	r3, r3, #75776	; 0x12800
 800085e:	6c5a      	ldr	r2, [r3, #68]	; 0x44
 8000860:	f042 0210 	orr.w	r2, r2, #16
 8000864:	645a      	str	r2, [r3, #68]	; 0x44
 8000866:	6c5a      	ldr	r2, [r3, #68]	; 0x44
 8000868:	f002 0210 	and.w	r2, r2, #16
 800086c:	9201      	str	r2, [sp, #4]
 800086e:	9a01      	ldr	r2, [sp, #4]
    __HAL_RCC_GPIOA_CLK_ENABLE();
 8000870:	9402      	str	r4, [sp, #8]
 8000872:	6b1a      	ldr	r2, [r3, #48]	; 0x30
 8000874:	f042 0201 	orr.w	r2, r2, #1
 8000878:	631a      	str	r2, [r3, #48]	; 0x30
 800087a:	6b1b      	ldr	r3, [r3, #48]	; 0x30
 800087c:	f003 0301 	and.w	r3, r3, #1
 8000880:	9302      	str	r3, [sp, #8]
 8000882:	9b02      	ldr	r3, [sp, #8]
    GPIO_InitStruct.Pin = GPIO_PIN_9|GPIO_PIN_10;
 8000884:	f44f 63c0 	mov.w	r3, #1536	; 0x600
 8000888:	9303      	str	r3, [sp, #12]
    GPIO_InitStruct.Mode = GPIO_MODE_AF_PP;
 800088a:	2302      	movs	r3, #2
 800088c:	9304      	str	r3, [sp, #16]
    GPIO_InitStruct.Speed = GPIO_SPEED_FREQ_VERY_HIGH;
 800088e:	2303      	movs	r3, #3
 8000890:	9306      	str	r3, [sp, #24]
    GPIO_InitStruct.Alternate = GPIO_AF7_USART1;
 8000892:	2307      	movs	r3, #7
 8000894:	9307      	str	r3, [sp, #28]
    HAL_GPIO_Init(GPIOA, &GPIO_InitStruct);
 8000896:	a903      	add	r1, sp, #12
 8000898:	4805      	ldr	r0, [pc, #20]	; (80008b0 <HAL_UART_MspInit+0x7c>)
 800089a:	f000 fcaf 	bl	80011fc <HAL_GPIO_Init>
    HAL_NVIC_SetPriority(USART1_IRQn, 0, 0);
 800089e:	4622      	mov	r2, r4
 80008a0:	4621      	mov	r1, r4
 80008a2:	2025      	movs	r0, #37	; 0x25
 80008a4:	f000 fe9a 	bl	80015dc <HAL_NVIC_SetPriority>
    HAL_NVIC_EnableIRQ(USART1_IRQn);
 80008a8:	2025      	movs	r0, #37	; 0x25
 80008aa:	f000 fedd 	bl	8001668 <HAL_NVIC_EnableIRQ>
}
 80008ae:	e7d0      	b.n	8000852 <HAL_UART_MspInit+0x1e>
 80008b0:	40020000 	andmi	r0, r2, r0

080008b4 <NMI_Handler>:
/******************************************************************************/
/**
  * @brief This function handles Non maskable interrupt.
  */
void NMI_Handler(void)
{
 80008b4:	b508      	push	{r3, lr}
  /* USER CODE BEGIN NonMaskableInt_IRQn 0 */
  printf("this is %s.\r\n", __func__);
 80008b6:	4902      	ldr	r1, [pc, #8]	; (80008c0 <NMI_Handler+0xc>)
 80008b8:	4802      	ldr	r0, [pc, #8]	; (80008c4 <NMI_Handler+0x10>)
 80008ba:	f001 f977 	bl	8001bac <iprintf>
  /* USER CODE END NonMaskableInt_IRQn 0 */
  /* USER CODE BEGIN NonMaskableInt_IRQn 1 */
  while (1)
 80008be:	e7fe      	b.n	80008be <NMI_Handler+0xa>
 80008c0:	08002c94 	stmdaeq	r0, {r2, r4, r7, sl, fp, sp}
 80008c4:	08002be8 	stmdaeq	r0, {r3, r5, r6, r7, r8, r9, fp, sp}

080008c8 <MemManage_Handler>:

/**
  * @brief This function handles Memory management fault.
  */
void MemManage_Handler(void)
{
 80008c8:	b508      	push	{r3, lr}
  /* USER CODE BEGIN MemoryManagement_IRQn 0 */
  printf("this is %s.\r\n", __func__);
 80008ca:	4902      	ldr	r1, [pc, #8]	; (80008d4 <MemManage_Handler+0xc>)
 80008cc:	4802      	ldr	r0, [pc, #8]	; (80008d8 <MemManage_Handler+0x10>)
 80008ce:	f001 f96d 	bl	8001bac <iprintf>
  /* USER CODE END MemoryManagement_IRQn 0 */
  while (1)
 80008d2:	e7fe      	b.n	80008d2 <MemManage_Handler+0xa>
 80008d4:	08002c80 	stmdaeq	r0, {r7, sl, fp, sp}
 80008d8:	08002be8 	stmdaeq	r0, {r3, r5, r6, r7, r8, r9, fp, sp}

080008dc <BusFault_Handler>:

/**
  * @brief This function handles Pre-fetch fault, memory access fault.
  */
void BusFault_Handler(void)
{
 80008dc:	b508      	push	{r3, lr}
  /* USER CODE BEGIN BusFault_IRQn 0 */
  printf("this is %s.\r\n", __func__);
 80008de:	4902      	ldr	r1, [pc, #8]	; (80008e8 <BusFault_Handler+0xc>)
 80008e0:	4802      	ldr	r0, [pc, #8]	; (80008ec <BusFault_Handler+0x10>)
 80008e2:	f001 f963 	bl	8001bac <iprintf>
  /* USER CODE END BusFault_IRQn 0 */
  while (1)
 80008e6:	e7fe      	b.n	80008e6 <BusFault_Handler+0xa>
 80008e8:	08002c6c 	stmdaeq	r0, {r2, r3, r5, r6, sl, fp, sp}
 80008ec:	08002be8 	stmdaeq	r0, {r3, r5, r6, r7, r8, r9, fp, sp}

080008f0 <UsageFault_Handler>:

/**
  * @brief This function handles Undefined instruction or illegal state.
  */
void UsageFault_Handler(void)
{
 80008f0:	b508      	push	{r3, lr}
  /* USER CODE BEGIN UsageFault_IRQn 0 */
  printf("this is %s.\r\n", __func__);
 80008f2:	4902      	ldr	r1, [pc, #8]	; (80008fc <UsageFault_Handler+0xc>)
 80008f4:	4802      	ldr	r0, [pc, #8]	; (8000900 <UsageFault_Handler+0x10>)
 80008f6:	f001 f959 	bl	8001bac <iprintf>
  /* USER CODE END UsageFault_IRQn 0 */
  while (1)
 80008fa:	e7fe      	b.n	80008fa <UsageFault_Handler+0xa>
 80008fc:	08002c58 	stmdaeq	r0, {r3, r4, r6, sl, fp, sp}
 8000900:	08002be8 	stmdaeq	r0, {r3, r5, r6, r7, r8, r9, fp, sp}

08000904 <SVC_Handler>:

  /* USER CODE END SVCall_IRQn 0 */
  /* USER CODE BEGIN SVCall_IRQn 1 */

  /* USER CODE END SVCall_IRQn 1 */
}
 8000904:	4770      	bx	lr

08000906 <DebugMon_Handler>:

  /* USER CODE END DebugMonitor_IRQn 0 */
  /* USER CODE BEGIN DebugMonitor_IRQn 1 */

  /* USER CODE END DebugMonitor_IRQn 1 */
}
 8000906:	4770      	bx	lr

08000908 <PendSV_Handler>:

  /* USER CODE END PendSV_IRQn 0 */
  /* USER CODE BEGIN PendSV_IRQn 1 */

  /* USER CODE END PendSV_IRQn 1 */
}
 8000908:	4770      	bx	lr

0800090a <SysTick_Handler>:

/**
  * @brief This function handles System tick timer.
  */
void SysTick_Handler(void)
{
 800090a:	b508      	push	{r3, lr}
  /* USER CODE BEGIN SysTick_IRQn 0 */

  /* USER CODE END SysTick_IRQn 0 */
  HAL_IncTick();
 800090c:	f000 ff18 	bl	8001740 <HAL_IncTick>
  /* USER CODE BEGIN SysTick_IRQn 1 */

  /* USER CODE END SysTick_IRQn 1 */
}
 8000910:	bd08      	pop	{r3, pc}
	...

08000914 <USART1_IRQHandler>:

/**
  * @brief This function handles USART1 global interrupt.
  */
void USART1_IRQHandler(void)
{
 8000914:	b508      	push	{r3, lr}
  /* USER CODE BEGIN USART1_IRQn 0 */

  /* USER CODE END USART1_IRQn 0 */
  HAL_UART_IRQHandler(&huart1);
 8000916:	4802      	ldr	r0, [pc, #8]	; (8000920 <USART1_IRQHandler+0xc>)
 8000918:	f000 fb06 	bl	8000f28 <HAL_UART_IRQHandler>
  /* USER CODE BEGIN USART1_IRQn 1 */

  /* USER CODE END USART1_IRQn 1 */
}
 800091c:	bd08      	pop	{r3, pc}
 800091e:	bf00      	nop
 8000920:	20000090 	mulcs	r0, r0, r0

08000924 <HAL_MspInit>:
/* USER CODE END 0 */
/**
  * Initializes the Global MSP.
  */
void HAL_MspInit(void)
{
 8000924:	b082      	sub	sp, #8

  /* USER CODE BEGIN MspInit 0 */

  /* USER CODE END MspInit 0 */

  __HAL_RCC_SYSCFG_CLK_ENABLE();
 8000926:	2100      	movs	r1, #0
 8000928:	9100      	str	r1, [sp, #0]
 800092a:	4b0b      	ldr	r3, [pc, #44]	; (8000958 <HAL_MspInit+0x34>)
 800092c:	6c5a      	ldr	r2, [r3, #68]	; 0x44
 800092e:	f442 4280 	orr.w	r2, r2, #16384	; 0x4000
 8000932:	645a      	str	r2, [r3, #68]	; 0x44
 8000934:	6c5a      	ldr	r2, [r3, #68]	; 0x44
 8000936:	f402 4280 	and.w	r2, r2, #16384	; 0x4000
 800093a:	9200      	str	r2, [sp, #0]
 800093c:	9a00      	ldr	r2, [sp, #0]
  __HAL_RCC_PWR_CLK_ENABLE();
 800093e:	9101      	str	r1, [sp, #4]
 8000940:	6c1a      	ldr	r2, [r3, #64]	; 0x40
 8000942:	f042 5280 	orr.w	r2, r2, #268435456	; 0x10000000
 8000946:	641a      	str	r2, [r3, #64]	; 0x40
 8000948:	6c1b      	ldr	r3, [r3, #64]	; 0x40
 800094a:	f003 5380 	and.w	r3, r3, #268435456	; 0x10000000
 800094e:	9301      	str	r3, [sp, #4]
 8000950:	9b01      	ldr	r3, [sp, #4]
  /* System interrupt init*/

  /* USER CODE BEGIN MspInit 1 */

  /* USER CODE END MspInit 1 */
}
 8000952:	b002      	add	sp, #8
 8000954:	4770      	bx	lr
 8000956:	bf00      	nop
 8000958:	40023800 	andmi	r3, r2, r0, lsl #16

0800095c <UART_EndRxTransfer>:
  * @retval None
  */
static void UART_EndRxTransfer(UART_HandleTypeDef *huart)
{
  /* Disable RXNE, PE and ERR (Frame error, noise error, overrun error) interrupts */
  ATOMIC_CLEAR_BIT(huart->Instance->CR1, (USART_CR1_RXNEIE | USART_CR1_PEIE));
 800095c:	6802      	ldr	r2, [r0, #0]
   __ASM volatile ("ldrex %0, %1" : "=r" (result) : "Q" (*addr) );
 800095e:	f102 030c 	add.w	r3, r2, #12
 8000962:	e853 3f00 	ldrex	r3, [r3]
 8000966:	f423 7390 	bic.w	r3, r3, #288	; 0x120
   __ASM volatile ("strex %0, %2, %1" : "=&r" (result), "=Q" (*addr) : "r" (value) );
 800096a:	320c      	adds	r2, #12
 800096c:	e842 3100 	strex	r1, r3, [r2]
 8000970:	2900      	cmp	r1, #0
 8000972:	d1f3      	bne.n	800095c <UART_EndRxTransfer>
  ATOMIC_CLEAR_BIT(huart->Instance->CR3, USART_CR3_EIE);
 8000974:	6802      	ldr	r2, [r0, #0]
   __ASM volatile ("ldrex %0, %1" : "=r" (result) : "Q" (*addr) );
 8000976:	f102 0314 	add.w	r3, r2, #20
 800097a:	e853 3f00 	ldrex	r3, [r3]
 800097e:	f023 0301 	bic.w	r3, r3, #1
   __ASM volatile ("strex %0, %2, %1" : "=&r" (result), "=Q" (*addr) : "r" (value) );
 8000982:	3214      	adds	r2, #20
 8000984:	e842 3100 	strex	r1, r3, [r2]
 8000988:	2900      	cmp	r1, #0
 800098a:	d1f3      	bne.n	8000974 <UART_EndRxTransfer+0x18>

  /* In case of reception waiting for IDLE event, disable also the IDLE IE interrupt source */
  if (huart->ReceptionType == HAL_UART_RECEPTION_TOIDLE)
 800098c:	6b03      	ldr	r3, [r0, #48]	; 0x30
 800098e:	2b01      	cmp	r3, #1
 8000990:	d005      	beq.n	800099e <UART_EndRxTransfer+0x42>
  {
    ATOMIC_CLEAR_BIT(huart->Instance->CR1, USART_CR1_IDLEIE);
  }

  /* At end of Rx process, restore huart->RxState to Ready */
  huart->RxState = HAL_UART_STATE_READY;
 8000992:	2320      	movs	r3, #32
 8000994:	f880 3042 	strb.w	r3, [r0, #66]	; 0x42
  huart->ReceptionType = HAL_UART_RECEPTION_STANDARD;
 8000998:	2300      	movs	r3, #0
 800099a:	6303      	str	r3, [r0, #48]	; 0x30
}
 800099c:	4770      	bx	lr
    ATOMIC_CLEAR_BIT(huart->Instance->CR1, USART_CR1_IDLEIE);
 800099e:	6802      	ldr	r2, [r0, #0]
   __ASM volatile ("ldrex %0, %1" : "=r" (result) : "Q" (*addr) );
 80009a0:	f102 030c 	add.w	r3, r2, #12
 80009a4:	e853 3f00 	ldrex	r3, [r3]
 80009a8:	f023 0310 	bic.w	r3, r3, #16
   __ASM volatile ("strex %0, %2, %1" : "=&r" (result), "=Q" (*addr) : "r" (value) );
 80009ac:	320c      	adds	r2, #12
 80009ae:	e842 3100 	strex	r1, r3, [r2]
 80009b2:	2900      	cmp	r1, #0
 80009b4:	d1f3      	bne.n	800099e <UART_EndRxTransfer+0x42>
 80009b6:	e7ec      	b.n	8000992 <UART_EndRxTransfer+0x36>

080009b8 <UART_Transmit_IT>:
static HAL_StatusTypeDef UART_Transmit_IT(UART_HandleTypeDef *huart)
{
  const uint16_t *tmp;

  /* Check that a Tx process is ongoing */
  if (huart->gState == HAL_UART_STATE_BUSY_TX)
 80009b8:	f890 3041 	ldrb.w	r3, [r0, #65]	; 0x41
 80009bc:	b2db      	uxtb	r3, r3
 80009be:	2b21      	cmp	r3, #33	; 0x21
 80009c0:	d001      	beq.n	80009c6 <UART_Transmit_IT+0xe>
    }
    return HAL_OK;
  }
  else
  {
    return HAL_BUSY;
 80009c2:	2002      	movs	r0, #2
  }
}
 80009c4:	4770      	bx	lr
    if ((huart->Init.WordLength == UART_WORDLENGTH_9B) && (huart->Init.Parity == UART_PARITY_NONE))
 80009c6:	6883      	ldr	r3, [r0, #8]
 80009c8:	f5b3 5f80 	cmp.w	r3, #4096	; 0x1000
 80009cc:	d017      	beq.n	80009fe <UART_Transmit_IT+0x46>
      huart->Instance->DR = (uint8_t)(*huart->pTxBuffPtr++ & (uint8_t)0x00FF);
 80009ce:	6a03      	ldr	r3, [r0, #32]
 80009d0:	1c5a      	adds	r2, r3, #1
 80009d2:	6202      	str	r2, [r0, #32]
 80009d4:	781a      	ldrb	r2, [r3, #0]
 80009d6:	6803      	ldr	r3, [r0, #0]
 80009d8:	605a      	str	r2, [r3, #4]
    if (--huart->TxXferCount == 0U)
 80009da:	8cc3      	ldrh	r3, [r0, #38]	; 0x26
 80009dc:	b29b      	uxth	r3, r3
 80009de:	3b01      	subs	r3, #1
 80009e0:	b29b      	uxth	r3, r3
 80009e2:	84c3      	strh	r3, [r0, #38]	; 0x26
 80009e4:	b94b      	cbnz	r3, 80009fa <UART_Transmit_IT+0x42>
      __HAL_UART_DISABLE_IT(huart, UART_IT_TXE);
 80009e6:	6802      	ldr	r2, [r0, #0]
 80009e8:	68d3      	ldr	r3, [r2, #12]
 80009ea:	f023 0380 	bic.w	r3, r3, #128	; 0x80
 80009ee:	60d3      	str	r3, [r2, #12]
      __HAL_UART_ENABLE_IT(huart, UART_IT_TC);
 80009f0:	6802      	ldr	r2, [r0, #0]
 80009f2:	68d3      	ldr	r3, [r2, #12]
 80009f4:	f043 0340 	orr.w	r3, r3, #64	; 0x40
 80009f8:	60d3      	str	r3, [r2, #12]
    return HAL_OK;
 80009fa:	2000      	movs	r0, #0
 80009fc:	4770      	bx	lr
    if ((huart->Init.WordLength == UART_WORDLENGTH_9B) && (huart->Init.Parity == UART_PARITY_NONE))
 80009fe:	6903      	ldr	r3, [r0, #16]
 8000a00:	2b00      	cmp	r3, #0
 8000a02:	d1e4      	bne.n	80009ce <UART_Transmit_IT+0x16>
      tmp = (const uint16_t *) huart->pTxBuffPtr;
 8000a04:	6a03      	ldr	r3, [r0, #32]
      huart->Instance->DR = (uint16_t)(*tmp & (uint16_t)0x01FF);
 8000a06:	881b      	ldrh	r3, [r3, #0]
 8000a08:	6802      	ldr	r2, [r0, #0]
 8000a0a:	f3c3 0308 	ubfx	r3, r3, #0, #9
 8000a0e:	6053      	str	r3, [r2, #4]
      huart->pTxBuffPtr += 2U;
 8000a10:	6a03      	ldr	r3, [r0, #32]
 8000a12:	3302      	adds	r3, #2
 8000a14:	6203      	str	r3, [r0, #32]
 8000a16:	e7e0      	b.n	80009da <UART_Transmit_IT+0x22>

08000a18 <UART_SetConfig>:
  * @param  huart  Pointer to a UART_HandleTypeDef structure that contains
  *                the configuration information for the specified UART module.
  * @retval None
  */
static void UART_SetConfig(UART_HandleTypeDef *huart)
{
 8000a18:	b538      	push	{r3, r4, r5, lr}
 8000a1a:	4604      	mov	r4, r0
  uint32_t tmpreg;
  uint32_t pclk;

  /* Check the parameters */
  assert_param(IS_UART_BAUDRATE(huart->Init.BaudRate));
 8000a1c:	6842      	ldr	r2, [r0, #4]
 8000a1e:	4b57      	ldr	r3, [pc, #348]	; (8000b7c <UART_SetConfig+0x164>)
 8000a20:	429a      	cmp	r2, r3
 8000a22:	d83f      	bhi.n	8000aa4 <UART_SetConfig+0x8c>
  assert_param(IS_UART_STOPBITS(huart->Init.StopBits));
 8000a24:	68e3      	ldr	r3, [r4, #12]
 8000a26:	b113      	cbz	r3, 8000a2e <UART_SetConfig+0x16>
 8000a28:	f5b3 5f00 	cmp.w	r3, #8192	; 0x2000
 8000a2c:	d140      	bne.n	8000ab0 <UART_SetConfig+0x98>
  assert_param(IS_UART_PARITY(huart->Init.Parity));
 8000a2e:	6923      	ldr	r3, [r4, #16]
 8000a30:	b12b      	cbz	r3, 8000a3e <UART_SetConfig+0x26>
 8000a32:	f5b3 6f80 	cmp.w	r3, #1024	; 0x400
 8000a36:	d002      	beq.n	8000a3e <UART_SetConfig+0x26>
 8000a38:	f5b3 6fc0 	cmp.w	r3, #1536	; 0x600
 8000a3c:	d13e      	bne.n	8000abc <UART_SetConfig+0xa4>
  assert_param(IS_UART_MODE(huart->Init.Mode));
 8000a3e:	6963      	ldr	r3, [r4, #20]
 8000a40:	f64f 72f3 	movw	r2, #65523	; 0xfff3
 8000a44:	4213      	tst	r3, r2
 8000a46:	d100      	bne.n	8000a4a <UART_SetConfig+0x32>
 8000a48:	b923      	cbnz	r3, 8000a54 <UART_SetConfig+0x3c>
 8000a4a:	f640 6178 	movw	r1, #3704	; 0xe78
 8000a4e:	484c      	ldr	r0, [pc, #304]	; (8000b80 <UART_SetConfig+0x168>)
 8000a50:	f7ff fea6 	bl	80007a0 <assert_failed>

  /*-------------------------- USART CR2 Configuration -----------------------*/
  /* Configure the UART Stop Bits: Set STOP[13:12] bits
     according to huart->Init.StopBits value */
  MODIFY_REG(huart->Instance->CR2, USART_CR2_STOP, huart->Init.StopBits);
 8000a54:	6822      	ldr	r2, [r4, #0]
 8000a56:	6913      	ldr	r3, [r2, #16]
 8000a58:	f423 5340 	bic.w	r3, r3, #12288	; 0x3000
 8000a5c:	68e1      	ldr	r1, [r4, #12]
 8000a5e:	430b      	orrs	r3, r1
 8000a60:	6113      	str	r3, [r2, #16]
     Set the M bits according to huart->Init.WordLength value
     Set PCE and PS bits according to huart->Init.Parity value
     Set TE and RE bits according to huart->Init.Mode value
     Set OVER8 bit according to huart->Init.OverSampling value */

  tmpreg = (uint32_t)huart->Init.WordLength | huart->Init.Parity | huart->Init.Mode | huart->Init.OverSampling;
 8000a62:	68a3      	ldr	r3, [r4, #8]
 8000a64:	6922      	ldr	r2, [r4, #16]
 8000a66:	4313      	orrs	r3, r2
 8000a68:	6962      	ldr	r2, [r4, #20]
 8000a6a:	4313      	orrs	r3, r2
 8000a6c:	69e2      	ldr	r2, [r4, #28]
 8000a6e:	431a      	orrs	r2, r3
  MODIFY_REG(huart->Instance->CR1,
 8000a70:	6821      	ldr	r1, [r4, #0]
 8000a72:	68cb      	ldr	r3, [r1, #12]
 8000a74:	f423 4316 	bic.w	r3, r3, #38400	; 0x9600
 8000a78:	f023 030c 	bic.w	r3, r3, #12
 8000a7c:	4313      	orrs	r3, r2
 8000a7e:	60cb      	str	r3, [r1, #12]
             (uint32_t)(USART_CR1_M | USART_CR1_PCE | USART_CR1_PS | USART_CR1_TE | USART_CR1_RE | USART_CR1_OVER8),
             tmpreg);

  /*-------------------------- USART CR3 Configuration -----------------------*/
  /* Configure the UART HFC: Set CTSE and RTSE bits according to huart->Init.HwFlowCtl value */
  MODIFY_REG(huart->Instance->CR3, (USART_CR3_RTSE | USART_CR3_CTSE), huart->Init.HwFlowCtl);
 8000a80:	6822      	ldr	r2, [r4, #0]
 8000a82:	6953      	ldr	r3, [r2, #20]
 8000a84:	f423 7340 	bic.w	r3, r3, #768	; 0x300
 8000a88:	69a1      	ldr	r1, [r4, #24]
 8000a8a:	430b      	orrs	r3, r1
 8000a8c:	6153      	str	r3, [r2, #20]
    if ((huart->Instance == USART1) || (huart->Instance == USART6) || (huart->Instance == UART9) || (huart->Instance == UART10))
    {
      pclk = HAL_RCC_GetPCLK2Freq();
    }
#elif defined(USART6)
    if ((huart->Instance == USART1) || (huart->Instance == USART6))
 8000a8e:	6823      	ldr	r3, [r4, #0]
 8000a90:	4a3c      	ldr	r2, [pc, #240]	; (8000b84 <UART_SetConfig+0x16c>)
 8000a92:	4293      	cmp	r3, r2
 8000a94:	d018      	beq.n	8000ac8 <UART_SetConfig+0xb0>
 8000a96:	f502 6280 	add.w	r2, r2, #1024	; 0x400
 8000a9a:	4293      	cmp	r3, r2
 8000a9c:	d014      	beq.n	8000ac8 <UART_SetConfig+0xb0>
      pclk = HAL_RCC_GetPCLK2Freq();
    }
#endif /* USART6 */
    else
    {
      pclk = HAL_RCC_GetPCLK1Freq();
 8000a9e:	f000 fb8d 	bl	80011bc <HAL_RCC_GetPCLK1Freq>
 8000aa2:	e013      	b.n	8000acc <UART_SetConfig+0xb4>
  assert_param(IS_UART_BAUDRATE(huart->Init.BaudRate));
 8000aa4:	f640 6175 	movw	r1, #3701	; 0xe75
 8000aa8:	4835      	ldr	r0, [pc, #212]	; (8000b80 <UART_SetConfig+0x168>)
 8000aaa:	f7ff fe79 	bl	80007a0 <assert_failed>
 8000aae:	e7b9      	b.n	8000a24 <UART_SetConfig+0xc>
  assert_param(IS_UART_STOPBITS(huart->Init.StopBits));
 8000ab0:	f640 6176 	movw	r1, #3702	; 0xe76
 8000ab4:	4832      	ldr	r0, [pc, #200]	; (8000b80 <UART_SetConfig+0x168>)
 8000ab6:	f7ff fe73 	bl	80007a0 <assert_failed>
 8000aba:	e7b8      	b.n	8000a2e <UART_SetConfig+0x16>
  assert_param(IS_UART_PARITY(huart->Init.Parity));
 8000abc:	f640 6177 	movw	r1, #3703	; 0xe77
 8000ac0:	482f      	ldr	r0, [pc, #188]	; (8000b80 <UART_SetConfig+0x168>)
 8000ac2:	f7ff fe6d 	bl	80007a0 <assert_failed>
 8000ac6:	e7ba      	b.n	8000a3e <UART_SetConfig+0x26>
      pclk = HAL_RCC_GetPCLK2Freq();
 8000ac8:	f000 fb88 	bl	80011dc <HAL_RCC_GetPCLK2Freq>
    }
  /*-------------------------- USART BRR Configuration ---------------------*/
  if (huart->Init.OverSampling == UART_OVERSAMPLING_8)
 8000acc:	69e3      	ldr	r3, [r4, #28]
 8000ace:	f5b3 4f00 	cmp.w	r3, #32768	; 0x8000
 8000ad2:	d029      	beq.n	8000b28 <UART_SetConfig+0x110>
  {
    huart->Instance->BRR = UART_BRR_SAMPLING8(pclk, huart->Init.BaudRate);
  }
  else
  {
    huart->Instance->BRR = UART_BRR_SAMPLING16(pclk, huart->Init.BaudRate);
 8000ad4:	2100      	movs	r1, #0
 8000ad6:	1803      	adds	r3, r0, r0
 8000ad8:	4149      	adcs	r1, r1
 8000ada:	181b      	adds	r3, r3, r0
 8000adc:	f141 0100 	adc.w	r1, r1, #0
 8000ae0:	00c9      	lsls	r1, r1, #3
 8000ae2:	ea41 7153 	orr.w	r1, r1, r3, lsr #29
 8000ae6:	00db      	lsls	r3, r3, #3
 8000ae8:	1818      	adds	r0, r3, r0
 8000aea:	6863      	ldr	r3, [r4, #4]
 8000aec:	ea4f 0283 	mov.w	r2, r3, lsl #2
 8000af0:	ea4f 7393 	mov.w	r3, r3, lsr #30
 8000af4:	f141 0100 	adc.w	r1, r1, #0
 8000af8:	f7ff fbe2 	bl	80002c0 <__aeabi_uldivmod>
 8000afc:	4d22      	ldr	r5, [pc, #136]	; (8000b88 <UART_SetConfig+0x170>)
 8000afe:	fba5 3200 	umull	r3, r2, r5, r0
 8000b02:	0951      	lsrs	r1, r2, #5
 8000b04:	2364      	movs	r3, #100	; 0x64
 8000b06:	fb03 0311 	mls	r3, r3, r1, r0
 8000b0a:	011b      	lsls	r3, r3, #4
 8000b0c:	3332      	adds	r3, #50	; 0x32
 8000b0e:	fba5 2303 	umull	r2, r3, r5, r3
 8000b12:	095b      	lsrs	r3, r3, #5
 8000b14:	f003 02f0 	and.w	r2, r3, #240	; 0xf0
 8000b18:	eb02 1201 	add.w	r2, r2, r1, lsl #4
 8000b1c:	f003 030f 	and.w	r3, r3, #15
 8000b20:	6821      	ldr	r1, [r4, #0]
 8000b22:	4413      	add	r3, r2
 8000b24:	608b      	str	r3, [r1, #8]
  }
}
 8000b26:	bd38      	pop	{r3, r4, r5, pc}
    huart->Instance->BRR = UART_BRR_SAMPLING8(pclk, huart->Init.BaudRate);
 8000b28:	2300      	movs	r3, #0
 8000b2a:	1802      	adds	r2, r0, r0
 8000b2c:	eb43 0103 	adc.w	r1, r3, r3
 8000b30:	1812      	adds	r2, r2, r0
 8000b32:	f141 0100 	adc.w	r1, r1, #0
 8000b36:	00c9      	lsls	r1, r1, #3
 8000b38:	ea41 7152 	orr.w	r1, r1, r2, lsr #29
 8000b3c:	00d2      	lsls	r2, r2, #3
 8000b3e:	1810      	adds	r0, r2, r0
 8000b40:	f141 0100 	adc.w	r1, r1, #0
 8000b44:	6862      	ldr	r2, [r4, #4]
 8000b46:	1892      	adds	r2, r2, r2
 8000b48:	415b      	adcs	r3, r3
 8000b4a:	f7ff fbb9 	bl	80002c0 <__aeabi_uldivmod>
 8000b4e:	4d0e      	ldr	r5, [pc, #56]	; (8000b88 <UART_SetConfig+0x170>)
 8000b50:	fba5 3200 	umull	r3, r2, r5, r0
 8000b54:	0951      	lsrs	r1, r2, #5
 8000b56:	2364      	movs	r3, #100	; 0x64
 8000b58:	fb03 0311 	mls	r3, r3, r1, r0
 8000b5c:	00db      	lsls	r3, r3, #3
 8000b5e:	3332      	adds	r3, #50	; 0x32
 8000b60:	fba5 2303 	umull	r2, r3, r5, r3
 8000b64:	095b      	lsrs	r3, r3, #5
 8000b66:	005a      	lsls	r2, r3, #1
 8000b68:	f402 72f8 	and.w	r2, r2, #496	; 0x1f0
 8000b6c:	eb02 1201 	add.w	r2, r2, r1, lsl #4
 8000b70:	f003 0307 	and.w	r3, r3, #7
 8000b74:	6821      	ldr	r1, [r4, #0]
 8000b76:	4413      	add	r3, r2
 8000b78:	608b      	str	r3, [r1, #8]
 8000b7a:	e7d4      	b.n	8000b26 <UART_SetConfig+0x10e>
 8000b7c:	00a037a0 	adceq	r3, r0, r0, lsr #15
 8000b80:	08002ca0 	stmdaeq	r0, {r5, r7, sl, fp, sp}
 8000b84:	40011000 	andmi	r1, r1, r0
 8000b88:	51eb851f 	mvnpl	r8, pc, lsl r5

08000b8c <UART_WaitOnFlagUntilTimeout>:
{
 8000b8c:	e92d 43f0 	stmdb	sp!, {r4, r5, r6, r7, r8, r9, lr}
 8000b90:	b083      	sub	sp, #12
 8000b92:	4605      	mov	r5, r0
 8000b94:	460e      	mov	r6, r1
 8000b96:	4617      	mov	r7, r2
 8000b98:	4699      	mov	r9, r3
 8000b9a:	f8dd 8028 	ldr.w	r8, [sp, #40]	; 0x28
  while ((__HAL_UART_GET_FLAG(huart, Flag) ? SET : RESET) == Status)
 8000b9e:	682c      	ldr	r4, [r5, #0]
 8000ba0:	6824      	ldr	r4, [r4, #0]
 8000ba2:	ea36 0304 	bics.w	r3, r6, r4
 8000ba6:	bf0c      	ite	eq
 8000ba8:	f04f 0c01 	moveq.w	ip, #1
 8000bac:	f04f 0c00 	movne.w	ip, #0
 8000bb0:	45bc      	cmp	ip, r7
 8000bb2:	d128      	bne.n	8000c06 <UART_WaitOnFlagUntilTimeout+0x7a>
    if (Timeout != HAL_MAX_DELAY)
 8000bb4:	f1b8 3fff 	cmp.w	r8, #4294967295
 8000bb8:	d0f1      	beq.n	8000b9e <UART_WaitOnFlagUntilTimeout+0x12>
      if (((HAL_GetTick() - Tickstart) > Timeout) || (Timeout == 0U))
 8000bba:	f000 fdcd 	bl	8001758 <HAL_GetTick>
 8000bbe:	eba0 0009 	sub.w	r0, r0, r9
 8000bc2:	4540      	cmp	r0, r8
 8000bc4:	d823      	bhi.n	8000c0e <UART_WaitOnFlagUntilTimeout+0x82>
 8000bc6:	f1b8 0f00 	cmp.w	r8, #0
 8000bca:	d022      	beq.n	8000c12 <UART_WaitOnFlagUntilTimeout+0x86>
      if ((READ_BIT(huart->Instance->CR1, USART_CR1_RE) != 0U) && (Flag != UART_FLAG_TXE) && (Flag != UART_FLAG_TC))
 8000bcc:	682b      	ldr	r3, [r5, #0]
 8000bce:	68da      	ldr	r2, [r3, #12]
 8000bd0:	f012 0f04 	tst.w	r2, #4
 8000bd4:	d0e3      	beq.n	8000b9e <UART_WaitOnFlagUntilTimeout+0x12>
 8000bd6:	2e80      	cmp	r6, #128	; 0x80
 8000bd8:	d0e1      	beq.n	8000b9e <UART_WaitOnFlagUntilTimeout+0x12>
 8000bda:	2e40      	cmp	r6, #64	; 0x40
 8000bdc:	d0df      	beq.n	8000b9e <UART_WaitOnFlagUntilTimeout+0x12>
        if (__HAL_UART_GET_FLAG(huart, UART_FLAG_ORE) == SET)
 8000bde:	681a      	ldr	r2, [r3, #0]
 8000be0:	f012 0f08 	tst.w	r2, #8
 8000be4:	d0db      	beq.n	8000b9e <UART_WaitOnFlagUntilTimeout+0x12>
          __HAL_UART_CLEAR_OREFLAG(huart);
 8000be6:	2400      	movs	r4, #0
 8000be8:	9401      	str	r4, [sp, #4]
 8000bea:	681a      	ldr	r2, [r3, #0]
 8000bec:	9201      	str	r2, [sp, #4]
 8000bee:	685b      	ldr	r3, [r3, #4]
 8000bf0:	9301      	str	r3, [sp, #4]
 8000bf2:	9b01      	ldr	r3, [sp, #4]
          UART_EndRxTransfer(huart);
 8000bf4:	4628      	mov	r0, r5
 8000bf6:	f7ff feb1 	bl	800095c <UART_EndRxTransfer>
          huart->ErrorCode = HAL_UART_ERROR_ORE;
 8000bfa:	2308      	movs	r3, #8
 8000bfc:	646b      	str	r3, [r5, #68]	; 0x44
          __HAL_UNLOCK(huart);
 8000bfe:	f885 4040 	strb.w	r4, [r5, #64]	; 0x40
          return HAL_ERROR;
 8000c02:	2001      	movs	r0, #1
 8000c04:	e000      	b.n	8000c08 <UART_WaitOnFlagUntilTimeout+0x7c>
  return HAL_OK;
 8000c06:	2000      	movs	r0, #0
}
 8000c08:	b003      	add	sp, #12
 8000c0a:	e8bd 83f0 	ldmia.w	sp!, {r4, r5, r6, r7, r8, r9, pc}
        return HAL_TIMEOUT;
 8000c0e:	2003      	movs	r0, #3
 8000c10:	e7fa      	b.n	8000c08 <UART_WaitOnFlagUntilTimeout+0x7c>
 8000c12:	2003      	movs	r0, #3
 8000c14:	e7f8      	b.n	8000c08 <UART_WaitOnFlagUntilTimeout+0x7c>
	...

08000c18 <HAL_UART_Init>:
  if (huart == NULL)
 8000c18:	2800      	cmp	r0, #0
 8000c1a:	f000 808c 	beq.w	8000d36 <HAL_UART_Init+0x11e>
{
 8000c1e:	b510      	push	{r4, lr}
 8000c20:	4604      	mov	r4, r0
  if (huart->Init.HwFlowCtl != UART_HWCONTROL_NONE)
 8000c22:	6983      	ldr	r3, [r0, #24]
 8000c24:	2b00      	cmp	r3, #0
 8000c26:	d056      	beq.n	8000cd6 <HAL_UART_Init+0xbe>
    assert_param(IS_UART_HWFLOW_INSTANCE(huart->Instance));
 8000c28:	6803      	ldr	r3, [r0, #0]
 8000c2a:	4a44      	ldr	r2, [pc, #272]	; (8000d3c <HAL_UART_Init+0x124>)
 8000c2c:	4293      	cmp	r3, r2
 8000c2e:	d010      	beq.n	8000c52 <HAL_UART_Init+0x3a>
 8000c30:	f5a2 424c 	sub.w	r2, r2, #52224	; 0xcc00
 8000c34:	4293      	cmp	r3, r2
 8000c36:	d00c      	beq.n	8000c52 <HAL_UART_Init+0x3a>
 8000c38:	f502 6280 	add.w	r2, r2, #1024	; 0x400
 8000c3c:	4293      	cmp	r3, r2
 8000c3e:	d008      	beq.n	8000c52 <HAL_UART_Init+0x3a>
 8000c40:	f502 424c 	add.w	r2, r2, #52224	; 0xcc00
 8000c44:	4293      	cmp	r3, r2
 8000c46:	d004      	beq.n	8000c52 <HAL_UART_Init+0x3a>
 8000c48:	f240 1173 	movw	r1, #371	; 0x173
 8000c4c:	483c      	ldr	r0, [pc, #240]	; (8000d40 <HAL_UART_Init+0x128>)
 8000c4e:	f7ff fda7 	bl	80007a0 <assert_failed>
    assert_param(IS_UART_HARDWARE_FLOW_CONTROL(huart->Init.HwFlowCtl));
 8000c52:	69a3      	ldr	r3, [r4, #24]
 8000c54:	b143      	cbz	r3, 8000c68 <HAL_UART_Init+0x50>
 8000c56:	f5b3 7f80 	cmp.w	r3, #256	; 0x100
 8000c5a:	d005      	beq.n	8000c68 <HAL_UART_Init+0x50>
 8000c5c:	f5b3 7f00 	cmp.w	r3, #512	; 0x200
 8000c60:	d002      	beq.n	8000c68 <HAL_UART_Init+0x50>
 8000c62:	f5b3 7f40 	cmp.w	r3, #768	; 0x300
 8000c66:	d130      	bne.n	8000cca <HAL_UART_Init+0xb2>
  assert_param(IS_UART_WORD_LENGTH(huart->Init.WordLength));
 8000c68:	68a3      	ldr	r3, [r4, #8]
 8000c6a:	b113      	cbz	r3, 8000c72 <HAL_UART_Init+0x5a>
 8000c6c:	f5b3 5f80 	cmp.w	r3, #4096	; 0x1000
 8000c70:	d14f      	bne.n	8000d12 <HAL_UART_Init+0xfa>
  assert_param(IS_UART_OVERSAMPLING(huart->Init.OverSampling));
 8000c72:	69e3      	ldr	r3, [r4, #28]
 8000c74:	b113      	cbz	r3, 8000c7c <HAL_UART_Init+0x64>
 8000c76:	f5b3 4f00 	cmp.w	r3, #32768	; 0x8000
 8000c7a:	d150      	bne.n	8000d1e <HAL_UART_Init+0x106>
  if (huart->gState == HAL_UART_STATE_RESET)
 8000c7c:	f894 3041 	ldrb.w	r3, [r4, #65]	; 0x41
 8000c80:	2b00      	cmp	r3, #0
 8000c82:	d052      	beq.n	8000d2a <HAL_UART_Init+0x112>
  huart->gState = HAL_UART_STATE_BUSY;
 8000c84:	2324      	movs	r3, #36	; 0x24
 8000c86:	f884 3041 	strb.w	r3, [r4, #65]	; 0x41
  __HAL_UART_DISABLE(huart);
 8000c8a:	6822      	ldr	r2, [r4, #0]
 8000c8c:	68d3      	ldr	r3, [r2, #12]
 8000c8e:	f423 5300 	bic.w	r3, r3, #8192	; 0x2000
 8000c92:	60d3      	str	r3, [r2, #12]
  UART_SetConfig(huart);
 8000c94:	4620      	mov	r0, r4
 8000c96:	f7ff febf 	bl	8000a18 <UART_SetConfig>
  CLEAR_BIT(huart->Instance->CR2, (USART_CR2_LINEN | USART_CR2_CLKEN));
 8000c9a:	6822      	ldr	r2, [r4, #0]
 8000c9c:	6913      	ldr	r3, [r2, #16]
 8000c9e:	f423 4390 	bic.w	r3, r3, #18432	; 0x4800
 8000ca2:	6113      	str	r3, [r2, #16]
  CLEAR_BIT(huart->Instance->CR3, (USART_CR3_SCEN | USART_CR3_HDSEL | USART_CR3_IREN));
 8000ca4:	6822      	ldr	r2, [r4, #0]
 8000ca6:	6953      	ldr	r3, [r2, #20]
 8000ca8:	f023 032a 	bic.w	r3, r3, #42	; 0x2a
 8000cac:	6153      	str	r3, [r2, #20]
  __HAL_UART_ENABLE(huart);
 8000cae:	6822      	ldr	r2, [r4, #0]
 8000cb0:	68d3      	ldr	r3, [r2, #12]
 8000cb2:	f443 5300 	orr.w	r3, r3, #8192	; 0x2000
 8000cb6:	60d3      	str	r3, [r2, #12]
  huart->ErrorCode = HAL_UART_ERROR_NONE;
 8000cb8:	2000      	movs	r0, #0
 8000cba:	6460      	str	r0, [r4, #68]	; 0x44
  huart->gState = HAL_UART_STATE_READY;
 8000cbc:	2320      	movs	r3, #32
 8000cbe:	f884 3041 	strb.w	r3, [r4, #65]	; 0x41
  huart->RxState = HAL_UART_STATE_READY;
 8000cc2:	f884 3042 	strb.w	r3, [r4, #66]	; 0x42
  huart->RxEventType = HAL_UART_RXEVENT_TC;
 8000cc6:	6360      	str	r0, [r4, #52]	; 0x34
}
 8000cc8:	bd10      	pop	{r4, pc}
    assert_param(IS_UART_HARDWARE_FLOW_CONTROL(huart->Init.HwFlowCtl));
 8000cca:	f44f 71ba 	mov.w	r1, #372	; 0x174
 8000cce:	481c      	ldr	r0, [pc, #112]	; (8000d40 <HAL_UART_Init+0x128>)
 8000cd0:	f7ff fd66 	bl	80007a0 <assert_failed>
 8000cd4:	e7c8      	b.n	8000c68 <HAL_UART_Init+0x50>
    assert_param(IS_UART_INSTANCE(huart->Instance));
 8000cd6:	6803      	ldr	r3, [r0, #0]
 8000cd8:	4a18      	ldr	r2, [pc, #96]	; (8000d3c <HAL_UART_Init+0x124>)
 8000cda:	4293      	cmp	r3, r2
 8000cdc:	d0c4      	beq.n	8000c68 <HAL_UART_Init+0x50>
 8000cde:	f5a2 424c 	sub.w	r2, r2, #52224	; 0xcc00
 8000ce2:	4293      	cmp	r3, r2
 8000ce4:	d0c0      	beq.n	8000c68 <HAL_UART_Init+0x50>
 8000ce6:	f502 6280 	add.w	r2, r2, #1024	; 0x400
 8000cea:	4293      	cmp	r3, r2
 8000cec:	d0bc      	beq.n	8000c68 <HAL_UART_Init+0x50>
 8000cee:	f502 6280 	add.w	r2, r2, #1024	; 0x400
 8000cf2:	4293      	cmp	r3, r2
 8000cf4:	d0b8      	beq.n	8000c68 <HAL_UART_Init+0x50>
 8000cf6:	f502 6280 	add.w	r2, r2, #1024	; 0x400
 8000cfa:	4293      	cmp	r3, r2
 8000cfc:	d0b4      	beq.n	8000c68 <HAL_UART_Init+0x50>
 8000cfe:	f502 4244 	add.w	r2, r2, #50176	; 0xc400
 8000d02:	4293      	cmp	r3, r2
 8000d04:	d0b0      	beq.n	8000c68 <HAL_UART_Init+0x50>
 8000d06:	f44f 71bc 	mov.w	r1, #376	; 0x178
 8000d0a:	480d      	ldr	r0, [pc, #52]	; (8000d40 <HAL_UART_Init+0x128>)
 8000d0c:	f7ff fd48 	bl	80007a0 <assert_failed>
 8000d10:	e7aa      	b.n	8000c68 <HAL_UART_Init+0x50>
  assert_param(IS_UART_WORD_LENGTH(huart->Init.WordLength));
 8000d12:	f44f 71bd 	mov.w	r1, #378	; 0x17a
 8000d16:	480a      	ldr	r0, [pc, #40]	; (8000d40 <HAL_UART_Init+0x128>)
 8000d18:	f7ff fd42 	bl	80007a0 <assert_failed>
 8000d1c:	e7a9      	b.n	8000c72 <HAL_UART_Init+0x5a>
  assert_param(IS_UART_OVERSAMPLING(huart->Init.OverSampling));
 8000d1e:	f240 117b 	movw	r1, #379	; 0x17b
 8000d22:	4807      	ldr	r0, [pc, #28]	; (8000d40 <HAL_UART_Init+0x128>)
 8000d24:	f7ff fd3c 	bl	80007a0 <assert_failed>
 8000d28:	e7a8      	b.n	8000c7c <HAL_UART_Init+0x64>
    huart->Lock = HAL_UNLOCKED;
 8000d2a:	f884 3040 	strb.w	r3, [r4, #64]	; 0x40
    HAL_UART_MspInit(huart);
 8000d2e:	4620      	mov	r0, r4
 8000d30:	f7ff fd80 	bl	8000834 <HAL_UART_MspInit>
 8000d34:	e7a6      	b.n	8000c84 <HAL_UART_Init+0x6c>
    return HAL_ERROR;
 8000d36:	2001      	movs	r0, #1
}
 8000d38:	4770      	bx	lr
 8000d3a:	bf00      	nop
 8000d3c:	40011000 	andmi	r1, r1, r0
 8000d40:	08002ca0 	stmdaeq	r0, {r5, r7, sl, fp, sp}

08000d44 <HAL_UART_Transmit>:
{
 8000d44:	e92d 41f0 	stmdb	sp!, {r4, r5, r6, r7, r8, lr}
 8000d48:	b082      	sub	sp, #8
 8000d4a:	461e      	mov	r6, r3
  if (huart->gState == HAL_UART_STATE_READY)
 8000d4c:	f890 3041 	ldrb.w	r3, [r0, #65]	; 0x41
 8000d50:	b2db      	uxtb	r3, r3
 8000d52:	2b20      	cmp	r3, #32
 8000d54:	d156      	bne.n	8000e04 <HAL_UART_Transmit+0xc0>
 8000d56:	4604      	mov	r4, r0
 8000d58:	460d      	mov	r5, r1
 8000d5a:	4690      	mov	r8, r2
    if ((pData == NULL) || (Size == 0U))
 8000d5c:	2900      	cmp	r1, #0
 8000d5e:	d055      	beq.n	8000e0c <HAL_UART_Transmit+0xc8>
 8000d60:	b90a      	cbnz	r2, 8000d66 <HAL_UART_Transmit+0x22>
      return  HAL_ERROR;
 8000d62:	2001      	movs	r0, #1
 8000d64:	e04f      	b.n	8000e06 <HAL_UART_Transmit+0xc2>
    huart->ErrorCode = HAL_UART_ERROR_NONE;
 8000d66:	2300      	movs	r3, #0
 8000d68:	6443      	str	r3, [r0, #68]	; 0x44
    huart->gState = HAL_UART_STATE_BUSY_TX;
 8000d6a:	2321      	movs	r3, #33	; 0x21
 8000d6c:	f880 3041 	strb.w	r3, [r0, #65]	; 0x41
    tickstart = HAL_GetTick();
 8000d70:	f000 fcf2 	bl	8001758 <HAL_GetTick>
 8000d74:	4607      	mov	r7, r0
    huart->TxXferSize = Size;
 8000d76:	f8a4 8024 	strh.w	r8, [r4, #36]	; 0x24
    huart->TxXferCount = Size;
 8000d7a:	f8a4 8026 	strh.w	r8, [r4, #38]	; 0x26
    if ((huart->Init.WordLength == UART_WORDLENGTH_9B) && (huart->Init.Parity == UART_PARITY_NONE))
 8000d7e:	68a3      	ldr	r3, [r4, #8]
 8000d80:	f5b3 5f80 	cmp.w	r3, #4096	; 0x1000
 8000d84:	d002      	beq.n	8000d8c <HAL_UART_Transmit+0x48>
      pdata16bits = NULL;
 8000d86:	f04f 0800 	mov.w	r8, #0
 8000d8a:	e014      	b.n	8000db6 <HAL_UART_Transmit+0x72>
    if ((huart->Init.WordLength == UART_WORDLENGTH_9B) && (huart->Init.Parity == UART_PARITY_NONE))
 8000d8c:	6923      	ldr	r3, [r4, #16]
 8000d8e:	b32b      	cbz	r3, 8000ddc <HAL_UART_Transmit+0x98>
      pdata16bits = NULL;
 8000d90:	f04f 0800 	mov.w	r8, #0
 8000d94:	e00f      	b.n	8000db6 <HAL_UART_Transmit+0x72>
        huart->gState = HAL_UART_STATE_READY;
 8000d96:	2320      	movs	r3, #32
 8000d98:	f884 3041 	strb.w	r3, [r4, #65]	; 0x41
        return HAL_TIMEOUT;
 8000d9c:	2003      	movs	r0, #3
 8000d9e:	e032      	b.n	8000e06 <HAL_UART_Transmit+0xc2>
        huart->Instance->DR = (uint16_t)(*pdata16bits & 0x01FFU);
 8000da0:	f838 3b02 	ldrh.w	r3, [r8], #2
 8000da4:	6822      	ldr	r2, [r4, #0]
 8000da6:	f3c3 0308 	ubfx	r3, r3, #0, #9
 8000daa:	6053      	str	r3, [r2, #4]
      huart->TxXferCount--;
 8000dac:	8ce2      	ldrh	r2, [r4, #38]	; 0x26
 8000dae:	b292      	uxth	r2, r2
 8000db0:	3a01      	subs	r2, #1
 8000db2:	b292      	uxth	r2, r2
 8000db4:	84e2      	strh	r2, [r4, #38]	; 0x26
    while (huart->TxXferCount > 0U)
 8000db6:	8ce3      	ldrh	r3, [r4, #38]	; 0x26
 8000db8:	b29b      	uxth	r3, r3
 8000dba:	b193      	cbz	r3, 8000de2 <HAL_UART_Transmit+0x9e>
      if (UART_WaitOnFlagUntilTimeout(huart, UART_FLAG_TXE, RESET, tickstart, Timeout) != HAL_OK)
 8000dbc:	9600      	str	r6, [sp, #0]
 8000dbe:	463b      	mov	r3, r7
 8000dc0:	2200      	movs	r2, #0
 8000dc2:	2180      	movs	r1, #128	; 0x80
 8000dc4:	4620      	mov	r0, r4
 8000dc6:	f7ff fee1 	bl	8000b8c <UART_WaitOnFlagUntilTimeout>
 8000dca:	2800      	cmp	r0, #0
 8000dcc:	d1e3      	bne.n	8000d96 <HAL_UART_Transmit+0x52>
      if (pdata8bits == NULL)
 8000dce:	2d00      	cmp	r5, #0
 8000dd0:	d0e6      	beq.n	8000da0 <HAL_UART_Transmit+0x5c>
        huart->Instance->DR = (uint8_t)(*pdata8bits & 0xFFU);
 8000dd2:	f815 2b01 	ldrb.w	r2, [r5], #1
 8000dd6:	6823      	ldr	r3, [r4, #0]
 8000dd8:	605a      	str	r2, [r3, #4]
        pdata8bits++;
 8000dda:	e7e7      	b.n	8000dac <HAL_UART_Transmit+0x68>
      pdata16bits = (const uint16_t *) pData;
 8000ddc:	46a8      	mov	r8, r5
      pdata8bits  = NULL;
 8000dde:	2500      	movs	r5, #0
 8000de0:	e7e9      	b.n	8000db6 <HAL_UART_Transmit+0x72>
    if (UART_WaitOnFlagUntilTimeout(huart, UART_FLAG_TC, RESET, tickstart, Timeout) != HAL_OK)
 8000de2:	9600      	str	r6, [sp, #0]
 8000de4:	463b      	mov	r3, r7
 8000de6:	2200      	movs	r2, #0
 8000de8:	2140      	movs	r1, #64	; 0x40
 8000dea:	4620      	mov	r0, r4
 8000dec:	f7ff fece 	bl	8000b8c <UART_WaitOnFlagUntilTimeout>
 8000df0:	b918      	cbnz	r0, 8000dfa <HAL_UART_Transmit+0xb6>
    huart->gState = HAL_UART_STATE_READY;
 8000df2:	2320      	movs	r3, #32
 8000df4:	f884 3041 	strb.w	r3, [r4, #65]	; 0x41
    return HAL_OK;
 8000df8:	e005      	b.n	8000e06 <HAL_UART_Transmit+0xc2>
      huart->gState = HAL_UART_STATE_READY;
 8000dfa:	2320      	movs	r3, #32
 8000dfc:	f884 3041 	strb.w	r3, [r4, #65]	; 0x41
      return HAL_TIMEOUT;
 8000e00:	2003      	movs	r0, #3
 8000e02:	e000      	b.n	8000e06 <HAL_UART_Transmit+0xc2>
    return HAL_BUSY;
 8000e04:	2002      	movs	r0, #2
}
 8000e06:	b002      	add	sp, #8
 8000e08:	e8bd 81f0 	ldmia.w	sp!, {r4, r5, r6, r7, r8, pc}
      return  HAL_ERROR;
 8000e0c:	2001      	movs	r0, #1
 8000e0e:	e7fa      	b.n	8000e06 <HAL_UART_Transmit+0xc2>

08000e10 <HAL_UART_TxCpltCallback>:
}
 8000e10:	4770      	bx	lr

08000e12 <UART_EndTransmit_IT>:
{
 8000e12:	b508      	push	{r3, lr}
  __HAL_UART_DISABLE_IT(huart, UART_IT_TC);
 8000e14:	6801      	ldr	r1, [r0, #0]
 8000e16:	68ca      	ldr	r2, [r1, #12]
 8000e18:	f022 0240 	bic.w	r2, r2, #64	; 0x40
 8000e1c:	60ca      	str	r2, [r1, #12]
  huart->gState = HAL_UART_STATE_READY;
 8000e1e:	2220      	movs	r2, #32
 8000e20:	f880 2041 	strb.w	r2, [r0, #65]	; 0x41
  HAL_UART_TxCpltCallback(huart);
 8000e24:	f7ff fff4 	bl	8000e10 <HAL_UART_TxCpltCallback>
}
 8000e28:	2000      	movs	r0, #0
 8000e2a:	bd08      	pop	{r3, pc}

08000e2c <HAL_UART_RxCpltCallback>:
}
 8000e2c:	4770      	bx	lr

08000e2e <HAL_UART_ErrorCallback>:
}
 8000e2e:	4770      	bx	lr

08000e30 <UART_DMAAbortOnError>:
{
 8000e30:	b508      	push	{r3, lr}
  UART_HandleTypeDef *huart = (UART_HandleTypeDef *)((DMA_HandleTypeDef *)hdma)->Parent;
 8000e32:	6b80      	ldr	r0, [r0, #56]	; 0x38
  huart->RxXferCount = 0x00U;
 8000e34:	2300      	movs	r3, #0
 8000e36:	85c3      	strh	r3, [r0, #46]	; 0x2e
  huart->TxXferCount = 0x00U;
 8000e38:	84c3      	strh	r3, [r0, #38]	; 0x26
  HAL_UART_ErrorCallback(huart);
 8000e3a:	f7ff fff8 	bl	8000e2e <HAL_UART_ErrorCallback>
}
 8000e3e:	bd08      	pop	{r3, pc}

08000e40 <HAL_UARTEx_RxEventCallback>:
}
 8000e40:	4770      	bx	lr

08000e42 <UART_Receive_IT>:
  if (huart->RxState == HAL_UART_STATE_BUSY_RX)
 8000e42:	f890 3042 	ldrb.w	r3, [r0, #66]	; 0x42
 8000e46:	b2db      	uxtb	r3, r3
 8000e48:	2b22      	cmp	r3, #34	; 0x22
 8000e4a:	d169      	bne.n	8000f20 <UART_Receive_IT+0xde>
    if ((huart->Init.WordLength == UART_WORDLENGTH_9B) && (huart->Init.Parity == UART_PARITY_NONE))
 8000e4c:	6883      	ldr	r3, [r0, #8]
 8000e4e:	f5b3 5f80 	cmp.w	r3, #4096	; 0x1000
 8000e52:	d04f      	beq.n	8000ef4 <UART_Receive_IT+0xb2>
      pdata8bits = (uint8_t *) huart->pRxBuffPtr;
 8000e54:	6a82      	ldr	r2, [r0, #40]	; 0x28
      if ((huart->Init.WordLength == UART_WORDLENGTH_9B) || ((huart->Init.WordLength == UART_WORDLENGTH_8B) && (huart->Init.Parity == UART_PARITY_NONE)))
 8000e56:	f5b3 5f80 	cmp.w	r3, #4096	; 0x1000
 8000e5a:	d004      	beq.n	8000e66 <UART_Receive_IT+0x24>
 8000e5c:	2b00      	cmp	r3, #0
 8000e5e:	d156      	bne.n	8000f0e <UART_Receive_IT+0xcc>
 8000e60:	6903      	ldr	r3, [r0, #16]
 8000e62:	2b00      	cmp	r3, #0
 8000e64:	d153      	bne.n	8000f0e <UART_Receive_IT+0xcc>
        *pdata8bits = (uint8_t)(huart->Instance->DR & (uint8_t)0x00FF);
 8000e66:	6803      	ldr	r3, [r0, #0]
 8000e68:	685b      	ldr	r3, [r3, #4]
 8000e6a:	7013      	strb	r3, [r2, #0]
      huart->pRxBuffPtr += 1U;
 8000e6c:	6a83      	ldr	r3, [r0, #40]	; 0x28
 8000e6e:	3301      	adds	r3, #1
 8000e70:	6283      	str	r3, [r0, #40]	; 0x28
    if (--huart->RxXferCount == 0U)
 8000e72:	8dc3      	ldrh	r3, [r0, #46]	; 0x2e
 8000e74:	b29b      	uxth	r3, r3
 8000e76:	3b01      	subs	r3, #1
 8000e78:	b29b      	uxth	r3, r3
 8000e7a:	85c3      	strh	r3, [r0, #46]	; 0x2e
 8000e7c:	2b00      	cmp	r3, #0
 8000e7e:	d151      	bne.n	8000f24 <UART_Receive_IT+0xe2>
{
 8000e80:	b500      	push	{lr}
 8000e82:	b083      	sub	sp, #12
      __HAL_UART_DISABLE_IT(huart, UART_IT_RXNE);
 8000e84:	6802      	ldr	r2, [r0, #0]
 8000e86:	68d3      	ldr	r3, [r2, #12]
 8000e88:	f023 0320 	bic.w	r3, r3, #32
 8000e8c:	60d3      	str	r3, [r2, #12]
      __HAL_UART_DISABLE_IT(huart, UART_IT_PE);
 8000e8e:	6802      	ldr	r2, [r0, #0]
 8000e90:	68d3      	ldr	r3, [r2, #12]
 8000e92:	f423 7380 	bic.w	r3, r3, #256	; 0x100
 8000e96:	60d3      	str	r3, [r2, #12]
      __HAL_UART_DISABLE_IT(huart, UART_IT_ERR);
 8000e98:	6802      	ldr	r2, [r0, #0]
 8000e9a:	6953      	ldr	r3, [r2, #20]
 8000e9c:	f023 0301 	bic.w	r3, r3, #1
 8000ea0:	6153      	str	r3, [r2, #20]
      huart->RxState = HAL_UART_STATE_READY;
 8000ea2:	2320      	movs	r3, #32
 8000ea4:	f880 3042 	strb.w	r3, [r0, #66]	; 0x42
      huart->RxEventType = HAL_UART_RXEVENT_TC;
 8000ea8:	2300      	movs	r3, #0
 8000eaa:	6343      	str	r3, [r0, #52]	; 0x34
      if (huart->ReceptionType == HAL_UART_RECEPTION_TOIDLE)
 8000eac:	6b03      	ldr	r3, [r0, #48]	; 0x30
 8000eae:	2b01      	cmp	r3, #1
 8000eb0:	d133      	bne.n	8000f1a <UART_Receive_IT+0xd8>
        huart->ReceptionType = HAL_UART_RECEPTION_STANDARD;
 8000eb2:	2300      	movs	r3, #0
 8000eb4:	6303      	str	r3, [r0, #48]	; 0x30
        ATOMIC_CLEAR_BIT(huart->Instance->CR1, USART_CR1_IDLEIE);
 8000eb6:	6802      	ldr	r2, [r0, #0]
   __ASM volatile ("ldrex %0, %1" : "=r" (result) : "Q" (*addr) );
 8000eb8:	f102 030c 	add.w	r3, r2, #12
 8000ebc:	e853 3f00 	ldrex	r3, [r3]
 8000ec0:	f023 0310 	bic.w	r3, r3, #16
   __ASM volatile ("strex %0, %2, %1" : "=&r" (result), "=Q" (*addr) : "r" (value) );
 8000ec4:	320c      	adds	r2, #12
 8000ec6:	e842 3100 	strex	r1, r3, [r2]
 8000eca:	2900      	cmp	r1, #0
 8000ecc:	d1f3      	bne.n	8000eb6 <UART_Receive_IT+0x74>
        if (__HAL_UART_GET_FLAG(huart, UART_FLAG_IDLE))
 8000ece:	6803      	ldr	r3, [r0, #0]
 8000ed0:	681a      	ldr	r2, [r3, #0]
 8000ed2:	f012 0f10 	tst.w	r2, #16
 8000ed6:	d006      	beq.n	8000ee6 <UART_Receive_IT+0xa4>
          __HAL_UART_CLEAR_IDLEFLAG(huart);
 8000ed8:	2200      	movs	r2, #0
 8000eda:	9201      	str	r2, [sp, #4]
 8000edc:	681a      	ldr	r2, [r3, #0]
 8000ede:	9201      	str	r2, [sp, #4]
 8000ee0:	685b      	ldr	r3, [r3, #4]
 8000ee2:	9301      	str	r3, [sp, #4]
 8000ee4:	9b01      	ldr	r3, [sp, #4]
        HAL_UARTEx_RxEventCallback(huart, huart->RxXferSize);
 8000ee6:	8d81      	ldrh	r1, [r0, #44]	; 0x2c
 8000ee8:	f7ff ffaa 	bl	8000e40 <HAL_UARTEx_RxEventCallback>
      return HAL_OK;
 8000eec:	2000      	movs	r0, #0
}
 8000eee:	b003      	add	sp, #12
 8000ef0:	f85d fb04 	ldr.w	pc, [sp], #4
    if ((huart->Init.WordLength == UART_WORDLENGTH_9B) && (huart->Init.Parity == UART_PARITY_NONE))
 8000ef4:	6902      	ldr	r2, [r0, #16]
 8000ef6:	2a00      	cmp	r2, #0
 8000ef8:	d1ac      	bne.n	8000e54 <UART_Receive_IT+0x12>
      pdata16bits = (uint16_t *) huart->pRxBuffPtr;
 8000efa:	6a82      	ldr	r2, [r0, #40]	; 0x28
      *pdata16bits = (uint16_t)(huart->Instance->DR & (uint16_t)0x01FF);
 8000efc:	6803      	ldr	r3, [r0, #0]
 8000efe:	685b      	ldr	r3, [r3, #4]
 8000f00:	f3c3 0308 	ubfx	r3, r3, #0, #9
 8000f04:	8013      	strh	r3, [r2, #0]
      huart->pRxBuffPtr += 2U;
 8000f06:	6a83      	ldr	r3, [r0, #40]	; 0x28
 8000f08:	3302      	adds	r3, #2
 8000f0a:	6283      	str	r3, [r0, #40]	; 0x28
 8000f0c:	e7b1      	b.n	8000e72 <UART_Receive_IT+0x30>
        *pdata8bits = (uint8_t)(huart->Instance->DR & (uint8_t)0x007F);
 8000f0e:	6803      	ldr	r3, [r0, #0]
 8000f10:	685b      	ldr	r3, [r3, #4]
 8000f12:	f003 037f 	and.w	r3, r3, #127	; 0x7f
 8000f16:	7013      	strb	r3, [r2, #0]
 8000f18:	e7a8      	b.n	8000e6c <UART_Receive_IT+0x2a>
        HAL_UART_RxCpltCallback(huart);
 8000f1a:	f7ff ff87 	bl	8000e2c <HAL_UART_RxCpltCallback>
 8000f1e:	e7e5      	b.n	8000eec <UART_Receive_IT+0xaa>
    return HAL_BUSY;
 8000f20:	2002      	movs	r0, #2
 8000f22:	4770      	bx	lr
    return HAL_OK;
 8000f24:	2000      	movs	r0, #0
}
 8000f26:	4770      	bx	lr

08000f28 <HAL_UART_IRQHandler>:
{
 8000f28:	b530      	push	{r4, r5, lr}
 8000f2a:	b083      	sub	sp, #12
 8000f2c:	4604      	mov	r4, r0
  uint32_t isrflags   = READ_REG(huart->Instance->SR);
 8000f2e:	6802      	ldr	r2, [r0, #0]
 8000f30:	6813      	ldr	r3, [r2, #0]
  uint32_t cr1its     = READ_REG(huart->Instance->CR1);
 8000f32:	68d0      	ldr	r0, [r2, #12]
  uint32_t cr3its     = READ_REG(huart->Instance->CR3);
 8000f34:	6951      	ldr	r1, [r2, #20]
  if (errorflags == RESET)
 8000f36:	f013 050f 	ands.w	r5, r3, #15
 8000f3a:	d105      	bne.n	8000f48 <HAL_UART_IRQHandler+0x20>
    if (((isrflags & USART_SR_RXNE) != RESET) && ((cr1its & USART_CR1_RXNEIE) != RESET))
 8000f3c:	f013 0f20 	tst.w	r3, #32
 8000f40:	d002      	beq.n	8000f48 <HAL_UART_IRQHandler+0x20>
 8000f42:	f010 0f20 	tst.w	r0, #32
 8000f46:	d119      	bne.n	8000f7c <HAL_UART_IRQHandler+0x54>
  if ((errorflags != RESET) && (((cr3its & USART_CR3_EIE) != RESET)
 8000f48:	b12d      	cbz	r5, 8000f56 <HAL_UART_IRQHandler+0x2e>
 8000f4a:	f011 0101 	ands.w	r1, r1, #1
 8000f4e:	d119      	bne.n	8000f84 <HAL_UART_IRQHandler+0x5c>
                                || ((cr1its & (USART_CR1_RXNEIE | USART_CR1_PEIE)) != RESET)))
 8000f50:	f410 7f90 	tst.w	r0, #288	; 0x120
 8000f54:	d116      	bne.n	8000f84 <HAL_UART_IRQHandler+0x5c>
  if ((huart->ReceptionType == HAL_UART_RECEPTION_TOIDLE)
 8000f56:	6b21      	ldr	r1, [r4, #48]	; 0x30
 8000f58:	2901      	cmp	r1, #1
 8000f5a:	d07d      	beq.n	8001058 <HAL_UART_IRQHandler+0x130>
  if (((isrflags & USART_SR_TXE) != RESET) && ((cr1its & USART_CR1_TXEIE) != RESET))
 8000f5c:	f013 0f80 	tst.w	r3, #128	; 0x80
 8000f60:	d003      	beq.n	8000f6a <HAL_UART_IRQHandler+0x42>
 8000f62:	f010 0f80 	tst.w	r0, #128	; 0x80
 8000f66:	f040 8119 	bne.w	800119c <HAL_UART_IRQHandler+0x274>
  if (((isrflags & USART_SR_TC) != RESET) && ((cr1its & USART_CR1_TCIE) != RESET))
 8000f6a:	f013 0f40 	tst.w	r3, #64	; 0x40
 8000f6e:	d003      	beq.n	8000f78 <HAL_UART_IRQHandler+0x50>
 8000f70:	f010 0f40 	tst.w	r0, #64	; 0x40
 8000f74:	f040 8116 	bne.w	80011a4 <HAL_UART_IRQHandler+0x27c>
}
 8000f78:	b003      	add	sp, #12
 8000f7a:	bd30      	pop	{r4, r5, pc}
      UART_Receive_IT(huart);
 8000f7c:	4620      	mov	r0, r4
 8000f7e:	f7ff ff60 	bl	8000e42 <UART_Receive_IT>
      return;
 8000f82:	e7f9      	b.n	8000f78 <HAL_UART_IRQHandler+0x50>
    if (((isrflags & USART_SR_PE) != RESET) && ((cr1its & USART_CR1_PEIE) != RESET))
 8000f84:	f013 0f01 	tst.w	r3, #1
 8000f88:	d006      	beq.n	8000f98 <HAL_UART_IRQHandler+0x70>
 8000f8a:	f410 7f80 	tst.w	r0, #256	; 0x100
 8000f8e:	d003      	beq.n	8000f98 <HAL_UART_IRQHandler+0x70>
      huart->ErrorCode |= HAL_UART_ERROR_PE;
 8000f90:	6c62      	ldr	r2, [r4, #68]	; 0x44
 8000f92:	f042 0201 	orr.w	r2, r2, #1
 8000f96:	6462      	str	r2, [r4, #68]	; 0x44
    if (((isrflags & USART_SR_NE) != RESET) && ((cr3its & USART_CR3_EIE) != RESET))
 8000f98:	f013 0f04 	tst.w	r3, #4
 8000f9c:	d004      	beq.n	8000fa8 <HAL_UART_IRQHandler+0x80>
 8000f9e:	b119      	cbz	r1, 8000fa8 <HAL_UART_IRQHandler+0x80>
      huart->ErrorCode |= HAL_UART_ERROR_NE;
 8000fa0:	6c62      	ldr	r2, [r4, #68]	; 0x44
 8000fa2:	f042 0202 	orr.w	r2, r2, #2
 8000fa6:	6462      	str	r2, [r4, #68]	; 0x44
    if (((isrflags & USART_SR_FE) != RESET) && ((cr3its & USART_CR3_EIE) != RESET))
 8000fa8:	f013 0f02 	tst.w	r3, #2
 8000fac:	d004      	beq.n	8000fb8 <HAL_UART_IRQHandler+0x90>
 8000fae:	b119      	cbz	r1, 8000fb8 <HAL_UART_IRQHandler+0x90>
      huart->ErrorCode |= HAL_UART_ERROR_FE;
 8000fb0:	6c62      	ldr	r2, [r4, #68]	; 0x44
 8000fb2:	f042 0204 	orr.w	r2, r2, #4
 8000fb6:	6462      	str	r2, [r4, #68]	; 0x44
    if (((isrflags & USART_SR_ORE) != RESET) && (((cr1its & USART_CR1_RXNEIE) != RESET)
 8000fb8:	f013 0f08 	tst.w	r3, #8
 8000fbc:	d007      	beq.n	8000fce <HAL_UART_IRQHandler+0xa6>
 8000fbe:	f010 0f20 	tst.w	r0, #32
 8000fc2:	d100      	bne.n	8000fc6 <HAL_UART_IRQHandler+0x9e>
                                                 || ((cr3its & USART_CR3_EIE) != RESET)))
 8000fc4:	b119      	cbz	r1, 8000fce <HAL_UART_IRQHandler+0xa6>
      huart->ErrorCode |= HAL_UART_ERROR_ORE;
 8000fc6:	6c62      	ldr	r2, [r4, #68]	; 0x44
 8000fc8:	f042 0208 	orr.w	r2, r2, #8
 8000fcc:	6462      	str	r2, [r4, #68]	; 0x44
    if (huart->ErrorCode != HAL_UART_ERROR_NONE)
 8000fce:	6c62      	ldr	r2, [r4, #68]	; 0x44
 8000fd0:	2a00      	cmp	r2, #0
 8000fd2:	d0d1      	beq.n	8000f78 <HAL_UART_IRQHandler+0x50>
      if (((isrflags & USART_SR_RXNE) != RESET) && ((cr1its & USART_CR1_RXNEIE) != RESET))
 8000fd4:	f013 0f20 	tst.w	r3, #32
 8000fd8:	d002      	beq.n	8000fe0 <HAL_UART_IRQHandler+0xb8>
 8000fda:	f010 0f20 	tst.w	r0, #32
 8000fde:	d129      	bne.n	8001034 <HAL_UART_IRQHandler+0x10c>
      dmarequest = HAL_IS_BIT_SET(huart->Instance->CR3, USART_CR3_DMAR);
 8000fe0:	6823      	ldr	r3, [r4, #0]
 8000fe2:	695b      	ldr	r3, [r3, #20]
 8000fe4:	f003 0340 	and.w	r3, r3, #64	; 0x40
      if (((huart->ErrorCode & HAL_UART_ERROR_ORE) != RESET) || dmarequest)
 8000fe8:	6c62      	ldr	r2, [r4, #68]	; 0x44
 8000fea:	f012 0f08 	tst.w	r2, #8
 8000fee:	d100      	bne.n	8000ff2 <HAL_UART_IRQHandler+0xca>
 8000ff0:	b363      	cbz	r3, 800104c <HAL_UART_IRQHandler+0x124>
        UART_EndRxTransfer(huart);
 8000ff2:	4620      	mov	r0, r4
 8000ff4:	f7ff fcb2 	bl	800095c <UART_EndRxTransfer>
        if (HAL_IS_BIT_SET(huart->Instance->CR3, USART_CR3_DMAR))
 8000ff8:	6823      	ldr	r3, [r4, #0]
 8000ffa:	695b      	ldr	r3, [r3, #20]
 8000ffc:	f013 0f40 	tst.w	r3, #64	; 0x40
 8001000:	d020      	beq.n	8001044 <HAL_UART_IRQHandler+0x11c>
          ATOMIC_CLEAR_BIT(huart->Instance->CR3, USART_CR3_DMAR);
 8001002:	6822      	ldr	r2, [r4, #0]
   __ASM volatile ("ldrex %0, %1" : "=r" (result) : "Q" (*addr) );
 8001004:	f102 0314 	add.w	r3, r2, #20
 8001008:	e853 3f00 	ldrex	r3, [r3]
 800100c:	f023 0340 	bic.w	r3, r3, #64	; 0x40
   __ASM volatile ("strex %0, %2, %1" : "=&r" (result), "=Q" (*addr) : "r" (value) );
 8001010:	3214      	adds	r2, #20
 8001012:	e842 3100 	strex	r1, r3, [r2]
 8001016:	2900      	cmp	r1, #0
 8001018:	d1f3      	bne.n	8001002 <HAL_UART_IRQHandler+0xda>
          if (huart->hdmarx != NULL)
 800101a:	6be3      	ldr	r3, [r4, #60]	; 0x3c
 800101c:	b173      	cbz	r3, 800103c <HAL_UART_IRQHandler+0x114>
            huart->hdmarx->XferAbortCallback = UART_DMAAbortOnError;
 800101e:	4a63      	ldr	r2, [pc, #396]	; (80011ac <HAL_UART_IRQHandler+0x284>)
 8001020:	651a      	str	r2, [r3, #80]	; 0x50
            if (HAL_DMA_Abort_IT(huart->hdmarx) != HAL_OK)
 8001022:	6be0      	ldr	r0, [r4, #60]	; 0x3c
 8001024:	f000 faa8 	bl	8001578 <HAL_DMA_Abort_IT>
 8001028:	2800      	cmp	r0, #0
 800102a:	d0a5      	beq.n	8000f78 <HAL_UART_IRQHandler+0x50>
              huart->hdmarx->XferAbortCallback(huart->hdmarx);
 800102c:	6be0      	ldr	r0, [r4, #60]	; 0x3c
 800102e:	6d03      	ldr	r3, [r0, #80]	; 0x50
 8001030:	4798      	blx	r3
 8001032:	e7a1      	b.n	8000f78 <HAL_UART_IRQHandler+0x50>
        UART_Receive_IT(huart);
 8001034:	4620      	mov	r0, r4
 8001036:	f7ff ff04 	bl	8000e42 <UART_Receive_IT>
 800103a:	e7d1      	b.n	8000fe0 <HAL_UART_IRQHandler+0xb8>
            HAL_UART_ErrorCallback(huart);
 800103c:	4620      	mov	r0, r4
 800103e:	f7ff fef6 	bl	8000e2e <HAL_UART_ErrorCallback>
 8001042:	e799      	b.n	8000f78 <HAL_UART_IRQHandler+0x50>
          HAL_UART_ErrorCallback(huart);
 8001044:	4620      	mov	r0, r4
 8001046:	f7ff fef2 	bl	8000e2e <HAL_UART_ErrorCallback>
 800104a:	e795      	b.n	8000f78 <HAL_UART_IRQHandler+0x50>
        HAL_UART_ErrorCallback(huart);
 800104c:	4620      	mov	r0, r4
 800104e:	f7ff feee 	bl	8000e2e <HAL_UART_ErrorCallback>
        huart->ErrorCode = HAL_UART_ERROR_NONE;
 8001052:	2300      	movs	r3, #0
 8001054:	6463      	str	r3, [r4, #68]	; 0x44
    return;
 8001056:	e78f      	b.n	8000f78 <HAL_UART_IRQHandler+0x50>
      && ((isrflags & USART_SR_IDLE) != 0U)
 8001058:	f013 0f10 	tst.w	r3, #16
 800105c:	f43f af7e 	beq.w	8000f5c <HAL_UART_IRQHandler+0x34>
      && ((cr1its & USART_SR_IDLE) != 0U))
 8001060:	f010 0f10 	tst.w	r0, #16
 8001064:	f43f af7a 	beq.w	8000f5c <HAL_UART_IRQHandler+0x34>
    __HAL_UART_CLEAR_IDLEFLAG(huart);
 8001068:	2300      	movs	r3, #0
 800106a:	9301      	str	r3, [sp, #4]
 800106c:	6813      	ldr	r3, [r2, #0]
 800106e:	9301      	str	r3, [sp, #4]
 8001070:	6853      	ldr	r3, [r2, #4]
 8001072:	9301      	str	r3, [sp, #4]
 8001074:	9b01      	ldr	r3, [sp, #4]
    if (HAL_IS_BIT_SET(huart->Instance->CR3, USART_CR3_DMAR))
 8001076:	6953      	ldr	r3, [r2, #20]
 8001078:	f013 0f40 	tst.w	r3, #64	; 0x40
 800107c:	d052      	beq.n	8001124 <HAL_UART_IRQHandler+0x1fc>
      uint16_t nb_remaining_rx_data = (uint16_t) __HAL_DMA_GET_COUNTER(huart->hdmarx);
 800107e:	6be2      	ldr	r2, [r4, #60]	; 0x3c
 8001080:	6813      	ldr	r3, [r2, #0]
 8001082:	685b      	ldr	r3, [r3, #4]
 8001084:	b29b      	uxth	r3, r3
      if ((nb_remaining_rx_data > 0U)
 8001086:	2b00      	cmp	r3, #0
 8001088:	f43f af76 	beq.w	8000f78 <HAL_UART_IRQHandler+0x50>
          && (nb_remaining_rx_data < huart->RxXferSize))
 800108c:	8da1      	ldrh	r1, [r4, #44]	; 0x2c
 800108e:	4299      	cmp	r1, r3
 8001090:	f67f af72 	bls.w	8000f78 <HAL_UART_IRQHandler+0x50>
        huart->RxXferCount = nb_remaining_rx_data;
 8001094:	85e3      	strh	r3, [r4, #46]	; 0x2e
        if (huart->hdmarx->Init.Mode != DMA_CIRCULAR)
 8001096:	69d3      	ldr	r3, [r2, #28]
 8001098:	f5b3 7f80 	cmp.w	r3, #256	; 0x100
 800109c:	d037      	beq.n	800110e <HAL_UART_IRQHandler+0x1e6>
          ATOMIC_CLEAR_BIT(huart->Instance->CR1, USART_CR1_PEIE);
 800109e:	6822      	ldr	r2, [r4, #0]
   __ASM volatile ("ldrex %0, %1" : "=r" (result) : "Q" (*addr) );
 80010a0:	f102 030c 	add.w	r3, r2, #12
 80010a4:	e853 3f00 	ldrex	r3, [r3]
 80010a8:	f423 7380 	bic.w	r3, r3, #256	; 0x100
   __ASM volatile ("strex %0, %2, %1" : "=&r" (result), "=Q" (*addr) : "r" (value) );
 80010ac:	320c      	adds	r2, #12
 80010ae:	e842 3100 	strex	r1, r3, [r2]
 80010b2:	2900      	cmp	r1, #0
 80010b4:	d1f3      	bne.n	800109e <HAL_UART_IRQHandler+0x176>
          ATOMIC_CLEAR_BIT(huart->Instance->CR3, USART_CR3_EIE);
 80010b6:	6822      	ldr	r2, [r4, #0]
   __ASM volatile ("ldrex %0, %1" : "=r" (result) : "Q" (*addr) );
 80010b8:	f102 0314 	add.w	r3, r2, #20
 80010bc:	e853 3f00 	ldrex	r3, [r3]
 80010c0:	f023 0301 	bic.w	r3, r3, #1
   __ASM volatile ("strex %0, %2, %1" : "=&r" (result), "=Q" (*addr) : "r" (value) );
 80010c4:	3214      	adds	r2, #20
 80010c6:	e842 3100 	strex	r1, r3, [r2]
 80010ca:	2900      	cmp	r1, #0
 80010cc:	d1f3      	bne.n	80010b6 <HAL_UART_IRQHandler+0x18e>
          ATOMIC_CLEAR_BIT(huart->Instance->CR3, USART_CR3_DMAR);
 80010ce:	6822      	ldr	r2, [r4, #0]
   __ASM volatile ("ldrex %0, %1" : "=r" (result) : "Q" (*addr) );
 80010d0:	f102 0314 	add.w	r3, r2, #20
 80010d4:	e853 3f00 	ldrex	r3, [r3]
 80010d8:	f023 0340 	bic.w	r3, r3, #64	; 0x40
   __ASM volatile ("strex %0, %2, %1" : "=&r" (result), "=Q" (*addr) : "r" (value) );
 80010dc:	3214      	adds	r2, #20
 80010de:	e842 3100 	strex	r1, r3, [r2]
 80010e2:	2900      	cmp	r1, #0
 80010e4:	d1f3      	bne.n	80010ce <HAL_UART_IRQHandler+0x1a6>
          huart->RxState = HAL_UART_STATE_READY;
 80010e6:	2320      	movs	r3, #32
 80010e8:	f884 3042 	strb.w	r3, [r4, #66]	; 0x42
          huart->ReceptionType = HAL_UART_RECEPTION_STANDARD;
 80010ec:	2300      	movs	r3, #0
 80010ee:	6323      	str	r3, [r4, #48]	; 0x30
          ATOMIC_CLEAR_BIT(huart->Instance->CR1, USART_CR1_IDLEIE);
 80010f0:	6822      	ldr	r2, [r4, #0]
   __ASM volatile ("ldrex %0, %1" : "=r" (result) : "Q" (*addr) );
 80010f2:	f102 030c 	add.w	r3, r2, #12
 80010f6:	e853 3f00 	ldrex	r3, [r3]
 80010fa:	f023 0310 	bic.w	r3, r3, #16
   __ASM volatile ("strex %0, %2, %1" : "=&r" (result), "=Q" (*addr) : "r" (value) );
 80010fe:	320c      	adds	r2, #12
 8001100:	e842 3100 	strex	r1, r3, [r2]
 8001104:	2900      	cmp	r1, #0
 8001106:	d1f3      	bne.n	80010f0 <HAL_UART_IRQHandler+0x1c8>
          (void)HAL_DMA_Abort(huart->hdmarx);
 8001108:	6be0      	ldr	r0, [r4, #60]	; 0x3c
 800110a:	f000 f9eb 	bl	80014e4 <HAL_DMA_Abort>
        huart->RxEventType = HAL_UART_RXEVENT_IDLE;
 800110e:	2302      	movs	r3, #2
 8001110:	6363      	str	r3, [r4, #52]	; 0x34
        HAL_UARTEx_RxEventCallback(huart, (huart->RxXferSize - huart->RxXferCount));
 8001112:	8da1      	ldrh	r1, [r4, #44]	; 0x2c
 8001114:	8de3      	ldrh	r3, [r4, #46]	; 0x2e
 8001116:	b29b      	uxth	r3, r3
 8001118:	1ac9      	subs	r1, r1, r3
 800111a:	b289      	uxth	r1, r1
 800111c:	4620      	mov	r0, r4
 800111e:	f7ff fe8f 	bl	8000e40 <HAL_UARTEx_RxEventCallback>
      return;
 8001122:	e729      	b.n	8000f78 <HAL_UART_IRQHandler+0x50>
      uint16_t nb_rx_data = huart->RxXferSize - huart->RxXferCount;
 8001124:	8da1      	ldrh	r1, [r4, #44]	; 0x2c
 8001126:	8de3      	ldrh	r3, [r4, #46]	; 0x2e
 8001128:	b29b      	uxth	r3, r3
 800112a:	1ac9      	subs	r1, r1, r3
 800112c:	b289      	uxth	r1, r1
      if ((huart->RxXferCount > 0U)
 800112e:	8de3      	ldrh	r3, [r4, #46]	; 0x2e
 8001130:	b29b      	uxth	r3, r3
 8001132:	2b00      	cmp	r3, #0
 8001134:	f43f af20 	beq.w	8000f78 <HAL_UART_IRQHandler+0x50>
          && (nb_rx_data > 0U))
 8001138:	2900      	cmp	r1, #0
 800113a:	f43f af1d 	beq.w	8000f78 <HAL_UART_IRQHandler+0x50>
        ATOMIC_CLEAR_BIT(huart->Instance->CR1, (USART_CR1_RXNEIE | USART_CR1_PEIE));
 800113e:	6822      	ldr	r2, [r4, #0]
   __ASM volatile ("ldrex %0, %1" : "=r" (result) : "Q" (*addr) );
 8001140:	f102 030c 	add.w	r3, r2, #12
 8001144:	e853 3f00 	ldrex	r3, [r3]
 8001148:	f423 7390 	bic.w	r3, r3, #288	; 0x120
   __ASM volatile ("strex %0, %2, %1" : "=&r" (result), "=Q" (*addr) : "r" (value) );
 800114c:	320c      	adds	r2, #12
 800114e:	e842 3000 	strex	r0, r3, [r2]
 8001152:	2800      	cmp	r0, #0
 8001154:	d1f3      	bne.n	800113e <HAL_UART_IRQHandler+0x216>
        ATOMIC_CLEAR_BIT(huart->Instance->CR3, USART_CR3_EIE);
 8001156:	6822      	ldr	r2, [r4, #0]
   __ASM volatile ("ldrex %0, %1" : "=r" (result) : "Q" (*addr) );
 8001158:	f102 0314 	add.w	r3, r2, #20
 800115c:	e853 3f00 	ldrex	r3, [r3]
 8001160:	f023 0301 	bic.w	r3, r3, #1
   __ASM volatile ("strex %0, %2, %1" : "=&r" (result), "=Q" (*addr) : "r" (value) );
 8001164:	3214      	adds	r2, #20
 8001166:	e842 3000 	strex	r0, r3, [r2]
 800116a:	2800      	cmp	r0, #0
 800116c:	d1f3      	bne.n	8001156 <HAL_UART_IRQHandler+0x22e>
        huart->RxState = HAL_UART_STATE_READY;
 800116e:	2320      	movs	r3, #32
 8001170:	f884 3042 	strb.w	r3, [r4, #66]	; 0x42
        huart->ReceptionType = HAL_UART_RECEPTION_STANDARD;
 8001174:	2300      	movs	r3, #0
 8001176:	6323      	str	r3, [r4, #48]	; 0x30
        ATOMIC_CLEAR_BIT(huart->Instance->CR1, USART_CR1_IDLEIE);
 8001178:	6822      	ldr	r2, [r4, #0]
   __ASM volatile ("ldrex %0, %1" : "=r" (result) : "Q" (*addr) );
 800117a:	f102 030c 	add.w	r3, r2, #12
 800117e:	e853 3f00 	ldrex	r3, [r3]
 8001182:	f023 0310 	bic.w	r3, r3, #16
   __ASM volatile ("strex %0, %2, %1" : "=&r" (result), "=Q" (*addr) : "r" (value) );
 8001186:	320c      	adds	r2, #12
 8001188:	e842 3000 	strex	r0, r3, [r2]
 800118c:	2800      	cmp	r0, #0
 800118e:	d1f3      	bne.n	8001178 <HAL_UART_IRQHandler+0x250>
        huart->RxEventType = HAL_UART_RXEVENT_IDLE;
 8001190:	2302      	movs	r3, #2
 8001192:	6363      	str	r3, [r4, #52]	; 0x34
        HAL_UARTEx_RxEventCallback(huart, nb_rx_data);
 8001194:	4620      	mov	r0, r4
 8001196:	f7ff fe53 	bl	8000e40 <HAL_UARTEx_RxEventCallback>
      return;
 800119a:	e6ed      	b.n	8000f78 <HAL_UART_IRQHandler+0x50>
    UART_Transmit_IT(huart);
 800119c:	4620      	mov	r0, r4
 800119e:	f7ff fc0b 	bl	80009b8 <UART_Transmit_IT>
    return;
 80011a2:	e6e9      	b.n	8000f78 <HAL_UART_IRQHandler+0x50>
    UART_EndTransmit_IT(huart);
 80011a4:	4620      	mov	r0, r4
 80011a6:	f7ff fe34 	bl	8000e12 <UART_EndTransmit_IT>
    return;
 80011aa:	e6e5      	b.n	8000f78 <HAL_UART_IRQHandler+0x50>
 80011ac:	08000e31 	stmdaeq	r0, {r0, r4, r5, r9, sl, fp}

080011b0 <HAL_RCC_GetHCLKFreq>:
  * @retval HCLK frequency
  */
uint32_t HAL_RCC_GetHCLKFreq(void)
{
  return SystemCoreClock;
}
 80011b0:	4b01      	ldr	r3, [pc, #4]	; (80011b8 <HAL_RCC_GetHCLKFreq+0x8>)
 80011b2:	6818      	ldr	r0, [r3, #0]
 80011b4:	4770      	bx	lr
 80011b6:	bf00      	nop
 80011b8:	20000008 	andcs	r0, r0, r8

080011bc <HAL_RCC_GetPCLK1Freq>:
  * @note   Each time PCLK1 changes, this function must be called to update the
  *         right PCLK1 value. Otherwise, any configuration based on this function will be incorrect.
  * @retval PCLK1 frequency
  */
uint32_t HAL_RCC_GetPCLK1Freq(void)
{
 80011bc:	b508      	push	{r3, lr}
  /* Get HCLK source and Compute PCLK1 frequency ---------------------------*/
  return (HAL_RCC_GetHCLKFreq() >> APBPrescTable[(RCC->CFGR & RCC_CFGR_PPRE1)>> RCC_CFGR_PPRE1_Pos]);
 80011be:	f7ff fff7 	bl	80011b0 <HAL_RCC_GetHCLKFreq>
 80011c2:	4b04      	ldr	r3, [pc, #16]	; (80011d4 <HAL_RCC_GetPCLK1Freq+0x18>)
 80011c4:	689b      	ldr	r3, [r3, #8]
 80011c6:	f3c3 2382 	ubfx	r3, r3, #10, #3
 80011ca:	4a03      	ldr	r2, [pc, #12]	; (80011d8 <HAL_RCC_GetPCLK1Freq+0x1c>)
 80011cc:	5cd3      	ldrb	r3, [r2, r3]
}
 80011ce:	40d8      	lsrs	r0, r3
 80011d0:	bd08      	pop	{r3, pc}
 80011d2:	bf00      	nop
 80011d4:	40023800 	andmi	r3, r2, r0, lsl #16
 80011d8:	08002d54 	stmdaeq	r0, {r2, r4, r6, r8, sl, fp, sp}

080011dc <HAL_RCC_GetPCLK2Freq>:
  * @note   Each time PCLK2 changes, this function must be called to update the
  *         right PCLK2 value. Otherwise, any configuration based on this function will be incorrect.
  * @retval PCLK2 frequency
  */
uint32_t HAL_RCC_GetPCLK2Freq(void)
{
 80011dc:	b508      	push	{r3, lr}
  /* Get HCLK source and Compute PCLK2 frequency ---------------------------*/
  return (HAL_RCC_GetHCLKFreq()>> APBPrescTable[(RCC->CFGR & RCC_CFGR_PPRE2)>> RCC_CFGR_PPRE2_Pos]);
 80011de:	f7ff ffe7 	bl	80011b0 <HAL_RCC_GetHCLKFreq>
 80011e2:	4b04      	ldr	r3, [pc, #16]	; (80011f4 <HAL_RCC_GetPCLK2Freq+0x18>)
 80011e4:	689b      	ldr	r3, [r3, #8]
 80011e6:	f3c3 3342 	ubfx	r3, r3, #13, #3
 80011ea:	4a03      	ldr	r2, [pc, #12]	; (80011f8 <HAL_RCC_GetPCLK2Freq+0x1c>)
 80011ec:	5cd3      	ldrb	r3, [r2, r3]
}
 80011ee:	40d8      	lsrs	r0, r3
 80011f0:	bd08      	pop	{r3, pc}
 80011f2:	bf00      	nop
 80011f4:	40023800 	andmi	r3, r2, r0, lsl #16
 80011f8:	08002d54 	stmdaeq	r0, {r2, r4, r6, r8, sl, fp, sp}

080011fc <HAL_GPIO_Init>:
  * @param  GPIO_Init pointer to a GPIO_InitTypeDef structure that contains
  *         the configuration information for the specified GPIO peripheral.
  * @retval None
  */
void HAL_GPIO_Init(GPIO_TypeDef  *GPIOx, GPIO_InitTypeDef *GPIO_Init)
{
 80011fc:	e92d 41f0 	stmdb	sp!, {r4, r5, r6, r7, r8, lr}
 8001200:	b082      	sub	sp, #8
 8001202:	4607      	mov	r7, r0
 8001204:	460e      	mov	r6, r1
  uint32_t ioposition = 0x00U;
  uint32_t iocurrent = 0x00U;
  uint32_t temp = 0x00U;

  /* Check the parameters */
  assert_param(IS_GPIO_ALL_INSTANCE(GPIOx));
 8001206:	4b54      	ldr	r3, [pc, #336]	; (8001358 <HAL_GPIO_Init+0x15c>)
 8001208:	4298      	cmp	r0, r3
 800120a:	d023      	beq.n	8001254 <HAL_GPIO_Init+0x58>
 800120c:	f503 6380 	add.w	r3, r3, #1024	; 0x400
 8001210:	4298      	cmp	r0, r3
 8001212:	d01f      	beq.n	8001254 <HAL_GPIO_Init+0x58>
 8001214:	f503 6380 	add.w	r3, r3, #1024	; 0x400
 8001218:	4298      	cmp	r0, r3
 800121a:	d01b      	beq.n	8001254 <HAL_GPIO_Init+0x58>
 800121c:	f503 6380 	add.w	r3, r3, #1024	; 0x400
 8001220:	4298      	cmp	r0, r3
 8001222:	d017      	beq.n	8001254 <HAL_GPIO_Init+0x58>
 8001224:	f503 6380 	add.w	r3, r3, #1024	; 0x400
 8001228:	4298      	cmp	r0, r3
 800122a:	d013      	beq.n	8001254 <HAL_GPIO_Init+0x58>
 800122c:	f503 6380 	add.w	r3, r3, #1024	; 0x400
 8001230:	4298      	cmp	r0, r3
 8001232:	d00f      	beq.n	8001254 <HAL_GPIO_Init+0x58>
 8001234:	f503 6380 	add.w	r3, r3, #1024	; 0x400
 8001238:	4298      	cmp	r0, r3
 800123a:	d00b      	beq.n	8001254 <HAL_GPIO_Init+0x58>
 800123c:	f503 6380 	add.w	r3, r3, #1024	; 0x400
 8001240:	4298      	cmp	r0, r3
 8001242:	d007      	beq.n	8001254 <HAL_GPIO_Init+0x58>
 8001244:	f503 6380 	add.w	r3, r3, #1024	; 0x400
 8001248:	4298      	cmp	r0, r3
 800124a:	d003      	beq.n	8001254 <HAL_GPIO_Init+0x58>
 800124c:	21ac      	movs	r1, #172	; 0xac
 800124e:	4843      	ldr	r0, [pc, #268]	; (800135c <HAL_GPIO_Init+0x160>)
 8001250:	f7ff faa6 	bl	80007a0 <assert_failed>
  assert_param(IS_GPIO_PIN(GPIO_Init->Pin));
 8001254:	6833      	ldr	r3, [r6, #0]
 8001256:	b29a      	uxth	r2, r3
 8001258:	b112      	cbz	r2, 8001260 <HAL_GPIO_Init+0x64>
 800125a:	0c1b      	lsrs	r3, r3, #16
 800125c:	041b      	lsls	r3, r3, #16
 800125e:	b11b      	cbz	r3, 8001268 <HAL_GPIO_Init+0x6c>
 8001260:	21ad      	movs	r1, #173	; 0xad
 8001262:	483e      	ldr	r0, [pc, #248]	; (800135c <HAL_GPIO_Init+0x160>)
 8001264:	f7ff fa9c 	bl	80007a0 <assert_failed>
  assert_param(IS_GPIO_MODE(GPIO_Init->Mode));
 8001268:	6873      	ldr	r3, [r6, #4]
 800126a:	2b01      	cmp	r3, #1
 800126c:	d919      	bls.n	80012a2 <HAL_GPIO_Init+0xa6>
 800126e:	2b11      	cmp	r3, #17
 8001270:	d017      	beq.n	80012a2 <HAL_GPIO_Init+0xa6>
 8001272:	2b02      	cmp	r3, #2
 8001274:	d015      	beq.n	80012a2 <HAL_GPIO_Init+0xa6>
 8001276:	2b12      	cmp	r3, #18
 8001278:	d013      	beq.n	80012a2 <HAL_GPIO_Init+0xa6>
 800127a:	f5b3 1f88 	cmp.w	r3, #1114112	; 0x110000
 800127e:	d010      	beq.n	80012a2 <HAL_GPIO_Init+0xa6>
 8001280:	f5b3 1f04 	cmp.w	r3, #2162688	; 0x210000
 8001284:	d00d      	beq.n	80012a2 <HAL_GPIO_Init+0xa6>
 8001286:	f5b3 1f44 	cmp.w	r3, #3211264	; 0x310000
 800128a:	d00a      	beq.n	80012a2 <HAL_GPIO_Init+0xa6>
 800128c:	f5b3 1f90 	cmp.w	r3, #1179648	; 0x120000
 8001290:	d007      	beq.n	80012a2 <HAL_GPIO_Init+0xa6>
 8001292:	f5b3 1f08 	cmp.w	r3, #2228224	; 0x220000
 8001296:	d004      	beq.n	80012a2 <HAL_GPIO_Init+0xa6>
 8001298:	f5b3 1f48 	cmp.w	r3, #3276800	; 0x320000
 800129c:	d001      	beq.n	80012a2 <HAL_GPIO_Init+0xa6>
 800129e:	2b03      	cmp	r3, #3
 80012a0:	d101      	bne.n	80012a6 <HAL_GPIO_Init+0xaa>
        /* Enable SYSCFG Clock */
        __HAL_RCC_SYSCFG_CLK_ENABLE();

        temp = SYSCFG->EXTICR[position >> 2U];
        temp &= ~(0x0FU << (4U * (position & 0x03U)));
        temp |= ((uint32_t)(GPIO_GET_INDEX(GPIOx)) << (4U * (position & 0x03U)));
 80012a2:	2400      	movs	r4, #0
 80012a4:	e092      	b.n	80013cc <HAL_GPIO_Init+0x1d0>
  assert_param(IS_GPIO_MODE(GPIO_Init->Mode));
 80012a6:	21ae      	movs	r1, #174	; 0xae
 80012a8:	482c      	ldr	r0, [pc, #176]	; (800135c <HAL_GPIO_Init+0x160>)
 80012aa:	f7ff fa79 	bl	80007a0 <assert_failed>
 80012ae:	e7f8      	b.n	80012a2 <HAL_GPIO_Init+0xa6>
        assert_param(IS_GPIO_SPEED(GPIO_Init->Speed));
 80012b0:	68f3      	ldr	r3, [r6, #12]
 80012b2:	2b03      	cmp	r3, #3
 80012b4:	d813      	bhi.n	80012de <HAL_GPIO_Init+0xe2>
        temp = GPIOx->OSPEEDR; 
 80012b6:	68ba      	ldr	r2, [r7, #8]
        temp &= ~(GPIO_OSPEEDER_OSPEEDR0 << (position * 2U));
 80012b8:	0061      	lsls	r1, r4, #1
 80012ba:	2303      	movs	r3, #3
 80012bc:	408b      	lsls	r3, r1
 80012be:	ea22 0203 	bic.w	r2, r2, r3
        temp |= (GPIO_Init->Speed << (position * 2U));
 80012c2:	68f3      	ldr	r3, [r6, #12]
 80012c4:	408b      	lsls	r3, r1
 80012c6:	4313      	orrs	r3, r2
        GPIOx->OSPEEDR = temp;
 80012c8:	60bb      	str	r3, [r7, #8]
        temp = GPIOx->OTYPER;
 80012ca:	687a      	ldr	r2, [r7, #4]
        temp &= ~(GPIO_OTYPER_OT_0 << position) ;
 80012cc:	ea22 0205 	bic.w	r2, r2, r5
        temp |= (((GPIO_Init->Mode & OUTPUT_TYPE) >> OUTPUT_TYPE_Pos) << position);
 80012d0:	6873      	ldr	r3, [r6, #4]
 80012d2:	f3c3 1500 	ubfx	r5, r3, #4, #1
 80012d6:	40a5      	lsls	r5, r4
 80012d8:	4315      	orrs	r5, r2
        GPIOx->OTYPER = temp;
 80012da:	607d      	str	r5, [r7, #4]
 80012dc:	e087      	b.n	80013ee <HAL_GPIO_Init+0x1f2>
        assert_param(IS_GPIO_SPEED(GPIO_Init->Speed));
 80012de:	21c0      	movs	r1, #192	; 0xc0
 80012e0:	481e      	ldr	r0, [pc, #120]	; (800135c <HAL_GPIO_Init+0x160>)
 80012e2:	f7ff fa5d 	bl	80007a0 <assert_failed>
 80012e6:	e7e6      	b.n	80012b6 <HAL_GPIO_Init+0xba>
        assert_param(IS_GPIO_PULL(GPIO_Init->Pull));
 80012e8:	21d1      	movs	r1, #209	; 0xd1
 80012ea:	481c      	ldr	r0, [pc, #112]	; (800135c <HAL_GPIO_Init+0x160>)
 80012ec:	f7ff fa58 	bl	80007a0 <assert_failed>
 80012f0:	e086      	b.n	8001400 <HAL_GPIO_Init+0x204>
        assert_param(IS_GPIO_AF(GPIO_Init->Alternate));
 80012f2:	6933      	ldr	r3, [r6, #16]
 80012f4:	b1bb      	cbz	r3, 8001326 <HAL_GPIO_Init+0x12a>
 80012f6:	2b09      	cmp	r3, #9
 80012f8:	d015      	beq.n	8001326 <HAL_GPIO_Init+0x12a>
 80012fa:	2b01      	cmp	r3, #1
 80012fc:	d013      	beq.n	8001326 <HAL_GPIO_Init+0x12a>
 80012fe:	2b02      	cmp	r3, #2
 8001300:	d011      	beq.n	8001326 <HAL_GPIO_Init+0x12a>
 8001302:	2b03      	cmp	r3, #3
 8001304:	d00f      	beq.n	8001326 <HAL_GPIO_Init+0x12a>
 8001306:	2b04      	cmp	r3, #4
 8001308:	d00d      	beq.n	8001326 <HAL_GPIO_Init+0x12a>
 800130a:	2b05      	cmp	r3, #5
 800130c:	d00b      	beq.n	8001326 <HAL_GPIO_Init+0x12a>
 800130e:	2b06      	cmp	r3, #6
 8001310:	d009      	beq.n	8001326 <HAL_GPIO_Init+0x12a>
 8001312:	2b07      	cmp	r3, #7
 8001314:	d007      	beq.n	8001326 <HAL_GPIO_Init+0x12a>
 8001316:	2b08      	cmp	r3, #8
 8001318:	d005      	beq.n	8001326 <HAL_GPIO_Init+0x12a>
 800131a:	2b0a      	cmp	r3, #10
 800131c:	d003      	beq.n	8001326 <HAL_GPIO_Init+0x12a>
 800131e:	2b0c      	cmp	r3, #12
 8001320:	d001      	beq.n	8001326 <HAL_GPIO_Init+0x12a>
 8001322:	2b0f      	cmp	r3, #15
 8001324:	d110      	bne.n	8001348 <HAL_GPIO_Init+0x14c>
        temp = GPIOx->AFR[position >> 3U];
 8001326:	08e2      	lsrs	r2, r4, #3
 8001328:	3208      	adds	r2, #8
 800132a:	f857 0022 	ldr.w	r0, [r7, r2, lsl #2]
        temp &= ~(0xFU << ((uint32_t)(position & 0x07U) * 4U)) ;
 800132e:	f004 0307 	and.w	r3, r4, #7
 8001332:	0099      	lsls	r1, r3, #2
 8001334:	230f      	movs	r3, #15
 8001336:	408b      	lsls	r3, r1
 8001338:	ea20 0003 	bic.w	r0, r0, r3
        temp |= ((uint32_t)(GPIO_Init->Alternate) << (((uint32_t)position & 0x07U) * 4U));
 800133c:	6933      	ldr	r3, [r6, #16]
 800133e:	408b      	lsls	r3, r1
 8001340:	4303      	orrs	r3, r0
        GPIOx->AFR[position >> 3U] = temp;
 8001342:	f847 3022 	str.w	r3, [r7, r2, lsl #2]
 8001346:	e06b      	b.n	8001420 <HAL_GPIO_Init+0x224>
        assert_param(IS_GPIO_AF(GPIO_Init->Alternate));
 8001348:	21de      	movs	r1, #222	; 0xde
 800134a:	4804      	ldr	r0, [pc, #16]	; (800135c <HAL_GPIO_Init+0x160>)
 800134c:	f7ff fa28 	bl	80007a0 <assert_failed>
 8001350:	e7e9      	b.n	8001326 <HAL_GPIO_Init+0x12a>
        temp |= ((uint32_t)(GPIO_GET_INDEX(GPIOx)) << (4U * (position & 0x03U)));
 8001352:	2307      	movs	r3, #7
 8001354:	e005      	b.n	8001362 <HAL_GPIO_Init+0x166>
 8001356:	bf00      	nop
 8001358:	40020000 	andmi	r0, r2, r0
 800135c:	08002cdc 	stmdaeq	r0, {r2, r3, r4, r6, r7, sl, fp, sp}
 8001360:	2300      	movs	r3, #0
 8001362:	408b      	lsls	r3, r1
 8001364:	4303      	orrs	r3, r0
        SYSCFG->EXTICR[position >> 2U] = temp;
 8001366:	3202      	adds	r2, #2
 8001368:	495a      	ldr	r1, [pc, #360]	; (80014d4 <HAL_GPIO_Init+0x2d8>)
 800136a:	f841 3022 	str.w	r3, [r1, r2, lsl #2]

        /* Clear Rising Falling edge configuration */
        temp = EXTI->RTSR;
 800136e:	4b5a      	ldr	r3, [pc, #360]	; (80014d8 <HAL_GPIO_Init+0x2dc>)
 8001370:	689a      	ldr	r2, [r3, #8]
        temp &= ~((uint32_t)iocurrent);
 8001372:	ea6f 0308 	mvn.w	r3, r8
 8001376:	ea22 0108 	bic.w	r1, r2, r8
        if((GPIO_Init->Mode & TRIGGER_RISING) != 0x00U)
 800137a:	6870      	ldr	r0, [r6, #4]
 800137c:	f410 1f80 	tst.w	r0, #1048576	; 0x100000
 8001380:	d001      	beq.n	8001386 <HAL_GPIO_Init+0x18a>
        {
          temp |= iocurrent;
 8001382:	ea48 0102 	orr.w	r1, r8, r2
        }
        EXTI->RTSR = temp;
 8001386:	4a54      	ldr	r2, [pc, #336]	; (80014d8 <HAL_GPIO_Init+0x2dc>)
 8001388:	6091      	str	r1, [r2, #8]

        temp = EXTI->FTSR;
 800138a:	68d2      	ldr	r2, [r2, #12]
        temp &= ~((uint32_t)iocurrent);
 800138c:	ea03 0102 	and.w	r1, r3, r2
        if((GPIO_Init->Mode & TRIGGER_FALLING) != 0x00U)
 8001390:	6870      	ldr	r0, [r6, #4]
 8001392:	f410 1f00 	tst.w	r0, #2097152	; 0x200000
 8001396:	d001      	beq.n	800139c <HAL_GPIO_Init+0x1a0>
        {
          temp |= iocurrent;
 8001398:	ea48 0102 	orr.w	r1, r8, r2
        }
        EXTI->FTSR = temp;
 800139c:	4a4e      	ldr	r2, [pc, #312]	; (80014d8 <HAL_GPIO_Init+0x2dc>)
 800139e:	60d1      	str	r1, [r2, #12]

        temp = EXTI->EMR;
 80013a0:	6852      	ldr	r2, [r2, #4]
        temp &= ~((uint32_t)iocurrent);
 80013a2:	ea03 0102 	and.w	r1, r3, r2
        if((GPIO_Init->Mode & EXTI_EVT) != 0x00U)
 80013a6:	6870      	ldr	r0, [r6, #4]
 80013a8:	f410 3f00 	tst.w	r0, #131072	; 0x20000
 80013ac:	d001      	beq.n	80013b2 <HAL_GPIO_Init+0x1b6>
        {
          temp |= iocurrent;
 80013ae:	ea48 0102 	orr.w	r1, r8, r2
        }
        EXTI->EMR = temp;
 80013b2:	4a49      	ldr	r2, [pc, #292]	; (80014d8 <HAL_GPIO_Init+0x2dc>)
 80013b4:	6051      	str	r1, [r2, #4]

        /* Clear EXTI line configuration */
        temp = EXTI->IMR;
 80013b6:	6812      	ldr	r2, [r2, #0]
        temp &= ~((uint32_t)iocurrent);
 80013b8:	4013      	ands	r3, r2
        if((GPIO_Init->Mode & EXTI_IT) != 0x00U)
 80013ba:	6871      	ldr	r1, [r6, #4]
 80013bc:	f411 3f80 	tst.w	r1, #65536	; 0x10000
 80013c0:	d001      	beq.n	80013c6 <HAL_GPIO_Init+0x1ca>
        {
          temp |= iocurrent;
 80013c2:	ea48 0302 	orr.w	r3, r8, r2
        }
        EXTI->IMR = temp;
 80013c6:	4a44      	ldr	r2, [pc, #272]	; (80014d8 <HAL_GPIO_Init+0x2dc>)
 80013c8:	6013      	str	r3, [r2, #0]
  for(position = 0U; position < GPIO_NUMBER; position++)
 80013ca:	3401      	adds	r4, #1
 80013cc:	2c0f      	cmp	r4, #15
 80013ce:	d87e      	bhi.n	80014ce <HAL_GPIO_Init+0x2d2>
    ioposition = 0x01U << position;
 80013d0:	2501      	movs	r5, #1
 80013d2:	40a5      	lsls	r5, r4
    iocurrent = (uint32_t)(GPIO_Init->Pin) & ioposition;
 80013d4:	6833      	ldr	r3, [r6, #0]
 80013d6:	ea03 0805 	and.w	r8, r3, r5
    if(iocurrent == ioposition)
 80013da:	ea35 0303 	bics.w	r3, r5, r3
 80013de:	d1f4      	bne.n	80013ca <HAL_GPIO_Init+0x1ce>
      if(((GPIO_Init->Mode & GPIO_MODE) == MODE_OUTPUT) || \
 80013e0:	6873      	ldr	r3, [r6, #4]
 80013e2:	f003 0303 	and.w	r3, r3, #3
 80013e6:	3b01      	subs	r3, #1
 80013e8:	2b01      	cmp	r3, #1
 80013ea:	f67f af61 	bls.w	80012b0 <HAL_GPIO_Init+0xb4>
      if((GPIO_Init->Mode & GPIO_MODE) != MODE_ANALOG)
 80013ee:	6873      	ldr	r3, [r6, #4]
 80013f0:	f003 0303 	and.w	r3, r3, #3
 80013f4:	2b03      	cmp	r3, #3
 80013f6:	d00d      	beq.n	8001414 <HAL_GPIO_Init+0x218>
        assert_param(IS_GPIO_PULL(GPIO_Init->Pull));
 80013f8:	68b3      	ldr	r3, [r6, #8]
 80013fa:	2b02      	cmp	r3, #2
 80013fc:	f63f af74 	bhi.w	80012e8 <HAL_GPIO_Init+0xec>
        temp = GPIOx->PUPDR;
 8001400:	68fa      	ldr	r2, [r7, #12]
        temp &= ~(GPIO_PUPDR_PUPDR0 << (position * 2U));
 8001402:	0061      	lsls	r1, r4, #1
 8001404:	2303      	movs	r3, #3
 8001406:	408b      	lsls	r3, r1
 8001408:	ea22 0203 	bic.w	r2, r2, r3
        temp |= ((GPIO_Init->Pull) << (position * 2U));
 800140c:	68b3      	ldr	r3, [r6, #8]
 800140e:	408b      	lsls	r3, r1
 8001410:	4313      	orrs	r3, r2
        GPIOx->PUPDR = temp;
 8001412:	60fb      	str	r3, [r7, #12]
      if((GPIO_Init->Mode & GPIO_MODE) == MODE_AF)
 8001414:	6873      	ldr	r3, [r6, #4]
 8001416:	f003 0303 	and.w	r3, r3, #3
 800141a:	2b02      	cmp	r3, #2
 800141c:	f43f af69 	beq.w	80012f2 <HAL_GPIO_Init+0xf6>
      temp = GPIOx->MODER;
 8001420:	683a      	ldr	r2, [r7, #0]
      temp &= ~(GPIO_MODER_MODER0 << (position * 2U));
 8001422:	0061      	lsls	r1, r4, #1
 8001424:	2303      	movs	r3, #3
 8001426:	408b      	lsls	r3, r1
 8001428:	ea22 0203 	bic.w	r2, r2, r3
      temp |= ((GPIO_Init->Mode & GPIO_MODE) << (position * 2U));
 800142c:	6873      	ldr	r3, [r6, #4]
 800142e:	f003 0303 	and.w	r3, r3, #3
 8001432:	408b      	lsls	r3, r1
 8001434:	4313      	orrs	r3, r2
      GPIOx->MODER = temp;
 8001436:	603b      	str	r3, [r7, #0]
      if((GPIO_Init->Mode & EXTI_MODE) != 0x00U)
 8001438:	6873      	ldr	r3, [r6, #4]
 800143a:	f413 3f40 	tst.w	r3, #196608	; 0x30000
 800143e:	d0c4      	beq.n	80013ca <HAL_GPIO_Init+0x1ce>
        __HAL_RCC_SYSCFG_CLK_ENABLE();
 8001440:	2300      	movs	r3, #0
 8001442:	9301      	str	r3, [sp, #4]
 8001444:	4b25      	ldr	r3, [pc, #148]	; (80014dc <HAL_GPIO_Init+0x2e0>)
 8001446:	6c5a      	ldr	r2, [r3, #68]	; 0x44
 8001448:	f442 4280 	orr.w	r2, r2, #16384	; 0x4000
 800144c:	645a      	str	r2, [r3, #68]	; 0x44
 800144e:	6c5b      	ldr	r3, [r3, #68]	; 0x44
 8001450:	f403 4380 	and.w	r3, r3, #16384	; 0x4000
 8001454:	9301      	str	r3, [sp, #4]
 8001456:	9b01      	ldr	r3, [sp, #4]
        temp = SYSCFG->EXTICR[position >> 2U];
 8001458:	08a2      	lsrs	r2, r4, #2
 800145a:	1c91      	adds	r1, r2, #2
 800145c:	4b1d      	ldr	r3, [pc, #116]	; (80014d4 <HAL_GPIO_Init+0x2d8>)
 800145e:	f853 0021 	ldr.w	r0, [r3, r1, lsl #2]
        temp &= ~(0x0FU << (4U * (position & 0x03U)));
 8001462:	f004 0303 	and.w	r3, r4, #3
 8001466:	0099      	lsls	r1, r3, #2
 8001468:	230f      	movs	r3, #15
 800146a:	408b      	lsls	r3, r1
 800146c:	ea20 0003 	bic.w	r0, r0, r3
        temp |= ((uint32_t)(GPIO_GET_INDEX(GPIOx)) << (4U * (position & 0x03U)));
 8001470:	4b1b      	ldr	r3, [pc, #108]	; (80014e0 <HAL_GPIO_Init+0x2e4>)
 8001472:	429f      	cmp	r7, r3
 8001474:	f43f af74 	beq.w	8001360 <HAL_GPIO_Init+0x164>
 8001478:	f503 6380 	add.w	r3, r3, #1024	; 0x400
 800147c:	429f      	cmp	r7, r3
 800147e:	d01a      	beq.n	80014b6 <HAL_GPIO_Init+0x2ba>
 8001480:	f503 6380 	add.w	r3, r3, #1024	; 0x400
 8001484:	429f      	cmp	r7, r3
 8001486:	d018      	beq.n	80014ba <HAL_GPIO_Init+0x2be>
 8001488:	f503 6380 	add.w	r3, r3, #1024	; 0x400
 800148c:	429f      	cmp	r7, r3
 800148e:	d016      	beq.n	80014be <HAL_GPIO_Init+0x2c2>
 8001490:	f503 6380 	add.w	r3, r3, #1024	; 0x400
 8001494:	429f      	cmp	r7, r3
 8001496:	d014      	beq.n	80014c2 <HAL_GPIO_Init+0x2c6>
 8001498:	f503 6380 	add.w	r3, r3, #1024	; 0x400
 800149c:	429f      	cmp	r7, r3
 800149e:	d012      	beq.n	80014c6 <HAL_GPIO_Init+0x2ca>
 80014a0:	f503 6380 	add.w	r3, r3, #1024	; 0x400
 80014a4:	429f      	cmp	r7, r3
 80014a6:	d010      	beq.n	80014ca <HAL_GPIO_Init+0x2ce>
 80014a8:	f503 6380 	add.w	r3, r3, #1024	; 0x400
 80014ac:	429f      	cmp	r7, r3
 80014ae:	f43f af50 	beq.w	8001352 <HAL_GPIO_Init+0x156>
 80014b2:	2308      	movs	r3, #8
 80014b4:	e755      	b.n	8001362 <HAL_GPIO_Init+0x166>
 80014b6:	2301      	movs	r3, #1
 80014b8:	e753      	b.n	8001362 <HAL_GPIO_Init+0x166>
 80014ba:	2302      	movs	r3, #2
 80014bc:	e751      	b.n	8001362 <HAL_GPIO_Init+0x166>
 80014be:	2303      	movs	r3, #3
 80014c0:	e74f      	b.n	8001362 <HAL_GPIO_Init+0x166>
 80014c2:	2304      	movs	r3, #4
 80014c4:	e74d      	b.n	8001362 <HAL_GPIO_Init+0x166>
 80014c6:	2305      	movs	r3, #5
 80014c8:	e74b      	b.n	8001362 <HAL_GPIO_Init+0x166>
 80014ca:	2306      	movs	r3, #6
 80014cc:	e749      	b.n	8001362 <HAL_GPIO_Init+0x166>
      }
    }
  }
}
 80014ce:	b002      	add	sp, #8
 80014d0:	e8bd 81f0 	ldmia.w	sp!, {r4, r5, r6, r7, r8, pc}
 80014d4:	40013800 	andmi	r3, r1, r0, lsl #16
 80014d8:	40013c00 	andmi	r3, r1, r0, lsl #24
 80014dc:	40023800 	andmi	r3, r2, r0, lsl #16
 80014e0:	40020000 	andmi	r0, r2, r0

080014e4 <HAL_DMA_Abort>:
  *        and the Stream will be effectively disabled only after the transfer of
  *        this single data is finished.  
  * @retval HAL status
  */
HAL_StatusTypeDef HAL_DMA_Abort(DMA_HandleTypeDef *hdma)
{
 80014e4:	b570      	push	{r4, r5, r6, lr}
 80014e6:	4604      	mov	r4, r0
  /* calculate DMA base and stream number */
  DMA_Base_Registers *regs = (DMA_Base_Registers *)hdma->StreamBaseAddress;
 80014e8:	6d86      	ldr	r6, [r0, #88]	; 0x58
  
  uint32_t tickstart = HAL_GetTick();
 80014ea:	f000 f935 	bl	8001758 <HAL_GetTick>
  
  if(hdma->State != HAL_DMA_STATE_BUSY)
 80014ee:	f894 3035 	ldrb.w	r3, [r4, #53]	; 0x35
 80014f2:	b2db      	uxtb	r3, r3
 80014f4:	2b02      	cmp	r3, #2
 80014f6:	d006      	beq.n	8001506 <HAL_DMA_Abort+0x22>
  {
    hdma->ErrorCode = HAL_DMA_ERROR_NO_XFER;
 80014f8:	2380      	movs	r3, #128	; 0x80
 80014fa:	6563      	str	r3, [r4, #84]	; 0x54
    
    /* Process Unlocked */
    __HAL_UNLOCK(hdma);
 80014fc:	2300      	movs	r3, #0
 80014fe:	f884 3034 	strb.w	r3, [r4, #52]	; 0x34
    
    return HAL_ERROR;
 8001502:	2001      	movs	r0, #1
    
    /* Process Unlocked */
    __HAL_UNLOCK(hdma);
  }
  return HAL_OK;
}
 8001504:	bd70      	pop	{r4, r5, r6, pc}
 8001506:	4605      	mov	r5, r0
    hdma->Instance->CR  &= ~(DMA_IT_TC | DMA_IT_TE | DMA_IT_DME);
 8001508:	6822      	ldr	r2, [r4, #0]
 800150a:	6813      	ldr	r3, [r2, #0]
 800150c:	f023 0316 	bic.w	r3, r3, #22
 8001510:	6013      	str	r3, [r2, #0]
    hdma->Instance->FCR &= ~(DMA_IT_FE);
 8001512:	6822      	ldr	r2, [r4, #0]
 8001514:	6953      	ldr	r3, [r2, #20]
 8001516:	f023 0380 	bic.w	r3, r3, #128	; 0x80
 800151a:	6153      	str	r3, [r2, #20]
    if((hdma->XferHalfCpltCallback != NULL) || (hdma->XferM1HalfCpltCallback != NULL))
 800151c:	6c23      	ldr	r3, [r4, #64]	; 0x40
 800151e:	b1e3      	cbz	r3, 800155a <HAL_DMA_Abort+0x76>
      hdma->Instance->CR  &= ~(DMA_IT_HT);
 8001520:	6822      	ldr	r2, [r4, #0]
 8001522:	6813      	ldr	r3, [r2, #0]
 8001524:	f023 0308 	bic.w	r3, r3, #8
 8001528:	6013      	str	r3, [r2, #0]
    __HAL_DMA_DISABLE(hdma);
 800152a:	6822      	ldr	r2, [r4, #0]
 800152c:	6813      	ldr	r3, [r2, #0]
 800152e:	f023 0301 	bic.w	r3, r3, #1
 8001532:	6013      	str	r3, [r2, #0]
    while((hdma->Instance->CR & DMA_SxCR_EN) != RESET)
 8001534:	6823      	ldr	r3, [r4, #0]
 8001536:	681b      	ldr	r3, [r3, #0]
 8001538:	f013 0f01 	tst.w	r3, #1
 800153c:	d011      	beq.n	8001562 <HAL_DMA_Abort+0x7e>
      if((HAL_GetTick() - tickstart ) > HAL_TIMEOUT_DMA_ABORT)
 800153e:	f000 f90b 	bl	8001758 <HAL_GetTick>
 8001542:	1b43      	subs	r3, r0, r5
 8001544:	2b05      	cmp	r3, #5
 8001546:	d9f5      	bls.n	8001534 <HAL_DMA_Abort+0x50>
        hdma->ErrorCode = HAL_DMA_ERROR_TIMEOUT;
 8001548:	2320      	movs	r3, #32
 800154a:	6563      	str	r3, [r4, #84]	; 0x54
        hdma->State = HAL_DMA_STATE_TIMEOUT;
 800154c:	2003      	movs	r0, #3
 800154e:	f884 0035 	strb.w	r0, [r4, #53]	; 0x35
        __HAL_UNLOCK(hdma);
 8001552:	2300      	movs	r3, #0
 8001554:	f884 3034 	strb.w	r3, [r4, #52]	; 0x34
        return HAL_TIMEOUT;
 8001558:	e7d4      	b.n	8001504 <HAL_DMA_Abort+0x20>
    if((hdma->XferHalfCpltCallback != NULL) || (hdma->XferM1HalfCpltCallback != NULL))
 800155a:	6ca3      	ldr	r3, [r4, #72]	; 0x48
 800155c:	2b00      	cmp	r3, #0
 800155e:	d1df      	bne.n	8001520 <HAL_DMA_Abort+0x3c>
 8001560:	e7e3      	b.n	800152a <HAL_DMA_Abort+0x46>
    regs->IFCR = 0x3FU << hdma->StreamIndex;
 8001562:	6de2      	ldr	r2, [r4, #92]	; 0x5c
 8001564:	233f      	movs	r3, #63	; 0x3f
 8001566:	4093      	lsls	r3, r2
 8001568:	60b3      	str	r3, [r6, #8]
    hdma->State = HAL_DMA_STATE_READY;
 800156a:	2301      	movs	r3, #1
 800156c:	f884 3035 	strb.w	r3, [r4, #53]	; 0x35
    __HAL_UNLOCK(hdma);
 8001570:	2000      	movs	r0, #0
 8001572:	f884 0034 	strb.w	r0, [r4, #52]	; 0x34
  return HAL_OK;
 8001576:	e7c5      	b.n	8001504 <HAL_DMA_Abort+0x20>

08001578 <HAL_DMA_Abort_IT>:
  *                 the configuration information for the specified DMA Stream.
  * @retval HAL status
  */
HAL_StatusTypeDef HAL_DMA_Abort_IT(DMA_HandleTypeDef *hdma)
{
  if(hdma->State != HAL_DMA_STATE_BUSY)
 8001578:	f890 3035 	ldrb.w	r3, [r0, #53]	; 0x35
 800157c:	b2db      	uxtb	r3, r3
 800157e:	2b02      	cmp	r3, #2
 8001580:	d003      	beq.n	800158a <HAL_DMA_Abort_IT+0x12>
  {
    hdma->ErrorCode = HAL_DMA_ERROR_NO_XFER;
 8001582:	2380      	movs	r3, #128	; 0x80
 8001584:	6543      	str	r3, [r0, #84]	; 0x54
    return HAL_ERROR;
 8001586:	2001      	movs	r0, #1
 8001588:	4770      	bx	lr
  }
  else
  {
    /* Set Abort State  */
    hdma->State = HAL_DMA_STATE_ABORT;
 800158a:	2305      	movs	r3, #5
 800158c:	f880 3035 	strb.w	r3, [r0, #53]	; 0x35
    
    /* Disable the stream */
    __HAL_DMA_DISABLE(hdma);
 8001590:	6802      	ldr	r2, [r0, #0]
 8001592:	6813      	ldr	r3, [r2, #0]
 8001594:	f023 0301 	bic.w	r3, r3, #1
 8001598:	6013      	str	r3, [r2, #0]
  }

  return HAL_OK;
 800159a:	2000      	movs	r0, #0
}
 800159c:	4770      	bx	lr
	...

080015a0 <HAL_NVIC_SetPriorityGrouping>:
  * @note   When the NVIC_PriorityGroup_0 is selected, IRQ preemption is no more possible. 
  *         The pending IRQ priority will be managed only by the subpriority. 
  * @retval None
  */
void HAL_NVIC_SetPriorityGrouping(uint32_t PriorityGroup)
{
 80015a0:	b510      	push	{r4, lr}
 80015a2:	4604      	mov	r4, r0
  /* Check the parameters */
  assert_param(IS_NVIC_PRIORITY_GROUP(PriorityGroup));
 80015a4:	1ec3      	subs	r3, r0, #3
 80015a6:	2b04      	cmp	r3, #4
 80015a8:	d80f      	bhi.n	80015ca <HAL_NVIC_SetPriorityGrouping+0x2a>
__STATIC_INLINE void __NVIC_SetPriorityGrouping(uint32_t PriorityGroup)
{
  uint32_t reg_value;
  uint32_t PriorityGroupTmp = (PriorityGroup & (uint32_t)0x07UL);             /* only values 0..7 are used          */

  reg_value  =  SCB->AIRCR;                                                   /* read old register configuration    */
 80015aa:	4a0a      	ldr	r2, [pc, #40]	; (80015d4 <HAL_NVIC_SetPriorityGrouping+0x34>)
 80015ac:	68d3      	ldr	r3, [r2, #12]
  reg_value &= ~((uint32_t)(SCB_AIRCR_VECTKEY_Msk | SCB_AIRCR_PRIGROUP_Msk)); /* clear bits to change               */
 80015ae:	f423 63e0 	bic.w	r3, r3, #1792	; 0x700
 80015b2:	041b      	lsls	r3, r3, #16
 80015b4:	0c1b      	lsrs	r3, r3, #16
  reg_value  =  (reg_value                                   |
                ((uint32_t)0x5FAUL << SCB_AIRCR_VECTKEY_Pos) |
                (PriorityGroupTmp << SCB_AIRCR_PRIGROUP_Pos)  );              /* Insert write key and priority group */
 80015b6:	0224      	lsls	r4, r4, #8
 80015b8:	f404 64e0 	and.w	r4, r4, #1792	; 0x700
                ((uint32_t)0x5FAUL << SCB_AIRCR_VECTKEY_Pos) |
 80015bc:	4323      	orrs	r3, r4
  reg_value  =  (reg_value                                   |
 80015be:	f043 63bf 	orr.w	r3, r3, #100139008	; 0x5f80000
 80015c2:	f443 3300 	orr.w	r3, r3, #131072	; 0x20000
  SCB->AIRCR =  reg_value;
 80015c6:	60d3      	str	r3, [r2, #12]
  
  /* Set the PRIGROUP[10:8] bits according to the PriorityGroup parameter value */
  NVIC_SetPriorityGrouping(PriorityGroup);
}
 80015c8:	bd10      	pop	{r4, pc}
  assert_param(IS_NVIC_PRIORITY_GROUP(PriorityGroup));
 80015ca:	2190      	movs	r1, #144	; 0x90
 80015cc:	4802      	ldr	r0, [pc, #8]	; (80015d8 <HAL_NVIC_SetPriorityGrouping+0x38>)
 80015ce:	f7ff f8e7 	bl	80007a0 <assert_failed>
 80015d2:	e7ea      	b.n	80015aa <HAL_NVIC_SetPriorityGrouping+0xa>
 80015d4:	e000ed00 	and	lr, r0, r0, lsl #26
 80015d8:	08002d18 	stmdaeq	r0, {r3, r4, r8, sl, fp, sp}

080015dc <HAL_NVIC_SetPriority>:
  *         This parameter can be a value between 0 and 15
  *         A lower priority value indicates a higher priority.          
  * @retval None
  */
void HAL_NVIC_SetPriority(IRQn_Type IRQn, uint32_t PreemptPriority, uint32_t SubPriority)
{ 
 80015dc:	b570      	push	{r4, r5, r6, lr}
 80015de:	4605      	mov	r5, r0
 80015e0:	460c      	mov	r4, r1
 80015e2:	4616      	mov	r6, r2
  uint32_t prioritygroup = 0x00U;
  
  /* Check the parameters */
  assert_param(IS_NVIC_SUB_PRIORITY(SubPriority));
 80015e4:	2a0f      	cmp	r2, #15
 80015e6:	d825      	bhi.n	8001634 <HAL_NVIC_SetPriority+0x58>
  assert_param(IS_NVIC_PREEMPTION_PRIORITY(PreemptPriority));
 80015e8:	2c0f      	cmp	r4, #15
 80015ea:	d828      	bhi.n	800163e <HAL_NVIC_SetPriority+0x62>
  \details Reads the priority grouping field from the NVIC Interrupt Controller.
  \return                Priority grouping field (SCB->AIRCR [10:8] PRIGROUP field).
 */
__STATIC_INLINE uint32_t __NVIC_GetPriorityGrouping(void)
{
  return ((uint32_t)((SCB->AIRCR & SCB_AIRCR_PRIGROUP_Msk) >> SCB_AIRCR_PRIGROUP_Pos));
 80015ec:	4b1b      	ldr	r3, [pc, #108]	; (800165c <HAL_NVIC_SetPriority+0x80>)
 80015ee:	68db      	ldr	r3, [r3, #12]
 80015f0:	f3c3 2302 	ubfx	r3, r3, #8, #3
{
  uint32_t PriorityGroupTmp = (PriorityGroup & (uint32_t)0x07UL);   /* only values 0..7 are used          */
  uint32_t PreemptPriorityBits;
  uint32_t SubPriorityBits;

  PreemptPriorityBits = ((7UL - PriorityGroupTmp) > (uint32_t)(__NVIC_PRIO_BITS)) ? (uint32_t)(__NVIC_PRIO_BITS) : (uint32_t)(7UL - PriorityGroupTmp);
 80015f4:	f1c3 0107 	rsb	r1, r3, #7
 80015f8:	2904      	cmp	r1, #4
 80015fa:	bf28      	it	cs
 80015fc:	2104      	movcs	r1, #4
  SubPriorityBits     = ((PriorityGroupTmp + (uint32_t)(__NVIC_PRIO_BITS)) < (uint32_t)7UL) ? (uint32_t)0UL : (uint32_t)((PriorityGroupTmp - 7UL) + (uint32_t)(__NVIC_PRIO_BITS));
 80015fe:	1d1a      	adds	r2, r3, #4
 8001600:	2a06      	cmp	r2, #6
 8001602:	d921      	bls.n	8001648 <HAL_NVIC_SetPriority+0x6c>
 8001604:	3b03      	subs	r3, #3

  return (
           ((PreemptPriority & (uint32_t)((1UL << (PreemptPriorityBits)) - 1UL)) << SubPriorityBits) |
 8001606:	f04f 32ff 	mov.w	r2, #4294967295
 800160a:	fa02 f101 	lsl.w	r1, r2, r1
 800160e:	ea24 0401 	bic.w	r4, r4, r1
 8001612:	409c      	lsls	r4, r3
           ((SubPriority     & (uint32_t)((1UL << (SubPriorityBits    )) - 1UL)))
 8001614:	fa02 f303 	lsl.w	r3, r2, r3
 8001618:	ea26 0603 	bic.w	r6, r6, r3
           ((PreemptPriority & (uint32_t)((1UL << (PreemptPriorityBits)) - 1UL)) << SubPriorityBits) |
 800161c:	4334      	orrs	r4, r6
  if ((int32_t)(IRQn) >= 0)
 800161e:	2d00      	cmp	r5, #0
 8001620:	db14      	blt.n	800164c <HAL_NVIC_SetPriority+0x70>
    NVIC->IP[((uint32_t)IRQn)]               = (uint8_t)((priority << (8U - __NVIC_PRIO_BITS)) & (uint32_t)0xFFUL);
 8001622:	0124      	lsls	r4, r4, #4
 8001624:	b2e4      	uxtb	r4, r4
 8001626:	f105 4560 	add.w	r5, r5, #3758096384	; 0xe0000000
 800162a:	f505 4561 	add.w	r5, r5, #57600	; 0xe100
 800162e:	f885 4300 	strb.w	r4, [r5, #768]	; 0x300
  
  prioritygroup = NVIC_GetPriorityGrouping();
  
  NVIC_SetPriority(IRQn, NVIC_EncodePriority(prioritygroup, PreemptPriority, SubPriority));
}
 8001632:	bd70      	pop	{r4, r5, r6, pc}
  assert_param(IS_NVIC_SUB_PRIORITY(SubPriority));
 8001634:	21a8      	movs	r1, #168	; 0xa8
 8001636:	480a      	ldr	r0, [pc, #40]	; (8001660 <HAL_NVIC_SetPriority+0x84>)
 8001638:	f7ff f8b2 	bl	80007a0 <assert_failed>
 800163c:	e7d4      	b.n	80015e8 <HAL_NVIC_SetPriority+0xc>
  assert_param(IS_NVIC_PREEMPTION_PRIORITY(PreemptPriority));
 800163e:	21a9      	movs	r1, #169	; 0xa9
 8001640:	4807      	ldr	r0, [pc, #28]	; (8001660 <HAL_NVIC_SetPriority+0x84>)
 8001642:	f7ff f8ad 	bl	80007a0 <assert_failed>
 8001646:	e7d1      	b.n	80015ec <HAL_NVIC_SetPriority+0x10>
  SubPriorityBits     = ((PriorityGroupTmp + (uint32_t)(__NVIC_PRIO_BITS)) < (uint32_t)7UL) ? (uint32_t)0UL : (uint32_t)((PriorityGroupTmp - 7UL) + (uint32_t)(__NVIC_PRIO_BITS));
 8001648:	2300      	movs	r3, #0
 800164a:	e7dc      	b.n	8001606 <HAL_NVIC_SetPriority+0x2a>
    SCB->SHP[(((uint32_t)IRQn) & 0xFUL)-4UL] = (uint8_t)((priority << (8U - __NVIC_PRIO_BITS)) & (uint32_t)0xFFUL);
 800164c:	f005 050f 	and.w	r5, r5, #15
 8001650:	0124      	lsls	r4, r4, #4
 8001652:	b2e4      	uxtb	r4, r4
 8001654:	4b03      	ldr	r3, [pc, #12]	; (8001664 <HAL_NVIC_SetPriority+0x88>)
 8001656:	555c      	strb	r4, [r3, r5]
}
 8001658:	e7eb      	b.n	8001632 <HAL_NVIC_SetPriority+0x56>
 800165a:	bf00      	nop
 800165c:	e000ed00 	and	lr, r0, r0, lsl #26
 8001660:	08002d18 	stmdaeq	r0, {r3, r4, r8, sl, fp, sp}
 8001664:	e000ed14 	and	lr, r0, r4, lsl sp

08001668 <HAL_NVIC_EnableIRQ>:
  *         This parameter can be an enumerator of IRQn_Type enumeration
  *         (For the complete STM32 Devices IRQ Channels list, please refer to the appropriate CMSIS device file (stm32f4xxxx.h))
  * @retval None
  */
void HAL_NVIC_EnableIRQ(IRQn_Type IRQn)
{
 8001668:	b510      	push	{r4, lr}
  /* Check the parameters */
  assert_param(IS_NVIC_DEVICE_IRQ(IRQn));
 800166a:	1e04      	subs	r4, r0, #0
 800166c:	db0a      	blt.n	8001684 <HAL_NVIC_EnableIRQ+0x1c>
  if ((int32_t)(IRQn) >= 0)
 800166e:	2c00      	cmp	r4, #0
 8001670:	db07      	blt.n	8001682 <HAL_NVIC_EnableIRQ+0x1a>
    NVIC->ISER[(((uint32_t)IRQn) >> 5UL)] = (uint32_t)(1UL << (((uint32_t)IRQn) & 0x1FUL));
 8001672:	f004 021f 	and.w	r2, r4, #31
 8001676:	0964      	lsrs	r4, r4, #5
 8001678:	2301      	movs	r3, #1
 800167a:	4093      	lsls	r3, r2
 800167c:	4a04      	ldr	r2, [pc, #16]	; (8001690 <HAL_NVIC_EnableIRQ+0x28>)
 800167e:	f842 3024 	str.w	r3, [r2, r4, lsl #2]
  
  /* Enable interrupt */
  NVIC_EnableIRQ(IRQn);
}
 8001682:	bd10      	pop	{r4, pc}
  assert_param(IS_NVIC_DEVICE_IRQ(IRQn));
 8001684:	21bc      	movs	r1, #188	; 0xbc
 8001686:	4803      	ldr	r0, [pc, #12]	; (8001694 <HAL_NVIC_EnableIRQ+0x2c>)
 8001688:	f7ff f88a 	bl	80007a0 <assert_failed>
 800168c:	e7ef      	b.n	800166e <HAL_NVIC_EnableIRQ+0x6>
 800168e:	bf00      	nop
 8001690:	e000e100 	and	lr, r0, r0, lsl #2
 8001694:	08002d18 	stmdaeq	r0, {r3, r4, r8, sl, fp, sp}

08001698 <HAL_SYSTICK_Config>:
           function <b>SysTick_Config</b> is not included. In this case, the file <b><i>device</i>.h</b>
           must contain a vendor-specific implementation of this function.
 */
__STATIC_INLINE uint32_t SysTick_Config(uint32_t ticks)
{
  if ((ticks - 1UL) > SysTick_LOAD_RELOAD_Msk)
 8001698:	3801      	subs	r0, #1
 800169a:	f1b0 7f80 	cmp.w	r0, #16777216	; 0x1000000
 800169e:	d20b      	bcs.n	80016b8 <HAL_SYSTICK_Config+0x20>
  {
    return (1UL);                                                   /* Reload value impossible */
  }

  SysTick->LOAD  = (uint32_t)(ticks - 1UL);                         /* set reload register */
 80016a0:	f04f 23e0 	mov.w	r3, #3758153728	; 0xe000e000
 80016a4:	6158      	str	r0, [r3, #20]
    SCB->SHP[(((uint32_t)IRQn) & 0xFUL)-4UL] = (uint8_t)((priority << (8U - __NVIC_PRIO_BITS)) & (uint32_t)0xFFUL);
 80016a6:	4a05      	ldr	r2, [pc, #20]	; (80016bc <HAL_SYSTICK_Config+0x24>)
 80016a8:	21f0      	movs	r1, #240	; 0xf0
 80016aa:	f882 1023 	strb.w	r1, [r2, #35]	; 0x23
  NVIC_SetPriority (SysTick_IRQn, (1UL << __NVIC_PRIO_BITS) - 1UL); /* set Priority for Systick Interrupt */
  SysTick->VAL   = 0UL;                                             /* Load the SysTick Counter Value */
 80016ae:	2000      	movs	r0, #0
 80016b0:	6198      	str	r0, [r3, #24]
  SysTick->CTRL  = SysTick_CTRL_CLKSOURCE_Msk |
 80016b2:	2207      	movs	r2, #7
 80016b4:	611a      	str	r2, [r3, #16]
                   SysTick_CTRL_TICKINT_Msk   |
                   SysTick_CTRL_ENABLE_Msk;                         /* Enable SysTick IRQ and SysTick Timer */
  return (0UL);                                                     /* Function successful */
 80016b6:	4770      	bx	lr
    return (1UL);                                                   /* Reload value impossible */
 80016b8:	2001      	movs	r0, #1
  *                  - 1  Function failed.
  */
uint32_t HAL_SYSTICK_Config(uint32_t TicksNumb)
{
   return SysTick_Config(TicksNumb);
}
 80016ba:	4770      	bx	lr
 80016bc:	e000ed00 	and	lr, r0, r0, lsl #26

080016c0 <HAL_InitTick>:
  *       implementation  in user file.
  * @param TickPriority Tick interrupt priority.
  * @retval HAL status
  */
__weak HAL_StatusTypeDef HAL_InitTick(uint32_t TickPriority)
{
 80016c0:	b510      	push	{r4, lr}
 80016c2:	4604      	mov	r4, r0
  /* Configure the SysTick to have interrupt in 1ms time basis*/
  if (HAL_SYSTICK_Config(SystemCoreClock / (1000U / uwTickFreq)) > 0U)
 80016c4:	4b0e      	ldr	r3, [pc, #56]	; (8001700 <HAL_InitTick+0x40>)
 80016c6:	7818      	ldrb	r0, [r3, #0]
 80016c8:	f44f 737a 	mov.w	r3, #1000	; 0x3e8
 80016cc:	fbb3 f3f0 	udiv	r3, r3, r0
 80016d0:	4a0c      	ldr	r2, [pc, #48]	; (8001704 <HAL_InitTick+0x44>)
 80016d2:	6810      	ldr	r0, [r2, #0]
 80016d4:	fbb0 f0f3 	udiv	r0, r0, r3
 80016d8:	f7ff ffde 	bl	8001698 <HAL_SYSTICK_Config>
 80016dc:	b968      	cbnz	r0, 80016fa <HAL_InitTick+0x3a>
  {
    return HAL_ERROR;
  }

  /* Configure the SysTick IRQ priority */
  if (TickPriority < (1UL << __NVIC_PRIO_BITS))
 80016de:	2c0f      	cmp	r4, #15
 80016e0:	d901      	bls.n	80016e6 <HAL_InitTick+0x26>
    HAL_NVIC_SetPriority(SysTick_IRQn, TickPriority, 0U);
    uwTickPrio = TickPriority;
  }
  else
  {
    return HAL_ERROR;
 80016e2:	2001      	movs	r0, #1
 80016e4:	e00a      	b.n	80016fc <HAL_InitTick+0x3c>
    HAL_NVIC_SetPriority(SysTick_IRQn, TickPriority, 0U);
 80016e6:	2200      	movs	r2, #0
 80016e8:	4621      	mov	r1, r4
 80016ea:	f04f 30ff 	mov.w	r0, #4294967295
 80016ee:	f7ff ff75 	bl	80015dc <HAL_NVIC_SetPriority>
    uwTickPrio = TickPriority;
 80016f2:	4b05      	ldr	r3, [pc, #20]	; (8001708 <HAL_InitTick+0x48>)
 80016f4:	601c      	str	r4, [r3, #0]
  }

  /* Return function status */
  return HAL_OK;
 80016f6:	2000      	movs	r0, #0
 80016f8:	e000      	b.n	80016fc <HAL_InitTick+0x3c>
    return HAL_ERROR;
 80016fa:	2001      	movs	r0, #1
}
 80016fc:	bd10      	pop	{r4, pc}
 80016fe:	bf00      	nop
 8001700:	20000000 	andcs	r0, r0, r0
 8001704:	20000008 	andcs	r0, r0, r8
 8001708:	20000004 	andcs	r0, r0, r4

0800170c <HAL_Init>:
{
 800170c:	b508      	push	{r3, lr}
  __HAL_FLASH_INSTRUCTION_CACHE_ENABLE();
 800170e:	4b0b      	ldr	r3, [pc, #44]	; (800173c <HAL_Init+0x30>)
 8001710:	681a      	ldr	r2, [r3, #0]
 8001712:	f442 7200 	orr.w	r2, r2, #512	; 0x200
 8001716:	601a      	str	r2, [r3, #0]
  __HAL_FLASH_DATA_CACHE_ENABLE();
 8001718:	681a      	ldr	r2, [r3, #0]
 800171a:	f442 6280 	orr.w	r2, r2, #1024	; 0x400
 800171e:	601a      	str	r2, [r3, #0]
  __HAL_FLASH_PREFETCH_BUFFER_ENABLE();
 8001720:	681a      	ldr	r2, [r3, #0]
 8001722:	f442 7280 	orr.w	r2, r2, #256	; 0x100
 8001726:	601a      	str	r2, [r3, #0]
  HAL_NVIC_SetPriorityGrouping(NVIC_PRIORITYGROUP_4);
 8001728:	2003      	movs	r0, #3
 800172a:	f7ff ff39 	bl	80015a0 <HAL_NVIC_SetPriorityGrouping>
  HAL_InitTick(TICK_INT_PRIORITY);
 800172e:	200f      	movs	r0, #15
 8001730:	f7ff ffc6 	bl	80016c0 <HAL_InitTick>
  HAL_MspInit();
 8001734:	f7ff f8f6 	bl	8000924 <HAL_MspInit>
}
 8001738:	2000      	movs	r0, #0
 800173a:	bd08      	pop	{r3, pc}
 800173c:	40023c00 	andmi	r3, r2, r0, lsl #24

08001740 <HAL_IncTick>:
  *      implementations in user file.
  * @retval None
  */
__weak void HAL_IncTick(void)
{
  uwTick += uwTickFreq;
 8001740:	4a03      	ldr	r2, [pc, #12]	; (8001750 <HAL_IncTick+0x10>)
 8001742:	6811      	ldr	r1, [r2, #0]
 8001744:	4b03      	ldr	r3, [pc, #12]	; (8001754 <HAL_IncTick+0x14>)
 8001746:	781b      	ldrb	r3, [r3, #0]
 8001748:	440b      	add	r3, r1
 800174a:	6013      	str	r3, [r2, #0]
}
 800174c:	4770      	bx	lr
 800174e:	bf00      	nop
 8001750:	200000d8 	ldrdcs	r0, [r0], -r8
 8001754:	20000000 	andcs	r0, r0, r0

08001758 <HAL_GetTick>:
  *       implementations in user file.
  * @retval tick value
  */
__weak uint32_t HAL_GetTick(void)
{
  return uwTick;
 8001758:	4b01      	ldr	r3, [pc, #4]	; (8001760 <HAL_GetTick+0x8>)
 800175a:	6818      	ldr	r0, [r3, #0]
}
 800175c:	4770      	bx	lr
 800175e:	bf00      	nop
 8001760:	200000d8 	ldrdcs	r0, [r0], -r8

08001764 <HAL_Delay>:
  *       implementations in user file.
  * @param Delay specifies the delay time length, in milliseconds.
  * @retval None
  */
__weak void HAL_Delay(uint32_t Delay)
{
 8001764:	b538      	push	{r3, r4, r5, lr}
 8001766:	4604      	mov	r4, r0
  uint32_t tickstart = HAL_GetTick();
 8001768:	f7ff fff6 	bl	8001758 <HAL_GetTick>
 800176c:	4605      	mov	r5, r0
  uint32_t wait = Delay;

  /* Add a freq to guarantee minimum wait */
  if (wait < HAL_MAX_DELAY)
 800176e:	f1b4 3fff 	cmp.w	r4, #4294967295
 8001772:	d002      	beq.n	800177a <HAL_Delay+0x16>
  {
    wait += (uint32_t)(uwTickFreq);
 8001774:	4b04      	ldr	r3, [pc, #16]	; (8001788 <HAL_Delay+0x24>)
 8001776:	781b      	ldrb	r3, [r3, #0]
 8001778:	441c      	add	r4, r3
  }

  while((HAL_GetTick() - tickstart) < wait)
 800177a:	f7ff ffed 	bl	8001758 <HAL_GetTick>
 800177e:	1b40      	subs	r0, r0, r5
 8001780:	42a0      	cmp	r0, r4
 8001782:	d3fa      	bcc.n	800177a <HAL_Delay+0x16>
  {
  }
}
 8001784:	bd38      	pop	{r3, r4, r5, pc}
 8001786:	bf00      	nop
 8001788:	20000000 	andcs	r0, r0, r0

0800178c <SystemInit>:
  */
void SystemInit(void)
{
  /* FPU settings ------------------------------------------------------------*/
  #if (__FPU_PRESENT == 1) && (__FPU_USED == 1)
    SCB->CPACR |= ((3UL << 10*2)|(3UL << 11*2));  /* set CP10 and CP11 Full Access */
 800178c:	4a03      	ldr	r2, [pc, #12]	; (800179c <SystemInit+0x10>)
 800178e:	f8d2 3088 	ldr.w	r3, [r2, #136]	; 0x88
 8001792:	f443 0370 	orr.w	r3, r3, #15728640	; 0xf00000
 8001796:	f8c2 3088 	str.w	r3, [r2, #136]	; 0x88

  /* Configure the Vector Table location -------------------------------------*/
#if defined(USER_VECT_TAB_ADDRESS)
  SCB->VTOR = VECT_TAB_BASE_ADDRESS | VECT_TAB_OFFSET; /* Vector Table Relocation in Internal SRAM */
#endif /* USER_VECT_TAB_ADDRESS */
}
 800179a:	4770      	bx	lr
 800179c:	e000ed00 	and	lr, r0, r0, lsl #26

080017a0 <fault_dump_opcode>:
    FD_CODE_TEXT_BASE,  FD_CODE_TEXT_ENDS,  FD_CODE_TEXT_SIZE );
    printf("Code Stack Growth Downward:%d\r\n", 
    FD_STACK_GROWTH_DOWNWARD);
}

static unsigned int fault_dump_opcode(unsigned int pc) {
 80017a0:	b082      	sub	sp, #8
    uint16_t value[2] = {0};
 80017a2:	2300      	movs	r3, #0
 80017a4:	9301      	str	r3, [sp, #4]
    unsigned int opcode = 0;
    for (int i = 0; i < (sizeof(value) / sizeof(uint16_t)); i++) {
 80017a6:	e007      	b.n	80017b8 <fault_dump_opcode+0x18>
        value[i] = *(uint16_t*)(pc + i * sizeof(uint16_t));
 80017a8:	f830 1013 	ldrh.w	r1, [r0, r3, lsl #1]
 80017ac:	aa02      	add	r2, sp, #8
 80017ae:	eb02 0243 	add.w	r2, r2, r3, lsl #1
 80017b2:	f822 1c04 	strh.w	r1, [r2, #-4]
    for (int i = 0; i < (sizeof(value) / sizeof(uint16_t)); i++) {
 80017b6:	3301      	adds	r3, #1
 80017b8:	2b01      	cmp	r3, #1
 80017ba:	d9f5      	bls.n	80017a8 <fault_dump_opcode+0x8>
    }
    opcode = ((unsigned int)value[1] << 0x10) |
 80017bc:	f8bd 0006 	ldrh.w	r0, [sp, #6]
             ((unsigned int)value[0] << 0x00);
 80017c0:	f8bd 3004 	ldrh.w	r3, [sp, #4]
    return opcode;
}
 80017c4:	ea43 4000 	orr.w	r0, r3, r0, lsl #16
 80017c8:	b002      	add	sp, #8
 80017ca:	4770      	bx	lr

080017cc <opcode_is_bl_or_blx>:

static bool opcode_is_bl_or_blx(unsigned int ins) {
#define FD_BL_OPCODE_MASK   (0xF800)
#define FD_BL_OPCODE_BL     (0xF000)
#define FD_BL_OPCODE_BLX    (0xF800)
    uint16_t opcode1 = (((ins >> 0x00) & 0xFFFF) & FD_BL_OPCODE_MASK);
 80017cc:	f400 4378 	and.w	r3, r0, #63488	; 0xf800
    uint16_t opcode2 = (((ins >> 0x10) & 0xFFFF) & FD_BL_OPCODE_MASK);
 80017d0:	0c00      	lsrs	r0, r0, #16
 80017d2:	f400 4078 	and.w	r0, r0, #63488	; 0xf800
    if ((opcode1 == FD_BL_OPCODE_BL) || (opcode1 == FD_BL_OPCODE_BLX)) {
 80017d6:	f5b3 4f70 	cmp.w	r3, #61440	; 0xf000
 80017da:	d00a      	beq.n	80017f2 <opcode_is_bl_or_blx+0x26>
 80017dc:	f5b3 4f78 	cmp.w	r3, #63488	; 0xf800
 80017e0:	d009      	beq.n	80017f6 <opcode_is_bl_or_blx+0x2a>
        return true;
    }
    if ((opcode2 == FD_BL_OPCODE_BL) || (opcode2 == FD_BL_OPCODE_BLX)) {
 80017e2:	f5b0 4f70 	cmp.w	r0, #61440	; 0xf000
 80017e6:	d008      	beq.n	80017fa <opcode_is_bl_or_blx+0x2e>
 80017e8:	f5b0 4f78 	cmp.w	r0, #63488	; 0xf800
 80017ec:	d007      	beq.n	80017fe <opcode_is_bl_or_blx+0x32>
        return true;
    }
    return false;
 80017ee:	2000      	movs	r0, #0
 80017f0:	4770      	bx	lr
        return true;
 80017f2:	2001      	movs	r0, #1
 80017f4:	4770      	bx	lr
 80017f6:	2001      	movs	r0, #1
 80017f8:	4770      	bx	lr
        return true;
 80017fa:	2001      	movs	r0, #1
 80017fc:	4770      	bx	lr
 80017fe:	2001      	movs	r0, #1
}
 8001800:	4770      	bx	lr
	...

08001804 <dump_exc_return>:

static void dump_exc_return(unsigned int exc_return) {
 8001804:	b510      	push	{r4, lr}
 8001806:	4604      	mov	r4, r0
    printf(" EXE_RETURN: 0x%08X \r\n", exc_return);
 8001808:	4601      	mov	r1, r0
 800180a:	4803      	ldr	r0, [pc, #12]	; (8001818 <dump_exc_return+0x14>)
 800180c:	f000 f9ce 	bl	8001bac <iprintf>
#if FD_DUMP_EXC_RETURN_VALUE
    extern void fault_dump_exc_return(unsigned int exc_return);
    fault_dump_exc_return(exc_return);
 8001810:	4620      	mov	r0, r4
 8001812:	f000 f92b 	bl	8001a6c <fault_dump_exc_return>
#endif
}
 8001816:	bd10      	pop	{r4, pc}
 8001818:	08002d5c 	stmdaeq	r0, {r2, r3, r4, r6, r8, sl, fp, sp}

0800181c <fault_dump_init>:
void fault_dump_init(void) {
 800181c:	b508      	push	{r3, lr}
    fd_main_stack_base = FD_CODE_STACK_BASE;
 800181e:	490a      	ldr	r1, [pc, #40]	; (8001848 <fault_dump_init+0x2c>)
 8001820:	4b0a      	ldr	r3, [pc, #40]	; (800184c <fault_dump_init+0x30>)
 8001822:	6019      	str	r1, [r3, #0]
    fd_main_stack_full = FD_CODE_STACK_FULL;
 8001824:	4a0a      	ldr	r2, [pc, #40]	; (8001850 <fault_dump_init+0x34>)
 8001826:	4b0b      	ldr	r3, [pc, #44]	; (8001854 <fault_dump_init+0x38>)
 8001828:	601a      	str	r2, [r3, #0]
    printf("Code Stack:[%08X - %08X], size:%d\r\n",
 800182a:	1a53      	subs	r3, r2, r1
 800182c:	480a      	ldr	r0, [pc, #40]	; (8001858 <fault_dump_init+0x3c>)
 800182e:	f000 f9bd 	bl	8001bac <iprintf>
    printf("Code Text :[%08X - %08X], size:%d\r\n",
 8001832:	490a      	ldr	r1, [pc, #40]	; (800185c <fault_dump_init+0x40>)
 8001834:	4a0a      	ldr	r2, [pc, #40]	; (8001860 <fault_dump_init+0x44>)
 8001836:	1a53      	subs	r3, r2, r1
 8001838:	480a      	ldr	r0, [pc, #40]	; (8001864 <fault_dump_init+0x48>)
 800183a:	f000 f9b7 	bl	8001bac <iprintf>
    printf("Code Stack Growth Downward:%d\r\n", 
 800183e:	2101      	movs	r1, #1
 8001840:	4809      	ldr	r0, [pc, #36]	; (8001868 <fault_dump_init+0x4c>)
 8001842:	f000 f9b3 	bl	8001bac <iprintf>
}
 8001846:	bd08      	pop	{r3, pc}
 8001848:	20000a38 	andcs	r0, r0, r8, lsr sl
 800184c:	200001dc 	ldrdcs	r0, [r0], -ip
 8001850:	20001238 	andcs	r1, r0, r8, lsr r2
 8001854:	200001e0 	andcs	r0, r0, r0, ror #3
 8001858:	08002d74 	stmdaeq	r0, {r2, r4, r5, r6, r8, sl, fp, sp}
 800185c:	08000190 	stmdaeq	r0, {r4, r7, r8}
 8001860:	08002bcc 	stmdaeq	r0, {r2, r3, r6, r7, r8, r9, fp, sp}
 8001864:	08002d98 	stmdaeq	r0, {r3, r4, r7, r8, sl, fp, sp}
 8001868:	08002dbc 	stmdaeq	r0, {r2, r3, r4, r5, r7, r8, sl, fp, sp}

0800186c <fault_dump_callstack>:
    }
    printf("\r\n");
    while (1);
}

int fault_dump_callstack(unsigned int *buffer, size_t size, unsigned int *stack_point, unsigned int *stack_start) {
 800186c:	e92d 43f8 	stmdb	sp!, {r3, r4, r5, r6, r7, r8, r9, lr}
    int count = 0;
    unsigned int pc = 0, op = 0, *sp = NULL;
    if ((buffer == NULL) || (size <= 0)) {
 8001870:	b348      	cbz	r0, 80018c6 <fault_dump_callstack+0x5a>
 8001872:	460f      	mov	r7, r1
 8001874:	4614      	mov	r4, r2
 8001876:	461d      	mov	r5, r3
 8001878:	4680      	mov	r8, r0
 800187a:	b339      	cbz	r1, 80018cc <fault_dump_callstack+0x60>
        return -FD_EEMPTY;
    }
    FD_STACK_CHECKIT(stack_point, stack_start) {
 800187c:	b34a      	cbz	r2, 80018d2 <fault_dump_callstack+0x66>
 800187e:	429a      	cmp	r2, r3
 8001880:	d82a      	bhi.n	80018d8 <fault_dump_callstack+0x6c>
    int count = 0;
 8001882:	2600      	movs	r6, #0
 8001884:	e000      	b.n	8001888 <fault_dump_callstack+0x1c>
        return -FD_EINVAL;
    }
    FD_STACK_FOREACH(stack_point, stack_start) {
 8001886:	3404      	adds	r4, #4
 8001888:	b1d4      	cbz	r4, 80018c0 <fault_dump_callstack+0x54>
 800188a:	42ac      	cmp	r4, r5
 800188c:	d818      	bhi.n	80018c0 <fault_dump_callstack+0x54>
        // Read stack[x] value to pc.
        pc = *(unsigned int *)sp;
 800188e:	6822      	ldr	r2, [r4, #0]
        // PC must be in the code segment.
        if ((pc < FD_CODE_TEXT_BASE) || (pc > FD_CODE_TEXT_ENDS)) {
 8001890:	4813      	ldr	r0, [pc, #76]	; (80018e0 <fault_dump_callstack+0x74>)
 8001892:	4290      	cmp	r0, r2
 8001894:	d8f7      	bhi.n	8001886 <fault_dump_callstack+0x1a>
 8001896:	4b13      	ldr	r3, [pc, #76]	; (80018e4 <fault_dump_callstack+0x78>)
 8001898:	4293      	cmp	r3, r2
 800189a:	d3f4      	bcc.n	8001886 <fault_dump_callstack+0x1a>
            continue;
        }
        // The thumb instruction must be an odd number.
        if ((pc % 2) == 0) {
 800189c:	f012 0f01 	tst.w	r2, #1
 80018a0:	d0f1      	beq.n	8001886 <fault_dump_callstack+0x1a>
            continue;
        }
        // Fix thumb instruction set.
        pc = pc - 1;
        // Calculate the address of the instruction being executed before pushing on the stack.
        pc = pc - sizeof(unsigned int);
 80018a2:	f1a2 0905 	sub.w	r9, r2, #5
        // The thumb instruction is at least 2-byte aligned.
        if ((pc & 0x1) != 0) {
 80018a6:	d0ee      	beq.n	8001886 <fault_dump_callstack+0x1a>
            continue;
        }
        // Read the instruction at the PC address.
        op = fault_dump_opcode(pc);
 80018a8:	4648      	mov	r0, r9
 80018aa:	f7ff ff79 	bl	80017a0 <fault_dump_opcode>
        // Only BL or BLX opcode need to be recorded.
        if (!opcode_is_bl_or_blx(op)) {
 80018ae:	f7ff ff8d 	bl	80017cc <opcode_is_bl_or_blx>
 80018b2:	2800      	cmp	r0, #0
 80018b4:	d0e7      	beq.n	8001886 <fault_dump_callstack+0x1a>
            continue;
        }
        // storage this address.
        buffer[count] = pc;
 80018b6:	f848 9026 	str.w	r9, [r8, r6, lsl #2]
        count = count + 1;
 80018ba:	3601      	adds	r6, #1
        if (count >= size) {
 80018bc:	42be      	cmp	r6, r7
 80018be:	d3e2      	bcc.n	8001886 <fault_dump_callstack+0x1a>
            break;
        }
    }
    return count;
}
 80018c0:	4630      	mov	r0, r6
 80018c2:	e8bd 83f8 	ldmia.w	sp!, {r3, r4, r5, r6, r7, r8, r9, pc}
        return -FD_EEMPTY;
 80018c6:	f06f 0601 	mvn.w	r6, #1
 80018ca:	e7f9      	b.n	80018c0 <fault_dump_callstack+0x54>
 80018cc:	f06f 0601 	mvn.w	r6, #1
 80018d0:	e7f6      	b.n	80018c0 <fault_dump_callstack+0x54>
        return -FD_EINVAL;
 80018d2:	f06f 0602 	mvn.w	r6, #2
 80018d6:	e7f3      	b.n	80018c0 <fault_dump_callstack+0x54>
 80018d8:	f06f 0602 	mvn.w	r6, #2
 80018dc:	e7f0      	b.n	80018c0 <fault_dump_callstack+0x54>
 80018de:	bf00      	nop
 80018e0:	08000190 	stmdaeq	r0, {r4, r7, r8}
 80018e4:	08002bcc 	stmdaeq	r0, {r2, r3, r6, r7, r8, r9, fp, sp}

080018e8 <fault_dump_handler>:
void fault_dump_handler(unsigned int *stack, unsigned int linker) {
 80018e8:	b5f8      	push	{r3, r4, r5, r6, r7, lr}
 80018ea:	4605      	mov	r5, r0
 80018ec:	460e      	mov	r6, r1
    frame.manual.r4  = FD_STACK_READVAL(point);
 80018ee:	6803      	ldr	r3, [r0, #0]
 80018f0:	4c46      	ldr	r4, [pc, #280]	; (8001a0c <fault_dump_handler+0x124>)
 80018f2:	6023      	str	r3, [r4, #0]
    frame.manual.r5  = FD_STACK_READVAL(point);
 80018f4:	6843      	ldr	r3, [r0, #4]
 80018f6:	6063      	str	r3, [r4, #4]
    frame.manual.r6  = FD_STACK_READVAL(point);
 80018f8:	6883      	ldr	r3, [r0, #8]
 80018fa:	60a3      	str	r3, [r4, #8]
    frame.manual.r7  = FD_STACK_READVAL(point);
 80018fc:	68c3      	ldr	r3, [r0, #12]
 80018fe:	60e3      	str	r3, [r4, #12]
    frame.manual.r8  = FD_STACK_READVAL(point);
 8001900:	6903      	ldr	r3, [r0, #16]
 8001902:	6123      	str	r3, [r4, #16]
    frame.manual.r9  = FD_STACK_READVAL(point);
 8001904:	6943      	ldr	r3, [r0, #20]
 8001906:	6163      	str	r3, [r4, #20]
    frame.manual.r10 = FD_STACK_READVAL(point);
 8001908:	6983      	ldr	r3, [r0, #24]
 800190a:	61a3      	str	r3, [r4, #24]
    frame.manual.r11 = FD_STACK_READVAL(point);
 800190c:	69c3      	ldr	r3, [r0, #28]
 800190e:	61e3      	str	r3, [r4, #28]
    frame.except.r0  = FD_STACK_READVAL(point);
 8001910:	6a03      	ldr	r3, [r0, #32]
 8001912:	6223      	str	r3, [r4, #32]
    frame.except.r1  = FD_STACK_READVAL(point);
 8001914:	6a43      	ldr	r3, [r0, #36]	; 0x24
 8001916:	6263      	str	r3, [r4, #36]	; 0x24
    frame.except.r2  = FD_STACK_READVAL(point);
 8001918:	6a83      	ldr	r3, [r0, #40]	; 0x28
 800191a:	62a3      	str	r3, [r4, #40]	; 0x28
    frame.except.r3  = FD_STACK_READVAL(point);
 800191c:	6ac3      	ldr	r3, [r0, #44]	; 0x2c
 800191e:	62e3      	str	r3, [r4, #44]	; 0x2c
    frame.except.r12 = FD_STACK_READVAL(point);
 8001920:	6b03      	ldr	r3, [r0, #48]	; 0x30
 8001922:	6323      	str	r3, [r4, #48]	; 0x30
    frame.except.lr  = FD_STACK_READVAL(point);
 8001924:	6b43      	ldr	r3, [r0, #52]	; 0x34
 8001926:	6363      	str	r3, [r4, #52]	; 0x34
    frame.except.pc  = FD_STACK_READVAL(point);
 8001928:	6b83      	ldr	r3, [r0, #56]	; 0x38
 800192a:	63a3      	str	r3, [r4, #56]	; 0x38
    frame.except.psr = FD_STACK_READVAL(point);
 800192c:	6bc3      	ldr	r3, [r0, #60]	; 0x3c
 800192e:	63e3      	str	r3, [r4, #60]	; 0x3c
    printf("\r\n");
 8001930:	4f37      	ldr	r7, [pc, #220]	; (8001a10 <fault_dump_handler+0x128>)
 8001932:	4638      	mov	r0, r7
 8001934:	f000 f9c0 	bl	8001cb8 <puts>
    printf(" HardFault Information Dump \r\n");
 8001938:	4836      	ldr	r0, [pc, #216]	; (8001a14 <fault_dump_handler+0x12c>)
 800193a:	f000 f9bd 	bl	8001cb8 <puts>
    printf(" Stack Frame   \r\n");
 800193e:	4836      	ldr	r0, [pc, #216]	; (8001a18 <fault_dump_handler+0x130>)
 8001940:	f000 f9ba 	bl	8001cb8 <puts>
    printf(" R0   = 0x%08X \r\n", (unsigned int)frame.except.r0);
 8001944:	6a21      	ldr	r1, [r4, #32]
 8001946:	4835      	ldr	r0, [pc, #212]	; (8001a1c <fault_dump_handler+0x134>)
 8001948:	f000 f930 	bl	8001bac <iprintf>
    printf(" R1   = 0x%08X \r\n", (unsigned int)frame.except.r1);
 800194c:	6a61      	ldr	r1, [r4, #36]	; 0x24
 800194e:	4834      	ldr	r0, [pc, #208]	; (8001a20 <fault_dump_handler+0x138>)
 8001950:	f000 f92c 	bl	8001bac <iprintf>
    printf(" R2   = 0x%08X \r\n", (unsigned int)frame.except.r2);
 8001954:	6aa1      	ldr	r1, [r4, #40]	; 0x28
 8001956:	4833      	ldr	r0, [pc, #204]	; (8001a24 <fault_dump_handler+0x13c>)
 8001958:	f000 f928 	bl	8001bac <iprintf>
    printf(" R3   = 0x%08X \r\n", (unsigned int)frame.except.r3);
 800195c:	6ae1      	ldr	r1, [r4, #44]	; 0x2c
 800195e:	4832      	ldr	r0, [pc, #200]	; (8001a28 <fault_dump_handler+0x140>)
 8001960:	f000 f924 	bl	8001bac <iprintf>
    printf(" R4   = 0x%08X \r\n", (unsigned int)frame.manual.r4);
 8001964:	6821      	ldr	r1, [r4, #0]
 8001966:	4831      	ldr	r0, [pc, #196]	; (8001a2c <fault_dump_handler+0x144>)
 8001968:	f000 f920 	bl	8001bac <iprintf>
    printf(" R5   = 0x%08X \r\n", (unsigned int)frame.manual.r5);
 800196c:	6861      	ldr	r1, [r4, #4]
 800196e:	4830      	ldr	r0, [pc, #192]	; (8001a30 <fault_dump_handler+0x148>)
 8001970:	f000 f91c 	bl	8001bac <iprintf>
    printf(" R6   = 0x%08X \r\n", (unsigned int)frame.manual.r6);
 8001974:	68a1      	ldr	r1, [r4, #8]
 8001976:	482f      	ldr	r0, [pc, #188]	; (8001a34 <fault_dump_handler+0x14c>)
 8001978:	f000 f918 	bl	8001bac <iprintf>
    printf(" R7   = 0x%08X \r\n", (unsigned int)frame.manual.r7);
 800197c:	68e1      	ldr	r1, [r4, #12]
 800197e:	482e      	ldr	r0, [pc, #184]	; (8001a38 <fault_dump_handler+0x150>)
 8001980:	f000 f914 	bl	8001bac <iprintf>
    printf(" R8   = 0x%08X \r\n", (unsigned int)frame.manual.r8);
 8001984:	6921      	ldr	r1, [r4, #16]
 8001986:	482d      	ldr	r0, [pc, #180]	; (8001a3c <fault_dump_handler+0x154>)
 8001988:	f000 f910 	bl	8001bac <iprintf>
    printf(" R9   = 0x%08X \r\n", (unsigned int)frame.manual.r9);
 800198c:	6961      	ldr	r1, [r4, #20]
 800198e:	482c      	ldr	r0, [pc, #176]	; (8001a40 <fault_dump_handler+0x158>)
 8001990:	f000 f90c 	bl	8001bac <iprintf>
    printf(" R10  = 0x%08X \r\n", (unsigned int)frame.manual.r10);
 8001994:	69a1      	ldr	r1, [r4, #24]
 8001996:	482b      	ldr	r0, [pc, #172]	; (8001a44 <fault_dump_handler+0x15c>)
 8001998:	f000 f908 	bl	8001bac <iprintf>
    printf(" R11  = 0x%08X \r\n", (unsigned int)frame.manual.r11);
 800199c:	69e1      	ldr	r1, [r4, #28]
 800199e:	482a      	ldr	r0, [pc, #168]	; (8001a48 <fault_dump_handler+0x160>)
 80019a0:	f000 f904 	bl	8001bac <iprintf>
    printf(" R12  = 0x%08X \r\n", (unsigned int)frame.except.r12);
 80019a4:	6b21      	ldr	r1, [r4, #48]	; 0x30
 80019a6:	4829      	ldr	r0, [pc, #164]	; (8001a4c <fault_dump_handler+0x164>)
 80019a8:	f000 f900 	bl	8001bac <iprintf>
    printf(" LR   = 0x%08X \r\n", (unsigned int)frame.except.lr);
 80019ac:	6b61      	ldr	r1, [r4, #52]	; 0x34
 80019ae:	4828      	ldr	r0, [pc, #160]	; (8001a50 <fault_dump_handler+0x168>)
 80019b0:	f000 f8fc 	bl	8001bac <iprintf>
    printf(" PC   = 0x%08X \r\n", (unsigned int)frame.except.pc);
 80019b4:	6ba1      	ldr	r1, [r4, #56]	; 0x38
 80019b6:	4827      	ldr	r0, [pc, #156]	; (8001a54 <fault_dump_handler+0x16c>)
 80019b8:	f000 f8f8 	bl	8001bac <iprintf>
    printf(" PSR  = 0x%08X \r\n", (unsigned int)frame.except.psr);
 80019bc:	6be1      	ldr	r1, [r4, #60]	; 0x3c
 80019be:	4826      	ldr	r0, [pc, #152]	; (8001a58 <fault_dump_handler+0x170>)
 80019c0:	f000 f8f4 	bl	8001bac <iprintf>
    printf("\r\n");
 80019c4:	4638      	mov	r0, r7
 80019c6:	f000 f977 	bl	8001cb8 <puts>
    dump_exc_return(linker);
 80019ca:	4630      	mov	r0, r6
 80019cc:	f7ff ff1a 	bl	8001804 <dump_exc_return>
    count = fault_dump_callstack(buffer, FD_STACK_DUMP_DEPTH_MAX, 
 80019d0:	4b22      	ldr	r3, [pc, #136]	; (8001a5c <fault_dump_handler+0x174>)
 80019d2:	f105 0240 	add.w	r2, r5, #64	; 0x40
 80019d6:	2140      	movs	r1, #64	; 0x40
 80019d8:	4821      	ldr	r0, [pc, #132]	; (8001a60 <fault_dump_handler+0x178>)
 80019da:	f7ff ff47 	bl	800186c <fault_dump_callstack>
 80019de:	4605      	mov	r5, r0
    printf(" Stack Call: ");
 80019e0:	4820      	ldr	r0, [pc, #128]	; (8001a64 <fault_dump_handler+0x17c>)
 80019e2:	f000 f8e3 	bl	8001bac <iprintf>
    printf("%08X ", (unsigned int)frame.except.pc);
 80019e6:	6ba1      	ldr	r1, [r4, #56]	; 0x38
 80019e8:	481f      	ldr	r0, [pc, #124]	; (8001a68 <fault_dump_handler+0x180>)
 80019ea:	f000 f8df 	bl	8001bac <iprintf>
    for (index = 0; index < count; index++) {
 80019ee:	2400      	movs	r4, #0
 80019f0:	e006      	b.n	8001a00 <fault_dump_handler+0x118>
        printf("%08X ", buffer[index]);
 80019f2:	4b1b      	ldr	r3, [pc, #108]	; (8001a60 <fault_dump_handler+0x178>)
 80019f4:	f853 1024 	ldr.w	r1, [r3, r4, lsl #2]
 80019f8:	481b      	ldr	r0, [pc, #108]	; (8001a68 <fault_dump_handler+0x180>)
 80019fa:	f000 f8d7 	bl	8001bac <iprintf>
    for (index = 0; index < count; index++) {
 80019fe:	3401      	adds	r4, #1
 8001a00:	42ac      	cmp	r4, r5
 8001a02:	dbf6      	blt.n	80019f2 <fault_dump_handler+0x10a>
    printf("\r\n");
 8001a04:	4802      	ldr	r0, [pc, #8]	; (8001a10 <fault_dump_handler+0x128>)
 8001a06:	f000 f957 	bl	8001cb8 <puts>
    while (1);
 8001a0a:	e7fe      	b.n	8001a0a <fault_dump_handler+0x122>
 8001a0c:	200001e4 	andcs	r0, r0, r4, ror #3
 8001a10:	08002df8 	stmdaeq	r0, {r3, r4, r5, r6, r7, r8, sl, fp, sp}
 8001a14:	08002ddc 	stmdaeq	r0, {r2, r3, r4, r6, r7, r8, sl, fp, sp}
 8001a18:	08002dfc 	stmdaeq	r0, {r2, r3, r4, r5, r6, r7, r8, sl, fp, sp}
 8001a1c:	08002e10 	stmdaeq	r0, {r4, r9, sl, fp, sp}
 8001a20:	08002e24 	stmdaeq	r0, {r2, r5, r9, sl, fp, sp}
 8001a24:	08002e38 	stmdaeq	r0, {r3, r4, r5, r9, sl, fp, sp}
 8001a28:	08002e4c 	stmdaeq	r0, {r2, r3, r6, r9, sl, fp, sp}
 8001a2c:	08002e60 	stmdaeq	r0, {r5, r6, r9, sl, fp, sp}
 8001a30:	08002e74 	stmdaeq	r0, {r2, r4, r5, r6, r9, sl, fp, sp}
 8001a34:	08002e88 	stmdaeq	r0, {r3, r7, r9, sl, fp, sp}
 8001a38:	08002e9c 	stmdaeq	r0, {r2, r3, r4, r7, r9, sl, fp, sp}
 8001a3c:	08002eb0 	stmdaeq	r0, {r4, r5, r7, r9, sl, fp, sp}
 8001a40:	08002ec4 	stmdaeq	r0, {r2, r6, r7, r9, sl, fp, sp}
 8001a44:	08002ed8 	stmdaeq	r0, {r3, r4, r6, r7, r9, sl, fp, sp}
 8001a48:	08002eec 	stmdaeq	r0, {r2, r3, r5, r6, r7, r9, sl, fp, sp}
 8001a4c:	08002f00 	stmdaeq	r0, {r8, r9, sl, fp, sp}
 8001a50:	08002f14 	stmdaeq	r0, {r2, r4, r8, r9, sl, fp, sp}
 8001a54:	08002f28 	stmdaeq	r0, {r3, r5, r8, r9, sl, fp, sp}
 8001a58:	08002f3c 	stmdaeq	r0, {r2, r3, r4, r5, r8, r9, sl, fp, sp}
 8001a5c:	20001238 	andcs	r1, r0, r8, lsr r2
 8001a60:	200000dc 	ldrdcs	r0, [r0], -ip
 8001a64:	08002f50 	stmdaeq	r0, {r4, r6, r8, r9, sl, fp, sp}
 8001a68:	08002f60 	stmdaeq	r0, {r5, r6, r8, r9, sl, fp, sp}

08001a6c <fault_dump_exc_return>:
  *
  ******************************************************************************
  */
#include "fault-dump.h"

void fault_dump_exc_return(unsigned int exc_return) {
 8001a6c:	b510      	push	{r4, lr}
 8001a6e:	4604      	mov	r4, r0
    printf(" \r\n");
 8001a70:	4816      	ldr	r0, [pc, #88]	; (8001acc <fault_dump_exc_return+0x60>)
 8001a72:	f000 f921 	bl	8001cb8 <puts>
    printf(" Bit2 Return Stack Select: ");
 8001a76:	4816      	ldr	r0, [pc, #88]	; (8001ad0 <fault_dump_exc_return+0x64>)
 8001a78:	f000 f898 	bl	8001bac <iprintf>
    if (FD_CHECK_BIT(exc_return, 2)) {
 8001a7c:	f014 0f04 	tst.w	r4, #4
 8001a80:	d018      	beq.n	8001ab4 <fault_dump_exc_return+0x48>
        printf("[Use PSP               ].\r\n");
 8001a82:	4814      	ldr	r0, [pc, #80]	; (8001ad4 <fault_dump_exc_return+0x68>)
 8001a84:	f000 f918 	bl	8001cb8 <puts>
    } else {
        printf("[Use MSP               ].\r\n");
    }
    printf(" Bit3 Return Mode Select:  ");
 8001a88:	4813      	ldr	r0, [pc, #76]	; (8001ad8 <fault_dump_exc_return+0x6c>)
 8001a8a:	f000 f88f 	bl	8001bac <iprintf>
    if (FD_CHECK_BIT(exc_return, 3)) {
 8001a8e:	f014 0f08 	tst.w	r4, #8
 8001a92:	d013      	beq.n	8001abc <fault_dump_exc_return+0x50>
        printf("[Use Thread Mode       ].\r\n");
 8001a94:	4811      	ldr	r0, [pc, #68]	; (8001adc <fault_dump_exc_return+0x70>)
 8001a96:	f000 f90f 	bl	8001cb8 <puts>
    } else {
        printf("[Use Process Mode      ].\r\n");
    }
    printf(" Bit4 Stack Frame Type:    ");
 8001a9a:	4811      	ldr	r0, [pc, #68]	; (8001ae0 <fault_dump_exc_return+0x74>)
 8001a9c:	f000 f886 	bl	8001bac <iprintf>
    if (FD_CHECK_BIT(exc_return, 4)) {
 8001aa0:	f014 0f10 	tst.w	r4, #16
 8001aa4:	d00e      	beq.n	8001ac4 <fault_dump_exc_return+0x58>
        printf("[Use 8 World Frame     ].\r\n");
 8001aa6:	480f      	ldr	r0, [pc, #60]	; (8001ae4 <fault_dump_exc_return+0x78>)
 8001aa8:	f000 f906 	bl	8001cb8 <puts>
    } else {
        printf("[Use 26 World Frame    ].\r\n");
    }
    printf(" \r\n");
 8001aac:	4807      	ldr	r0, [pc, #28]	; (8001acc <fault_dump_exc_return+0x60>)
 8001aae:	f000 f903 	bl	8001cb8 <puts>
}
 8001ab2:	bd10      	pop	{r4, pc}
        printf("[Use MSP               ].\r\n");
 8001ab4:	480c      	ldr	r0, [pc, #48]	; (8001ae8 <fault_dump_exc_return+0x7c>)
 8001ab6:	f000 f8ff 	bl	8001cb8 <puts>
 8001aba:	e7e5      	b.n	8001a88 <fault_dump_exc_return+0x1c>
        printf("[Use Process Mode      ].\r\n");
 8001abc:	480b      	ldr	r0, [pc, #44]	; (8001aec <fault_dump_exc_return+0x80>)
 8001abe:	f000 f8fb 	bl	8001cb8 <puts>
 8001ac2:	e7ea      	b.n	8001a9a <fault_dump_exc_return+0x2e>
        printf("[Use 26 World Frame    ].\r\n");
 8001ac4:	480a      	ldr	r0, [pc, #40]	; (8001af0 <fault_dump_exc_return+0x84>)
 8001ac6:	f000 f8f7 	bl	8001cb8 <puts>
 8001aca:	e7ef      	b.n	8001aac <fault_dump_exc_return+0x40>
 8001acc:	08002f68 	stmdaeq	r0, {r3, r5, r6, r8, r9, sl, fp, sp}
 8001ad0:	08002f6c 	stmdaeq	r0, {r2, r3, r5, r6, r8, r9, sl, fp, sp}
 8001ad4:	08002f88 	stmdaeq	r0, {r3, r7, r8, r9, sl, fp, sp}
 8001ad8:	08002fc0 	stmdaeq	r0, {r6, r7, r8, r9, sl, fp, sp}
 8001adc:	08002fdc 	stmdaeq	r0, {r2, r3, r4, r6, r7, r8, r9, sl, fp, sp}
 8001ae0:	08003014 	stmdaeq	r0, {r2, r4, ip, sp}
 8001ae4:	08003030 	stmdaeq	r0, {r4, r5, ip, sp}
 8001ae8:	08002fa4 	stmdaeq	r0, {r2, r5, r7, r8, r9, sl, fp, sp}
 8001aec:	08002ff8 	stmdaeq	r0, {r3, r4, r5, r6, r7, r8, r9, sl, fp, sp}
 8001af0:	0800304c 	stmdaeq	r0, {r2, r3, r6, ip, sp}

08001af4 <Reset_Handler>:

    .section  .text.Reset_Handler
  .weak  Reset_Handler
  .type  Reset_Handler, %function
Reset_Handler:  
  ldr   sp, =_estack     /* set stack pointer */
 8001af4:	f8df d034 	ldr.w	sp, [pc, #52]	; 8001b2c <LoopFillZerobss+0xe>
  
/* Call the clock system initialization function.*/
  bl  SystemInit  
 8001af8:	f7ff fe48 	bl	800178c <SystemInit>

/* Copy the data segment initializers from flash to SRAM */  
  ldr r0, =_sdata
 8001afc:	480c      	ldr	r0, [pc, #48]	; (8001b30 <LoopFillZerobss+0x12>)
  ldr r1, =_edata
 8001afe:	490d      	ldr	r1, [pc, #52]	; (8001b34 <LoopFillZerobss+0x16>)
  ldr r2, =_sidata
 8001b00:	4a0d      	ldr	r2, [pc, #52]	; (8001b38 <LoopFillZerobss+0x1a>)
  movs r3, #0
 8001b02:	2300      	movs	r3, #0
  b LoopCopyDataInit
 8001b04:	e002      	b.n	8001b0c <LoopCopyDataInit>

08001b06 <CopyDataInit>:

CopyDataInit:
  ldr r4, [r2, r3]
 8001b06:	58d4      	ldr	r4, [r2, r3]
  str r4, [r0, r3]
 8001b08:	50c4      	str	r4, [r0, r3]
  adds r3, r3, #4
 8001b0a:	3304      	adds	r3, #4

08001b0c <LoopCopyDataInit>:

LoopCopyDataInit:
  adds r4, r0, r3
 8001b0c:	18c4      	adds	r4, r0, r3
  cmp r4, r1
 8001b0e:	428c      	cmp	r4, r1
  bcc CopyDataInit
 8001b10:	d3f9      	bcc.n	8001b06 <CopyDataInit>
  
/* Zero fill the bss segment. */
  ldr r2, =_sbss
 8001b12:	4a0a      	ldr	r2, [pc, #40]	; (8001b3c <LoopFillZerobss+0x1e>)
  ldr r4, =_ebss
 8001b14:	4c0a      	ldr	r4, [pc, #40]	; (8001b40 <LoopFillZerobss+0x22>)
  movs r3, #0
 8001b16:	2300      	movs	r3, #0
  b LoopFillZerobss
 8001b18:	e001      	b.n	8001b1e <LoopFillZerobss>

08001b1a <FillZerobss>:

FillZerobss:
  str  r3, [r2]
 8001b1a:	6013      	str	r3, [r2, #0]
  adds r2, r2, #4
 8001b1c:	3204      	adds	r2, #4

08001b1e <LoopFillZerobss>:

LoopFillZerobss:
  cmp r2, r4
 8001b1e:	42a2      	cmp	r2, r4
  bcc FillZerobss
 8001b20:	d3fb      	bcc.n	8001b1a <FillZerobss>
 
/* Call static constructors */
    bl __libc_init_array
 8001b22:	f000 f817 	bl	8001b54 <__libc_init_array>
/* Call the application's entry point.*/
  bl  main
 8001b26:	f7fe fe19 	bl	800075c <main>
  bx  lr    
 8001b2a:	4770      	bx	lr
  ldr   sp, =_estack     /* set stack pointer */
 8001b2c:	20001238 	andcs	r1, r0, r8, lsr r2
  ldr r0, =_sdata
 8001b30:	20000000 	andcs	r0, r0, r0
  ldr r1, =_edata
 8001b34:	20000070 	andcs	r0, r0, r0, ror r0
  ldr r2, =_sidata
 8001b38:	08003110 	stmdaeq	r0, {r4, r8, ip, sp}
  ldr r2, =_sbss
 8001b3c:	20000070 	andcs	r0, r0, r0, ror r0
  ldr r4, =_ebss
 8001b40:	20000234 	andcs	r0, r0, r4, lsr r2

08001b44 <ADC_IRQHandler>:
 * @retval None       
*/
    .section  .text.Default_Handler,"ax",%progbits
Default_Handler:
Infinite_Loop:
  b  Infinite_Loop
 8001b44:	e7fe      	b.n	8001b44 <ADC_IRQHandler>
	...

08001b48 <__errno>:
 8001b48:	4b01      	ldr	r3, [pc, #4]	; (8001b50 <__errno+0x8>)
 8001b4a:	6818      	ldr	r0, [r3, #0]
 8001b4c:	4770      	bx	lr
 8001b4e:	bf00      	nop
 8001b50:	2000000c 	andcs	r0, r0, ip

08001b54 <__libc_init_array>:
 8001b54:	b570      	push	{r4, r5, r6, lr}
 8001b56:	4d0d      	ldr	r5, [pc, #52]	; (8001b8c <__libc_init_array+0x38>)
 8001b58:	4c0d      	ldr	r4, [pc, #52]	; (8001b90 <__libc_init_array+0x3c>)
 8001b5a:	1b64      	subs	r4, r4, r5
 8001b5c:	10a4      	asrs	r4, r4, #2
 8001b5e:	2600      	movs	r6, #0
 8001b60:	42a6      	cmp	r6, r4
 8001b62:	d109      	bne.n	8001b78 <__libc_init_array+0x24>
 8001b64:	4d0b      	ldr	r5, [pc, #44]	; (8001b94 <__libc_init_array+0x40>)
 8001b66:	4c0c      	ldr	r4, [pc, #48]	; (8001b98 <__libc_init_array+0x44>)
 8001b68:	f001 f824 	bl	8002bb4 <_init>
 8001b6c:	1b64      	subs	r4, r4, r5
 8001b6e:	10a4      	asrs	r4, r4, #2
 8001b70:	2600      	movs	r6, #0
 8001b72:	42a6      	cmp	r6, r4
 8001b74:	d105      	bne.n	8001b82 <__libc_init_array+0x2e>
 8001b76:	bd70      	pop	{r4, r5, r6, pc}
 8001b78:	f855 3b04 	ldr.w	r3, [r5], #4
 8001b7c:	4798      	blx	r3
 8001b7e:	3601      	adds	r6, #1
 8001b80:	e7ee      	b.n	8001b60 <__libc_init_array+0xc>
 8001b82:	f855 3b04 	ldr.w	r3, [r5], #4
 8001b86:	4798      	blx	r3
 8001b88:	3601      	adds	r6, #1
 8001b8a:	e7f2      	b.n	8001b72 <__libc_init_array+0x1e>
 8001b8c:	08003108 	stmdaeq	r0, {r3, r8, ip, sp}
 8001b90:	08003108 	stmdaeq	r0, {r3, r8, ip, sp}
 8001b94:	08003108 	stmdaeq	r0, {r3, r8, ip, sp}
 8001b98:	0800310c 	stmdaeq	r0, {r2, r3, r8, ip, sp}

08001b9c <memset>:
 8001b9c:	4402      	add	r2, r0
 8001b9e:	4603      	mov	r3, r0
 8001ba0:	4293      	cmp	r3, r2
 8001ba2:	d100      	bne.n	8001ba6 <memset+0xa>
 8001ba4:	4770      	bx	lr
 8001ba6:	f803 1b01 	strb.w	r1, [r3], #1
 8001baa:	e7f9      	b.n	8001ba0 <memset+0x4>

08001bac <iprintf>:
 8001bac:	b40f      	push	{r0, r1, r2, r3}
 8001bae:	4b0a      	ldr	r3, [pc, #40]	; (8001bd8 <iprintf+0x2c>)
 8001bb0:	b513      	push	{r0, r1, r4, lr}
 8001bb2:	681c      	ldr	r4, [r3, #0]
 8001bb4:	b124      	cbz	r4, 8001bc0 <iprintf+0x14>
 8001bb6:	69a3      	ldr	r3, [r4, #24]
 8001bb8:	b913      	cbnz	r3, 8001bc0 <iprintf+0x14>
 8001bba:	4620      	mov	r0, r4
 8001bbc:	f000 fa5e 	bl	800207c <__sinit>
 8001bc0:	ab05      	add	r3, sp, #20
 8001bc2:	9a04      	ldr	r2, [sp, #16]
 8001bc4:	68a1      	ldr	r1, [r4, #8]
 8001bc6:	9301      	str	r3, [sp, #4]
 8001bc8:	4620      	mov	r0, r4
 8001bca:	f000 fc67 	bl	800249c <_vfiprintf_r>
 8001bce:	b002      	add	sp, #8
 8001bd0:	e8bd 4010 	ldmia.w	sp!, {r4, lr}
 8001bd4:	b004      	add	sp, #16
 8001bd6:	4770      	bx	lr
 8001bd8:	2000000c 	andcs	r0, r0, ip

08001bdc <_puts_r>:
 8001bdc:	b570      	push	{r4, r5, r6, lr}
 8001bde:	460e      	mov	r6, r1
 8001be0:	4605      	mov	r5, r0
 8001be2:	b118      	cbz	r0, 8001bec <_puts_r+0x10>
 8001be4:	6983      	ldr	r3, [r0, #24]
 8001be6:	b90b      	cbnz	r3, 8001bec <_puts_r+0x10>
 8001be8:	f000 fa48 	bl	800207c <__sinit>
 8001bec:	69ab      	ldr	r3, [r5, #24]
 8001bee:	68ac      	ldr	r4, [r5, #8]
 8001bf0:	b913      	cbnz	r3, 8001bf8 <_puts_r+0x1c>
 8001bf2:	4628      	mov	r0, r5
 8001bf4:	f000 fa42 	bl	800207c <__sinit>
 8001bf8:	4b2c      	ldr	r3, [pc, #176]	; (8001cac <_puts_r+0xd0>)
 8001bfa:	429c      	cmp	r4, r3
 8001bfc:	d120      	bne.n	8001c40 <_puts_r+0x64>
 8001bfe:	686c      	ldr	r4, [r5, #4]
 8001c00:	6e63      	ldr	r3, [r4, #100]	; 0x64
 8001c02:	07db      	lsls	r3, r3, #31
 8001c04:	d405      	bmi.n	8001c12 <_puts_r+0x36>
 8001c06:	89a3      	ldrh	r3, [r4, #12]
 8001c08:	0598      	lsls	r0, r3, #22
 8001c0a:	d402      	bmi.n	8001c12 <_puts_r+0x36>
 8001c0c:	6da0      	ldr	r0, [r4, #88]	; 0x58
 8001c0e:	f000 fad3 	bl	80021b8 <__retarget_lock_acquire_recursive>
 8001c12:	89a3      	ldrh	r3, [r4, #12]
 8001c14:	0719      	lsls	r1, r3, #28
 8001c16:	d51d      	bpl.n	8001c54 <_puts_r+0x78>
 8001c18:	6923      	ldr	r3, [r4, #16]
 8001c1a:	b1db      	cbz	r3, 8001c54 <_puts_r+0x78>
 8001c1c:	3e01      	subs	r6, #1
 8001c1e:	68a3      	ldr	r3, [r4, #8]
 8001c20:	f816 1f01 	ldrb.w	r1, [r6, #1]!
 8001c24:	3b01      	subs	r3, #1
 8001c26:	60a3      	str	r3, [r4, #8]
 8001c28:	bb39      	cbnz	r1, 8001c7a <_puts_r+0x9e>
 8001c2a:	2b00      	cmp	r3, #0
 8001c2c:	da38      	bge.n	8001ca0 <_puts_r+0xc4>
 8001c2e:	4622      	mov	r2, r4
 8001c30:	210a      	movs	r1, #10
 8001c32:	4628      	mov	r0, r5
 8001c34:	f000 f848 	bl	8001cc8 <__swbuf_r>
 8001c38:	3001      	adds	r0, #1
 8001c3a:	d011      	beq.n	8001c60 <_puts_r+0x84>
 8001c3c:	250a      	movs	r5, #10
 8001c3e:	e011      	b.n	8001c64 <_puts_r+0x88>
 8001c40:	4b1b      	ldr	r3, [pc, #108]	; (8001cb0 <_puts_r+0xd4>)
 8001c42:	429c      	cmp	r4, r3
 8001c44:	d101      	bne.n	8001c4a <_puts_r+0x6e>
 8001c46:	68ac      	ldr	r4, [r5, #8]
 8001c48:	e7da      	b.n	8001c00 <_puts_r+0x24>
 8001c4a:	4b1a      	ldr	r3, [pc, #104]	; (8001cb4 <_puts_r+0xd8>)
 8001c4c:	429c      	cmp	r4, r3
 8001c4e:	bf08      	it	eq
 8001c50:	68ec      	ldreq	r4, [r5, #12]
 8001c52:	e7d5      	b.n	8001c00 <_puts_r+0x24>
 8001c54:	4621      	mov	r1, r4
 8001c56:	4628      	mov	r0, r5
 8001c58:	f000 f888 	bl	8001d6c <__swsetup_r>
 8001c5c:	2800      	cmp	r0, #0
 8001c5e:	d0dd      	beq.n	8001c1c <_puts_r+0x40>
 8001c60:	f04f 35ff 	mov.w	r5, #4294967295
 8001c64:	6e63      	ldr	r3, [r4, #100]	; 0x64
 8001c66:	07da      	lsls	r2, r3, #31
 8001c68:	d405      	bmi.n	8001c76 <_puts_r+0x9a>
 8001c6a:	89a3      	ldrh	r3, [r4, #12]
 8001c6c:	059b      	lsls	r3, r3, #22
 8001c6e:	d402      	bmi.n	8001c76 <_puts_r+0x9a>
 8001c70:	6da0      	ldr	r0, [r4, #88]	; 0x58
 8001c72:	f000 faa2 	bl	80021ba <__retarget_lock_release_recursive>
 8001c76:	4628      	mov	r0, r5
 8001c78:	bd70      	pop	{r4, r5, r6, pc}
 8001c7a:	2b00      	cmp	r3, #0
 8001c7c:	da04      	bge.n	8001c88 <_puts_r+0xac>
 8001c7e:	69a2      	ldr	r2, [r4, #24]
 8001c80:	429a      	cmp	r2, r3
 8001c82:	dc06      	bgt.n	8001c92 <_puts_r+0xb6>
 8001c84:	290a      	cmp	r1, #10
 8001c86:	d004      	beq.n	8001c92 <_puts_r+0xb6>
 8001c88:	6823      	ldr	r3, [r4, #0]
 8001c8a:	1c5a      	adds	r2, r3, #1
 8001c8c:	6022      	str	r2, [r4, #0]
 8001c8e:	7019      	strb	r1, [r3, #0]
 8001c90:	e7c5      	b.n	8001c1e <_puts_r+0x42>
 8001c92:	4622      	mov	r2, r4
 8001c94:	4628      	mov	r0, r5
 8001c96:	f000 f817 	bl	8001cc8 <__swbuf_r>
 8001c9a:	3001      	adds	r0, #1
 8001c9c:	d1bf      	bne.n	8001c1e <_puts_r+0x42>
 8001c9e:	e7df      	b.n	8001c60 <_puts_r+0x84>
 8001ca0:	6823      	ldr	r3, [r4, #0]
 8001ca2:	250a      	movs	r5, #10
 8001ca4:	1c5a      	adds	r2, r3, #1
 8001ca6:	6022      	str	r2, [r4, #0]
 8001ca8:	701d      	strb	r5, [r3, #0]
 8001caa:	e7db      	b.n	8001c64 <_puts_r+0x88>
 8001cac:	0800308c 	stmdaeq	r0, {r2, r3, r7, ip, sp}
 8001cb0:	080030ac 	stmdaeq	r0, {r2, r3, r5, r7, ip, sp}
 8001cb4:	0800306c 	stmdaeq	r0, {r2, r3, r5, r6, ip, sp}

08001cb8 <puts>:
 8001cb8:	4b02      	ldr	r3, [pc, #8]	; (8001cc4 <puts+0xc>)
 8001cba:	4601      	mov	r1, r0
 8001cbc:	6818      	ldr	r0, [r3, #0]
 8001cbe:	f7ff bf8d 	b.w	8001bdc <_puts_r>
 8001cc2:	bf00      	nop
 8001cc4:	2000000c 	andcs	r0, r0, ip

08001cc8 <__swbuf_r>:
 8001cc8:	b5f8      	push	{r3, r4, r5, r6, r7, lr}
 8001cca:	460e      	mov	r6, r1
 8001ccc:	4614      	mov	r4, r2
 8001cce:	4605      	mov	r5, r0
 8001cd0:	b118      	cbz	r0, 8001cda <__swbuf_r+0x12>
 8001cd2:	6983      	ldr	r3, [r0, #24]
 8001cd4:	b90b      	cbnz	r3, 8001cda <__swbuf_r+0x12>
 8001cd6:	f000 f9d1 	bl	800207c <__sinit>
 8001cda:	4b21      	ldr	r3, [pc, #132]	; (8001d60 <__swbuf_r+0x98>)
 8001cdc:	429c      	cmp	r4, r3
 8001cde:	d12b      	bne.n	8001d38 <__swbuf_r+0x70>
 8001ce0:	686c      	ldr	r4, [r5, #4]
 8001ce2:	69a3      	ldr	r3, [r4, #24]
 8001ce4:	60a3      	str	r3, [r4, #8]
 8001ce6:	89a3      	ldrh	r3, [r4, #12]
 8001ce8:	071a      	lsls	r2, r3, #28
 8001cea:	d52f      	bpl.n	8001d4c <__swbuf_r+0x84>
 8001cec:	6923      	ldr	r3, [r4, #16]
 8001cee:	b36b      	cbz	r3, 8001d4c <__swbuf_r+0x84>
 8001cf0:	6923      	ldr	r3, [r4, #16]
 8001cf2:	6820      	ldr	r0, [r4, #0]
 8001cf4:	1ac0      	subs	r0, r0, r3
 8001cf6:	6963      	ldr	r3, [r4, #20]
 8001cf8:	b2f6      	uxtb	r6, r6
 8001cfa:	4283      	cmp	r3, r0
 8001cfc:	4637      	mov	r7, r6
 8001cfe:	dc04      	bgt.n	8001d0a <__swbuf_r+0x42>
 8001d00:	4621      	mov	r1, r4
 8001d02:	4628      	mov	r0, r5
 8001d04:	f000 f926 	bl	8001f54 <_fflush_r>
 8001d08:	bb30      	cbnz	r0, 8001d58 <__swbuf_r+0x90>
 8001d0a:	68a3      	ldr	r3, [r4, #8]
 8001d0c:	3b01      	subs	r3, #1
 8001d0e:	60a3      	str	r3, [r4, #8]
 8001d10:	6823      	ldr	r3, [r4, #0]
 8001d12:	1c5a      	adds	r2, r3, #1
 8001d14:	6022      	str	r2, [r4, #0]
 8001d16:	701e      	strb	r6, [r3, #0]
 8001d18:	6963      	ldr	r3, [r4, #20]
 8001d1a:	3001      	adds	r0, #1
 8001d1c:	4283      	cmp	r3, r0
 8001d1e:	d004      	beq.n	8001d2a <__swbuf_r+0x62>
 8001d20:	89a3      	ldrh	r3, [r4, #12]
 8001d22:	07db      	lsls	r3, r3, #31
 8001d24:	d506      	bpl.n	8001d34 <__swbuf_r+0x6c>
 8001d26:	2e0a      	cmp	r6, #10
 8001d28:	d104      	bne.n	8001d34 <__swbuf_r+0x6c>
 8001d2a:	4621      	mov	r1, r4
 8001d2c:	4628      	mov	r0, r5
 8001d2e:	f000 f911 	bl	8001f54 <_fflush_r>
 8001d32:	b988      	cbnz	r0, 8001d58 <__swbuf_r+0x90>
 8001d34:	4638      	mov	r0, r7
 8001d36:	bdf8      	pop	{r3, r4, r5, r6, r7, pc}
 8001d38:	4b0a      	ldr	r3, [pc, #40]	; (8001d64 <__swbuf_r+0x9c>)
 8001d3a:	429c      	cmp	r4, r3
 8001d3c:	d101      	bne.n	8001d42 <__swbuf_r+0x7a>
 8001d3e:	68ac      	ldr	r4, [r5, #8]
 8001d40:	e7cf      	b.n	8001ce2 <__swbuf_r+0x1a>
 8001d42:	4b09      	ldr	r3, [pc, #36]	; (8001d68 <__swbuf_r+0xa0>)
 8001d44:	429c      	cmp	r4, r3
 8001d46:	bf08      	it	eq
 8001d48:	68ec      	ldreq	r4, [r5, #12]
 8001d4a:	e7ca      	b.n	8001ce2 <__swbuf_r+0x1a>
 8001d4c:	4621      	mov	r1, r4
 8001d4e:	4628      	mov	r0, r5
 8001d50:	f000 f80c 	bl	8001d6c <__swsetup_r>
 8001d54:	2800      	cmp	r0, #0
 8001d56:	d0cb      	beq.n	8001cf0 <__swbuf_r+0x28>
 8001d58:	f04f 37ff 	mov.w	r7, #4294967295
 8001d5c:	e7ea      	b.n	8001d34 <__swbuf_r+0x6c>
 8001d5e:	bf00      	nop
 8001d60:	0800308c 	stmdaeq	r0, {r2, r3, r7, ip, sp}
 8001d64:	080030ac 	stmdaeq	r0, {r2, r3, r5, r7, ip, sp}
 8001d68:	0800306c 	stmdaeq	r0, {r2, r3, r5, r6, ip, sp}

08001d6c <__swsetup_r>:
 8001d6c:	4b32      	ldr	r3, [pc, #200]	; (8001e38 <__swsetup_r+0xcc>)
 8001d6e:	b570      	push	{r4, r5, r6, lr}
 8001d70:	681d      	ldr	r5, [r3, #0]
 8001d72:	4606      	mov	r6, r0
 8001d74:	460c      	mov	r4, r1
 8001d76:	b125      	cbz	r5, 8001d82 <__swsetup_r+0x16>
 8001d78:	69ab      	ldr	r3, [r5, #24]
 8001d7a:	b913      	cbnz	r3, 8001d82 <__swsetup_r+0x16>
 8001d7c:	4628      	mov	r0, r5
 8001d7e:	f000 f97d 	bl	800207c <__sinit>
 8001d82:	4b2e      	ldr	r3, [pc, #184]	; (8001e3c <__swsetup_r+0xd0>)
 8001d84:	429c      	cmp	r4, r3
 8001d86:	d10f      	bne.n	8001da8 <__swsetup_r+0x3c>
 8001d88:	686c      	ldr	r4, [r5, #4]
 8001d8a:	89a3      	ldrh	r3, [r4, #12]
 8001d8c:	f9b4 200c 	ldrsh.w	r2, [r4, #12]
 8001d90:	0719      	lsls	r1, r3, #28
 8001d92:	d42c      	bmi.n	8001dee <__swsetup_r+0x82>
 8001d94:	06dd      	lsls	r5, r3, #27
 8001d96:	d411      	bmi.n	8001dbc <__swsetup_r+0x50>
 8001d98:	2309      	movs	r3, #9
 8001d9a:	6033      	str	r3, [r6, #0]
 8001d9c:	f042 0340 	orr.w	r3, r2, #64	; 0x40
 8001da0:	81a3      	strh	r3, [r4, #12]
 8001da2:	f04f 30ff 	mov.w	r0, #4294967295
 8001da6:	e03e      	b.n	8001e26 <__swsetup_r+0xba>
 8001da8:	4b25      	ldr	r3, [pc, #148]	; (8001e40 <__swsetup_r+0xd4>)
 8001daa:	429c      	cmp	r4, r3
 8001dac:	d101      	bne.n	8001db2 <__swsetup_r+0x46>
 8001dae:	68ac      	ldr	r4, [r5, #8]
 8001db0:	e7eb      	b.n	8001d8a <__swsetup_r+0x1e>
 8001db2:	4b24      	ldr	r3, [pc, #144]	; (8001e44 <__swsetup_r+0xd8>)
 8001db4:	429c      	cmp	r4, r3
 8001db6:	bf08      	it	eq
 8001db8:	68ec      	ldreq	r4, [r5, #12]
 8001dba:	e7e6      	b.n	8001d8a <__swsetup_r+0x1e>
 8001dbc:	0758      	lsls	r0, r3, #29
 8001dbe:	d512      	bpl.n	8001de6 <__swsetup_r+0x7a>
 8001dc0:	6b61      	ldr	r1, [r4, #52]	; 0x34
 8001dc2:	b141      	cbz	r1, 8001dd6 <__swsetup_r+0x6a>
 8001dc4:	f104 0344 	add.w	r3, r4, #68	; 0x44
 8001dc8:	4299      	cmp	r1, r3
 8001dca:	d002      	beq.n	8001dd2 <__swsetup_r+0x66>
 8001dcc:	4630      	mov	r0, r6
 8001dce:	f000 fa5b 	bl	8002288 <_free_r>
 8001dd2:	2300      	movs	r3, #0
 8001dd4:	6363      	str	r3, [r4, #52]	; 0x34
 8001dd6:	89a3      	ldrh	r3, [r4, #12]
 8001dd8:	f023 0324 	bic.w	r3, r3, #36	; 0x24
 8001ddc:	81a3      	strh	r3, [r4, #12]
 8001dde:	2300      	movs	r3, #0
 8001de0:	6063      	str	r3, [r4, #4]
 8001de2:	6923      	ldr	r3, [r4, #16]
 8001de4:	6023      	str	r3, [r4, #0]
 8001de6:	89a3      	ldrh	r3, [r4, #12]
 8001de8:	f043 0308 	orr.w	r3, r3, #8
 8001dec:	81a3      	strh	r3, [r4, #12]
 8001dee:	6923      	ldr	r3, [r4, #16]
 8001df0:	b94b      	cbnz	r3, 8001e06 <__swsetup_r+0x9a>
 8001df2:	89a3      	ldrh	r3, [r4, #12]
 8001df4:	f403 7320 	and.w	r3, r3, #640	; 0x280
 8001df8:	f5b3 7f00 	cmp.w	r3, #512	; 0x200
 8001dfc:	d003      	beq.n	8001e06 <__swsetup_r+0x9a>
 8001dfe:	4621      	mov	r1, r4
 8001e00:	4630      	mov	r0, r6
 8001e02:	f000 fa01 	bl	8002208 <__smakebuf_r>
 8001e06:	89a0      	ldrh	r0, [r4, #12]
 8001e08:	f9b4 200c 	ldrsh.w	r2, [r4, #12]
 8001e0c:	f010 0301 	ands.w	r3, r0, #1
 8001e10:	d00a      	beq.n	8001e28 <__swsetup_r+0xbc>
 8001e12:	2300      	movs	r3, #0
 8001e14:	60a3      	str	r3, [r4, #8]
 8001e16:	6963      	ldr	r3, [r4, #20]
 8001e18:	425b      	negs	r3, r3
 8001e1a:	61a3      	str	r3, [r4, #24]
 8001e1c:	6923      	ldr	r3, [r4, #16]
 8001e1e:	b943      	cbnz	r3, 8001e32 <__swsetup_r+0xc6>
 8001e20:	f010 0080 	ands.w	r0, r0, #128	; 0x80
 8001e24:	d1ba      	bne.n	8001d9c <__swsetup_r+0x30>
 8001e26:	bd70      	pop	{r4, r5, r6, pc}
 8001e28:	0781      	lsls	r1, r0, #30
 8001e2a:	bf58      	it	pl
 8001e2c:	6963      	ldrpl	r3, [r4, #20]
 8001e2e:	60a3      	str	r3, [r4, #8]
 8001e30:	e7f4      	b.n	8001e1c <__swsetup_r+0xb0>
 8001e32:	2000      	movs	r0, #0
 8001e34:	e7f7      	b.n	8001e26 <__swsetup_r+0xba>
 8001e36:	bf00      	nop
 8001e38:	2000000c 	andcs	r0, r0, ip
 8001e3c:	0800308c 	stmdaeq	r0, {r2, r3, r7, ip, sp}
 8001e40:	080030ac 	stmdaeq	r0, {r2, r3, r5, r7, ip, sp}
 8001e44:	0800306c 	stmdaeq	r0, {r2, r3, r5, r6, ip, sp}

08001e48 <__sflush_r>:
 8001e48:	898a      	ldrh	r2, [r1, #12]
 8001e4a:	e92d 41f0 	stmdb	sp!, {r4, r5, r6, r7, r8, lr}
 8001e4e:	4605      	mov	r5, r0
 8001e50:	0710      	lsls	r0, r2, #28
 8001e52:	460c      	mov	r4, r1
 8001e54:	d458      	bmi.n	8001f08 <__sflush_r+0xc0>
 8001e56:	684b      	ldr	r3, [r1, #4]
 8001e58:	2b00      	cmp	r3, #0
 8001e5a:	dc05      	bgt.n	8001e68 <__sflush_r+0x20>
 8001e5c:	6c0b      	ldr	r3, [r1, #64]	; 0x40
 8001e5e:	2b00      	cmp	r3, #0
 8001e60:	dc02      	bgt.n	8001e68 <__sflush_r+0x20>
 8001e62:	2000      	movs	r0, #0
 8001e64:	e8bd 81f0 	ldmia.w	sp!, {r4, r5, r6, r7, r8, pc}
 8001e68:	6ae6      	ldr	r6, [r4, #44]	; 0x2c
 8001e6a:	2e00      	cmp	r6, #0
 8001e6c:	d0f9      	beq.n	8001e62 <__sflush_r+0x1a>
 8001e6e:	2300      	movs	r3, #0
 8001e70:	f412 5280 	ands.w	r2, r2, #4096	; 0x1000
 8001e74:	682f      	ldr	r7, [r5, #0]
 8001e76:	602b      	str	r3, [r5, #0]
 8001e78:	d032      	beq.n	8001ee0 <__sflush_r+0x98>
 8001e7a:	6d60      	ldr	r0, [r4, #84]	; 0x54
 8001e7c:	89a3      	ldrh	r3, [r4, #12]
 8001e7e:	075a      	lsls	r2, r3, #29
 8001e80:	d505      	bpl.n	8001e8e <__sflush_r+0x46>
 8001e82:	6863      	ldr	r3, [r4, #4]
 8001e84:	1ac0      	subs	r0, r0, r3
 8001e86:	6b63      	ldr	r3, [r4, #52]	; 0x34
 8001e88:	b10b      	cbz	r3, 8001e8e <__sflush_r+0x46>
 8001e8a:	6c23      	ldr	r3, [r4, #64]	; 0x40
 8001e8c:	1ac0      	subs	r0, r0, r3
 8001e8e:	2300      	movs	r3, #0
 8001e90:	4602      	mov	r2, r0
 8001e92:	6ae6      	ldr	r6, [r4, #44]	; 0x2c
 8001e94:	6a21      	ldr	r1, [r4, #32]
 8001e96:	4628      	mov	r0, r5
 8001e98:	47b0      	blx	r6
 8001e9a:	1c43      	adds	r3, r0, #1
 8001e9c:	89a3      	ldrh	r3, [r4, #12]
 8001e9e:	d106      	bne.n	8001eae <__sflush_r+0x66>
 8001ea0:	6829      	ldr	r1, [r5, #0]
 8001ea2:	291d      	cmp	r1, #29
 8001ea4:	d82c      	bhi.n	8001f00 <__sflush_r+0xb8>
 8001ea6:	4a2a      	ldr	r2, [pc, #168]	; (8001f50 <__sflush_r+0x108>)
 8001ea8:	40ca      	lsrs	r2, r1
 8001eaa:	07d6      	lsls	r6, r2, #31
 8001eac:	d528      	bpl.n	8001f00 <__sflush_r+0xb8>
 8001eae:	2200      	movs	r2, #0
 8001eb0:	6062      	str	r2, [r4, #4]
 8001eb2:	04d9      	lsls	r1, r3, #19
 8001eb4:	6922      	ldr	r2, [r4, #16]
 8001eb6:	6022      	str	r2, [r4, #0]
 8001eb8:	d504      	bpl.n	8001ec4 <__sflush_r+0x7c>
 8001eba:	1c42      	adds	r2, r0, #1
 8001ebc:	d101      	bne.n	8001ec2 <__sflush_r+0x7a>
 8001ebe:	682b      	ldr	r3, [r5, #0]
 8001ec0:	b903      	cbnz	r3, 8001ec4 <__sflush_r+0x7c>
 8001ec2:	6560      	str	r0, [r4, #84]	; 0x54
 8001ec4:	6b61      	ldr	r1, [r4, #52]	; 0x34
 8001ec6:	602f      	str	r7, [r5, #0]
 8001ec8:	2900      	cmp	r1, #0
 8001eca:	d0ca      	beq.n	8001e62 <__sflush_r+0x1a>
 8001ecc:	f104 0344 	add.w	r3, r4, #68	; 0x44
 8001ed0:	4299      	cmp	r1, r3
 8001ed2:	d002      	beq.n	8001eda <__sflush_r+0x92>
 8001ed4:	4628      	mov	r0, r5
 8001ed6:	f000 f9d7 	bl	8002288 <_free_r>
 8001eda:	2000      	movs	r0, #0
 8001edc:	6360      	str	r0, [r4, #52]	; 0x34
 8001ede:	e7c1      	b.n	8001e64 <__sflush_r+0x1c>
 8001ee0:	6a21      	ldr	r1, [r4, #32]
 8001ee2:	2301      	movs	r3, #1
 8001ee4:	4628      	mov	r0, r5
 8001ee6:	47b0      	blx	r6
 8001ee8:	1c41      	adds	r1, r0, #1
 8001eea:	d1c7      	bne.n	8001e7c <__sflush_r+0x34>
 8001eec:	682b      	ldr	r3, [r5, #0]
 8001eee:	2b00      	cmp	r3, #0
 8001ef0:	d0c4      	beq.n	8001e7c <__sflush_r+0x34>
 8001ef2:	2b1d      	cmp	r3, #29
 8001ef4:	d001      	beq.n	8001efa <__sflush_r+0xb2>
 8001ef6:	2b16      	cmp	r3, #22
 8001ef8:	d101      	bne.n	8001efe <__sflush_r+0xb6>
 8001efa:	602f      	str	r7, [r5, #0]
 8001efc:	e7b1      	b.n	8001e62 <__sflush_r+0x1a>
 8001efe:	89a3      	ldrh	r3, [r4, #12]
 8001f00:	f043 0340 	orr.w	r3, r3, #64	; 0x40
 8001f04:	81a3      	strh	r3, [r4, #12]
 8001f06:	e7ad      	b.n	8001e64 <__sflush_r+0x1c>
 8001f08:	690f      	ldr	r7, [r1, #16]
 8001f0a:	2f00      	cmp	r7, #0
 8001f0c:	d0a9      	beq.n	8001e62 <__sflush_r+0x1a>
 8001f0e:	0793      	lsls	r3, r2, #30
 8001f10:	680e      	ldr	r6, [r1, #0]
 8001f12:	bf08      	it	eq
 8001f14:	694b      	ldreq	r3, [r1, #20]
 8001f16:	600f      	str	r7, [r1, #0]
 8001f18:	bf18      	it	ne
 8001f1a:	2300      	movne	r3, #0
 8001f1c:	eba6 0807 	sub.w	r8, r6, r7
 8001f20:	608b      	str	r3, [r1, #8]
 8001f22:	f1b8 0f00 	cmp.w	r8, #0
 8001f26:	dd9c      	ble.n	8001e62 <__sflush_r+0x1a>
 8001f28:	6a21      	ldr	r1, [r4, #32]
 8001f2a:	6aa6      	ldr	r6, [r4, #40]	; 0x28
 8001f2c:	4643      	mov	r3, r8
 8001f2e:	463a      	mov	r2, r7
 8001f30:	4628      	mov	r0, r5
 8001f32:	47b0      	blx	r6
 8001f34:	2800      	cmp	r0, #0
 8001f36:	dc06      	bgt.n	8001f46 <__sflush_r+0xfe>
 8001f38:	89a3      	ldrh	r3, [r4, #12]
 8001f3a:	f043 0340 	orr.w	r3, r3, #64	; 0x40
 8001f3e:	81a3      	strh	r3, [r4, #12]
 8001f40:	f04f 30ff 	mov.w	r0, #4294967295
 8001f44:	e78e      	b.n	8001e64 <__sflush_r+0x1c>
 8001f46:	4407      	add	r7, r0
 8001f48:	eba8 0800 	sub.w	r8, r8, r0
 8001f4c:	e7e9      	b.n	8001f22 <__sflush_r+0xda>
 8001f4e:	bf00      	nop
 8001f50:	20400001 	subcs	r0, r0, r1

08001f54 <_fflush_r>:
 8001f54:	b538      	push	{r3, r4, r5, lr}
 8001f56:	690b      	ldr	r3, [r1, #16]
 8001f58:	4605      	mov	r5, r0
 8001f5a:	460c      	mov	r4, r1
 8001f5c:	b913      	cbnz	r3, 8001f64 <_fflush_r+0x10>
 8001f5e:	2500      	movs	r5, #0
 8001f60:	4628      	mov	r0, r5
 8001f62:	bd38      	pop	{r3, r4, r5, pc}
 8001f64:	b118      	cbz	r0, 8001f6e <_fflush_r+0x1a>
 8001f66:	6983      	ldr	r3, [r0, #24]
 8001f68:	b90b      	cbnz	r3, 8001f6e <_fflush_r+0x1a>
 8001f6a:	f000 f887 	bl	800207c <__sinit>
 8001f6e:	4b14      	ldr	r3, [pc, #80]	; (8001fc0 <_fflush_r+0x6c>)
 8001f70:	429c      	cmp	r4, r3
 8001f72:	d11b      	bne.n	8001fac <_fflush_r+0x58>
 8001f74:	686c      	ldr	r4, [r5, #4]
 8001f76:	f9b4 300c 	ldrsh.w	r3, [r4, #12]
 8001f7a:	2b00      	cmp	r3, #0
 8001f7c:	d0ef      	beq.n	8001f5e <_fflush_r+0xa>
 8001f7e:	6e62      	ldr	r2, [r4, #100]	; 0x64
 8001f80:	07d0      	lsls	r0, r2, #31
 8001f82:	d404      	bmi.n	8001f8e <_fflush_r+0x3a>
 8001f84:	0599      	lsls	r1, r3, #22
 8001f86:	d402      	bmi.n	8001f8e <_fflush_r+0x3a>
 8001f88:	6da0      	ldr	r0, [r4, #88]	; 0x58
 8001f8a:	f000 f915 	bl	80021b8 <__retarget_lock_acquire_recursive>
 8001f8e:	4628      	mov	r0, r5
 8001f90:	4621      	mov	r1, r4
 8001f92:	f7ff ff59 	bl	8001e48 <__sflush_r>
 8001f96:	6e63      	ldr	r3, [r4, #100]	; 0x64
 8001f98:	07da      	lsls	r2, r3, #31
 8001f9a:	4605      	mov	r5, r0
 8001f9c:	d4e0      	bmi.n	8001f60 <_fflush_r+0xc>
 8001f9e:	89a3      	ldrh	r3, [r4, #12]
 8001fa0:	059b      	lsls	r3, r3, #22
 8001fa2:	d4dd      	bmi.n	8001f60 <_fflush_r+0xc>
 8001fa4:	6da0      	ldr	r0, [r4, #88]	; 0x58
 8001fa6:	f000 f908 	bl	80021ba <__retarget_lock_release_recursive>
 8001faa:	e7d9      	b.n	8001f60 <_fflush_r+0xc>
 8001fac:	4b05      	ldr	r3, [pc, #20]	; (8001fc4 <_fflush_r+0x70>)
 8001fae:	429c      	cmp	r4, r3
 8001fb0:	d101      	bne.n	8001fb6 <_fflush_r+0x62>
 8001fb2:	68ac      	ldr	r4, [r5, #8]
 8001fb4:	e7df      	b.n	8001f76 <_fflush_r+0x22>
 8001fb6:	4b04      	ldr	r3, [pc, #16]	; (8001fc8 <_fflush_r+0x74>)
 8001fb8:	429c      	cmp	r4, r3
 8001fba:	bf08      	it	eq
 8001fbc:	68ec      	ldreq	r4, [r5, #12]
 8001fbe:	e7da      	b.n	8001f76 <_fflush_r+0x22>
 8001fc0:	0800308c 	stmdaeq	r0, {r2, r3, r7, ip, sp}
 8001fc4:	080030ac 	stmdaeq	r0, {r2, r3, r5, r7, ip, sp}
 8001fc8:	0800306c 	stmdaeq	r0, {r2, r3, r5, r6, ip, sp}

08001fcc <std>:
 8001fcc:	2300      	movs	r3, #0
 8001fce:	b510      	push	{r4, lr}
 8001fd0:	4604      	mov	r4, r0
 8001fd2:	e9c0 3300 	strd	r3, r3, [r0]
 8001fd6:	e9c0 3304 	strd	r3, r3, [r0, #16]
 8001fda:	6083      	str	r3, [r0, #8]
 8001fdc:	8181      	strh	r1, [r0, #12]
 8001fde:	6643      	str	r3, [r0, #100]	; 0x64
 8001fe0:	81c2      	strh	r2, [r0, #14]
 8001fe2:	6183      	str	r3, [r0, #24]
 8001fe4:	4619      	mov	r1, r3
 8001fe6:	2208      	movs	r2, #8
 8001fe8:	305c      	adds	r0, #92	; 0x5c
 8001fea:	f7ff fdd7 	bl	8001b9c <memset>
 8001fee:	4b05      	ldr	r3, [pc, #20]	; (8002004 <std+0x38>)
 8001ff0:	6263      	str	r3, [r4, #36]	; 0x24
 8001ff2:	4b05      	ldr	r3, [pc, #20]	; (8002008 <std+0x3c>)
 8001ff4:	62a3      	str	r3, [r4, #40]	; 0x28
 8001ff6:	4b05      	ldr	r3, [pc, #20]	; (800200c <std+0x40>)
 8001ff8:	62e3      	str	r3, [r4, #44]	; 0x2c
 8001ffa:	4b05      	ldr	r3, [pc, #20]	; (8002010 <std+0x44>)
 8001ffc:	6224      	str	r4, [r4, #32]
 8001ffe:	6323      	str	r3, [r4, #48]	; 0x30
 8002000:	bd10      	pop	{r4, pc}
 8002002:	bf00      	nop
 8002004:	08002a45 	stmdaeq	r0, {r0, r2, r6, r9, fp, sp}
 8002008:	08002a67 	stmdaeq	r0, {r0, r1, r2, r5, r6, r9, fp, sp}
 800200c:	08002a9f 	stmdaeq	r0, {r0, r1, r2, r3, r4, r7, r9, fp, sp}
 8002010:	08002ac3 	stmdaeq	r0, {r0, r1, r6, r7, r9, fp, sp}

08002014 <_cleanup_r>:
 8002014:	4901      	ldr	r1, [pc, #4]	; (800201c <_cleanup_r+0x8>)
 8002016:	f000 b8af 	b.w	8002178 <_fwalk_reent>
 800201a:	bf00      	nop
 800201c:	08001f55 	stmdaeq	r0, {r0, r2, r4, r6, r8, r9, sl, fp, ip}

08002020 <__sfmoreglue>:
 8002020:	b570      	push	{r4, r5, r6, lr}
 8002022:	2268      	movs	r2, #104	; 0x68
 8002024:	1e4d      	subs	r5, r1, #1
 8002026:	4355      	muls	r5, r2
 8002028:	460e      	mov	r6, r1
 800202a:	f105 0174 	add.w	r1, r5, #116	; 0x74
 800202e:	f000 f997 	bl	8002360 <_malloc_r>
 8002032:	4604      	mov	r4, r0
 8002034:	b140      	cbz	r0, 8002048 <__sfmoreglue+0x28>
 8002036:	2100      	movs	r1, #0
 8002038:	e9c0 1600 	strd	r1, r6, [r0]
 800203c:	300c      	adds	r0, #12
 800203e:	60a0      	str	r0, [r4, #8]
 8002040:	f105 0268 	add.w	r2, r5, #104	; 0x68
 8002044:	f7ff fdaa 	bl	8001b9c <memset>
 8002048:	4620      	mov	r0, r4
 800204a:	bd70      	pop	{r4, r5, r6, pc}

0800204c <__sfp_lock_acquire>:
 800204c:	4801      	ldr	r0, [pc, #4]	; (8002054 <__sfp_lock_acquire+0x8>)
 800204e:	f000 b8b3 	b.w	80021b8 <__retarget_lock_acquire_recursive>
 8002052:	bf00      	nop
 8002054:	20000225 	andcs	r0, r0, r5, lsr #4

08002058 <__sfp_lock_release>:
 8002058:	4801      	ldr	r0, [pc, #4]	; (8002060 <__sfp_lock_release+0x8>)
 800205a:	f000 b8ae 	b.w	80021ba <__retarget_lock_release_recursive>
 800205e:	bf00      	nop
 8002060:	20000225 	andcs	r0, r0, r5, lsr #4

08002064 <__sinit_lock_acquire>:
 8002064:	4801      	ldr	r0, [pc, #4]	; (800206c <__sinit_lock_acquire+0x8>)
 8002066:	f000 b8a7 	b.w	80021b8 <__retarget_lock_acquire_recursive>
 800206a:	bf00      	nop
 800206c:	20000226 	andcs	r0, r0, r6, lsr #4

08002070 <__sinit_lock_release>:
 8002070:	4801      	ldr	r0, [pc, #4]	; (8002078 <__sinit_lock_release+0x8>)
 8002072:	f000 b8a2 	b.w	80021ba <__retarget_lock_release_recursive>
 8002076:	bf00      	nop
 8002078:	20000226 	andcs	r0, r0, r6, lsr #4

0800207c <__sinit>:
 800207c:	b510      	push	{r4, lr}
 800207e:	4604      	mov	r4, r0
 8002080:	f7ff fff0 	bl	8002064 <__sinit_lock_acquire>
 8002084:	69a3      	ldr	r3, [r4, #24]
 8002086:	b11b      	cbz	r3, 8002090 <__sinit+0x14>
 8002088:	e8bd 4010 	ldmia.w	sp!, {r4, lr}
 800208c:	f7ff bff0 	b.w	8002070 <__sinit_lock_release>
 8002090:	e9c4 3312 	strd	r3, r3, [r4, #72]	; 0x48
 8002094:	6523      	str	r3, [r4, #80]	; 0x50
 8002096:	4b13      	ldr	r3, [pc, #76]	; (80020e4 <__sinit+0x68>)
 8002098:	4a13      	ldr	r2, [pc, #76]	; (80020e8 <__sinit+0x6c>)
 800209a:	681b      	ldr	r3, [r3, #0]
 800209c:	62a2      	str	r2, [r4, #40]	; 0x28
 800209e:	42a3      	cmp	r3, r4
 80020a0:	bf04      	itt	eq
 80020a2:	2301      	moveq	r3, #1
 80020a4:	61a3      	streq	r3, [r4, #24]
 80020a6:	4620      	mov	r0, r4
 80020a8:	f000 f820 	bl	80020ec <__sfp>
 80020ac:	6060      	str	r0, [r4, #4]
 80020ae:	4620      	mov	r0, r4
 80020b0:	f000 f81c 	bl	80020ec <__sfp>
 80020b4:	60a0      	str	r0, [r4, #8]
 80020b6:	4620      	mov	r0, r4
 80020b8:	f000 f818 	bl	80020ec <__sfp>
 80020bc:	2200      	movs	r2, #0
 80020be:	60e0      	str	r0, [r4, #12]
 80020c0:	2104      	movs	r1, #4
 80020c2:	6860      	ldr	r0, [r4, #4]
 80020c4:	f7ff ff82 	bl	8001fcc <std>
 80020c8:	68a0      	ldr	r0, [r4, #8]
 80020ca:	2201      	movs	r2, #1
 80020cc:	2109      	movs	r1, #9
 80020ce:	f7ff ff7d 	bl	8001fcc <std>
 80020d2:	68e0      	ldr	r0, [r4, #12]
 80020d4:	2202      	movs	r2, #2
 80020d6:	2112      	movs	r1, #18
 80020d8:	f7ff ff78 	bl	8001fcc <std>
 80020dc:	2301      	movs	r3, #1
 80020de:	61a3      	str	r3, [r4, #24]
 80020e0:	e7d2      	b.n	8002088 <__sinit+0xc>
 80020e2:	bf00      	nop
 80020e4:	08003068 	stmdaeq	r0, {r3, r5, r6, ip, sp}
 80020e8:	08002015 	stmdaeq	r0, {r0, r2, r4, sp}

080020ec <__sfp>:
 80020ec:	b5f8      	push	{r3, r4, r5, r6, r7, lr}
 80020ee:	4607      	mov	r7, r0
 80020f0:	f7ff ffac 	bl	800204c <__sfp_lock_acquire>
 80020f4:	4b1e      	ldr	r3, [pc, #120]	; (8002170 <__sfp+0x84>)
 80020f6:	681e      	ldr	r6, [r3, #0]
 80020f8:	69b3      	ldr	r3, [r6, #24]
 80020fa:	b913      	cbnz	r3, 8002102 <__sfp+0x16>
 80020fc:	4630      	mov	r0, r6
 80020fe:	f7ff ffbd 	bl	800207c <__sinit>
 8002102:	3648      	adds	r6, #72	; 0x48
 8002104:	e9d6 3401 	ldrd	r3, r4, [r6, #4]
 8002108:	3b01      	subs	r3, #1
 800210a:	d503      	bpl.n	8002114 <__sfp+0x28>
 800210c:	6833      	ldr	r3, [r6, #0]
 800210e:	b30b      	cbz	r3, 8002154 <__sfp+0x68>
 8002110:	6836      	ldr	r6, [r6, #0]
 8002112:	e7f7      	b.n	8002104 <__sfp+0x18>
 8002114:	f9b4 500c 	ldrsh.w	r5, [r4, #12]
 8002118:	b9d5      	cbnz	r5, 8002150 <__sfp+0x64>
 800211a:	4b16      	ldr	r3, [pc, #88]	; (8002174 <__sfp+0x88>)
 800211c:	60e3      	str	r3, [r4, #12]
 800211e:	f104 0058 	add.w	r0, r4, #88	; 0x58
 8002122:	6665      	str	r5, [r4, #100]	; 0x64
 8002124:	f000 f847 	bl	80021b6 <__retarget_lock_init_recursive>
 8002128:	f7ff ff96 	bl	8002058 <__sfp_lock_release>
 800212c:	e9c4 5501 	strd	r5, r5, [r4, #4]
 8002130:	e9c4 5504 	strd	r5, r5, [r4, #16]
 8002134:	6025      	str	r5, [r4, #0]
 8002136:	61a5      	str	r5, [r4, #24]
 8002138:	2208      	movs	r2, #8
 800213a:	4629      	mov	r1, r5
 800213c:	f104 005c 	add.w	r0, r4, #92	; 0x5c
 8002140:	f7ff fd2c 	bl	8001b9c <memset>
 8002144:	e9c4 550d 	strd	r5, r5, [r4, #52]	; 0x34
 8002148:	e9c4 5512 	strd	r5, r5, [r4, #72]	; 0x48
 800214c:	4620      	mov	r0, r4
 800214e:	bdf8      	pop	{r3, r4, r5, r6, r7, pc}
 8002150:	3468      	adds	r4, #104	; 0x68
 8002152:	e7d9      	b.n	8002108 <__sfp+0x1c>
 8002154:	2104      	movs	r1, #4
 8002156:	4638      	mov	r0, r7
 8002158:	f7ff ff62 	bl	8002020 <__sfmoreglue>
 800215c:	4604      	mov	r4, r0
 800215e:	6030      	str	r0, [r6, #0]
 8002160:	2800      	cmp	r0, #0
 8002162:	d1d5      	bne.n	8002110 <__sfp+0x24>
 8002164:	f7ff ff78 	bl	8002058 <__sfp_lock_release>
 8002168:	230c      	movs	r3, #12
 800216a:	603b      	str	r3, [r7, #0]
 800216c:	e7ee      	b.n	800214c <__sfp+0x60>
 800216e:	bf00      	nop
 8002170:	08003068 	stmdaeq	r0, {r3, r5, r6, ip, sp}
 8002174:	ffff0001 			; <UNDEFINED> instruction: 0xffff0001

08002178 <_fwalk_reent>:
 8002178:	e92d 43f8 	stmdb	sp!, {r3, r4, r5, r6, r7, r8, r9, lr}
 800217c:	4606      	mov	r6, r0
 800217e:	4688      	mov	r8, r1
 8002180:	f100 0448 	add.w	r4, r0, #72	; 0x48
 8002184:	2700      	movs	r7, #0
 8002186:	e9d4 9501 	ldrd	r9, r5, [r4, #4]
 800218a:	f1b9 0901 	subs.w	r9, r9, #1
 800218e:	d505      	bpl.n	800219c <_fwalk_reent+0x24>
 8002190:	6824      	ldr	r4, [r4, #0]
 8002192:	2c00      	cmp	r4, #0
 8002194:	d1f7      	bne.n	8002186 <_fwalk_reent+0xe>
 8002196:	4638      	mov	r0, r7
 8002198:	e8bd 83f8 	ldmia.w	sp!, {r3, r4, r5, r6, r7, r8, r9, pc}
 800219c:	89ab      	ldrh	r3, [r5, #12]
 800219e:	2b01      	cmp	r3, #1
 80021a0:	d907      	bls.n	80021b2 <_fwalk_reent+0x3a>
 80021a2:	f9b5 300e 	ldrsh.w	r3, [r5, #14]
 80021a6:	3301      	adds	r3, #1
 80021a8:	d003      	beq.n	80021b2 <_fwalk_reent+0x3a>
 80021aa:	4629      	mov	r1, r5
 80021ac:	4630      	mov	r0, r6
 80021ae:	47c0      	blx	r8
 80021b0:	4307      	orrs	r7, r0
 80021b2:	3568      	adds	r5, #104	; 0x68
 80021b4:	e7e9      	b.n	800218a <_fwalk_reent+0x12>

080021b6 <__retarget_lock_init_recursive>:
 80021b6:	4770      	bx	lr

080021b8 <__retarget_lock_acquire_recursive>:
 80021b8:	4770      	bx	lr

080021ba <__retarget_lock_release_recursive>:
 80021ba:	4770      	bx	lr

080021bc <__swhatbuf_r>:
 80021bc:	b570      	push	{r4, r5, r6, lr}
 80021be:	460e      	mov	r6, r1
 80021c0:	f9b1 100e 	ldrsh.w	r1, [r1, #14]
 80021c4:	2900      	cmp	r1, #0
 80021c6:	b096      	sub	sp, #88	; 0x58
 80021c8:	4614      	mov	r4, r2
 80021ca:	461d      	mov	r5, r3
 80021cc:	da08      	bge.n	80021e0 <__swhatbuf_r+0x24>
 80021ce:	f9b6 300c 	ldrsh.w	r3, [r6, #12]
 80021d2:	2200      	movs	r2, #0
 80021d4:	602a      	str	r2, [r5, #0]
 80021d6:	061a      	lsls	r2, r3, #24
 80021d8:	d410      	bmi.n	80021fc <__swhatbuf_r+0x40>
 80021da:	f44f 6380 	mov.w	r3, #1024	; 0x400
 80021de:	e00e      	b.n	80021fe <__swhatbuf_r+0x42>
 80021e0:	466a      	mov	r2, sp
 80021e2:	f000 fc95 	bl	8002b10 <_fstat_r>
 80021e6:	2800      	cmp	r0, #0
 80021e8:	dbf1      	blt.n	80021ce <__swhatbuf_r+0x12>
 80021ea:	9a01      	ldr	r2, [sp, #4]
 80021ec:	f402 4270 	and.w	r2, r2, #61440	; 0xf000
 80021f0:	f5a2 5300 	sub.w	r3, r2, #8192	; 0x2000
 80021f4:	425a      	negs	r2, r3
 80021f6:	415a      	adcs	r2, r3
 80021f8:	602a      	str	r2, [r5, #0]
 80021fa:	e7ee      	b.n	80021da <__swhatbuf_r+0x1e>
 80021fc:	2340      	movs	r3, #64	; 0x40
 80021fe:	2000      	movs	r0, #0
 8002200:	6023      	str	r3, [r4, #0]
 8002202:	b016      	add	sp, #88	; 0x58
 8002204:	bd70      	pop	{r4, r5, r6, pc}
	...

08002208 <__smakebuf_r>:
 8002208:	898b      	ldrh	r3, [r1, #12]
 800220a:	b573      	push	{r0, r1, r4, r5, r6, lr}
 800220c:	079d      	lsls	r5, r3, #30
 800220e:	4606      	mov	r6, r0
 8002210:	460c      	mov	r4, r1
 8002212:	d507      	bpl.n	8002224 <__smakebuf_r+0x1c>
 8002214:	f104 0347 	add.w	r3, r4, #71	; 0x47
 8002218:	6023      	str	r3, [r4, #0]
 800221a:	6123      	str	r3, [r4, #16]
 800221c:	2301      	movs	r3, #1
 800221e:	6163      	str	r3, [r4, #20]
 8002220:	b002      	add	sp, #8
 8002222:	bd70      	pop	{r4, r5, r6, pc}
 8002224:	ab01      	add	r3, sp, #4
 8002226:	466a      	mov	r2, sp
 8002228:	f7ff ffc8 	bl	80021bc <__swhatbuf_r>
 800222c:	9900      	ldr	r1, [sp, #0]
 800222e:	4605      	mov	r5, r0
 8002230:	4630      	mov	r0, r6
 8002232:	f000 f895 	bl	8002360 <_malloc_r>
 8002236:	b948      	cbnz	r0, 800224c <__smakebuf_r+0x44>
 8002238:	f9b4 300c 	ldrsh.w	r3, [r4, #12]
 800223c:	059a      	lsls	r2, r3, #22
 800223e:	d4ef      	bmi.n	8002220 <__smakebuf_r+0x18>
 8002240:	f023 0303 	bic.w	r3, r3, #3
 8002244:	f043 0302 	orr.w	r3, r3, #2
 8002248:	81a3      	strh	r3, [r4, #12]
 800224a:	e7e3      	b.n	8002214 <__smakebuf_r+0xc>
 800224c:	4b0d      	ldr	r3, [pc, #52]	; (8002284 <__smakebuf_r+0x7c>)
 800224e:	62b3      	str	r3, [r6, #40]	; 0x28
 8002250:	89a3      	ldrh	r3, [r4, #12]
 8002252:	6020      	str	r0, [r4, #0]
 8002254:	f043 0380 	orr.w	r3, r3, #128	; 0x80
 8002258:	81a3      	strh	r3, [r4, #12]
 800225a:	9b00      	ldr	r3, [sp, #0]
 800225c:	6163      	str	r3, [r4, #20]
 800225e:	9b01      	ldr	r3, [sp, #4]
 8002260:	6120      	str	r0, [r4, #16]
 8002262:	b15b      	cbz	r3, 800227c <__smakebuf_r+0x74>
 8002264:	f9b4 100e 	ldrsh.w	r1, [r4, #14]
 8002268:	4630      	mov	r0, r6
 800226a:	f000 fc63 	bl	8002b34 <_isatty_r>
 800226e:	b128      	cbz	r0, 800227c <__smakebuf_r+0x74>
 8002270:	89a3      	ldrh	r3, [r4, #12]
 8002272:	f023 0303 	bic.w	r3, r3, #3
 8002276:	f043 0301 	orr.w	r3, r3, #1
 800227a:	81a3      	strh	r3, [r4, #12]
 800227c:	89a0      	ldrh	r0, [r4, #12]
 800227e:	4305      	orrs	r5, r0
 8002280:	81a5      	strh	r5, [r4, #12]
 8002282:	e7cd      	b.n	8002220 <__smakebuf_r+0x18>
 8002284:	08002015 	stmdaeq	r0, {r0, r2, r4, sp}

08002288 <_free_r>:
 8002288:	b537      	push	{r0, r1, r2, r4, r5, lr}
 800228a:	2900      	cmp	r1, #0
 800228c:	d044      	beq.n	8002318 <_free_r+0x90>
 800228e:	f851 3c04 	ldr.w	r3, [r1, #-4]
 8002292:	9001      	str	r0, [sp, #4]
 8002294:	2b00      	cmp	r3, #0
 8002296:	f1a1 0404 	sub.w	r4, r1, #4
 800229a:	bfb8      	it	lt
 800229c:	18e4      	addlt	r4, r4, r3
 800229e:	f000 fc6b 	bl	8002b78 <__malloc_lock>
 80022a2:	4a1e      	ldr	r2, [pc, #120]	; (800231c <_free_r+0x94>)
 80022a4:	9801      	ldr	r0, [sp, #4]
 80022a6:	6813      	ldr	r3, [r2, #0]
 80022a8:	b933      	cbnz	r3, 80022b8 <_free_r+0x30>
 80022aa:	6063      	str	r3, [r4, #4]
 80022ac:	6014      	str	r4, [r2, #0]
 80022ae:	b003      	add	sp, #12
 80022b0:	e8bd 4030 	ldmia.w	sp!, {r4, r5, lr}
 80022b4:	f000 bc66 	b.w	8002b84 <__malloc_unlock>
 80022b8:	42a3      	cmp	r3, r4
 80022ba:	d908      	bls.n	80022ce <_free_r+0x46>
 80022bc:	6825      	ldr	r5, [r4, #0]
 80022be:	1961      	adds	r1, r4, r5
 80022c0:	428b      	cmp	r3, r1
 80022c2:	bf01      	itttt	eq
 80022c4:	6819      	ldreq	r1, [r3, #0]
 80022c6:	685b      	ldreq	r3, [r3, #4]
 80022c8:	1949      	addeq	r1, r1, r5
 80022ca:	6021      	streq	r1, [r4, #0]
 80022cc:	e7ed      	b.n	80022aa <_free_r+0x22>
 80022ce:	461a      	mov	r2, r3
 80022d0:	685b      	ldr	r3, [r3, #4]
 80022d2:	b10b      	cbz	r3, 80022d8 <_free_r+0x50>
 80022d4:	42a3      	cmp	r3, r4
 80022d6:	d9fa      	bls.n	80022ce <_free_r+0x46>
 80022d8:	6811      	ldr	r1, [r2, #0]
 80022da:	1855      	adds	r5, r2, r1
 80022dc:	42a5      	cmp	r5, r4
 80022de:	d10b      	bne.n	80022f8 <_free_r+0x70>
 80022e0:	6824      	ldr	r4, [r4, #0]
 80022e2:	4421      	add	r1, r4
 80022e4:	1854      	adds	r4, r2, r1
 80022e6:	42a3      	cmp	r3, r4
 80022e8:	6011      	str	r1, [r2, #0]
 80022ea:	d1e0      	bne.n	80022ae <_free_r+0x26>
 80022ec:	681c      	ldr	r4, [r3, #0]
 80022ee:	685b      	ldr	r3, [r3, #4]
 80022f0:	6053      	str	r3, [r2, #4]
 80022f2:	4421      	add	r1, r4
 80022f4:	6011      	str	r1, [r2, #0]
 80022f6:	e7da      	b.n	80022ae <_free_r+0x26>
 80022f8:	d902      	bls.n	8002300 <_free_r+0x78>
 80022fa:	230c      	movs	r3, #12
 80022fc:	6003      	str	r3, [r0, #0]
 80022fe:	e7d6      	b.n	80022ae <_free_r+0x26>
 8002300:	6825      	ldr	r5, [r4, #0]
 8002302:	1961      	adds	r1, r4, r5
 8002304:	428b      	cmp	r3, r1
 8002306:	bf04      	itt	eq
 8002308:	6819      	ldreq	r1, [r3, #0]
 800230a:	685b      	ldreq	r3, [r3, #4]
 800230c:	6063      	str	r3, [r4, #4]
 800230e:	bf04      	itt	eq
 8002310:	1949      	addeq	r1, r1, r5
 8002312:	6021      	streq	r1, [r4, #0]
 8002314:	6054      	str	r4, [r2, #4]
 8002316:	e7ca      	b.n	80022ae <_free_r+0x26>
 8002318:	b003      	add	sp, #12
 800231a:	bd30      	pop	{r4, r5, pc}
 800231c:	20000228 	andcs	r0, r0, r8, lsr #4

08002320 <sbrk_aligned>:
 8002320:	b570      	push	{r4, r5, r6, lr}
 8002322:	4e0e      	ldr	r6, [pc, #56]	; (800235c <sbrk_aligned+0x3c>)
 8002324:	460c      	mov	r4, r1
 8002326:	6831      	ldr	r1, [r6, #0]
 8002328:	4605      	mov	r5, r0
 800232a:	b911      	cbnz	r1, 8002332 <sbrk_aligned+0x12>
 800232c:	f000 fb7a 	bl	8002a24 <_sbrk_r>
 8002330:	6030      	str	r0, [r6, #0]
 8002332:	4621      	mov	r1, r4
 8002334:	4628      	mov	r0, r5
 8002336:	f000 fb75 	bl	8002a24 <_sbrk_r>
 800233a:	1c43      	adds	r3, r0, #1
 800233c:	d00a      	beq.n	8002354 <sbrk_aligned+0x34>
 800233e:	1cc4      	adds	r4, r0, #3
 8002340:	f024 0403 	bic.w	r4, r4, #3
 8002344:	42a0      	cmp	r0, r4
 8002346:	d007      	beq.n	8002358 <sbrk_aligned+0x38>
 8002348:	1a21      	subs	r1, r4, r0
 800234a:	4628      	mov	r0, r5
 800234c:	f000 fb6a 	bl	8002a24 <_sbrk_r>
 8002350:	3001      	adds	r0, #1
 8002352:	d101      	bne.n	8002358 <sbrk_aligned+0x38>
 8002354:	f04f 34ff 	mov.w	r4, #4294967295
 8002358:	4620      	mov	r0, r4
 800235a:	bd70      	pop	{r4, r5, r6, pc}
 800235c:	2000022c 	andcs	r0, r0, ip, lsr #4

08002360 <_malloc_r>:
 8002360:	e92d 41f0 	stmdb	sp!, {r4, r5, r6, r7, r8, lr}
 8002364:	1ccd      	adds	r5, r1, #3
 8002366:	f025 0503 	bic.w	r5, r5, #3
 800236a:	3508      	adds	r5, #8
 800236c:	2d0c      	cmp	r5, #12
 800236e:	bf38      	it	cc
 8002370:	250c      	movcc	r5, #12
 8002372:	2d00      	cmp	r5, #0
 8002374:	4607      	mov	r7, r0
 8002376:	db01      	blt.n	800237c <_malloc_r+0x1c>
 8002378:	42a9      	cmp	r1, r5
 800237a:	d905      	bls.n	8002388 <_malloc_r+0x28>
 800237c:	230c      	movs	r3, #12
 800237e:	603b      	str	r3, [r7, #0]
 8002380:	2600      	movs	r6, #0
 8002382:	4630      	mov	r0, r6
 8002384:	e8bd 81f0 	ldmia.w	sp!, {r4, r5, r6, r7, r8, pc}
 8002388:	4e2e      	ldr	r6, [pc, #184]	; (8002444 <_malloc_r+0xe4>)
 800238a:	f000 fbf5 	bl	8002b78 <__malloc_lock>
 800238e:	6833      	ldr	r3, [r6, #0]
 8002390:	461c      	mov	r4, r3
 8002392:	bb34      	cbnz	r4, 80023e2 <_malloc_r+0x82>
 8002394:	4629      	mov	r1, r5
 8002396:	4638      	mov	r0, r7
 8002398:	f7ff ffc2 	bl	8002320 <sbrk_aligned>
 800239c:	1c43      	adds	r3, r0, #1
 800239e:	4604      	mov	r4, r0
 80023a0:	d14d      	bne.n	800243e <_malloc_r+0xde>
 80023a2:	6834      	ldr	r4, [r6, #0]
 80023a4:	4626      	mov	r6, r4
 80023a6:	2e00      	cmp	r6, #0
 80023a8:	d140      	bne.n	800242c <_malloc_r+0xcc>
 80023aa:	6823      	ldr	r3, [r4, #0]
 80023ac:	4631      	mov	r1, r6
 80023ae:	4638      	mov	r0, r7
 80023b0:	eb04 0803 	add.w	r8, r4, r3
 80023b4:	f000 fb36 	bl	8002a24 <_sbrk_r>
 80023b8:	4580      	cmp	r8, r0
 80023ba:	d13a      	bne.n	8002432 <_malloc_r+0xd2>
 80023bc:	6821      	ldr	r1, [r4, #0]
 80023be:	3503      	adds	r5, #3
 80023c0:	1a6d      	subs	r5, r5, r1
 80023c2:	f025 0503 	bic.w	r5, r5, #3
 80023c6:	3508      	adds	r5, #8
 80023c8:	2d0c      	cmp	r5, #12
 80023ca:	bf38      	it	cc
 80023cc:	250c      	movcc	r5, #12
 80023ce:	4629      	mov	r1, r5
 80023d0:	4638      	mov	r0, r7
 80023d2:	f7ff ffa5 	bl	8002320 <sbrk_aligned>
 80023d6:	3001      	adds	r0, #1
 80023d8:	d02b      	beq.n	8002432 <_malloc_r+0xd2>
 80023da:	6823      	ldr	r3, [r4, #0]
 80023dc:	442b      	add	r3, r5
 80023de:	6023      	str	r3, [r4, #0]
 80023e0:	e00e      	b.n	8002400 <_malloc_r+0xa0>
 80023e2:	6822      	ldr	r2, [r4, #0]
 80023e4:	1b52      	subs	r2, r2, r5
 80023e6:	d41e      	bmi.n	8002426 <_malloc_r+0xc6>
 80023e8:	2a0b      	cmp	r2, #11
 80023ea:	d916      	bls.n	800241a <_malloc_r+0xba>
 80023ec:	1961      	adds	r1, r4, r5
 80023ee:	42a3      	cmp	r3, r4
 80023f0:	6025      	str	r5, [r4, #0]
 80023f2:	bf18      	it	ne
 80023f4:	6059      	strne	r1, [r3, #4]
 80023f6:	6863      	ldr	r3, [r4, #4]
 80023f8:	bf08      	it	eq
 80023fa:	6031      	streq	r1, [r6, #0]
 80023fc:	5162      	str	r2, [r4, r5]
 80023fe:	604b      	str	r3, [r1, #4]
 8002400:	4638      	mov	r0, r7
 8002402:	f104 060b 	add.w	r6, r4, #11
 8002406:	f000 fbbd 	bl	8002b84 <__malloc_unlock>
 800240a:	f026 0607 	bic.w	r6, r6, #7
 800240e:	1d23      	adds	r3, r4, #4
 8002410:	1af2      	subs	r2, r6, r3
 8002412:	d0b6      	beq.n	8002382 <_malloc_r+0x22>
 8002414:	1b9b      	subs	r3, r3, r6
 8002416:	50a3      	str	r3, [r4, r2]
 8002418:	e7b3      	b.n	8002382 <_malloc_r+0x22>
 800241a:	6862      	ldr	r2, [r4, #4]
 800241c:	42a3      	cmp	r3, r4
 800241e:	bf0c      	ite	eq
 8002420:	6032      	streq	r2, [r6, #0]
 8002422:	605a      	strne	r2, [r3, #4]
 8002424:	e7ec      	b.n	8002400 <_malloc_r+0xa0>
 8002426:	4623      	mov	r3, r4
 8002428:	6864      	ldr	r4, [r4, #4]
 800242a:	e7b2      	b.n	8002392 <_malloc_r+0x32>
 800242c:	4634      	mov	r4, r6
 800242e:	6876      	ldr	r6, [r6, #4]
 8002430:	e7b9      	b.n	80023a6 <_malloc_r+0x46>
 8002432:	230c      	movs	r3, #12
 8002434:	603b      	str	r3, [r7, #0]
 8002436:	4638      	mov	r0, r7
 8002438:	f000 fba4 	bl	8002b84 <__malloc_unlock>
 800243c:	e7a1      	b.n	8002382 <_malloc_r+0x22>
 800243e:	6025      	str	r5, [r4, #0]
 8002440:	e7de      	b.n	8002400 <_malloc_r+0xa0>
 8002442:	bf00      	nop
 8002444:	20000228 	andcs	r0, r0, r8, lsr #4

08002448 <__sfputc_r>:
 8002448:	6893      	ldr	r3, [r2, #8]
 800244a:	3b01      	subs	r3, #1
 800244c:	2b00      	cmp	r3, #0
 800244e:	b410      	push	{r4}
 8002450:	6093      	str	r3, [r2, #8]
 8002452:	da08      	bge.n	8002466 <__sfputc_r+0x1e>
 8002454:	6994      	ldr	r4, [r2, #24]
 8002456:	42a3      	cmp	r3, r4
 8002458:	db01      	blt.n	800245e <__sfputc_r+0x16>
 800245a:	290a      	cmp	r1, #10
 800245c:	d103      	bne.n	8002466 <__sfputc_r+0x1e>
 800245e:	f85d 4b04 	ldr.w	r4, [sp], #4
 8002462:	f7ff bc31 	b.w	8001cc8 <__swbuf_r>
 8002466:	6813      	ldr	r3, [r2, #0]
 8002468:	1c58      	adds	r0, r3, #1
 800246a:	6010      	str	r0, [r2, #0]
 800246c:	7019      	strb	r1, [r3, #0]
 800246e:	4608      	mov	r0, r1
 8002470:	f85d 4b04 	ldr.w	r4, [sp], #4
 8002474:	4770      	bx	lr

08002476 <__sfputs_r>:
 8002476:	b5f8      	push	{r3, r4, r5, r6, r7, lr}
 8002478:	4606      	mov	r6, r0
 800247a:	460f      	mov	r7, r1
 800247c:	4614      	mov	r4, r2
 800247e:	18d5      	adds	r5, r2, r3
 8002480:	42ac      	cmp	r4, r5
 8002482:	d101      	bne.n	8002488 <__sfputs_r+0x12>
 8002484:	2000      	movs	r0, #0
 8002486:	e007      	b.n	8002498 <__sfputs_r+0x22>
 8002488:	f814 1b01 	ldrb.w	r1, [r4], #1
 800248c:	463a      	mov	r2, r7
 800248e:	4630      	mov	r0, r6
 8002490:	f7ff ffda 	bl	8002448 <__sfputc_r>
 8002494:	1c43      	adds	r3, r0, #1
 8002496:	d1f3      	bne.n	8002480 <__sfputs_r+0xa>
 8002498:	bdf8      	pop	{r3, r4, r5, r6, r7, pc}
	...

0800249c <_vfiprintf_r>:
 800249c:	e92d 4ff0 	stmdb	sp!, {r4, r5, r6, r7, r8, r9, sl, fp, lr}
 80024a0:	460d      	mov	r5, r1
 80024a2:	b09d      	sub	sp, #116	; 0x74
 80024a4:	4614      	mov	r4, r2
 80024a6:	4698      	mov	r8, r3
 80024a8:	4606      	mov	r6, r0
 80024aa:	b118      	cbz	r0, 80024b4 <_vfiprintf_r+0x18>
 80024ac:	6983      	ldr	r3, [r0, #24]
 80024ae:	b90b      	cbnz	r3, 80024b4 <_vfiprintf_r+0x18>
 80024b0:	f7ff fde4 	bl	800207c <__sinit>
 80024b4:	4b89      	ldr	r3, [pc, #548]	; (80026dc <_vfiprintf_r+0x240>)
 80024b6:	429d      	cmp	r5, r3
 80024b8:	d11b      	bne.n	80024f2 <_vfiprintf_r+0x56>
 80024ba:	6875      	ldr	r5, [r6, #4]
 80024bc:	6e6b      	ldr	r3, [r5, #100]	; 0x64
 80024be:	07d9      	lsls	r1, r3, #31
 80024c0:	d405      	bmi.n	80024ce <_vfiprintf_r+0x32>
 80024c2:	89ab      	ldrh	r3, [r5, #12]
 80024c4:	059a      	lsls	r2, r3, #22
 80024c6:	d402      	bmi.n	80024ce <_vfiprintf_r+0x32>
 80024c8:	6da8      	ldr	r0, [r5, #88]	; 0x58
 80024ca:	f7ff fe75 	bl	80021b8 <__retarget_lock_acquire_recursive>
 80024ce:	89ab      	ldrh	r3, [r5, #12]
 80024d0:	071b      	lsls	r3, r3, #28
 80024d2:	d501      	bpl.n	80024d8 <_vfiprintf_r+0x3c>
 80024d4:	692b      	ldr	r3, [r5, #16]
 80024d6:	b9eb      	cbnz	r3, 8002514 <_vfiprintf_r+0x78>
 80024d8:	4629      	mov	r1, r5
 80024da:	4630      	mov	r0, r6
 80024dc:	f7ff fc46 	bl	8001d6c <__swsetup_r>
 80024e0:	b1c0      	cbz	r0, 8002514 <_vfiprintf_r+0x78>
 80024e2:	6e6b      	ldr	r3, [r5, #100]	; 0x64
 80024e4:	07dc      	lsls	r4, r3, #31
 80024e6:	d50e      	bpl.n	8002506 <_vfiprintf_r+0x6a>
 80024e8:	f04f 30ff 	mov.w	r0, #4294967295
 80024ec:	b01d      	add	sp, #116	; 0x74
 80024ee:	e8bd 8ff0 	ldmia.w	sp!, {r4, r5, r6, r7, r8, r9, sl, fp, pc}
 80024f2:	4b7b      	ldr	r3, [pc, #492]	; (80026e0 <_vfiprintf_r+0x244>)
 80024f4:	429d      	cmp	r5, r3
 80024f6:	d101      	bne.n	80024fc <_vfiprintf_r+0x60>
 80024f8:	68b5      	ldr	r5, [r6, #8]
 80024fa:	e7df      	b.n	80024bc <_vfiprintf_r+0x20>
 80024fc:	4b79      	ldr	r3, [pc, #484]	; (80026e4 <_vfiprintf_r+0x248>)
 80024fe:	429d      	cmp	r5, r3
 8002500:	bf08      	it	eq
 8002502:	68f5      	ldreq	r5, [r6, #12]
 8002504:	e7da      	b.n	80024bc <_vfiprintf_r+0x20>
 8002506:	89ab      	ldrh	r3, [r5, #12]
 8002508:	0598      	lsls	r0, r3, #22
 800250a:	d4ed      	bmi.n	80024e8 <_vfiprintf_r+0x4c>
 800250c:	6da8      	ldr	r0, [r5, #88]	; 0x58
 800250e:	f7ff fe54 	bl	80021ba <__retarget_lock_release_recursive>
 8002512:	e7e9      	b.n	80024e8 <_vfiprintf_r+0x4c>
 8002514:	2300      	movs	r3, #0
 8002516:	9309      	str	r3, [sp, #36]	; 0x24
 8002518:	2320      	movs	r3, #32
 800251a:	f88d 3029 	strb.w	r3, [sp, #41]	; 0x29
 800251e:	f8cd 800c 	str.w	r8, [sp, #12]
 8002522:	2330      	movs	r3, #48	; 0x30
 8002524:	f8df 81c0 	ldr.w	r8, [pc, #448]	; 80026e8 <_vfiprintf_r+0x24c>
 8002528:	f88d 302a 	strb.w	r3, [sp, #42]	; 0x2a
 800252c:	f04f 0901 	mov.w	r9, #1
 8002530:	4623      	mov	r3, r4
 8002532:	469a      	mov	sl, r3
 8002534:	f813 2b01 	ldrb.w	r2, [r3], #1
 8002538:	b10a      	cbz	r2, 800253e <_vfiprintf_r+0xa2>
 800253a:	2a25      	cmp	r2, #37	; 0x25
 800253c:	d1f9      	bne.n	8002532 <_vfiprintf_r+0x96>
 800253e:	ebba 0b04 	subs.w	fp, sl, r4
 8002542:	d00b      	beq.n	800255c <_vfiprintf_r+0xc0>
 8002544:	465b      	mov	r3, fp
 8002546:	4622      	mov	r2, r4
 8002548:	4629      	mov	r1, r5
 800254a:	4630      	mov	r0, r6
 800254c:	f7ff ff93 	bl	8002476 <__sfputs_r>
 8002550:	3001      	adds	r0, #1
 8002552:	f000 80aa 	beq.w	80026aa <_vfiprintf_r+0x20e>
 8002556:	9a09      	ldr	r2, [sp, #36]	; 0x24
 8002558:	445a      	add	r2, fp
 800255a:	9209      	str	r2, [sp, #36]	; 0x24
 800255c:	f89a 3000 	ldrb.w	r3, [sl]
 8002560:	2b00      	cmp	r3, #0
 8002562:	f000 80a2 	beq.w	80026aa <_vfiprintf_r+0x20e>
 8002566:	2300      	movs	r3, #0
 8002568:	f04f 32ff 	mov.w	r2, #4294967295
 800256c:	e9cd 2305 	strd	r2, r3, [sp, #20]
 8002570:	f10a 0a01 	add.w	sl, sl, #1
 8002574:	9304      	str	r3, [sp, #16]
 8002576:	9307      	str	r3, [sp, #28]
 8002578:	f88d 3053 	strb.w	r3, [sp, #83]	; 0x53
 800257c:	931a      	str	r3, [sp, #104]	; 0x68
 800257e:	4654      	mov	r4, sl
 8002580:	2205      	movs	r2, #5
 8002582:	f814 1b01 	ldrb.w	r1, [r4], #1
 8002586:	4858      	ldr	r0, [pc, #352]	; (80026e8 <_vfiprintf_r+0x24c>)
 8002588:	f7fd fe4a 	bl	8000220 <memchr>
 800258c:	9a04      	ldr	r2, [sp, #16]
 800258e:	b9d8      	cbnz	r0, 80025c8 <_vfiprintf_r+0x12c>
 8002590:	06d1      	lsls	r1, r2, #27
 8002592:	bf44      	itt	mi
 8002594:	2320      	movmi	r3, #32
 8002596:	f88d 3053 	strbmi.w	r3, [sp, #83]	; 0x53
 800259a:	0713      	lsls	r3, r2, #28
 800259c:	bf44      	itt	mi
 800259e:	232b      	movmi	r3, #43	; 0x2b
 80025a0:	f88d 3053 	strbmi.w	r3, [sp, #83]	; 0x53
 80025a4:	f89a 3000 	ldrb.w	r3, [sl]
 80025a8:	2b2a      	cmp	r3, #42	; 0x2a
 80025aa:	d015      	beq.n	80025d8 <_vfiprintf_r+0x13c>
 80025ac:	9a07      	ldr	r2, [sp, #28]
 80025ae:	4654      	mov	r4, sl
 80025b0:	2000      	movs	r0, #0
 80025b2:	f04f 0c0a 	mov.w	ip, #10
 80025b6:	4621      	mov	r1, r4
 80025b8:	f811 3b01 	ldrb.w	r3, [r1], #1
 80025bc:	3b30      	subs	r3, #48	; 0x30
 80025be:	2b09      	cmp	r3, #9
 80025c0:	d94e      	bls.n	8002660 <_vfiprintf_r+0x1c4>
 80025c2:	b1b0      	cbz	r0, 80025f2 <_vfiprintf_r+0x156>
 80025c4:	9207      	str	r2, [sp, #28]
 80025c6:	e014      	b.n	80025f2 <_vfiprintf_r+0x156>
 80025c8:	eba0 0308 	sub.w	r3, r0, r8
 80025cc:	fa09 f303 	lsl.w	r3, r9, r3
 80025d0:	4313      	orrs	r3, r2
 80025d2:	9304      	str	r3, [sp, #16]
 80025d4:	46a2      	mov	sl, r4
 80025d6:	e7d2      	b.n	800257e <_vfiprintf_r+0xe2>
 80025d8:	9b03      	ldr	r3, [sp, #12]
 80025da:	1d19      	adds	r1, r3, #4
 80025dc:	681b      	ldr	r3, [r3, #0]
 80025de:	9103      	str	r1, [sp, #12]
 80025e0:	2b00      	cmp	r3, #0
 80025e2:	bfbb      	ittet	lt
 80025e4:	425b      	neglt	r3, r3
 80025e6:	f042 0202 	orrlt.w	r2, r2, #2
 80025ea:	9307      	strge	r3, [sp, #28]
 80025ec:	9307      	strlt	r3, [sp, #28]
 80025ee:	bfb8      	it	lt
 80025f0:	9204      	strlt	r2, [sp, #16]
 80025f2:	7823      	ldrb	r3, [r4, #0]
 80025f4:	2b2e      	cmp	r3, #46	; 0x2e
 80025f6:	d10c      	bne.n	8002612 <_vfiprintf_r+0x176>
 80025f8:	7863      	ldrb	r3, [r4, #1]
 80025fa:	2b2a      	cmp	r3, #42	; 0x2a
 80025fc:	d135      	bne.n	800266a <_vfiprintf_r+0x1ce>
 80025fe:	9b03      	ldr	r3, [sp, #12]
 8002600:	1d1a      	adds	r2, r3, #4
 8002602:	681b      	ldr	r3, [r3, #0]
 8002604:	9203      	str	r2, [sp, #12]
 8002606:	2b00      	cmp	r3, #0
 8002608:	bfb8      	it	lt
 800260a:	f04f 33ff 	movlt.w	r3, #4294967295
 800260e:	3402      	adds	r4, #2
 8002610:	9305      	str	r3, [sp, #20]
 8002612:	f8df a0e4 	ldr.w	sl, [pc, #228]	; 80026f8 <_vfiprintf_r+0x25c>
 8002616:	7821      	ldrb	r1, [r4, #0]
 8002618:	2203      	movs	r2, #3
 800261a:	4650      	mov	r0, sl
 800261c:	f7fd fe00 	bl	8000220 <memchr>
 8002620:	b140      	cbz	r0, 8002634 <_vfiprintf_r+0x198>
 8002622:	2340      	movs	r3, #64	; 0x40
 8002624:	eba0 000a 	sub.w	r0, r0, sl
 8002628:	fa03 f000 	lsl.w	r0, r3, r0
 800262c:	9b04      	ldr	r3, [sp, #16]
 800262e:	4303      	orrs	r3, r0
 8002630:	3401      	adds	r4, #1
 8002632:	9304      	str	r3, [sp, #16]
 8002634:	f814 1b01 	ldrb.w	r1, [r4], #1
 8002638:	482c      	ldr	r0, [pc, #176]	; (80026ec <_vfiprintf_r+0x250>)
 800263a:	f88d 1028 	strb.w	r1, [sp, #40]	; 0x28
 800263e:	2206      	movs	r2, #6
 8002640:	f7fd fdee 	bl	8000220 <memchr>
 8002644:	2800      	cmp	r0, #0
 8002646:	d03f      	beq.n	80026c8 <_vfiprintf_r+0x22c>
 8002648:	4b29      	ldr	r3, [pc, #164]	; (80026f0 <_vfiprintf_r+0x254>)
 800264a:	bb1b      	cbnz	r3, 8002694 <_vfiprintf_r+0x1f8>
 800264c:	9b03      	ldr	r3, [sp, #12]
 800264e:	3307      	adds	r3, #7
 8002650:	f023 0307 	bic.w	r3, r3, #7
 8002654:	3308      	adds	r3, #8
 8002656:	9303      	str	r3, [sp, #12]
 8002658:	9b09      	ldr	r3, [sp, #36]	; 0x24
 800265a:	443b      	add	r3, r7
 800265c:	9309      	str	r3, [sp, #36]	; 0x24
 800265e:	e767      	b.n	8002530 <_vfiprintf_r+0x94>
 8002660:	fb0c 3202 	mla	r2, ip, r2, r3
 8002664:	460c      	mov	r4, r1
 8002666:	2001      	movs	r0, #1
 8002668:	e7a5      	b.n	80025b6 <_vfiprintf_r+0x11a>
 800266a:	2300      	movs	r3, #0
 800266c:	3401      	adds	r4, #1
 800266e:	9305      	str	r3, [sp, #20]
 8002670:	4619      	mov	r1, r3
 8002672:	f04f 0c0a 	mov.w	ip, #10
 8002676:	4620      	mov	r0, r4
 8002678:	f810 2b01 	ldrb.w	r2, [r0], #1
 800267c:	3a30      	subs	r2, #48	; 0x30
 800267e:	2a09      	cmp	r2, #9
 8002680:	d903      	bls.n	800268a <_vfiprintf_r+0x1ee>
 8002682:	2b00      	cmp	r3, #0
 8002684:	d0c5      	beq.n	8002612 <_vfiprintf_r+0x176>
 8002686:	9105      	str	r1, [sp, #20]
 8002688:	e7c3      	b.n	8002612 <_vfiprintf_r+0x176>
 800268a:	fb0c 2101 	mla	r1, ip, r1, r2
 800268e:	4604      	mov	r4, r0
 8002690:	2301      	movs	r3, #1
 8002692:	e7f0      	b.n	8002676 <_vfiprintf_r+0x1da>
 8002694:	ab03      	add	r3, sp, #12
 8002696:	9300      	str	r3, [sp, #0]
 8002698:	462a      	mov	r2, r5
 800269a:	4b16      	ldr	r3, [pc, #88]	; (80026f4 <_vfiprintf_r+0x258>)
 800269c:	a904      	add	r1, sp, #16
 800269e:	4630      	mov	r0, r6
 80026a0:	f3af 8000 	nop.w
 80026a4:	4607      	mov	r7, r0
 80026a6:	1c78      	adds	r0, r7, #1
 80026a8:	d1d6      	bne.n	8002658 <_vfiprintf_r+0x1bc>
 80026aa:	6e6b      	ldr	r3, [r5, #100]	; 0x64
 80026ac:	07d9      	lsls	r1, r3, #31
 80026ae:	d405      	bmi.n	80026bc <_vfiprintf_r+0x220>
 80026b0:	89ab      	ldrh	r3, [r5, #12]
 80026b2:	059a      	lsls	r2, r3, #22
 80026b4:	d402      	bmi.n	80026bc <_vfiprintf_r+0x220>
 80026b6:	6da8      	ldr	r0, [r5, #88]	; 0x58
 80026b8:	f7ff fd7f 	bl	80021ba <__retarget_lock_release_recursive>
 80026bc:	89ab      	ldrh	r3, [r5, #12]
 80026be:	065b      	lsls	r3, r3, #25
 80026c0:	f53f af12 	bmi.w	80024e8 <_vfiprintf_r+0x4c>
 80026c4:	9809      	ldr	r0, [sp, #36]	; 0x24
 80026c6:	e711      	b.n	80024ec <_vfiprintf_r+0x50>
 80026c8:	ab03      	add	r3, sp, #12
 80026ca:	9300      	str	r3, [sp, #0]
 80026cc:	462a      	mov	r2, r5
 80026ce:	4b09      	ldr	r3, [pc, #36]	; (80026f4 <_vfiprintf_r+0x258>)
 80026d0:	a904      	add	r1, sp, #16
 80026d2:	4630      	mov	r0, r6
 80026d4:	f000 f880 	bl	80027d8 <_printf_i>
 80026d8:	e7e4      	b.n	80026a4 <_vfiprintf_r+0x208>
 80026da:	bf00      	nop
 80026dc:	0800308c 	stmdaeq	r0, {r2, r3, r7, ip, sp}
 80026e0:	080030ac 	stmdaeq	r0, {r2, r3, r5, r7, ip, sp}
 80026e4:	0800306c 	stmdaeq	r0, {r2, r3, r5, r6, ip, sp}
 80026e8:	080030cc 	stmdaeq	r0, {r2, r3, r6, r7, ip, sp}
 80026ec:	080030d6 	stmdaeq	r0, {r1, r2, r4, r6, r7, ip, sp}
 80026f0:	00000000 	andeq	r0, r0, r0
 80026f4:	08002477 	stmdaeq	r0, {r0, r1, r2, r4, r5, r6, sl, sp}
 80026f8:	080030d2 	stmdaeq	r0, {r1, r4, r6, r7, ip, sp}

080026fc <_printf_common>:
 80026fc:	e92d 47f0 	stmdb	sp!, {r4, r5, r6, r7, r8, r9, sl, lr}
 8002700:	4616      	mov	r6, r2
 8002702:	4699      	mov	r9, r3
 8002704:	688a      	ldr	r2, [r1, #8]
 8002706:	690b      	ldr	r3, [r1, #16]
 8002708:	f8dd 8020 	ldr.w	r8, [sp, #32]
 800270c:	4293      	cmp	r3, r2
 800270e:	bfb8      	it	lt
 8002710:	4613      	movlt	r3, r2
 8002712:	6033      	str	r3, [r6, #0]
 8002714:	f891 2043 	ldrb.w	r2, [r1, #67]	; 0x43
 8002718:	4607      	mov	r7, r0
 800271a:	460c      	mov	r4, r1
 800271c:	b10a      	cbz	r2, 8002722 <_printf_common+0x26>
 800271e:	3301      	adds	r3, #1
 8002720:	6033      	str	r3, [r6, #0]
 8002722:	6823      	ldr	r3, [r4, #0]
 8002724:	0699      	lsls	r1, r3, #26
 8002726:	bf42      	ittt	mi
 8002728:	6833      	ldrmi	r3, [r6, #0]
 800272a:	3302      	addmi	r3, #2
 800272c:	6033      	strmi	r3, [r6, #0]
 800272e:	6825      	ldr	r5, [r4, #0]
 8002730:	f015 0506 	ands.w	r5, r5, #6
 8002734:	d106      	bne.n	8002744 <_printf_common+0x48>
 8002736:	f104 0a19 	add.w	sl, r4, #25
 800273a:	68e3      	ldr	r3, [r4, #12]
 800273c:	6832      	ldr	r2, [r6, #0]
 800273e:	1a9b      	subs	r3, r3, r2
 8002740:	42ab      	cmp	r3, r5
 8002742:	dc26      	bgt.n	8002792 <_printf_common+0x96>
 8002744:	f894 2043 	ldrb.w	r2, [r4, #67]	; 0x43
 8002748:	1e13      	subs	r3, r2, #0
 800274a:	6822      	ldr	r2, [r4, #0]
 800274c:	bf18      	it	ne
 800274e:	2301      	movne	r3, #1
 8002750:	0692      	lsls	r2, r2, #26
 8002752:	d42b      	bmi.n	80027ac <_printf_common+0xb0>
 8002754:	f104 0243 	add.w	r2, r4, #67	; 0x43
 8002758:	4649      	mov	r1, r9
 800275a:	4638      	mov	r0, r7
 800275c:	47c0      	blx	r8
 800275e:	3001      	adds	r0, #1
 8002760:	d01e      	beq.n	80027a0 <_printf_common+0xa4>
 8002762:	6823      	ldr	r3, [r4, #0]
 8002764:	68e5      	ldr	r5, [r4, #12]
 8002766:	6832      	ldr	r2, [r6, #0]
 8002768:	f003 0306 	and.w	r3, r3, #6
 800276c:	2b04      	cmp	r3, #4
 800276e:	bf08      	it	eq
 8002770:	1aad      	subeq	r5, r5, r2
 8002772:	68a3      	ldr	r3, [r4, #8]
 8002774:	6922      	ldr	r2, [r4, #16]
 8002776:	bf0c      	ite	eq
 8002778:	ea25 75e5 	biceq.w	r5, r5, r5, asr #31
 800277c:	2500      	movne	r5, #0
 800277e:	4293      	cmp	r3, r2
 8002780:	bfc4      	itt	gt
 8002782:	1a9b      	subgt	r3, r3, r2
 8002784:	18ed      	addgt	r5, r5, r3
 8002786:	2600      	movs	r6, #0
 8002788:	341a      	adds	r4, #26
 800278a:	42b5      	cmp	r5, r6
 800278c:	d11a      	bne.n	80027c4 <_printf_common+0xc8>
 800278e:	2000      	movs	r0, #0
 8002790:	e008      	b.n	80027a4 <_printf_common+0xa8>
 8002792:	2301      	movs	r3, #1
 8002794:	4652      	mov	r2, sl
 8002796:	4649      	mov	r1, r9
 8002798:	4638      	mov	r0, r7
 800279a:	47c0      	blx	r8
 800279c:	3001      	adds	r0, #1
 800279e:	d103      	bne.n	80027a8 <_printf_common+0xac>
 80027a0:	f04f 30ff 	mov.w	r0, #4294967295
 80027a4:	e8bd 87f0 	ldmia.w	sp!, {r4, r5, r6, r7, r8, r9, sl, pc}
 80027a8:	3501      	adds	r5, #1
 80027aa:	e7c6      	b.n	800273a <_printf_common+0x3e>
 80027ac:	18e1      	adds	r1, r4, r3
 80027ae:	1c5a      	adds	r2, r3, #1
 80027b0:	2030      	movs	r0, #48	; 0x30
 80027b2:	f881 0043 	strb.w	r0, [r1, #67]	; 0x43
 80027b6:	4422      	add	r2, r4
 80027b8:	f894 1045 	ldrb.w	r1, [r4, #69]	; 0x45
 80027bc:	f882 1043 	strb.w	r1, [r2, #67]	; 0x43
 80027c0:	3302      	adds	r3, #2
 80027c2:	e7c7      	b.n	8002754 <_printf_common+0x58>
 80027c4:	2301      	movs	r3, #1
 80027c6:	4622      	mov	r2, r4
 80027c8:	4649      	mov	r1, r9
 80027ca:	4638      	mov	r0, r7
 80027cc:	47c0      	blx	r8
 80027ce:	3001      	adds	r0, #1
 80027d0:	d0e6      	beq.n	80027a0 <_printf_common+0xa4>
 80027d2:	3601      	adds	r6, #1
 80027d4:	e7d9      	b.n	800278a <_printf_common+0x8e>
	...

080027d8 <_printf_i>:
 80027d8:	e92d 47ff 	stmdb	sp!, {r0, r1, r2, r3, r4, r5, r6, r7, r8, r9, sl, lr}
 80027dc:	7e0f      	ldrb	r7, [r1, #24]
 80027de:	9d0c      	ldr	r5, [sp, #48]	; 0x30
 80027e0:	2f78      	cmp	r7, #120	; 0x78
 80027e2:	4691      	mov	r9, r2
 80027e4:	4680      	mov	r8, r0
 80027e6:	460c      	mov	r4, r1
 80027e8:	469a      	mov	sl, r3
 80027ea:	f101 0243 	add.w	r2, r1, #67	; 0x43
 80027ee:	d807      	bhi.n	8002800 <_printf_i+0x28>
 80027f0:	2f62      	cmp	r7, #98	; 0x62
 80027f2:	d80a      	bhi.n	800280a <_printf_i+0x32>
 80027f4:	2f00      	cmp	r7, #0
 80027f6:	f000 80d8 	beq.w	80029aa <_printf_i+0x1d2>
 80027fa:	2f58      	cmp	r7, #88	; 0x58
 80027fc:	f000 80a3 	beq.w	8002946 <_printf_i+0x16e>
 8002800:	f104 0542 	add.w	r5, r4, #66	; 0x42
 8002804:	f884 7042 	strb.w	r7, [r4, #66]	; 0x42
 8002808:	e03a      	b.n	8002880 <_printf_i+0xa8>
 800280a:	f1a7 0363 	sub.w	r3, r7, #99	; 0x63
 800280e:	2b15      	cmp	r3, #21
 8002810:	d8f6      	bhi.n	8002800 <_printf_i+0x28>
 8002812:	a101      	add	r1, pc, #4	; (adr r1, 8002818 <_printf_i+0x40>)
 8002814:	f851 f023 	ldr.w	pc, [r1, r3, lsl #2]
 8002818:	08002871 	stmdaeq	r0, {r0, r4, r5, r6, fp, sp}
 800281c:	08002885 	stmdaeq	r0, {r0, r2, r7, fp, sp}
 8002820:	08002801 	stmdaeq	r0, {r0, fp, sp}
 8002824:	08002801 	stmdaeq	r0, {r0, fp, sp}
 8002828:	08002801 	stmdaeq	r0, {r0, fp, sp}
 800282c:	08002801 	stmdaeq	r0, {r0, fp, sp}
 8002830:	08002885 	stmdaeq	r0, {r0, r2, r7, fp, sp}
 8002834:	08002801 	stmdaeq	r0, {r0, fp, sp}
 8002838:	08002801 	stmdaeq	r0, {r0, fp, sp}
 800283c:	08002801 	stmdaeq	r0, {r0, fp, sp}
 8002840:	08002801 	stmdaeq	r0, {r0, fp, sp}
 8002844:	08002991 	stmdaeq	r0, {r0, r4, r7, r8, fp, sp}
 8002848:	080028b5 	stmdaeq	r0, {r0, r2, r4, r5, r7, fp, sp}
 800284c:	08002973 	stmdaeq	r0, {r0, r1, r4, r5, r6, r8, fp, sp}
 8002850:	08002801 	stmdaeq	r0, {r0, fp, sp}
 8002854:	08002801 	stmdaeq	r0, {r0, fp, sp}
 8002858:	080029b3 	stmdaeq	r0, {r0, r1, r4, r5, r7, r8, fp, sp}
 800285c:	08002801 	stmdaeq	r0, {r0, fp, sp}
 8002860:	080028b5 	stmdaeq	r0, {r0, r2, r4, r5, r7, fp, sp}
 8002864:	08002801 	stmdaeq	r0, {r0, fp, sp}
 8002868:	08002801 	stmdaeq	r0, {r0, fp, sp}
 800286c:	0800297b 	stmdaeq	r0, {r0, r1, r3, r4, r5, r6, r8, fp, sp}
 8002870:	682b      	ldr	r3, [r5, #0]
 8002872:	1d1a      	adds	r2, r3, #4
 8002874:	681b      	ldr	r3, [r3, #0]
 8002876:	602a      	str	r2, [r5, #0]
 8002878:	f104 0542 	add.w	r5, r4, #66	; 0x42
 800287c:	f884 3042 	strb.w	r3, [r4, #66]	; 0x42
 8002880:	2301      	movs	r3, #1
 8002882:	e0a3      	b.n	80029cc <_printf_i+0x1f4>
 8002884:	6820      	ldr	r0, [r4, #0]
 8002886:	6829      	ldr	r1, [r5, #0]
 8002888:	0606      	lsls	r6, r0, #24
 800288a:	f101 0304 	add.w	r3, r1, #4
 800288e:	d50a      	bpl.n	80028a6 <_printf_i+0xce>
 8002890:	680e      	ldr	r6, [r1, #0]
 8002892:	602b      	str	r3, [r5, #0]
 8002894:	2e00      	cmp	r6, #0
 8002896:	da03      	bge.n	80028a0 <_printf_i+0xc8>
 8002898:	232d      	movs	r3, #45	; 0x2d
 800289a:	4276      	negs	r6, r6
 800289c:	f884 3043 	strb.w	r3, [r4, #67]	; 0x43
 80028a0:	485e      	ldr	r0, [pc, #376]	; (8002a1c <_printf_i+0x244>)
 80028a2:	230a      	movs	r3, #10
 80028a4:	e019      	b.n	80028da <_printf_i+0x102>
 80028a6:	680e      	ldr	r6, [r1, #0]
 80028a8:	602b      	str	r3, [r5, #0]
 80028aa:	f010 0f40 	tst.w	r0, #64	; 0x40
 80028ae:	bf18      	it	ne
 80028b0:	b236      	sxthne	r6, r6
 80028b2:	e7ef      	b.n	8002894 <_printf_i+0xbc>
 80028b4:	682b      	ldr	r3, [r5, #0]
 80028b6:	6820      	ldr	r0, [r4, #0]
 80028b8:	1d19      	adds	r1, r3, #4
 80028ba:	6029      	str	r1, [r5, #0]
 80028bc:	0601      	lsls	r1, r0, #24
 80028be:	d501      	bpl.n	80028c4 <_printf_i+0xec>
 80028c0:	681e      	ldr	r6, [r3, #0]
 80028c2:	e002      	b.n	80028ca <_printf_i+0xf2>
 80028c4:	0646      	lsls	r6, r0, #25
 80028c6:	d5fb      	bpl.n	80028c0 <_printf_i+0xe8>
 80028c8:	881e      	ldrh	r6, [r3, #0]
 80028ca:	4854      	ldr	r0, [pc, #336]	; (8002a1c <_printf_i+0x244>)
 80028cc:	2f6f      	cmp	r7, #111	; 0x6f
 80028ce:	bf0c      	ite	eq
 80028d0:	2308      	moveq	r3, #8
 80028d2:	230a      	movne	r3, #10
 80028d4:	2100      	movs	r1, #0
 80028d6:	f884 1043 	strb.w	r1, [r4, #67]	; 0x43
 80028da:	6865      	ldr	r5, [r4, #4]
 80028dc:	60a5      	str	r5, [r4, #8]
 80028de:	2d00      	cmp	r5, #0
 80028e0:	bfa2      	ittt	ge
 80028e2:	6821      	ldrge	r1, [r4, #0]
 80028e4:	f021 0104 	bicge.w	r1, r1, #4
 80028e8:	6021      	strge	r1, [r4, #0]
 80028ea:	b90e      	cbnz	r6, 80028f0 <_printf_i+0x118>
 80028ec:	2d00      	cmp	r5, #0
 80028ee:	d04d      	beq.n	800298c <_printf_i+0x1b4>
 80028f0:	4615      	mov	r5, r2
 80028f2:	fbb6 f1f3 	udiv	r1, r6, r3
 80028f6:	fb03 6711 	mls	r7, r3, r1, r6
 80028fa:	5dc7      	ldrb	r7, [r0, r7]
 80028fc:	f805 7d01 	strb.w	r7, [r5, #-1]!
 8002900:	4637      	mov	r7, r6
 8002902:	42bb      	cmp	r3, r7
 8002904:	460e      	mov	r6, r1
 8002906:	d9f4      	bls.n	80028f2 <_printf_i+0x11a>
 8002908:	2b08      	cmp	r3, #8
 800290a:	d10b      	bne.n	8002924 <_printf_i+0x14c>
 800290c:	6823      	ldr	r3, [r4, #0]
 800290e:	07de      	lsls	r6, r3, #31
 8002910:	d508      	bpl.n	8002924 <_printf_i+0x14c>
 8002912:	6923      	ldr	r3, [r4, #16]
 8002914:	6861      	ldr	r1, [r4, #4]
 8002916:	4299      	cmp	r1, r3
 8002918:	bfde      	ittt	le
 800291a:	2330      	movle	r3, #48	; 0x30
 800291c:	f805 3c01 	strble.w	r3, [r5, #-1]
 8002920:	f105 35ff 	addle.w	r5, r5, #4294967295
 8002924:	1b52      	subs	r2, r2, r5
 8002926:	6122      	str	r2, [r4, #16]
 8002928:	f8cd a000 	str.w	sl, [sp]
 800292c:	464b      	mov	r3, r9
 800292e:	aa03      	add	r2, sp, #12
 8002930:	4621      	mov	r1, r4
 8002932:	4640      	mov	r0, r8
 8002934:	f7ff fee2 	bl	80026fc <_printf_common>
 8002938:	3001      	adds	r0, #1
 800293a:	d14c      	bne.n	80029d6 <_printf_i+0x1fe>
 800293c:	f04f 30ff 	mov.w	r0, #4294967295
 8002940:	b004      	add	sp, #16
 8002942:	e8bd 87f0 	ldmia.w	sp!, {r4, r5, r6, r7, r8, r9, sl, pc}
 8002946:	4835      	ldr	r0, [pc, #212]	; (8002a1c <_printf_i+0x244>)
 8002948:	f881 7045 	strb.w	r7, [r1, #69]	; 0x45
 800294c:	6829      	ldr	r1, [r5, #0]
 800294e:	6823      	ldr	r3, [r4, #0]
 8002950:	f851 6b04 	ldr.w	r6, [r1], #4
 8002954:	6029      	str	r1, [r5, #0]
 8002956:	061d      	lsls	r5, r3, #24
 8002958:	d514      	bpl.n	8002984 <_printf_i+0x1ac>
 800295a:	07df      	lsls	r7, r3, #31
 800295c:	bf44      	itt	mi
 800295e:	f043 0320 	orrmi.w	r3, r3, #32
 8002962:	6023      	strmi	r3, [r4, #0]
 8002964:	b91e      	cbnz	r6, 800296e <_printf_i+0x196>
 8002966:	6823      	ldr	r3, [r4, #0]
 8002968:	f023 0320 	bic.w	r3, r3, #32
 800296c:	6023      	str	r3, [r4, #0]
 800296e:	2310      	movs	r3, #16
 8002970:	e7b0      	b.n	80028d4 <_printf_i+0xfc>
 8002972:	6823      	ldr	r3, [r4, #0]
 8002974:	f043 0320 	orr.w	r3, r3, #32
 8002978:	6023      	str	r3, [r4, #0]
 800297a:	2378      	movs	r3, #120	; 0x78
 800297c:	4828      	ldr	r0, [pc, #160]	; (8002a20 <_printf_i+0x248>)
 800297e:	f884 3045 	strb.w	r3, [r4, #69]	; 0x45
 8002982:	e7e3      	b.n	800294c <_printf_i+0x174>
 8002984:	0659      	lsls	r1, r3, #25
 8002986:	bf48      	it	mi
 8002988:	b2b6      	uxthmi	r6, r6
 800298a:	e7e6      	b.n	800295a <_printf_i+0x182>
 800298c:	4615      	mov	r5, r2
 800298e:	e7bb      	b.n	8002908 <_printf_i+0x130>
 8002990:	682b      	ldr	r3, [r5, #0]
 8002992:	6826      	ldr	r6, [r4, #0]
 8002994:	6961      	ldr	r1, [r4, #20]
 8002996:	1d18      	adds	r0, r3, #4
 8002998:	6028      	str	r0, [r5, #0]
 800299a:	0635      	lsls	r5, r6, #24
 800299c:	681b      	ldr	r3, [r3, #0]
 800299e:	d501      	bpl.n	80029a4 <_printf_i+0x1cc>
 80029a0:	6019      	str	r1, [r3, #0]
 80029a2:	e002      	b.n	80029aa <_printf_i+0x1d2>
 80029a4:	0670      	lsls	r0, r6, #25
 80029a6:	d5fb      	bpl.n	80029a0 <_printf_i+0x1c8>
 80029a8:	8019      	strh	r1, [r3, #0]
 80029aa:	2300      	movs	r3, #0
 80029ac:	6123      	str	r3, [r4, #16]
 80029ae:	4615      	mov	r5, r2
 80029b0:	e7ba      	b.n	8002928 <_printf_i+0x150>
 80029b2:	682b      	ldr	r3, [r5, #0]
 80029b4:	1d1a      	adds	r2, r3, #4
 80029b6:	602a      	str	r2, [r5, #0]
 80029b8:	681d      	ldr	r5, [r3, #0]
 80029ba:	6862      	ldr	r2, [r4, #4]
 80029bc:	2100      	movs	r1, #0
 80029be:	4628      	mov	r0, r5
 80029c0:	f7fd fc2e 	bl	8000220 <memchr>
 80029c4:	b108      	cbz	r0, 80029ca <_printf_i+0x1f2>
 80029c6:	1b40      	subs	r0, r0, r5
 80029c8:	6060      	str	r0, [r4, #4]
 80029ca:	6863      	ldr	r3, [r4, #4]
 80029cc:	6123      	str	r3, [r4, #16]
 80029ce:	2300      	movs	r3, #0
 80029d0:	f884 3043 	strb.w	r3, [r4, #67]	; 0x43
 80029d4:	e7a8      	b.n	8002928 <_printf_i+0x150>
 80029d6:	6923      	ldr	r3, [r4, #16]
 80029d8:	462a      	mov	r2, r5
 80029da:	4649      	mov	r1, r9
 80029dc:	4640      	mov	r0, r8
 80029de:	47d0      	blx	sl
 80029e0:	3001      	adds	r0, #1
 80029e2:	d0ab      	beq.n	800293c <_printf_i+0x164>
 80029e4:	6823      	ldr	r3, [r4, #0]
 80029e6:	079b      	lsls	r3, r3, #30
 80029e8:	d413      	bmi.n	8002a12 <_printf_i+0x23a>
 80029ea:	68e0      	ldr	r0, [r4, #12]
 80029ec:	9b03      	ldr	r3, [sp, #12]
 80029ee:	4298      	cmp	r0, r3
 80029f0:	bfb8      	it	lt
 80029f2:	4618      	movlt	r0, r3
 80029f4:	e7a4      	b.n	8002940 <_printf_i+0x168>
 80029f6:	2301      	movs	r3, #1
 80029f8:	4632      	mov	r2, r6
 80029fa:	4649      	mov	r1, r9
 80029fc:	4640      	mov	r0, r8
 80029fe:	47d0      	blx	sl
 8002a00:	3001      	adds	r0, #1
 8002a02:	d09b      	beq.n	800293c <_printf_i+0x164>
 8002a04:	3501      	adds	r5, #1
 8002a06:	68e3      	ldr	r3, [r4, #12]
 8002a08:	9903      	ldr	r1, [sp, #12]
 8002a0a:	1a5b      	subs	r3, r3, r1
 8002a0c:	42ab      	cmp	r3, r5
 8002a0e:	dcf2      	bgt.n	80029f6 <_printf_i+0x21e>
 8002a10:	e7eb      	b.n	80029ea <_printf_i+0x212>
 8002a12:	2500      	movs	r5, #0
 8002a14:	f104 0619 	add.w	r6, r4, #25
 8002a18:	e7f5      	b.n	8002a06 <_printf_i+0x22e>
 8002a1a:	bf00      	nop
 8002a1c:	080030dd 	stmdaeq	r0, {r0, r2, r3, r4, r6, r7, ip, sp}
 8002a20:	080030ee 	stmdaeq	r0, {r1, r2, r3, r5, r6, r7, ip, sp}

08002a24 <_sbrk_r>:
 8002a24:	b538      	push	{r3, r4, r5, lr}
 8002a26:	4d06      	ldr	r5, [pc, #24]	; (8002a40 <_sbrk_r+0x1c>)
 8002a28:	2300      	movs	r3, #0
 8002a2a:	4604      	mov	r4, r0
 8002a2c:	4608      	mov	r0, r1
 8002a2e:	602b      	str	r3, [r5, #0]
 8002a30:	f7fd fdc8 	bl	80005c4 <_sbrk>
 8002a34:	1c43      	adds	r3, r0, #1
 8002a36:	d102      	bne.n	8002a3e <_sbrk_r+0x1a>
 8002a38:	682b      	ldr	r3, [r5, #0]
 8002a3a:	b103      	cbz	r3, 8002a3e <_sbrk_r+0x1a>
 8002a3c:	6023      	str	r3, [r4, #0]
 8002a3e:	bd38      	pop	{r3, r4, r5, pc}
 8002a40:	20000230 	andcs	r0, r0, r0, lsr r2

08002a44 <__sread>:
 8002a44:	b510      	push	{r4, lr}
 8002a46:	460c      	mov	r4, r1
 8002a48:	f9b1 100e 	ldrsh.w	r1, [r1, #14]
 8002a4c:	f000 f8a0 	bl	8002b90 <_read_r>
 8002a50:	2800      	cmp	r0, #0
 8002a52:	bfab      	itete	ge
 8002a54:	6d63      	ldrge	r3, [r4, #84]	; 0x54
 8002a56:	89a3      	ldrhlt	r3, [r4, #12]
 8002a58:	181b      	addge	r3, r3, r0
 8002a5a:	f423 5380 	biclt.w	r3, r3, #4096	; 0x1000
 8002a5e:	bfac      	ite	ge
 8002a60:	6563      	strge	r3, [r4, #84]	; 0x54
 8002a62:	81a3      	strhlt	r3, [r4, #12]
 8002a64:	bd10      	pop	{r4, pc}

08002a66 <__swrite>:
 8002a66:	e92d 41f0 	stmdb	sp!, {r4, r5, r6, r7, r8, lr}
 8002a6a:	461f      	mov	r7, r3
 8002a6c:	898b      	ldrh	r3, [r1, #12]
 8002a6e:	05db      	lsls	r3, r3, #23
 8002a70:	4605      	mov	r5, r0
 8002a72:	460c      	mov	r4, r1
 8002a74:	4616      	mov	r6, r2
 8002a76:	d505      	bpl.n	8002a84 <__swrite+0x1e>
 8002a78:	f9b1 100e 	ldrsh.w	r1, [r1, #14]
 8002a7c:	2302      	movs	r3, #2
 8002a7e:	2200      	movs	r2, #0
 8002a80:	f000 f868 	bl	8002b54 <_lseek_r>
 8002a84:	89a3      	ldrh	r3, [r4, #12]
 8002a86:	f9b4 100e 	ldrsh.w	r1, [r4, #14]
 8002a8a:	f423 5380 	bic.w	r3, r3, #4096	; 0x1000
 8002a8e:	81a3      	strh	r3, [r4, #12]
 8002a90:	4632      	mov	r2, r6
 8002a92:	463b      	mov	r3, r7
 8002a94:	4628      	mov	r0, r5
 8002a96:	e8bd 41f0 	ldmia.w	sp!, {r4, r5, r6, r7, r8, lr}
 8002a9a:	f000 b817 	b.w	8002acc <_write_r>

08002a9e <__sseek>:
 8002a9e:	b510      	push	{r4, lr}
 8002aa0:	460c      	mov	r4, r1
 8002aa2:	f9b1 100e 	ldrsh.w	r1, [r1, #14]
 8002aa6:	f000 f855 	bl	8002b54 <_lseek_r>
 8002aaa:	1c43      	adds	r3, r0, #1
 8002aac:	89a3      	ldrh	r3, [r4, #12]
 8002aae:	bf15      	itete	ne
 8002ab0:	6560      	strne	r0, [r4, #84]	; 0x54
 8002ab2:	f423 5380 	biceq.w	r3, r3, #4096	; 0x1000
 8002ab6:	f443 5380 	orrne.w	r3, r3, #4096	; 0x1000
 8002aba:	81a3      	strheq	r3, [r4, #12]
 8002abc:	bf18      	it	ne
 8002abe:	81a3      	strhne	r3, [r4, #12]
 8002ac0:	bd10      	pop	{r4, pc}

08002ac2 <__sclose>:
 8002ac2:	f9b1 100e 	ldrsh.w	r1, [r1, #14]
 8002ac6:	f000 b813 	b.w	8002af0 <_close_r>
	...

08002acc <_write_r>:
 8002acc:	b538      	push	{r3, r4, r5, lr}
 8002ace:	4d07      	ldr	r5, [pc, #28]	; (8002aec <_write_r+0x20>)
 8002ad0:	4604      	mov	r4, r0
 8002ad2:	4608      	mov	r0, r1
 8002ad4:	4611      	mov	r1, r2
 8002ad6:	2200      	movs	r2, #0
 8002ad8:	602a      	str	r2, [r5, #0]
 8002ada:	461a      	mov	r2, r3
 8002adc:	f7fd fda6 	bl	800062c <_write>
 8002ae0:	1c43      	adds	r3, r0, #1
 8002ae2:	d102      	bne.n	8002aea <_write_r+0x1e>
 8002ae4:	682b      	ldr	r3, [r5, #0]
 8002ae6:	b103      	cbz	r3, 8002aea <_write_r+0x1e>
 8002ae8:	6023      	str	r3, [r4, #0]
 8002aea:	bd38      	pop	{r3, r4, r5, pc}
 8002aec:	20000230 	andcs	r0, r0, r0, lsr r2

08002af0 <_close_r>:
 8002af0:	b538      	push	{r3, r4, r5, lr}
 8002af2:	4d06      	ldr	r5, [pc, #24]	; (8002b0c <_close_r+0x1c>)
 8002af4:	2300      	movs	r3, #0
 8002af6:	4604      	mov	r4, r0
 8002af8:	4608      	mov	r0, r1
 8002afa:	602b      	str	r3, [r5, #0]
 8002afc:	f7fd fda4 	bl	8000648 <_close>
 8002b00:	1c43      	adds	r3, r0, #1
 8002b02:	d102      	bne.n	8002b0a <_close_r+0x1a>
 8002b04:	682b      	ldr	r3, [r5, #0]
 8002b06:	b103      	cbz	r3, 8002b0a <_close_r+0x1a>
 8002b08:	6023      	str	r3, [r4, #0]
 8002b0a:	bd38      	pop	{r3, r4, r5, pc}
 8002b0c:	20000230 	andcs	r0, r0, r0, lsr r2

08002b10 <_fstat_r>:
 8002b10:	b538      	push	{r3, r4, r5, lr}
 8002b12:	4d07      	ldr	r5, [pc, #28]	; (8002b30 <_fstat_r+0x20>)
 8002b14:	2300      	movs	r3, #0
 8002b16:	4604      	mov	r4, r0
 8002b18:	4608      	mov	r0, r1
 8002b1a:	4611      	mov	r1, r2
 8002b1c:	602b      	str	r3, [r5, #0]
 8002b1e:	f7fd fd96 	bl	800064e <_fstat>
 8002b22:	1c43      	adds	r3, r0, #1
 8002b24:	d102      	bne.n	8002b2c <_fstat_r+0x1c>
 8002b26:	682b      	ldr	r3, [r5, #0]
 8002b28:	b103      	cbz	r3, 8002b2c <_fstat_r+0x1c>
 8002b2a:	6023      	str	r3, [r4, #0]
 8002b2c:	bd38      	pop	{r3, r4, r5, pc}
 8002b2e:	bf00      	nop
 8002b30:	20000230 	andcs	r0, r0, r0, lsr r2

08002b34 <_isatty_r>:
 8002b34:	b538      	push	{r3, r4, r5, lr}
 8002b36:	4d06      	ldr	r5, [pc, #24]	; (8002b50 <_isatty_r+0x1c>)
 8002b38:	2300      	movs	r3, #0
 8002b3a:	4604      	mov	r4, r0
 8002b3c:	4608      	mov	r0, r1
 8002b3e:	602b      	str	r3, [r5, #0]
 8002b40:	f7fd fd8a 	bl	8000658 <_isatty>
 8002b44:	1c43      	adds	r3, r0, #1
 8002b46:	d102      	bne.n	8002b4e <_isatty_r+0x1a>
 8002b48:	682b      	ldr	r3, [r5, #0]
 8002b4a:	b103      	cbz	r3, 8002b4e <_isatty_r+0x1a>
 8002b4c:	6023      	str	r3, [r4, #0]
 8002b4e:	bd38      	pop	{r3, r4, r5, pc}
 8002b50:	20000230 	andcs	r0, r0, r0, lsr r2

08002b54 <_lseek_r>:
 8002b54:	b538      	push	{r3, r4, r5, lr}
 8002b56:	4d07      	ldr	r5, [pc, #28]	; (8002b74 <_lseek_r+0x20>)
 8002b58:	4604      	mov	r4, r0
 8002b5a:	4608      	mov	r0, r1
 8002b5c:	4611      	mov	r1, r2
 8002b5e:	2200      	movs	r2, #0
 8002b60:	602a      	str	r2, [r5, #0]
 8002b62:	461a      	mov	r2, r3
 8002b64:	f7fd fd7a 	bl	800065c <_lseek>
 8002b68:	1c43      	adds	r3, r0, #1
 8002b6a:	d102      	bne.n	8002b72 <_lseek_r+0x1e>
 8002b6c:	682b      	ldr	r3, [r5, #0]
 8002b6e:	b103      	cbz	r3, 8002b72 <_lseek_r+0x1e>
 8002b70:	6023      	str	r3, [r4, #0]
 8002b72:	bd38      	pop	{r3, r4, r5, pc}
 8002b74:	20000230 	andcs	r0, r0, r0, lsr r2

08002b78 <__malloc_lock>:
 8002b78:	4801      	ldr	r0, [pc, #4]	; (8002b80 <__malloc_lock+0x8>)
 8002b7a:	f7ff bb1d 	b.w	80021b8 <__retarget_lock_acquire_recursive>
 8002b7e:	bf00      	nop
 8002b80:	20000224 	andcs	r0, r0, r4, lsr #4

08002b84 <__malloc_unlock>:
 8002b84:	4801      	ldr	r0, [pc, #4]	; (8002b8c <__malloc_unlock+0x8>)
 8002b86:	f7ff bb18 	b.w	80021ba <__retarget_lock_release_recursive>
 8002b8a:	bf00      	nop
 8002b8c:	20000224 	andcs	r0, r0, r4, lsr #4

08002b90 <_read_r>:
 8002b90:	b538      	push	{r3, r4, r5, lr}
 8002b92:	4d07      	ldr	r5, [pc, #28]	; (8002bb0 <_read_r+0x20>)
 8002b94:	4604      	mov	r4, r0
 8002b96:	4608      	mov	r0, r1
 8002b98:	4611      	mov	r1, r2
 8002b9a:	2200      	movs	r2, #0
 8002b9c:	602a      	str	r2, [r5, #0]
 8002b9e:	461a      	mov	r2, r3
 8002ba0:	f7fd fd34 	bl	800060c <_read>
 8002ba4:	1c43      	adds	r3, r0, #1
 8002ba6:	d102      	bne.n	8002bae <_read_r+0x1e>
 8002ba8:	682b      	ldr	r3, [r5, #0]
 8002baa:	b103      	cbz	r3, 8002bae <_read_r+0x1e>
 8002bac:	6023      	str	r3, [r4, #0]
 8002bae:	bd38      	pop	{r3, r4, r5, pc}
 8002bb0:	20000230 	andcs	r0, r0, r0, lsr r2

08002bb4 <_init>:
 8002bb4:	b5f8      	push	{r3, r4, r5, r6, r7, lr}
 8002bb6:	bf00      	nop
 8002bb8:	bcf8      	pop	{r3, r4, r5, r6, r7}
 8002bba:	bc08      	pop	{r3}
 8002bbc:	469e      	mov	lr, r3
 8002bbe:	4770      	bx	lr

08002bc0 <_fini>:
 8002bc0:	b5f8      	push	{r3, r4, r5, r6, r7, lr}
 8002bc2:	bf00      	nop
 8002bc4:	bcf8      	pop	{r3, r4, r5, r6, r7}
 8002bc6:	bc08      	pop	{r3}
 8002bc8:	469e      	mov	lr, r3
 8002bca:	4770      	bx	lr

Disassembly of section .ARM:

08003100 <__exidx_start>:
 8003100:	7fffd1f0 	svcvc	0x00ffd1f0
 8003104:	00000001 	andeq	r0, r0, r1
