
.\build\gcc/stm32-qemu.elf:     file format elf32-littlearm


Disassembly of section .isr_vector:

08000000 <g_pfnVectors>:
 8000000:	20001288 	andcs	r1, r0, r8, lsl #5
 8000004:	08002901 	stmdaeq	r0, {r0, r8, fp, sp}
 8000008:	0800074d 	stmdaeq	r0, {r0, r2, r3, r6, r8, r9, sl}
 800000c:	080001d1 	stmdaeq	r0, {r0, r4, r6, r7, r8}
 8000010:	08000761 	stmdaeq	r0, {r0, r5, r6, r8, r9, sl}
 8000014:	08000775 	stmdaeq	r0, {r0, r2, r4, r5, r6, r8, r9, sl}
 8000018:	08000789 	stmdaeq	r0, {r0, r3, r7, r8, r9, sl}
	...
 800002c:	0800079d 	stmdaeq	r0, {r0, r2, r3, r4, r7, r8, r9, sl}
 8000030:	0800079f 	stmdaeq	r0, {r0, r1, r2, r3, r4, r7, r8, r9, sl}
 8000034:	00000000 	andeq	r0, r0, r0
 8000038:	080007a1 	stmdaeq	r0, {r0, r5, r7, r8, r9, sl}
 800003c:	080007a3 	stmdaeq	r0, {r0, r1, r5, r7, r8, r9, sl}
 8000040:	08002951 	stmdaeq	r0, {r0, r4, r6, r8, fp, sp}
 8000044:	08002951 	stmdaeq	r0, {r0, r4, r6, r8, fp, sp}
 8000048:	08002951 	stmdaeq	r0, {r0, r4, r6, r8, fp, sp}
 800004c:	08002951 	stmdaeq	r0, {r0, r4, r6, r8, fp, sp}
 8000050:	08002951 	stmdaeq	r0, {r0, r4, r6, r8, fp, sp}
 8000054:	08002951 	stmdaeq	r0, {r0, r4, r6, r8, fp, sp}
 8000058:	08002951 	stmdaeq	r0, {r0, r4, r6, r8, fp, sp}
 800005c:	08002951 	stmdaeq	r0, {r0, r4, r6, r8, fp, sp}
 8000060:	08002951 	stmdaeq	r0, {r0, r4, r6, r8, fp, sp}
 8000064:	08002951 	stmdaeq	r0, {r0, r4, r6, r8, fp, sp}
 8000068:	08002951 	stmdaeq	r0, {r0, r4, r6, r8, fp, sp}
 800006c:	08002951 	stmdaeq	r0, {r0, r4, r6, r8, fp, sp}
 8000070:	08002951 	stmdaeq	r0, {r0, r4, r6, r8, fp, sp}
 8000074:	08002951 	stmdaeq	r0, {r0, r4, r6, r8, fp, sp}
 8000078:	08002951 	stmdaeq	r0, {r0, r4, r6, r8, fp, sp}
 800007c:	08002951 	stmdaeq	r0, {r0, r4, r6, r8, fp, sp}
 8000080:	08002951 	stmdaeq	r0, {r0, r4, r6, r8, fp, sp}
 8000084:	08002951 	stmdaeq	r0, {r0, r4, r6, r8, fp, sp}
 8000088:	08002951 	stmdaeq	r0, {r0, r4, r6, r8, fp, sp}
 800008c:	08002951 	stmdaeq	r0, {r0, r4, r6, r8, fp, sp}
 8000090:	08002951 	stmdaeq	r0, {r0, r4, r6, r8, fp, sp}
 8000094:	08002951 	stmdaeq	r0, {r0, r4, r6, r8, fp, sp}
 8000098:	08002951 	stmdaeq	r0, {r0, r4, r6, r8, fp, sp}
 800009c:	08002951 	stmdaeq	r0, {r0, r4, r6, r8, fp, sp}
 80000a0:	08002951 	stmdaeq	r0, {r0, r4, r6, r8, fp, sp}
 80000a4:	08002951 	stmdaeq	r0, {r0, r4, r6, r8, fp, sp}
 80000a8:	08002951 	stmdaeq	r0, {r0, r4, r6, r8, fp, sp}
 80000ac:	08002951 	stmdaeq	r0, {r0, r4, r6, r8, fp, sp}
 80000b0:	080007a5 	stmdaeq	r0, {r0, r2, r5, r7, r8, r9, sl}
 80000b4:	08002951 	stmdaeq	r0, {r0, r4, r6, r8, fp, sp}
 80000b8:	08002951 	stmdaeq	r0, {r0, r4, r6, r8, fp, sp}
 80000bc:	08002951 	stmdaeq	r0, {r0, r4, r6, r8, fp, sp}
 80000c0:	08002951 	stmdaeq	r0, {r0, r4, r6, r8, fp, sp}
 80000c4:	08002951 	stmdaeq	r0, {r0, r4, r6, r8, fp, sp}
 80000c8:	08002951 	stmdaeq	r0, {r0, r4, r6, r8, fp, sp}
 80000cc:	08002951 	stmdaeq	r0, {r0, r4, r6, r8, fp, sp}
 80000d0:	08002951 	stmdaeq	r0, {r0, r4, r6, r8, fp, sp}
 80000d4:	080007b9 	stmdaeq	r0, {r0, r3, r4, r5, r7, r8, r9, sl}
 80000d8:	08002951 	stmdaeq	r0, {r0, r4, r6, r8, fp, sp}
 80000dc:	08002951 	stmdaeq	r0, {r0, r4, r6, r8, fp, sp}
 80000e0:	08002951 	stmdaeq	r0, {r0, r4, r6, r8, fp, sp}
 80000e4:	08002951 	stmdaeq	r0, {r0, r4, r6, r8, fp, sp}
 80000e8:	08002951 	stmdaeq	r0, {r0, r4, r6, r8, fp, sp}
 80000ec:	08002951 	stmdaeq	r0, {r0, r4, r6, r8, fp, sp}
 80000f0:	08002951 	stmdaeq	r0, {r0, r4, r6, r8, fp, sp}
 80000f4:	08002951 	stmdaeq	r0, {r0, r4, r6, r8, fp, sp}
 80000f8:	08002951 	stmdaeq	r0, {r0, r4, r6, r8, fp, sp}
 80000fc:	08002951 	stmdaeq	r0, {r0, r4, r6, r8, fp, sp}
 8000100:	08002951 	stmdaeq	r0, {r0, r4, r6, r8, fp, sp}
 8000104:	08002951 	stmdaeq	r0, {r0, r4, r6, r8, fp, sp}
 8000108:	08002951 	stmdaeq	r0, {r0, r4, r6, r8, fp, sp}
 800010c:	08002951 	stmdaeq	r0, {r0, r4, r6, r8, fp, sp}
 8000110:	08002951 	stmdaeq	r0, {r0, r4, r6, r8, fp, sp}
 8000114:	08002951 	stmdaeq	r0, {r0, r4, r6, r8, fp, sp}
 8000118:	08002951 	stmdaeq	r0, {r0, r4, r6, r8, fp, sp}
 800011c:	08002951 	stmdaeq	r0, {r0, r4, r6, r8, fp, sp}
 8000120:	08002951 	stmdaeq	r0, {r0, r4, r6, r8, fp, sp}
 8000124:	08002951 	stmdaeq	r0, {r0, r4, r6, r8, fp, sp}
 8000128:	08002951 	stmdaeq	r0, {r0, r4, r6, r8, fp, sp}
 800012c:	08002951 	stmdaeq	r0, {r0, r4, r6, r8, fp, sp}
 8000130:	08002951 	stmdaeq	r0, {r0, r4, r6, r8, fp, sp}
	...
 800013c:	08002951 	stmdaeq	r0, {r0, r4, r6, r8, fp, sp}
 8000140:	08002951 	stmdaeq	r0, {r0, r4, r6, r8, fp, sp}
 8000144:	08002951 	stmdaeq	r0, {r0, r4, r6, r8, fp, sp}
 8000148:	08002951 	stmdaeq	r0, {r0, r4, r6, r8, fp, sp}
 800014c:	08002951 	stmdaeq	r0, {r0, r4, r6, r8, fp, sp}
 8000150:	08002951 	stmdaeq	r0, {r0, r4, r6, r8, fp, sp}
 8000154:	08002951 	stmdaeq	r0, {r0, r4, r6, r8, fp, sp}
 8000158:	08002951 	stmdaeq	r0, {r0, r4, r6, r8, fp, sp}
 800015c:	08002951 	stmdaeq	r0, {r0, r4, r6, r8, fp, sp}
 8000160:	08002951 	stmdaeq	r0, {r0, r4, r6, r8, fp, sp}
 8000164:	08002951 	stmdaeq	r0, {r0, r4, r6, r8, fp, sp}
 8000168:	08002951 	stmdaeq	r0, {r0, r4, r6, r8, fp, sp}
 800016c:	08002951 	stmdaeq	r0, {r0, r4, r6, r8, fp, sp}
 8000170:	08002951 	stmdaeq	r0, {r0, r4, r6, r8, fp, sp}
 8000174:	08002951 	stmdaeq	r0, {r0, r4, r6, r8, fp, sp}
	...
 8000180:	08002951 	stmdaeq	r0, {r0, r4, r6, r8, fp, sp}
 8000184:	08002951 	stmdaeq	r0, {r0, r4, r6, r8, fp, sp}

Disassembly of section .text:

08000190 <__do_global_dtors_aux>:
 8000190:	b510      	push	{r4, lr}
 8000192:	4c05      	ldr	r4, [pc, #20]	; (80001a8 <__do_global_dtors_aux+0x18>)
 8000194:	7823      	ldrb	r3, [r4, #0]
 8000196:	b933      	cbnz	r3, 80001a6 <__do_global_dtors_aux+0x16>
 8000198:	4b04      	ldr	r3, [pc, #16]	; (80001ac <__do_global_dtors_aux+0x1c>)
 800019a:	b113      	cbz	r3, 80001a2 <__do_global_dtors_aux+0x12>
 800019c:	4804      	ldr	r0, [pc, #16]	; (80001b0 <__do_global_dtors_aux+0x20>)
 800019e:	f3af 8000 	nop.w
 80001a2:	2301      	movs	r3, #1
 80001a4:	7023      	strb	r3, [r4, #0]
 80001a6:	bd10      	pop	{r4, pc}
 80001a8:	20000078 	andcs	r0, r0, r8, ror r0
 80001ac:	00000000 	andeq	r0, r0, r0
 80001b0:	080039c0 	stmdaeq	r0, {r6, r7, r8, fp, ip, sp}

080001b4 <frame_dummy>:
 80001b4:	b508      	push	{r3, lr}
 80001b6:	4b03      	ldr	r3, [pc, #12]	; (80001c4 <frame_dummy+0x10>)
 80001b8:	b11b      	cbz	r3, 80001c2 <frame_dummy+0xe>
 80001ba:	4903      	ldr	r1, [pc, #12]	; (80001c8 <frame_dummy+0x14>)
 80001bc:	4803      	ldr	r0, [pc, #12]	; (80001cc <frame_dummy+0x18>)
 80001be:	f3af 8000 	nop.w
 80001c2:	bd08      	pop	{r3, pc}
 80001c4:	00000000 	andeq	r0, r0, r0
 80001c8:	2000007c 	andcs	r0, r0, ip, ror r0
 80001cc:	080039c0 	stmdaeq	r0, {r6, r7, r8, fp, ip, sp}

080001d0 <HardFault_Handler>:
.global fault_dump_handler

.global HardFault_Handler
.type HardFault_Handler, % function
HardFault_Handler:
    cpsid   i                           /* disable interrupts */
 80001d0:	b672      	cpsid	i
    ldr     r3, =fd_main_stack_base     /* r3 = &fd_main_stack_base */
 80001d2:	4b0e      	ldr	r3, [pc, #56]	; (800020c <stack_checked+0xc>)
    ldr     r1, [r3]                    /* r1 = fd_main_stack_base  */
 80001d4:	6819      	ldr	r1, [r3, #0]
    ldr     r3, =fd_main_stack_full     /* r3 = &fd_main_stack_full */
 80001d6:	4b0e      	ldr	r3, [pc, #56]	; (8000210 <stack_checked+0x10>)
    ldr     r2, [r3]                    /* r2 = fd_main_stack_full  */
 80001d8:	681a      	ldr	r2, [r3, #0]

    tst     lr, #4                      /* use exc_return value get sp value */
 80001da:	f01e 0f04 	tst.w	lr, #4
    bne     stack_use_psp               /* if (sp != msp), jump to stack_use_psp */
 80001de:	d10a      	bne.n	80001f6 <stack_use_psp>

    mrs     r0, msp                     /* else (sp == msp), r0 = sp = msp */
 80001e0:	f3ef 8008 	mrs	r0, MSP
    cmp     r0, r1                      /* compare msp and stack base addr */
 80001e4:	4288      	cmp	r0, r1
    blt     stack_invalid               /* msp < stack_base_addr, msp is invalid */
 80001e6:	db0a      	blt.n	80001fe <stack_invalid>
    cmp     r0, r2                      /* compare msp and stack full addr */
 80001e8:	4290      	cmp	r0, r2
    bgt     stack_invalid               /* msp > stack_base_addr, msp is invalid */
 80001ea:	dc08      	bgt.n	80001fe <stack_invalid>

    push    {r4 - r11}                  /* stack value is normal, push {r4 - r11} to stack */
 80001ec:	e92d 0ff0 	stmdb	sp!, {r4, r5, r6, r7, r8, r9, sl, fp}
    mrs     r0, msp                     /* refresh r0 = sp = msp */
 80001f0:	f3ef 8008 	mrs	r0, MSP
    b       stack_checked
 80001f4:	e004      	b.n	8000200 <stack_checked>

080001f6 <stack_use_psp>:
stack_use_psp:
    mrs     r0, psp                     /* lr & 0x04 == 0, r0 = sp = psp */
 80001f6:	f3ef 8009 	mrs	r0, PSP
    stmdb   r0!, {r4 - r11}             /* sp using psp, use stmdb push {r4 - r11} to stack */
 80001fa:	e920 0ff0 	stmdb	r0!, {r4, r5, r6, r7, r8, r9, sl, fp}

080001fe <stack_invalid>:
    
stack_invalid:
    nop                                 /* stack value is invalid, not to process temporary */
 80001fe:	bf00      	nop

08000200 <stack_checked>:
stack_checked:
    mov     r1, lr                      /* now, r0 = sp, r1 = lr */
 8000200:	4671      	mov	r1, lr
    ldr     r2, =fault_dump_handler     /* now, r2 = fault_dump_handler */
 8000202:	4a04      	ldr	r2, [pc, #16]	; (8000214 <stack_checked+0x14>)
    dsb                                 /* wait for memory access to complete */
 8000204:	f3bf 8f4f 	dsb	sy
    cpsie   i                           /* enable interrupts */
 8000208:	b662      	cpsie	i
    bx      r2                          /* jump to fault_dump_handler */
 800020a:	4710      	bx	r2
    ldr     r3, =fd_main_stack_base     /* r3 = &fd_main_stack_base */
 800020c:	20000228 	andcs	r0, r0, r8, lsr #4
    ldr     r3, =fd_main_stack_full     /* r3 = &fd_main_stack_full */
 8000210:	2000022c 	andcs	r0, r0, ip, lsr #4
    ldr     r2, =fault_dump_handler     /* now, r2 = fault_dump_handler */
 8000214:	080025d5 	stmdaeq	r0, {r0, r2, r4, r6, r7, r8, sl, sp}
	...

08000220 <memchr>:
 8000220:	f001 01ff 	and.w	r1, r1, #255	; 0xff
 8000224:	2a10      	cmp	r2, #16
 8000226:	db2b      	blt.n	8000280 <memchr+0x60>
 8000228:	f010 0f07 	tst.w	r0, #7
 800022c:	d008      	beq.n	8000240 <memchr+0x20>
 800022e:	f810 3b01 	ldrb.w	r3, [r0], #1
 8000232:	3a01      	subs	r2, #1
 8000234:	428b      	cmp	r3, r1
 8000236:	d02d      	beq.n	8000294 <memchr+0x74>
 8000238:	f010 0f07 	tst.w	r0, #7
 800023c:	b342      	cbz	r2, 8000290 <memchr+0x70>
 800023e:	d1f6      	bne.n	800022e <memchr+0xe>
 8000240:	b4f0      	push	{r4, r5, r6, r7}
 8000242:	ea41 2101 	orr.w	r1, r1, r1, lsl #8
 8000246:	ea41 4101 	orr.w	r1, r1, r1, lsl #16
 800024a:	f022 0407 	bic.w	r4, r2, #7
 800024e:	f07f 0700 	mvns.w	r7, #0
 8000252:	2300      	movs	r3, #0
 8000254:	e8f0 5602 	ldrd	r5, r6, [r0], #8
 8000258:	3c08      	subs	r4, #8
 800025a:	ea85 0501 	eor.w	r5, r5, r1
 800025e:	ea86 0601 	eor.w	r6, r6, r1
 8000262:	fa85 f547 	uadd8	r5, r5, r7
 8000266:	faa3 f587 	sel	r5, r3, r7
 800026a:	fa86 f647 	uadd8	r6, r6, r7
 800026e:	faa5 f687 	sel	r6, r5, r7
 8000272:	b98e      	cbnz	r6, 8000298 <memchr+0x78>
 8000274:	d1ee      	bne.n	8000254 <memchr+0x34>
 8000276:	bcf0      	pop	{r4, r5, r6, r7}
 8000278:	f001 01ff 	and.w	r1, r1, #255	; 0xff
 800027c:	f002 0207 	and.w	r2, r2, #7
 8000280:	b132      	cbz	r2, 8000290 <memchr+0x70>
 8000282:	f810 3b01 	ldrb.w	r3, [r0], #1
 8000286:	3a01      	subs	r2, #1
 8000288:	ea83 0301 	eor.w	r3, r3, r1
 800028c:	b113      	cbz	r3, 8000294 <memchr+0x74>
 800028e:	d1f8      	bne.n	8000282 <memchr+0x62>
 8000290:	2000      	movs	r0, #0
 8000292:	4770      	bx	lr
 8000294:	3801      	subs	r0, #1
 8000296:	4770      	bx	lr
 8000298:	2d00      	cmp	r5, #0
 800029a:	bf06      	itte	eq
 800029c:	4635      	moveq	r5, r6
 800029e:	3803      	subeq	r0, #3
 80002a0:	3807      	subne	r0, #7
 80002a2:	f015 0f01 	tst.w	r5, #1
 80002a6:	d107      	bne.n	80002b8 <memchr+0x98>
 80002a8:	3001      	adds	r0, #1
 80002aa:	f415 7f80 	tst.w	r5, #256	; 0x100
 80002ae:	bf02      	ittt	eq
 80002b0:	3001      	addeq	r0, #1
 80002b2:	f415 3fc0 	tsteq.w	r5, #98304	; 0x18000
 80002b6:	3001      	addeq	r0, #1
 80002b8:	bcf0      	pop	{r4, r5, r6, r7}
 80002ba:	3801      	subs	r0, #1
 80002bc:	4770      	bx	lr
 80002be:	bf00      	nop

080002c0 <__aeabi_uldivmod>:
 80002c0:	b953      	cbnz	r3, 80002d8 <__aeabi_uldivmod+0x18>
 80002c2:	b94a      	cbnz	r2, 80002d8 <__aeabi_uldivmod+0x18>
 80002c4:	2900      	cmp	r1, #0
 80002c6:	bf08      	it	eq
 80002c8:	2800      	cmpeq	r0, #0
 80002ca:	bf1c      	itt	ne
 80002cc:	f04f 31ff 	movne.w	r1, #4294967295
 80002d0:	f04f 30ff 	movne.w	r0, #4294967295
 80002d4:	f000 b974 	b.w	80005c0 <__aeabi_idiv0>
 80002d8:	f1ad 0c08 	sub.w	ip, sp, #8
 80002dc:	e96d ce04 	strd	ip, lr, [sp, #-16]!
 80002e0:	f000 f806 	bl	80002f0 <__udivmoddi4>
 80002e4:	f8dd e004 	ldr.w	lr, [sp, #4]
 80002e8:	e9dd 2302 	ldrd	r2, r3, [sp, #8]
 80002ec:	b004      	add	sp, #16
 80002ee:	4770      	bx	lr

080002f0 <__udivmoddi4>:
 80002f0:	e92d 47f0 	stmdb	sp!, {r4, r5, r6, r7, r8, r9, sl, lr}
 80002f4:	9d08      	ldr	r5, [sp, #32]
 80002f6:	4604      	mov	r4, r0
 80002f8:	468e      	mov	lr, r1
 80002fa:	2b00      	cmp	r3, #0
 80002fc:	d14d      	bne.n	800039a <__udivmoddi4+0xaa>
 80002fe:	428a      	cmp	r2, r1
 8000300:	4694      	mov	ip, r2
 8000302:	d969      	bls.n	80003d8 <__udivmoddi4+0xe8>
 8000304:	fab2 f282 	clz	r2, r2
 8000308:	b152      	cbz	r2, 8000320 <__udivmoddi4+0x30>
 800030a:	fa01 f302 	lsl.w	r3, r1, r2
 800030e:	f1c2 0120 	rsb	r1, r2, #32
 8000312:	fa20 f101 	lsr.w	r1, r0, r1
 8000316:	fa0c fc02 	lsl.w	ip, ip, r2
 800031a:	ea41 0e03 	orr.w	lr, r1, r3
 800031e:	4094      	lsls	r4, r2
 8000320:	ea4f 481c 	mov.w	r8, ip, lsr #16
 8000324:	0c21      	lsrs	r1, r4, #16
 8000326:	fbbe f6f8 	udiv	r6, lr, r8
 800032a:	fa1f f78c 	uxth.w	r7, ip
 800032e:	fb08 e316 	mls	r3, r8, r6, lr
 8000332:	ea41 4303 	orr.w	r3, r1, r3, lsl #16
 8000336:	fb06 f107 	mul.w	r1, r6, r7
 800033a:	4299      	cmp	r1, r3
 800033c:	d90a      	bls.n	8000354 <__udivmoddi4+0x64>
 800033e:	eb1c 0303 	adds.w	r3, ip, r3
 8000342:	f106 30ff 	add.w	r0, r6, #4294967295
 8000346:	f080 811f 	bcs.w	8000588 <__udivmoddi4+0x298>
 800034a:	4299      	cmp	r1, r3
 800034c:	f240 811c 	bls.w	8000588 <__udivmoddi4+0x298>
 8000350:	3e02      	subs	r6, #2
 8000352:	4463      	add	r3, ip
 8000354:	1a5b      	subs	r3, r3, r1
 8000356:	b2a4      	uxth	r4, r4
 8000358:	fbb3 f0f8 	udiv	r0, r3, r8
 800035c:	fb08 3310 	mls	r3, r8, r0, r3
 8000360:	ea44 4403 	orr.w	r4, r4, r3, lsl #16
 8000364:	fb00 f707 	mul.w	r7, r0, r7
 8000368:	42a7      	cmp	r7, r4
 800036a:	d90a      	bls.n	8000382 <__udivmoddi4+0x92>
 800036c:	eb1c 0404 	adds.w	r4, ip, r4
 8000370:	f100 33ff 	add.w	r3, r0, #4294967295
 8000374:	f080 810a 	bcs.w	800058c <__udivmoddi4+0x29c>
 8000378:	42a7      	cmp	r7, r4
 800037a:	f240 8107 	bls.w	800058c <__udivmoddi4+0x29c>
 800037e:	4464      	add	r4, ip
 8000380:	3802      	subs	r0, #2
 8000382:	ea40 4006 	orr.w	r0, r0, r6, lsl #16
 8000386:	1be4      	subs	r4, r4, r7
 8000388:	2600      	movs	r6, #0
 800038a:	b11d      	cbz	r5, 8000394 <__udivmoddi4+0xa4>
 800038c:	40d4      	lsrs	r4, r2
 800038e:	2300      	movs	r3, #0
 8000390:	e9c5 4300 	strd	r4, r3, [r5]
 8000394:	4631      	mov	r1, r6
 8000396:	e8bd 87f0 	ldmia.w	sp!, {r4, r5, r6, r7, r8, r9, sl, pc}
 800039a:	428b      	cmp	r3, r1
 800039c:	d909      	bls.n	80003b2 <__udivmoddi4+0xc2>
 800039e:	2d00      	cmp	r5, #0
 80003a0:	f000 80ef 	beq.w	8000582 <__udivmoddi4+0x292>
 80003a4:	2600      	movs	r6, #0
 80003a6:	e9c5 0100 	strd	r0, r1, [r5]
 80003aa:	4630      	mov	r0, r6
 80003ac:	4631      	mov	r1, r6
 80003ae:	e8bd 87f0 	ldmia.w	sp!, {r4, r5, r6, r7, r8, r9, sl, pc}
 80003b2:	fab3 f683 	clz	r6, r3
 80003b6:	2e00      	cmp	r6, #0
 80003b8:	d14a      	bne.n	8000450 <__udivmoddi4+0x160>
 80003ba:	428b      	cmp	r3, r1
 80003bc:	d302      	bcc.n	80003c4 <__udivmoddi4+0xd4>
 80003be:	4282      	cmp	r2, r0
 80003c0:	f200 80f9 	bhi.w	80005b6 <__udivmoddi4+0x2c6>
 80003c4:	1a84      	subs	r4, r0, r2
 80003c6:	eb61 0303 	sbc.w	r3, r1, r3
 80003ca:	2001      	movs	r0, #1
 80003cc:	469e      	mov	lr, r3
 80003ce:	2d00      	cmp	r5, #0
 80003d0:	d0e0      	beq.n	8000394 <__udivmoddi4+0xa4>
 80003d2:	e9c5 4e00 	strd	r4, lr, [r5]
 80003d6:	e7dd      	b.n	8000394 <__udivmoddi4+0xa4>
 80003d8:	b902      	cbnz	r2, 80003dc <__udivmoddi4+0xec>
 80003da:	deff      	udf	#255	; 0xff
 80003dc:	fab2 f282 	clz	r2, r2
 80003e0:	2a00      	cmp	r2, #0
 80003e2:	f040 8092 	bne.w	800050a <__udivmoddi4+0x21a>
 80003e6:	eba1 010c 	sub.w	r1, r1, ip
 80003ea:	ea4f 471c 	mov.w	r7, ip, lsr #16
 80003ee:	fa1f fe8c 	uxth.w	lr, ip
 80003f2:	2601      	movs	r6, #1
 80003f4:	0c20      	lsrs	r0, r4, #16
 80003f6:	fbb1 f3f7 	udiv	r3, r1, r7
 80003fa:	fb07 1113 	mls	r1, r7, r3, r1
 80003fe:	ea40 4101 	orr.w	r1, r0, r1, lsl #16
 8000402:	fb0e f003 	mul.w	r0, lr, r3
 8000406:	4288      	cmp	r0, r1
 8000408:	d908      	bls.n	800041c <__udivmoddi4+0x12c>
 800040a:	eb1c 0101 	adds.w	r1, ip, r1
 800040e:	f103 38ff 	add.w	r8, r3, #4294967295
 8000412:	d202      	bcs.n	800041a <__udivmoddi4+0x12a>
 8000414:	4288      	cmp	r0, r1
 8000416:	f200 80cb 	bhi.w	80005b0 <__udivmoddi4+0x2c0>
 800041a:	4643      	mov	r3, r8
 800041c:	1a09      	subs	r1, r1, r0
 800041e:	b2a4      	uxth	r4, r4
 8000420:	fbb1 f0f7 	udiv	r0, r1, r7
 8000424:	fb07 1110 	mls	r1, r7, r0, r1
 8000428:	ea44 4401 	orr.w	r4, r4, r1, lsl #16
 800042c:	fb0e fe00 	mul.w	lr, lr, r0
 8000430:	45a6      	cmp	lr, r4
 8000432:	d908      	bls.n	8000446 <__udivmoddi4+0x156>
 8000434:	eb1c 0404 	adds.w	r4, ip, r4
 8000438:	f100 31ff 	add.w	r1, r0, #4294967295
 800043c:	d202      	bcs.n	8000444 <__udivmoddi4+0x154>
 800043e:	45a6      	cmp	lr, r4
 8000440:	f200 80bb 	bhi.w	80005ba <__udivmoddi4+0x2ca>
 8000444:	4608      	mov	r0, r1
 8000446:	eba4 040e 	sub.w	r4, r4, lr
 800044a:	ea40 4003 	orr.w	r0, r0, r3, lsl #16
 800044e:	e79c      	b.n	800038a <__udivmoddi4+0x9a>
 8000450:	f1c6 0720 	rsb	r7, r6, #32
 8000454:	40b3      	lsls	r3, r6
 8000456:	fa22 fc07 	lsr.w	ip, r2, r7
 800045a:	ea4c 0c03 	orr.w	ip, ip, r3
 800045e:	fa20 f407 	lsr.w	r4, r0, r7
 8000462:	fa01 f306 	lsl.w	r3, r1, r6
 8000466:	431c      	orrs	r4, r3
 8000468:	40f9      	lsrs	r1, r7
 800046a:	ea4f 491c 	mov.w	r9, ip, lsr #16
 800046e:	fa00 f306 	lsl.w	r3, r0, r6
 8000472:	fbb1 f8f9 	udiv	r8, r1, r9
 8000476:	0c20      	lsrs	r0, r4, #16
 8000478:	fa1f fe8c 	uxth.w	lr, ip
 800047c:	fb09 1118 	mls	r1, r9, r8, r1
 8000480:	ea40 4101 	orr.w	r1, r0, r1, lsl #16
 8000484:	fb08 f00e 	mul.w	r0, r8, lr
 8000488:	4288      	cmp	r0, r1
 800048a:	fa02 f206 	lsl.w	r2, r2, r6
 800048e:	d90b      	bls.n	80004a8 <__udivmoddi4+0x1b8>
 8000490:	eb1c 0101 	adds.w	r1, ip, r1
 8000494:	f108 3aff 	add.w	sl, r8, #4294967295
 8000498:	f080 8088 	bcs.w	80005ac <__udivmoddi4+0x2bc>
 800049c:	4288      	cmp	r0, r1
 800049e:	f240 8085 	bls.w	80005ac <__udivmoddi4+0x2bc>
 80004a2:	f1a8 0802 	sub.w	r8, r8, #2
 80004a6:	4461      	add	r1, ip
 80004a8:	1a09      	subs	r1, r1, r0
 80004aa:	b2a4      	uxth	r4, r4
 80004ac:	fbb1 f0f9 	udiv	r0, r1, r9
 80004b0:	fb09 1110 	mls	r1, r9, r0, r1
 80004b4:	ea44 4101 	orr.w	r1, r4, r1, lsl #16
 80004b8:	fb00 fe0e 	mul.w	lr, r0, lr
 80004bc:	458e      	cmp	lr, r1
 80004be:	d908      	bls.n	80004d2 <__udivmoddi4+0x1e2>
 80004c0:	eb1c 0101 	adds.w	r1, ip, r1
 80004c4:	f100 34ff 	add.w	r4, r0, #4294967295
 80004c8:	d26c      	bcs.n	80005a4 <__udivmoddi4+0x2b4>
 80004ca:	458e      	cmp	lr, r1
 80004cc:	d96a      	bls.n	80005a4 <__udivmoddi4+0x2b4>
 80004ce:	3802      	subs	r0, #2
 80004d0:	4461      	add	r1, ip
 80004d2:	ea40 4008 	orr.w	r0, r0, r8, lsl #16
 80004d6:	fba0 9402 	umull	r9, r4, r0, r2
 80004da:	eba1 010e 	sub.w	r1, r1, lr
 80004de:	42a1      	cmp	r1, r4
 80004e0:	46c8      	mov	r8, r9
 80004e2:	46a6      	mov	lr, r4
 80004e4:	d356      	bcc.n	8000594 <__udivmoddi4+0x2a4>
 80004e6:	d053      	beq.n	8000590 <__udivmoddi4+0x2a0>
 80004e8:	b15d      	cbz	r5, 8000502 <__udivmoddi4+0x212>
 80004ea:	ebb3 0208 	subs.w	r2, r3, r8
 80004ee:	eb61 010e 	sbc.w	r1, r1, lr
 80004f2:	fa01 f707 	lsl.w	r7, r1, r7
 80004f6:	fa22 f306 	lsr.w	r3, r2, r6
 80004fa:	40f1      	lsrs	r1, r6
 80004fc:	431f      	orrs	r7, r3
 80004fe:	e9c5 7100 	strd	r7, r1, [r5]
 8000502:	2600      	movs	r6, #0
 8000504:	4631      	mov	r1, r6
 8000506:	e8bd 87f0 	ldmia.w	sp!, {r4, r5, r6, r7, r8, r9, sl, pc}
 800050a:	f1c2 0320 	rsb	r3, r2, #32
 800050e:	40d8      	lsrs	r0, r3
 8000510:	fa0c fc02 	lsl.w	ip, ip, r2
 8000514:	fa21 f303 	lsr.w	r3, r1, r3
 8000518:	4091      	lsls	r1, r2
 800051a:	4301      	orrs	r1, r0
 800051c:	ea4f 471c 	mov.w	r7, ip, lsr #16
 8000520:	fa1f fe8c 	uxth.w	lr, ip
 8000524:	fbb3 f0f7 	udiv	r0, r3, r7
 8000528:	fb07 3610 	mls	r6, r7, r0, r3
 800052c:	0c0b      	lsrs	r3, r1, #16
 800052e:	ea43 4306 	orr.w	r3, r3, r6, lsl #16
 8000532:	fb00 f60e 	mul.w	r6, r0, lr
 8000536:	429e      	cmp	r6, r3
 8000538:	fa04 f402 	lsl.w	r4, r4, r2
 800053c:	d908      	bls.n	8000550 <__udivmoddi4+0x260>
 800053e:	eb1c 0303 	adds.w	r3, ip, r3
 8000542:	f100 38ff 	add.w	r8, r0, #4294967295
 8000546:	d22f      	bcs.n	80005a8 <__udivmoddi4+0x2b8>
 8000548:	429e      	cmp	r6, r3
 800054a:	d92d      	bls.n	80005a8 <__udivmoddi4+0x2b8>
 800054c:	3802      	subs	r0, #2
 800054e:	4463      	add	r3, ip
 8000550:	1b9b      	subs	r3, r3, r6
 8000552:	b289      	uxth	r1, r1
 8000554:	fbb3 f6f7 	udiv	r6, r3, r7
 8000558:	fb07 3316 	mls	r3, r7, r6, r3
 800055c:	ea41 4103 	orr.w	r1, r1, r3, lsl #16
 8000560:	fb06 f30e 	mul.w	r3, r6, lr
 8000564:	428b      	cmp	r3, r1
 8000566:	d908      	bls.n	800057a <__udivmoddi4+0x28a>
 8000568:	eb1c 0101 	adds.w	r1, ip, r1
 800056c:	f106 38ff 	add.w	r8, r6, #4294967295
 8000570:	d216      	bcs.n	80005a0 <__udivmoddi4+0x2b0>
 8000572:	428b      	cmp	r3, r1
 8000574:	d914      	bls.n	80005a0 <__udivmoddi4+0x2b0>
 8000576:	3e02      	subs	r6, #2
 8000578:	4461      	add	r1, ip
 800057a:	1ac9      	subs	r1, r1, r3
 800057c:	ea46 4600 	orr.w	r6, r6, r0, lsl #16
 8000580:	e738      	b.n	80003f4 <__udivmoddi4+0x104>
 8000582:	462e      	mov	r6, r5
 8000584:	4628      	mov	r0, r5
 8000586:	e705      	b.n	8000394 <__udivmoddi4+0xa4>
 8000588:	4606      	mov	r6, r0
 800058a:	e6e3      	b.n	8000354 <__udivmoddi4+0x64>
 800058c:	4618      	mov	r0, r3
 800058e:	e6f8      	b.n	8000382 <__udivmoddi4+0x92>
 8000590:	454b      	cmp	r3, r9
 8000592:	d2a9      	bcs.n	80004e8 <__udivmoddi4+0x1f8>
 8000594:	ebb9 0802 	subs.w	r8, r9, r2
 8000598:	eb64 0e0c 	sbc.w	lr, r4, ip
 800059c:	3801      	subs	r0, #1
 800059e:	e7a3      	b.n	80004e8 <__udivmoddi4+0x1f8>
 80005a0:	4646      	mov	r6, r8
 80005a2:	e7ea      	b.n	800057a <__udivmoddi4+0x28a>
 80005a4:	4620      	mov	r0, r4
 80005a6:	e794      	b.n	80004d2 <__udivmoddi4+0x1e2>
 80005a8:	4640      	mov	r0, r8
 80005aa:	e7d1      	b.n	8000550 <__udivmoddi4+0x260>
 80005ac:	46d0      	mov	r8, sl
 80005ae:	e77b      	b.n	80004a8 <__udivmoddi4+0x1b8>
 80005b0:	3b02      	subs	r3, #2
 80005b2:	4461      	add	r1, ip
 80005b4:	e732      	b.n	800041c <__udivmoddi4+0x12c>
 80005b6:	4630      	mov	r0, r6
 80005b8:	e709      	b.n	80003ce <__udivmoddi4+0xde>
 80005ba:	4464      	add	r4, ip
 80005bc:	3802      	subs	r0, #2
 80005be:	e742      	b.n	8000446 <__udivmoddi4+0x156>

080005c0 <__aeabi_idiv0>:
 80005c0:	4770      	bx	lr
 80005c2:	bf00      	nop

080005c4 <__io_putchar>:
#include "fault-dump.h"

void SystemClock_Config(void);

#ifdef __GNUC__
int __io_putchar(int ch) {
 80005c4:	b500      	push	{lr}
 80005c6:	b083      	sub	sp, #12
 80005c8:	9001      	str	r0, [sp, #4]
    HAL_UART_Transmit(&huart1, (uint8_t *)&ch, 1, 0xFFFF);
 80005ca:	f64f 73ff 	movw	r3, #65535	; 0xffff
 80005ce:	2201      	movs	r2, #1
 80005d0:	a901      	add	r1, sp, #4
 80005d2:	4803      	ldr	r0, [pc, #12]	; (80005e0 <__io_putchar+0x1c>)
 80005d4:	f000 fe4e 	bl	8001274 <HAL_UART_Transmit>
    return ch;
}
 80005d8:	9801      	ldr	r0, [sp, #4]
 80005da:	b003      	add	sp, #12
 80005dc:	f85d fb04 	ldr.w	pc, [sp], #4
 80005e0:	20000094 	mulcs	r0, r4, r0

080005e4 <test0>:
}
#else
#error "io port does not support current compiler."
#endif

void test0(void) {
 80005e4:	b508      	push	{r3, lr}
    printf("this is %s.\r\n", __func__);
 80005e6:	4903      	ldr	r1, [pc, #12]	; (80005f4 <test0+0x10>)
 80005e8:	4803      	ldr	r0, [pc, #12]	; (80005f8 <test0+0x14>)
 80005ea:	f002 f9e5 	bl	80029b8 <iprintf>
    extern void fault_dump_unalign(void);
    fault_dump_unalign();
 80005ee:	f002 f913 	bl	8002818 <fault_dump_unalign>
}
 80005f2:	bd08      	pop	{r3, pc}
 80005f4:	08003a20 	stmdaeq	r0, {r5, r9, fp, ip, sp}
 80005f8:	080039d8 	stmdaeq	r0, {r3, r4, r6, r7, r8, fp, ip, sp}

080005fc <test1>:

void test1(void) {
 80005fc:	b508      	push	{r3, lr}
    printf("this is %s.\r\n", __func__);
 80005fe:	4903      	ldr	r1, [pc, #12]	; (800060c <test1+0x10>)
 8000600:	4803      	ldr	r0, [pc, #12]	; (8000610 <test1+0x14>)
 8000602:	f002 f9d9 	bl	80029b8 <iprintf>
    test0();
 8000606:	f7ff ffed 	bl	80005e4 <test0>
}
 800060a:	bd08      	pop	{r3, pc}
 800060c:	08003a18 	stmdaeq	r0, {r3, r4, r9, fp, ip, sp}
 8000610:	080039d8 	stmdaeq	r0, {r3, r4, r6, r7, r8, fp, ip, sp}

08000614 <test2>:

void test2(void) {
 8000614:	b508      	push	{r3, lr}
    printf("this is %s.\r\n", __func__);
 8000616:	4903      	ldr	r1, [pc, #12]	; (8000624 <test2+0x10>)
 8000618:	4803      	ldr	r0, [pc, #12]	; (8000628 <test2+0x14>)
 800061a:	f002 f9cd 	bl	80029b8 <iprintf>
    test1();
 800061e:	f7ff ffed 	bl	80005fc <test1>
}
 8000622:	bd08      	pop	{r3, pc}
 8000624:	08003a10 	stmdaeq	r0, {r4, r9, fp, ip, sp}
 8000628:	080039d8 	stmdaeq	r0, {r3, r4, r6, r7, r8, fp, ip, sp}

0800062c <test3>:

void test3(void) {
 800062c:	b508      	push	{r3, lr}
    printf("this is %s.\r\n", __func__);
 800062e:	4903      	ldr	r1, [pc, #12]	; (800063c <test3+0x10>)
 8000630:	4803      	ldr	r0, [pc, #12]	; (8000640 <test3+0x14>)
 8000632:	f002 f9c1 	bl	80029b8 <iprintf>
    test2();
 8000636:	f7ff ffed 	bl	8000614 <test2>
}
 800063a:	bd08      	pop	{r3, pc}
 800063c:	08003a08 	stmdaeq	r0, {r3, r9, fp, ip, sp}
 8000640:	080039d8 	stmdaeq	r0, {r3, r4, r6, r7, r8, fp, ip, sp}

08000644 <test4>:

void test4(void) {
 8000644:	b508      	push	{r3, lr}
    printf("this is %s.\r\n", __func__);
 8000646:	4903      	ldr	r1, [pc, #12]	; (8000654 <test4+0x10>)
 8000648:	4803      	ldr	r0, [pc, #12]	; (8000658 <test4+0x14>)
 800064a:	f002 f9b5 	bl	80029b8 <iprintf>
    test3();
 800064e:	f7ff ffed 	bl	800062c <test3>
}
 8000652:	bd08      	pop	{r3, pc}
 8000654:	08003a00 	stmdaeq	r0, {r9, fp, ip, sp}
 8000658:	080039d8 	stmdaeq	r0, {r3, r4, r6, r7, r8, fp, ip, sp}

0800065c <test5>:

void test5(void) {
 800065c:	b508      	push	{r3, lr}
    printf("this is %s.\r\n", __func__);
 800065e:	4903      	ldr	r1, [pc, #12]	; (800066c <test5+0x10>)
 8000660:	4803      	ldr	r0, [pc, #12]	; (8000670 <test5+0x14>)
 8000662:	f002 f9a9 	bl	80029b8 <iprintf>
    test4();
 8000666:	f7ff ffed 	bl	8000644 <test4>
}
 800066a:	bd08      	pop	{r3, pc}
 800066c:	080039f8 	stmdaeq	r0, {r3, r4, r5, r6, r7, r8, fp, ip, sp}
 8000670:	080039d8 	stmdaeq	r0, {r3, r4, r6, r7, r8, fp, ip, sp}

08000674 <SystemClock_Config>:
        HAL_Delay(1000);
    }
    return 0;
}

void SystemClock_Config(void) {
 8000674:	b500      	push	{lr}
 8000676:	b095      	sub	sp, #84	; 0x54
    RCC_OscInitTypeDef RCC_OscInitStruct = {0};
 8000678:	2230      	movs	r2, #48	; 0x30
 800067a:	2100      	movs	r1, #0
 800067c:	a808      	add	r0, sp, #32
 800067e:	f002 f993 	bl	80029a8 <memset>
    RCC_ClkInitTypeDef RCC_ClkInitStruct = {0};
 8000682:	2300      	movs	r3, #0
 8000684:	9303      	str	r3, [sp, #12]
 8000686:	9304      	str	r3, [sp, #16]
 8000688:	9305      	str	r3, [sp, #20]
 800068a:	9306      	str	r3, [sp, #24]
 800068c:	9307      	str	r3, [sp, #28]

    /** Configure the main internal regulator output voltage
     */
    __HAL_RCC_PWR_CLK_ENABLE();
 800068e:	9301      	str	r3, [sp, #4]
 8000690:	4a20      	ldr	r2, [pc, #128]	; (8000714 <SystemClock_Config+0xa0>)
 8000692:	6c11      	ldr	r1, [r2, #64]	; 0x40
 8000694:	f041 5180 	orr.w	r1, r1, #268435456	; 0x10000000
 8000698:	6411      	str	r1, [r2, #64]	; 0x40
 800069a:	6c12      	ldr	r2, [r2, #64]	; 0x40
 800069c:	f002 5280 	and.w	r2, r2, #268435456	; 0x10000000
 80006a0:	9201      	str	r2, [sp, #4]
 80006a2:	9a01      	ldr	r2, [sp, #4]
    __HAL_PWR_VOLTAGESCALING_CONFIG(PWR_REGULATOR_VOLTAGE_SCALE1);
 80006a4:	9302      	str	r3, [sp, #8]
 80006a6:	4a1c      	ldr	r2, [pc, #112]	; (8000718 <SystemClock_Config+0xa4>)
 80006a8:	6811      	ldr	r1, [r2, #0]
 80006aa:	f441 4180 	orr.w	r1, r1, #16384	; 0x4000
 80006ae:	6011      	str	r1, [r2, #0]
 80006b0:	6812      	ldr	r2, [r2, #0]
 80006b2:	f402 4280 	and.w	r2, r2, #16384	; 0x4000
 80006b6:	9202      	str	r2, [sp, #8]
 80006b8:	9a02      	ldr	r2, [sp, #8]

    /** Initializes the RCC Oscillators according to the specified parameters
     * in the RCC_OscInitTypeDef structure.
     */
    RCC_OscInitStruct.OscillatorType = RCC_OSCILLATORTYPE_HSI;
 80006ba:	2202      	movs	r2, #2
 80006bc:	9208      	str	r2, [sp, #32]
    RCC_OscInitStruct.HSIState = RCC_HSI_ON;
 80006be:	2101      	movs	r1, #1
 80006c0:	910b      	str	r1, [sp, #44]	; 0x2c
    RCC_OscInitStruct.HSICalibrationValue = RCC_HSICALIBRATION_DEFAULT;
 80006c2:	2110      	movs	r1, #16
 80006c4:	910c      	str	r1, [sp, #48]	; 0x30
    RCC_OscInitStruct.PLL.PLLState = RCC_PLL_ON;
 80006c6:	920e      	str	r2, [sp, #56]	; 0x38
    RCC_OscInitStruct.PLL.PLLSource = RCC_PLLSOURCE_HSI;
 80006c8:	930f      	str	r3, [sp, #60]	; 0x3c
    RCC_OscInitStruct.PLL.PLLM = 8;
 80006ca:	2308      	movs	r3, #8
 80006cc:	9310      	str	r3, [sp, #64]	; 0x40
    RCC_OscInitStruct.PLL.PLLN = 168;
 80006ce:	23a8      	movs	r3, #168	; 0xa8
 80006d0:	9311      	str	r3, [sp, #68]	; 0x44
    RCC_OscInitStruct.PLL.PLLP = RCC_PLLP_DIV2;
 80006d2:	9212      	str	r2, [sp, #72]	; 0x48
    RCC_OscInitStruct.PLL.PLLQ = 4;
 80006d4:	2304      	movs	r3, #4
 80006d6:	9313      	str	r3, [sp, #76]	; 0x4c
    if (HAL_RCC_OscConfig(&RCC_OscInitStruct) != HAL_OK) {
 80006d8:	a808      	add	r0, sp, #32
 80006da:	f001 f801 	bl	80016e0 <HAL_RCC_OscConfig>
 80006de:	b990      	cbnz	r0, 8000706 <SystemClock_Config+0x92>
        Error_Handler();
    }

    /** Initializes the CPU, AHB and APB buses clocks
     */
    RCC_ClkInitStruct.ClockType = RCC_CLOCKTYPE_HCLK|RCC_CLOCKTYPE_SYSCLK
 80006e0:	230f      	movs	r3, #15
 80006e2:	9303      	str	r3, [sp, #12]
                                |RCC_CLOCKTYPE_PCLK1|RCC_CLOCKTYPE_PCLK2;
    RCC_ClkInitStruct.SYSCLKSource = RCC_SYSCLKSOURCE_PLLCLK;
 80006e4:	2302      	movs	r3, #2
 80006e6:	9304      	str	r3, [sp, #16]
    RCC_ClkInitStruct.AHBCLKDivider = RCC_SYSCLK_DIV1;
 80006e8:	2100      	movs	r1, #0
 80006ea:	9105      	str	r1, [sp, #20]
    RCC_ClkInitStruct.APB1CLKDivider = RCC_HCLK_DIV4;
 80006ec:	f44f 53a0 	mov.w	r3, #5120	; 0x1400
 80006f0:	9306      	str	r3, [sp, #24]
    RCC_ClkInitStruct.APB2CLKDivider = RCC_HCLK_DIV2;
 80006f2:	f44f 5380 	mov.w	r3, #4096	; 0x1000
 80006f6:	9307      	str	r3, [sp, #28]

    if (HAL_RCC_ClockConfig(&RCC_ClkInitStruct, FLASH_LATENCY_0) != HAL_OK) {
 80006f8:	a803      	add	r0, sp, #12
 80006fa:	f001 fad9 	bl	8001cb0 <HAL_RCC_ClockConfig>
 80006fe:	b928      	cbnz	r0, 800070c <SystemClock_Config+0x98>
        Error_Handler();
    }
}
 8000700:	b015      	add	sp, #84	; 0x54
 8000702:	f85d fb04 	ldr.w	pc, [sp], #4
        Error_Handler();
 8000706:	f000 f85f 	bl	80007c8 <Error_Handler>
 800070a:	e7e9      	b.n	80006e0 <SystemClock_Config+0x6c>
        Error_Handler();
 800070c:	f000 f85c 	bl	80007c8 <Error_Handler>
}
 8000710:	e7f6      	b.n	8000700 <SystemClock_Config+0x8c>
 8000712:	bf00      	nop
 8000714:	40023800 	andmi	r3, r2, r0, lsl #16
 8000718:	40007000 	andmi	r7, r0, r0

0800071c <main>:
int main(void) {
 800071c:	b508      	push	{r3, lr}
    HAL_Init();
 800071e:	f001 fe67 	bl	80023f0 <HAL_Init>
    SystemClock_Config();
 8000722:	f7ff ffa7 	bl	8000674 <SystemClock_Config>
    MX_GPIO_Init();
 8000726:	f000 f867 	bl	80007f8 <MX_GPIO_Init>
    MX_USART1_UART_Init();
 800072a:	f000 f88b 	bl	8000844 <MX_USART1_UART_Init>
    fault_dump_init();
 800072e:	f001 ff29 	bl	8002584 <fault_dump_init>
    test5();
 8000732:	f7ff ff93 	bl	800065c <test5>
        printf("hello qemu.\r\n");
 8000736:	4804      	ldr	r0, [pc, #16]	; (8000748 <main+0x2c>)
 8000738:	f002 f9c4 	bl	8002ac4 <puts>
        HAL_Delay(1000);
 800073c:	f44f 707a 	mov.w	r0, #1000	; 0x3e8
 8000740:	f001 fe82 	bl	8002448 <HAL_Delay>
    while (1) {
 8000744:	e7f7      	b.n	8000736 <main+0x1a>
 8000746:	bf00      	nop
 8000748:	080039e8 	stmdaeq	r0, {r3, r5, r6, r7, r8, fp, ip, sp}

0800074c <NMI_Handler>:
/******************************************************************************/
/**
  * @brief This function handles Non maskable interrupt.
  */
void NMI_Handler(void)
{
 800074c:	b508      	push	{r3, lr}
  /* USER CODE BEGIN NonMaskableInt_IRQn 0 */
  printf("this is %s.\r\n", __func__);
 800074e:	4902      	ldr	r1, [pc, #8]	; (8000758 <NMI_Handler+0xc>)
 8000750:	4802      	ldr	r0, [pc, #8]	; (800075c <NMI_Handler+0x10>)
 8000752:	f002 f931 	bl	80029b8 <iprintf>
  /* USER CODE END NonMaskableInt_IRQn 0 */
  /* USER CODE BEGIN NonMaskableInt_IRQn 1 */
  while (1)
 8000756:	e7fe      	b.n	8000756 <NMI_Handler+0xa>
 8000758:	08003a84 	stmdaeq	r0, {r2, r7, r9, fp, ip, sp}
 800075c:	080039d8 	stmdaeq	r0, {r3, r4, r6, r7, r8, fp, ip, sp}

08000760 <MemManage_Handler>:

/**
  * @brief This function handles Memory management fault.
  */
void MemManage_Handler(void)
{
 8000760:	b508      	push	{r3, lr}
  /* USER CODE BEGIN MemoryManagement_IRQn 0 */
  printf("this is %s.\r\n", __func__);
 8000762:	4902      	ldr	r1, [pc, #8]	; (800076c <MemManage_Handler+0xc>)
 8000764:	4802      	ldr	r0, [pc, #8]	; (8000770 <MemManage_Handler+0x10>)
 8000766:	f002 f927 	bl	80029b8 <iprintf>
  /* USER CODE END MemoryManagement_IRQn 0 */
  while (1)
 800076a:	e7fe      	b.n	800076a <MemManage_Handler+0xa>
 800076c:	08003a70 	stmdaeq	r0, {r4, r5, r6, r9, fp, ip, sp}
 8000770:	080039d8 	stmdaeq	r0, {r3, r4, r6, r7, r8, fp, ip, sp}

08000774 <BusFault_Handler>:

/**
  * @brief This function handles Pre-fetch fault, memory access fault.
  */
void BusFault_Handler(void)
{
 8000774:	b508      	push	{r3, lr}
  /* USER CODE BEGIN BusFault_IRQn 0 */
  printf("this is %s.\r\n", __func__);
 8000776:	4902      	ldr	r1, [pc, #8]	; (8000780 <BusFault_Handler+0xc>)
 8000778:	4802      	ldr	r0, [pc, #8]	; (8000784 <BusFault_Handler+0x10>)
 800077a:	f002 f91d 	bl	80029b8 <iprintf>
  /* USER CODE END BusFault_IRQn 0 */
  while (1)
 800077e:	e7fe      	b.n	800077e <BusFault_Handler+0xa>
 8000780:	08003a5c 	stmdaeq	r0, {r2, r3, r4, r6, r9, fp, ip, sp}
 8000784:	080039d8 	stmdaeq	r0, {r3, r4, r6, r7, r8, fp, ip, sp}

08000788 <UsageFault_Handler>:

/**
  * @brief This function handles Undefined instruction or illegal state.
  */
void UsageFault_Handler(void)
{
 8000788:	b508      	push	{r3, lr}
  /* USER CODE BEGIN UsageFault_IRQn 0 */
  printf("this is %s.\r\n", __func__);
 800078a:	4902      	ldr	r1, [pc, #8]	; (8000794 <UsageFault_Handler+0xc>)
 800078c:	4802      	ldr	r0, [pc, #8]	; (8000798 <UsageFault_Handler+0x10>)
 800078e:	f002 f913 	bl	80029b8 <iprintf>
  /* USER CODE END UsageFault_IRQn 0 */
  while (1)
 8000792:	e7fe      	b.n	8000792 <UsageFault_Handler+0xa>
 8000794:	08003a48 	stmdaeq	r0, {r3, r6, r9, fp, ip, sp}
 8000798:	080039d8 	stmdaeq	r0, {r3, r4, r6, r7, r8, fp, ip, sp}

0800079c <SVC_Handler>:

  /* USER CODE END SVCall_IRQn 0 */
  /* USER CODE BEGIN SVCall_IRQn 1 */

  /* USER CODE END SVCall_IRQn 1 */
}
 800079c:	4770      	bx	lr

0800079e <DebugMon_Handler>:

  /* USER CODE END DebugMonitor_IRQn 0 */
  /* USER CODE BEGIN DebugMonitor_IRQn 1 */

  /* USER CODE END DebugMonitor_IRQn 1 */
}
 800079e:	4770      	bx	lr

080007a0 <PendSV_Handler>:

  /* USER CODE END PendSV_IRQn 0 */
  /* USER CODE BEGIN PendSV_IRQn 1 */

  /* USER CODE END PendSV_IRQn 1 */
}
 80007a0:	4770      	bx	lr

080007a2 <SysTick_Handler>:
  /* USER CODE END SysTick_IRQn 0 */

  /* USER CODE BEGIN SysTick_IRQn 1 */

  /* USER CODE END SysTick_IRQn 1 */
}
 80007a2:	4770      	bx	lr

080007a4 <TIM2_IRQHandler>:

/**
  * @brief This function handles TIM2 global interrupt.
  */
void TIM2_IRQHandler(void)
{
 80007a4:	b508      	push	{r3, lr}
  /* USER CODE BEGIN TIM2_IRQn 0 */
  HAL_IncTick();
 80007a6:	f001 fe3d 	bl	8002424 <HAL_IncTick>
  /* USER CODE END TIM2_IRQn 0 */
  HAL_TIM_IRQHandler(&htim2);
 80007aa:	4802      	ldr	r0, [pc, #8]	; (80007b4 <TIM2_IRQHandler+0x10>)
 80007ac:	f000 f99d 	bl	8000aea <HAL_TIM_IRQHandler>
  /* USER CODE BEGIN TIM2_IRQn 1 */

  /* USER CODE END TIM2_IRQn 1 */
}
 80007b0:	bd08      	pop	{r3, pc}
 80007b2:	bf00      	nop
 80007b4:	200000dc 	ldrdcs	r0, [r0], -ip

080007b8 <USART1_IRQHandler>:

/**
  * @brief This function handles USART1 global interrupt.
  */
void USART1_IRQHandler(void)
{
 80007b8:	b508      	push	{r3, lr}
  /* USER CODE BEGIN USART1_IRQn 0 */

  /* USER CODE END USART1_IRQn 0 */
  HAL_UART_IRQHandler(&huart1);
 80007ba:	4802      	ldr	r0, [pc, #8]	; (80007c4 <USART1_IRQHandler+0xc>)
 80007bc:	f000 fe4c 	bl	8001458 <HAL_UART_IRQHandler>
  /* USER CODE BEGIN USART1_IRQn 1 */

  /* USER CODE END USART1_IRQn 1 */
}
 80007c0:	bd08      	pop	{r3, pc}
 80007c2:	bf00      	nop
 80007c4:	20000094 	mulcs	r0, r4, r0

080007c8 <Error_Handler>:
/**
  * @brief  This function is executed in case of error occurrence.
  * @retval None
  */
void Error_Handler(void)
{
 80007c8:	b508      	push	{r3, lr}
  printf("this is %s.\r\n", __func__);
 80007ca:	4903      	ldr	r1, [pc, #12]	; (80007d8 <Error_Handler+0x10>)
 80007cc:	4803      	ldr	r0, [pc, #12]	; (80007dc <Error_Handler+0x14>)
 80007ce:	f002 f8f3 	bl	80029b8 <iprintf>
  \details Disables IRQ interrupts by setting special-purpose register PRIMASK.
           Can only be executed in Privileged modes.
 */
__STATIC_FORCEINLINE void __disable_irq(void)
{
  __ASM volatile ("cpsid i" : : : "memory");
 80007d2:	b672      	cpsid	i
  __disable_irq();
  while (1) {}
 80007d4:	e7fe      	b.n	80007d4 <Error_Handler+0xc>
 80007d6:	bf00      	nop
 80007d8:	08003a38 	stmdaeq	r0, {r3, r4, r5, r9, fp, ip, sp}
 80007dc:	080039d8 	stmdaeq	r0, {r3, r4, r6, r7, r8, fp, ip, sp}

080007e0 <assert_failed>:
  * @param  file: pointer to the source file name
  * @param  line: assert_param error line source number
  * @retval None
  */
void assert_failed(uint8_t *file, uint32_t line)
{
 80007e0:	b508      	push	{r3, lr}
  printf("this is %s.\r\n", __func__);
 80007e2:	4903      	ldr	r1, [pc, #12]	; (80007f0 <assert_failed+0x10>)
 80007e4:	4803      	ldr	r0, [pc, #12]	; (80007f4 <assert_failed+0x14>)
 80007e6:	f002 f8e7 	bl	80029b8 <iprintf>
 80007ea:	b672      	cpsid	i
  __disable_irq();
  while (1) {}
 80007ec:	e7fe      	b.n	80007ec <assert_failed+0xc>
 80007ee:	bf00      	nop
 80007f0:	08003a28 	stmdaeq	r0, {r3, r5, r9, fp, ip, sp}
 80007f4:	080039d8 	stmdaeq	r0, {r3, r4, r6, r7, r8, fp, ip, sp}

080007f8 <MX_GPIO_Init>:
        * Output
        * EVENT_OUT
        * EXTI
*/
void MX_GPIO_Init(void)
{
 80007f8:	b084      	sub	sp, #16

  /* GPIO Ports Clock Enable */
  __HAL_RCC_GPIOC_CLK_ENABLE();
 80007fa:	2200      	movs	r2, #0
 80007fc:	9201      	str	r2, [sp, #4]
 80007fe:	4b10      	ldr	r3, [pc, #64]	; (8000840 <MX_GPIO_Init+0x48>)
 8000800:	6b19      	ldr	r1, [r3, #48]	; 0x30
 8000802:	f041 0104 	orr.w	r1, r1, #4
 8000806:	6319      	str	r1, [r3, #48]	; 0x30
 8000808:	6b19      	ldr	r1, [r3, #48]	; 0x30
 800080a:	f001 0104 	and.w	r1, r1, #4
 800080e:	9101      	str	r1, [sp, #4]
 8000810:	9901      	ldr	r1, [sp, #4]
  __HAL_RCC_GPIOH_CLK_ENABLE();
 8000812:	9202      	str	r2, [sp, #8]
 8000814:	6b19      	ldr	r1, [r3, #48]	; 0x30
 8000816:	f041 0180 	orr.w	r1, r1, #128	; 0x80
 800081a:	6319      	str	r1, [r3, #48]	; 0x30
 800081c:	6b19      	ldr	r1, [r3, #48]	; 0x30
 800081e:	f001 0180 	and.w	r1, r1, #128	; 0x80
 8000822:	9102      	str	r1, [sp, #8]
 8000824:	9902      	ldr	r1, [sp, #8]
  __HAL_RCC_GPIOA_CLK_ENABLE();
 8000826:	9203      	str	r2, [sp, #12]
 8000828:	6b1a      	ldr	r2, [r3, #48]	; 0x30
 800082a:	f042 0201 	orr.w	r2, r2, #1
 800082e:	631a      	str	r2, [r3, #48]	; 0x30
 8000830:	6b1b      	ldr	r3, [r3, #48]	; 0x30
 8000832:	f003 0301 	and.w	r3, r3, #1
 8000836:	9303      	str	r3, [sp, #12]
 8000838:	9b03      	ldr	r3, [sp, #12]

}
 800083a:	b004      	add	sp, #16
 800083c:	4770      	bx	lr
 800083e:	bf00      	nop
 8000840:	40023800 	andmi	r3, r2, r0, lsl #16

08000844 <MX_USART1_UART_Init>:
UART_HandleTypeDef huart1;

/* USART1 init function */

void MX_USART1_UART_Init(void)
{
 8000844:	b508      	push	{r3, lr}
  /* USER CODE END USART1_Init 0 */

  /* USER CODE BEGIN USART1_Init 1 */

  /* USER CODE END USART1_Init 1 */
  huart1.Instance = USART1;
 8000846:	480a      	ldr	r0, [pc, #40]	; (8000870 <MX_USART1_UART_Init+0x2c>)
 8000848:	4b0a      	ldr	r3, [pc, #40]	; (8000874 <MX_USART1_UART_Init+0x30>)
 800084a:	6003      	str	r3, [r0, #0]
  huart1.Init.BaudRate = 115200;
 800084c:	f44f 33e1 	mov.w	r3, #115200	; 0x1c200
 8000850:	6043      	str	r3, [r0, #4]
  huart1.Init.WordLength = UART_WORDLENGTH_8B;
 8000852:	2300      	movs	r3, #0
 8000854:	6083      	str	r3, [r0, #8]
  huart1.Init.StopBits = UART_STOPBITS_1;
 8000856:	60c3      	str	r3, [r0, #12]
  huart1.Init.Parity = UART_PARITY_NONE;
 8000858:	6103      	str	r3, [r0, #16]
  huart1.Init.Mode = UART_MODE_TX_RX;
 800085a:	220c      	movs	r2, #12
 800085c:	6142      	str	r2, [r0, #20]
  huart1.Init.HwFlowCtl = UART_HWCONTROL_NONE;
 800085e:	6183      	str	r3, [r0, #24]
  huart1.Init.OverSampling = UART_OVERSAMPLING_16;
 8000860:	61c3      	str	r3, [r0, #28]
  if (HAL_UART_Init(&huart1) != HAL_OK)
 8000862:	f000 fc71 	bl	8001148 <HAL_UART_Init>
 8000866:	b900      	cbnz	r0, 800086a <MX_USART1_UART_Init+0x26>
  }
  /* USER CODE BEGIN USART1_Init 2 */

  /* USER CODE END USART1_Init 2 */

}
 8000868:	bd08      	pop	{r3, pc}
    Error_Handler();
 800086a:	f7ff ffad 	bl	80007c8 <Error_Handler>
}
 800086e:	e7fb      	b.n	8000868 <MX_USART1_UART_Init+0x24>
 8000870:	20000094 	mulcs	r0, r4, r0
 8000874:	40011000 	andmi	r1, r1, r0

08000878 <HAL_UART_MspInit>:

void HAL_UART_MspInit(UART_HandleTypeDef* uartHandle)
{
 8000878:	b510      	push	{r4, lr}
 800087a:	b088      	sub	sp, #32

  GPIO_InitTypeDef GPIO_InitStruct = {0};
 800087c:	2300      	movs	r3, #0
 800087e:	9303      	str	r3, [sp, #12]
 8000880:	9304      	str	r3, [sp, #16]
 8000882:	9305      	str	r3, [sp, #20]
 8000884:	9306      	str	r3, [sp, #24]
 8000886:	9307      	str	r3, [sp, #28]
  if(uartHandle->Instance==USART1)
 8000888:	6802      	ldr	r2, [r0, #0]
 800088a:	f103 4380 	add.w	r3, r3, #1073741824	; 0x40000000
 800088e:	f503 3388 	add.w	r3, r3, #69632	; 0x11000
 8000892:	429a      	cmp	r2, r3
 8000894:	d001      	beq.n	800089a <HAL_UART_MspInit+0x22>
    HAL_NVIC_EnableIRQ(USART1_IRQn);
  /* USER CODE BEGIN USART1_MspInit 1 */

  /* USER CODE END USART1_MspInit 1 */
  }
}
 8000896:	b008      	add	sp, #32
 8000898:	bd10      	pop	{r4, pc}
    __HAL_RCC_USART1_CLK_ENABLE();
 800089a:	2400      	movs	r4, #0
 800089c:	9401      	str	r4, [sp, #4]
 800089e:	f503 3394 	add.w	r3, r3, #75776	; 0x12800
 80008a2:	6c5a      	ldr	r2, [r3, #68]	; 0x44
 80008a4:	f042 0210 	orr.w	r2, r2, #16
 80008a8:	645a      	str	r2, [r3, #68]	; 0x44
 80008aa:	6c5a      	ldr	r2, [r3, #68]	; 0x44
 80008ac:	f002 0210 	and.w	r2, r2, #16
 80008b0:	9201      	str	r2, [sp, #4]
 80008b2:	9a01      	ldr	r2, [sp, #4]
    __HAL_RCC_GPIOA_CLK_ENABLE();
 80008b4:	9402      	str	r4, [sp, #8]
 80008b6:	6b1a      	ldr	r2, [r3, #48]	; 0x30
 80008b8:	f042 0201 	orr.w	r2, r2, #1
 80008bc:	631a      	str	r2, [r3, #48]	; 0x30
 80008be:	6b1b      	ldr	r3, [r3, #48]	; 0x30
 80008c0:	f003 0301 	and.w	r3, r3, #1
 80008c4:	9302      	str	r3, [sp, #8]
 80008c6:	9b02      	ldr	r3, [sp, #8]
    GPIO_InitStruct.Pin = GPIO_PIN_9|GPIO_PIN_10;
 80008c8:	f44f 63c0 	mov.w	r3, #1536	; 0x600
 80008cc:	9303      	str	r3, [sp, #12]
    GPIO_InitStruct.Mode = GPIO_MODE_AF_PP;
 80008ce:	2302      	movs	r3, #2
 80008d0:	9304      	str	r3, [sp, #16]
    GPIO_InitStruct.Speed = GPIO_SPEED_FREQ_VERY_HIGH;
 80008d2:	2303      	movs	r3, #3
 80008d4:	9306      	str	r3, [sp, #24]
    GPIO_InitStruct.Alternate = GPIO_AF7_USART1;
 80008d6:	2307      	movs	r3, #7
 80008d8:	9307      	str	r3, [sp, #28]
    HAL_GPIO_Init(GPIOA, &GPIO_InitStruct);
 80008da:	a903      	add	r1, sp, #12
 80008dc:	4805      	ldr	r0, [pc, #20]	; (80008f4 <HAL_UART_MspInit+0x7c>)
 80008de:	f001 fb39 	bl	8001f54 <HAL_GPIO_Init>
    HAL_NVIC_SetPriority(USART1_IRQn, 0, 0);
 80008e2:	4622      	mov	r2, r4
 80008e4:	4621      	mov	r1, r4
 80008e6:	2025      	movs	r0, #37	; 0x25
 80008e8:	f001 fd24 	bl	8002334 <HAL_NVIC_SetPriority>
    HAL_NVIC_EnableIRQ(USART1_IRQn);
 80008ec:	2025      	movs	r0, #37	; 0x25
 80008ee:	f001 fd67 	bl	80023c0 <HAL_NVIC_EnableIRQ>
}
 80008f2:	e7d0      	b.n	8000896 <HAL_UART_MspInit+0x1e>
 80008f4:	40020000 	andmi	r0, r2, r0

080008f8 <HAL_MspInit>:
/* USER CODE END 0 */
/**
  * Initializes the Global MSP.
  */
void HAL_MspInit(void)
{
 80008f8:	b082      	sub	sp, #8

  /* USER CODE BEGIN MspInit 0 */

  /* USER CODE END MspInit 0 */

  __HAL_RCC_SYSCFG_CLK_ENABLE();
 80008fa:	2100      	movs	r1, #0
 80008fc:	9100      	str	r1, [sp, #0]
 80008fe:	4b0b      	ldr	r3, [pc, #44]	; (800092c <HAL_MspInit+0x34>)
 8000900:	6c5a      	ldr	r2, [r3, #68]	; 0x44
 8000902:	f442 4280 	orr.w	r2, r2, #16384	; 0x4000
 8000906:	645a      	str	r2, [r3, #68]	; 0x44
 8000908:	6c5a      	ldr	r2, [r3, #68]	; 0x44
 800090a:	f402 4280 	and.w	r2, r2, #16384	; 0x4000
 800090e:	9200      	str	r2, [sp, #0]
 8000910:	9a00      	ldr	r2, [sp, #0]
  __HAL_RCC_PWR_CLK_ENABLE();
 8000912:	9101      	str	r1, [sp, #4]
 8000914:	6c1a      	ldr	r2, [r3, #64]	; 0x40
 8000916:	f042 5280 	orr.w	r2, r2, #268435456	; 0x10000000
 800091a:	641a      	str	r2, [r3, #64]	; 0x40
 800091c:	6c1b      	ldr	r3, [r3, #64]	; 0x40
 800091e:	f003 5380 	and.w	r3, r3, #268435456	; 0x10000000
 8000922:	9301      	str	r3, [sp, #4]
 8000924:	9b01      	ldr	r3, [sp, #4]
  /* System interrupt init*/

  /* USER CODE BEGIN MspInit 1 */

  /* USER CODE END MspInit 1 */
}
 8000926:	b002      	add	sp, #8
 8000928:	4770      	bx	lr
 800092a:	bf00      	nop
 800092c:	40023800 	andmi	r3, r2, r0, lsl #16

08000930 <HAL_InitTick>:
  *         reset by HAL_Init() or at any time when clock is configured, by HAL_RCC_ClockConfig().
  * @param  TickPriority: Tick interrupt priority.
  * @retval HAL status
  */
HAL_StatusTypeDef HAL_InitTick(uint32_t TickPriority)
{
 8000930:	b530      	push	{r4, r5, lr}
 8000932:	b089      	sub	sp, #36	; 0x24
 8000934:	4604      	mov	r4, r0
  uint32_t              uwPrescalerValue = 0U;
  uint32_t              pFLatency;
  HAL_StatusTypeDef     status;

  /* Enable TIM2 clock */
  __HAL_RCC_TIM2_CLK_ENABLE();
 8000936:	2300      	movs	r3, #0
 8000938:	9301      	str	r3, [sp, #4]
 800093a:	4b22      	ldr	r3, [pc, #136]	; (80009c4 <HAL_InitTick+0x94>)
 800093c:	6c1a      	ldr	r2, [r3, #64]	; 0x40
 800093e:	f042 0201 	orr.w	r2, r2, #1
 8000942:	641a      	str	r2, [r3, #64]	; 0x40
 8000944:	6c1b      	ldr	r3, [r3, #64]	; 0x40
 8000946:	f003 0301 	and.w	r3, r3, #1
 800094a:	9301      	str	r3, [sp, #4]
 800094c:	9b01      	ldr	r3, [sp, #4]
  /* Get clock configuration */
  HAL_RCC_GetClockConfig(&clkconfig, &pFLatency);
 800094e:	a902      	add	r1, sp, #8
 8000950:	a803      	add	r0, sp, #12
 8000952:	f001 fae1 	bl	8001f18 <HAL_RCC_GetClockConfig>
  /* Get APB1 prescaler */
  uwAPB1Prescaler = clkconfig.APB1CLKDivider;
 8000956:	9b06      	ldr	r3, [sp, #24]
  /* Compute TIM2 clock */
  if (uwAPB1Prescaler == RCC_HCLK_DIV1)
 8000958:	b9d3      	cbnz	r3, 8000990 <HAL_InitTick+0x60>
  {
    uwTimclock = HAL_RCC_GetPCLK1Freq();
 800095a:	f001 fabd 	bl	8001ed8 <HAL_RCC_GetPCLK1Freq>
 800095e:	4603      	mov	r3, r0
  {
    uwTimclock = 2UL * HAL_RCC_GetPCLK1Freq();
  }

  /* Compute the prescaler value to have TIM2 counter clock equal to 1MHz */
  uwPrescalerValue = (uint32_t) ((uwTimclock / 1000000U) - 1U);
 8000960:	4819      	ldr	r0, [pc, #100]	; (80009c8 <HAL_InitTick+0x98>)
 8000962:	fba0 2303 	umull	r2, r3, r0, r3
 8000966:	0c9b      	lsrs	r3, r3, #18
 8000968:	3b01      	subs	r3, #1

  /* Initialize TIM2 */
  htim2.Instance = TIM2;
 800096a:	4818      	ldr	r0, [pc, #96]	; (80009cc <HAL_InitTick+0x9c>)
 800096c:	f04f 4280 	mov.w	r2, #1073741824	; 0x40000000
 8000970:	6002      	str	r2, [r0, #0]
  + Period = [(TIM2CLK/1000) - 1]. to have a (1/1000) s time base.
  + Prescaler = (uwTimclock/1000000 - 1) to have a 1MHz counter clock.
  + ClockDivision = 0
  + Counter direction = Up
  */
  htim2.Init.Period = (1000000U / 1000U) - 1U;
 8000972:	f240 32e7 	movw	r2, #999	; 0x3e7
 8000976:	60c2      	str	r2, [r0, #12]
  htim2.Init.Prescaler = uwPrescalerValue;
 8000978:	6043      	str	r3, [r0, #4]
  htim2.Init.ClockDivision = 0;
 800097a:	2300      	movs	r3, #0
 800097c:	6103      	str	r3, [r0, #16]
  htim2.Init.CounterMode = TIM_COUNTERMODE_UP;
 800097e:	6083      	str	r3, [r0, #8]
  htim2.Init.AutoReloadPreload = TIM_AUTORELOAD_PRELOAD_DISABLE;
 8000980:	6183      	str	r3, [r0, #24]

  status = HAL_TIM_Base_Init(&htim2);
 8000982:	f000 f9cd 	bl	8000d20 <HAL_TIM_Base_Init>
  if (status == HAL_OK)
 8000986:	4605      	mov	r5, r0
 8000988:	b130      	cbz	r0, 8000998 <HAL_InitTick+0x68>
    }
  }

 /* Return function status */
  return status;
}
 800098a:	4628      	mov	r0, r5
 800098c:	b009      	add	sp, #36	; 0x24
 800098e:	bd30      	pop	{r4, r5, pc}
    uwTimclock = 2UL * HAL_RCC_GetPCLK1Freq();
 8000990:	f001 faa2 	bl	8001ed8 <HAL_RCC_GetPCLK1Freq>
 8000994:	0043      	lsls	r3, r0, #1
 8000996:	e7e3      	b.n	8000960 <HAL_InitTick+0x30>
    status = HAL_TIM_Base_Start_IT(&htim2);
 8000998:	480c      	ldr	r0, [pc, #48]	; (80009cc <HAL_InitTick+0x9c>)
 800099a:	f000 f81d 	bl	80009d8 <HAL_TIM_Base_Start_IT>
    if (status == HAL_OK)
 800099e:	4605      	mov	r5, r0
 80009a0:	2800      	cmp	r0, #0
 80009a2:	d1f2      	bne.n	800098a <HAL_InitTick+0x5a>
        HAL_NVIC_EnableIRQ(TIM2_IRQn);
 80009a4:	201c      	movs	r0, #28
 80009a6:	f001 fd0b 	bl	80023c0 <HAL_NVIC_EnableIRQ>
      if (TickPriority < (1UL << __NVIC_PRIO_BITS))
 80009aa:	2c0f      	cmp	r4, #15
 80009ac:	d901      	bls.n	80009b2 <HAL_InitTick+0x82>
        status = HAL_ERROR;
 80009ae:	2501      	movs	r5, #1
 80009b0:	e7eb      	b.n	800098a <HAL_InitTick+0x5a>
        HAL_NVIC_SetPriority(TIM2_IRQn, TickPriority, 0U);
 80009b2:	2200      	movs	r2, #0
 80009b4:	4621      	mov	r1, r4
 80009b6:	201c      	movs	r0, #28
 80009b8:	f001 fcbc 	bl	8002334 <HAL_NVIC_SetPriority>
        uwTickPrio = TickPriority;
 80009bc:	4b04      	ldr	r3, [pc, #16]	; (80009d0 <HAL_InitTick+0xa0>)
 80009be:	601c      	str	r4, [r3, #0]
 80009c0:	e7e3      	b.n	800098a <HAL_InitTick+0x5a>
 80009c2:	bf00      	nop
 80009c4:	40023800 	andmi	r3, r2, r0, lsl #16
 80009c8:	431bde83 	tstmi	fp, #2096	; 0x830
 80009cc:	200000dc 	ldrdcs	r0, [r0], -ip
 80009d0:	20000004 	andcs	r0, r0, r4

080009d4 <HAL_TIM_Base_MspInit>:
  UNUSED(htim);

  /* NOTE : This function should not be modified, when the callback is needed,
            the HAL_TIM_Base_MspInit could be implemented in the user file
   */
}
 80009d4:	4770      	bx	lr
	...

080009d8 <HAL_TIM_Base_Start_IT>:
  * @brief  Starts the TIM Base generation in interrupt mode.
  * @param  htim TIM Base handle
  * @retval HAL status
  */
HAL_StatusTypeDef HAL_TIM_Base_Start_IT(TIM_HandleTypeDef *htim)
{
 80009d8:	b510      	push	{r4, lr}
 80009da:	4604      	mov	r4, r0
  uint32_t tmpsmcr;

  /* Check the parameters */
  assert_param(IS_TIM_INSTANCE(htim->Instance));
 80009dc:	6803      	ldr	r3, [r0, #0]
 80009de:	4a3e      	ldr	r2, [pc, #248]	; (8000ad8 <HAL_TIM_Base_Start_IT+0x100>)
 80009e0:	4293      	cmp	r3, r2
 80009e2:	d037      	beq.n	8000a54 <HAL_TIM_Base_Start_IT+0x7c>
 80009e4:	f1b3 4f80 	cmp.w	r3, #1073741824	; 0x40000000
 80009e8:	d034      	beq.n	8000a54 <HAL_TIM_Base_Start_IT+0x7c>
 80009ea:	f5a2 427c 	sub.w	r2, r2, #64512	; 0xfc00
 80009ee:	4293      	cmp	r3, r2
 80009f0:	d030      	beq.n	8000a54 <HAL_TIM_Base_Start_IT+0x7c>
 80009f2:	f502 6280 	add.w	r2, r2, #1024	; 0x400
 80009f6:	4293      	cmp	r3, r2
 80009f8:	d02c      	beq.n	8000a54 <HAL_TIM_Base_Start_IT+0x7c>
 80009fa:	f502 6280 	add.w	r2, r2, #1024	; 0x400
 80009fe:	4293      	cmp	r3, r2
 8000a00:	d028      	beq.n	8000a54 <HAL_TIM_Base_Start_IT+0x7c>
 8000a02:	f502 6280 	add.w	r2, r2, #1024	; 0x400
 8000a06:	4293      	cmp	r3, r2
 8000a08:	d024      	beq.n	8000a54 <HAL_TIM_Base_Start_IT+0x7c>
 8000a0a:	f502 6280 	add.w	r2, r2, #1024	; 0x400
 8000a0e:	4293      	cmp	r3, r2
 8000a10:	d020      	beq.n	8000a54 <HAL_TIM_Base_Start_IT+0x7c>
 8000a12:	f502 4270 	add.w	r2, r2, #61440	; 0xf000
 8000a16:	4293      	cmp	r3, r2
 8000a18:	d01c      	beq.n	8000a54 <HAL_TIM_Base_Start_IT+0x7c>
 8000a1a:	f502 5270 	add.w	r2, r2, #15360	; 0x3c00
 8000a1e:	4293      	cmp	r3, r2
 8000a20:	d018      	beq.n	8000a54 <HAL_TIM_Base_Start_IT+0x7c>
 8000a22:	f502 6280 	add.w	r2, r2, #1024	; 0x400
 8000a26:	4293      	cmp	r3, r2
 8000a28:	d014      	beq.n	8000a54 <HAL_TIM_Base_Start_IT+0x7c>
 8000a2a:	f502 6280 	add.w	r2, r2, #1024	; 0x400
 8000a2e:	4293      	cmp	r3, r2
 8000a30:	d010      	beq.n	8000a54 <HAL_TIM_Base_Start_IT+0x7c>
 8000a32:	f5a2 3298 	sub.w	r2, r2, #77824	; 0x13000
 8000a36:	4293      	cmp	r3, r2
 8000a38:	d00c      	beq.n	8000a54 <HAL_TIM_Base_Start_IT+0x7c>
 8000a3a:	f502 6280 	add.w	r2, r2, #1024	; 0x400
 8000a3e:	4293      	cmp	r3, r2
 8000a40:	d008      	beq.n	8000a54 <HAL_TIM_Base_Start_IT+0x7c>
 8000a42:	f502 6280 	add.w	r2, r2, #1024	; 0x400
 8000a46:	4293      	cmp	r3, r2
 8000a48:	d004      	beq.n	8000a54 <HAL_TIM_Base_Start_IT+0x7c>
 8000a4a:	f44f 71e8 	mov.w	r1, #464	; 0x1d0
 8000a4e:	4823      	ldr	r0, [pc, #140]	; (8000adc <HAL_TIM_Base_Start_IT+0x104>)
 8000a50:	f7ff fec6 	bl	80007e0 <assert_failed>

  /* Check the TIM state */
  if (htim->State != HAL_TIM_STATE_READY)
 8000a54:	f894 303d 	ldrb.w	r3, [r4, #61]	; 0x3d
 8000a58:	b2db      	uxtb	r3, r3
 8000a5a:	2b01      	cmp	r3, #1
 8000a5c:	d137      	bne.n	8000ace <HAL_TIM_Base_Start_IT+0xf6>
  {
    return HAL_ERROR;
  }

  /* Set the TIM state */
  htim->State = HAL_TIM_STATE_BUSY;
 8000a5e:	2302      	movs	r3, #2
 8000a60:	f884 303d 	strb.w	r3, [r4, #61]	; 0x3d

  /* Enable the TIM Update interrupt */
  __HAL_TIM_ENABLE_IT(htim, TIM_IT_UPDATE);
 8000a64:	6822      	ldr	r2, [r4, #0]
 8000a66:	68d3      	ldr	r3, [r2, #12]
 8000a68:	f043 0301 	orr.w	r3, r3, #1
 8000a6c:	60d3      	str	r3, [r2, #12]

  /* Enable the Peripheral, except in trigger mode where enable is automatically done with trigger */
  if (IS_TIM_SLAVE_INSTANCE(htim->Instance))
 8000a6e:	6823      	ldr	r3, [r4, #0]
 8000a70:	4a19      	ldr	r2, [pc, #100]	; (8000ad8 <HAL_TIM_Base_Start_IT+0x100>)
 8000a72:	4293      	cmp	r3, r2
 8000a74:	d020      	beq.n	8000ab8 <HAL_TIM_Base_Start_IT+0xe0>
 8000a76:	f1b3 4f80 	cmp.w	r3, #1073741824	; 0x40000000
 8000a7a:	d01d      	beq.n	8000ab8 <HAL_TIM_Base_Start_IT+0xe0>
 8000a7c:	f5a2 427c 	sub.w	r2, r2, #64512	; 0xfc00
 8000a80:	4293      	cmp	r3, r2
 8000a82:	d019      	beq.n	8000ab8 <HAL_TIM_Base_Start_IT+0xe0>
 8000a84:	f502 6280 	add.w	r2, r2, #1024	; 0x400
 8000a88:	4293      	cmp	r3, r2
 8000a8a:	d015      	beq.n	8000ab8 <HAL_TIM_Base_Start_IT+0xe0>
 8000a8c:	f502 6280 	add.w	r2, r2, #1024	; 0x400
 8000a90:	4293      	cmp	r3, r2
 8000a92:	d011      	beq.n	8000ab8 <HAL_TIM_Base_Start_IT+0xe0>
 8000a94:	f502 4278 	add.w	r2, r2, #63488	; 0xf800
 8000a98:	4293      	cmp	r3, r2
 8000a9a:	d00d      	beq.n	8000ab8 <HAL_TIM_Base_Start_IT+0xe0>
 8000a9c:	f502 5270 	add.w	r2, r2, #15360	; 0x3c00
 8000aa0:	4293      	cmp	r3, r2
 8000aa2:	d009      	beq.n	8000ab8 <HAL_TIM_Base_Start_IT+0xe0>
 8000aa4:	f5a2 3294 	sub.w	r2, r2, #75776	; 0x12800
 8000aa8:	4293      	cmp	r3, r2
 8000aaa:	d005      	beq.n	8000ab8 <HAL_TIM_Base_Start_IT+0xe0>
      __HAL_TIM_ENABLE(htim);
    }
  }
  else
  {
    __HAL_TIM_ENABLE(htim);
 8000aac:	681a      	ldr	r2, [r3, #0]
 8000aae:	f042 0201 	orr.w	r2, r2, #1
 8000ab2:	601a      	str	r2, [r3, #0]
  }

  /* Return function status */
  return HAL_OK;
 8000ab4:	2000      	movs	r0, #0
 8000ab6:	e00b      	b.n	8000ad0 <HAL_TIM_Base_Start_IT+0xf8>
    tmpsmcr = htim->Instance->SMCR & TIM_SMCR_SMS;
 8000ab8:	689a      	ldr	r2, [r3, #8]
 8000aba:	f002 0207 	and.w	r2, r2, #7
    if (!IS_TIM_SLAVEMODE_TRIGGER_ENABLED(tmpsmcr))
 8000abe:	2a06      	cmp	r2, #6
 8000ac0:	d007      	beq.n	8000ad2 <HAL_TIM_Base_Start_IT+0xfa>
      __HAL_TIM_ENABLE(htim);
 8000ac2:	681a      	ldr	r2, [r3, #0]
 8000ac4:	f042 0201 	orr.w	r2, r2, #1
 8000ac8:	601a      	str	r2, [r3, #0]
  return HAL_OK;
 8000aca:	2000      	movs	r0, #0
 8000acc:	e000      	b.n	8000ad0 <HAL_TIM_Base_Start_IT+0xf8>
    return HAL_ERROR;
 8000ace:	2001      	movs	r0, #1
}
 8000ad0:	bd10      	pop	{r4, pc}
  return HAL_OK;
 8000ad2:	2000      	movs	r0, #0
 8000ad4:	e7fc      	b.n	8000ad0 <HAL_TIM_Base_Start_IT+0xf8>
 8000ad6:	bf00      	nop
 8000ad8:	40010000 	andmi	r0, r1, r0
 8000adc:	08003a90 	stmdaeq	r0, {r4, r7, r9, fp, ip, sp}

08000ae0 <HAL_TIM_PeriodElapsedCallback>:
  UNUSED(htim);

  /* NOTE : This function should not be modified, when the callback is needed,
            the HAL_TIM_PeriodElapsedCallback could be implemented in the user file
   */
}
 8000ae0:	4770      	bx	lr

08000ae2 <HAL_TIM_OC_DelayElapsedCallback>:
  UNUSED(htim);

  /* NOTE : This function should not be modified, when the callback is needed,
            the HAL_TIM_OC_DelayElapsedCallback could be implemented in the user file
   */
}
 8000ae2:	4770      	bx	lr

08000ae4 <HAL_TIM_IC_CaptureCallback>:
  UNUSED(htim);

  /* NOTE : This function should not be modified, when the callback is needed,
            the HAL_TIM_IC_CaptureCallback could be implemented in the user file
   */
}
 8000ae4:	4770      	bx	lr

08000ae6 <HAL_TIM_PWM_PulseFinishedCallback>:
  UNUSED(htim);

  /* NOTE : This function should not be modified, when the callback is needed,
            the HAL_TIM_PWM_PulseFinishedCallback could be implemented in the user file
   */
}
 8000ae6:	4770      	bx	lr

08000ae8 <HAL_TIM_TriggerCallback>:
  UNUSED(htim);

  /* NOTE : This function should not be modified, when the callback is needed,
            the HAL_TIM_TriggerCallback could be implemented in the user file
   */
}
 8000ae8:	4770      	bx	lr

08000aea <HAL_TIM_IRQHandler>:
{
 8000aea:	b570      	push	{r4, r5, r6, lr}
 8000aec:	4604      	mov	r4, r0
  uint32_t itsource = htim->Instance->DIER;
 8000aee:	6803      	ldr	r3, [r0, #0]
 8000af0:	68de      	ldr	r6, [r3, #12]
  uint32_t itflag   = htim->Instance->SR;
 8000af2:	691d      	ldr	r5, [r3, #16]
  if ((itflag & (TIM_FLAG_CC1)) == (TIM_FLAG_CC1))
 8000af4:	f015 0f02 	tst.w	r5, #2
 8000af8:	d010      	beq.n	8000b1c <HAL_TIM_IRQHandler+0x32>
    if ((itsource & (TIM_IT_CC1)) == (TIM_IT_CC1))
 8000afa:	f016 0f02 	tst.w	r6, #2
 8000afe:	d00d      	beq.n	8000b1c <HAL_TIM_IRQHandler+0x32>
        __HAL_TIM_CLEAR_FLAG(htim, TIM_FLAG_CC1);
 8000b00:	f06f 0202 	mvn.w	r2, #2
 8000b04:	611a      	str	r2, [r3, #16]
        htim->Channel = HAL_TIM_ACTIVE_CHANNEL_1;
 8000b06:	2301      	movs	r3, #1
 8000b08:	7703      	strb	r3, [r0, #28]
        if ((htim->Instance->CCMR1 & TIM_CCMR1_CC1S) != 0x00U)
 8000b0a:	6803      	ldr	r3, [r0, #0]
 8000b0c:	699b      	ldr	r3, [r3, #24]
 8000b0e:	f013 0f03 	tst.w	r3, #3
 8000b12:	d05e      	beq.n	8000bd2 <HAL_TIM_IRQHandler+0xe8>
          HAL_TIM_IC_CaptureCallback(htim);
 8000b14:	f7ff ffe6 	bl	8000ae4 <HAL_TIM_IC_CaptureCallback>
        htim->Channel = HAL_TIM_ACTIVE_CHANNEL_CLEARED;
 8000b18:	2300      	movs	r3, #0
 8000b1a:	7723      	strb	r3, [r4, #28]
  if ((itflag & (TIM_FLAG_CC2)) == (TIM_FLAG_CC2))
 8000b1c:	f015 0f04 	tst.w	r5, #4
 8000b20:	d012      	beq.n	8000b48 <HAL_TIM_IRQHandler+0x5e>
    if ((itsource & (TIM_IT_CC2)) == (TIM_IT_CC2))
 8000b22:	f016 0f04 	tst.w	r6, #4
 8000b26:	d00f      	beq.n	8000b48 <HAL_TIM_IRQHandler+0x5e>
      __HAL_TIM_CLEAR_FLAG(htim, TIM_FLAG_CC2);
 8000b28:	6823      	ldr	r3, [r4, #0]
 8000b2a:	f06f 0204 	mvn.w	r2, #4
 8000b2e:	611a      	str	r2, [r3, #16]
      htim->Channel = HAL_TIM_ACTIVE_CHANNEL_2;
 8000b30:	2302      	movs	r3, #2
 8000b32:	7723      	strb	r3, [r4, #28]
      if ((htim->Instance->CCMR1 & TIM_CCMR1_CC2S) != 0x00U)
 8000b34:	6823      	ldr	r3, [r4, #0]
 8000b36:	699b      	ldr	r3, [r3, #24]
 8000b38:	f413 7f40 	tst.w	r3, #768	; 0x300
 8000b3c:	d04f      	beq.n	8000bde <HAL_TIM_IRQHandler+0xf4>
        HAL_TIM_IC_CaptureCallback(htim);
 8000b3e:	4620      	mov	r0, r4
 8000b40:	f7ff ffd0 	bl	8000ae4 <HAL_TIM_IC_CaptureCallback>
      htim->Channel = HAL_TIM_ACTIVE_CHANNEL_CLEARED;
 8000b44:	2300      	movs	r3, #0
 8000b46:	7723      	strb	r3, [r4, #28]
  if ((itflag & (TIM_FLAG_CC3)) == (TIM_FLAG_CC3))
 8000b48:	f015 0f08 	tst.w	r5, #8
 8000b4c:	d012      	beq.n	8000b74 <HAL_TIM_IRQHandler+0x8a>
    if ((itsource & (TIM_IT_CC3)) == (TIM_IT_CC3))
 8000b4e:	f016 0f08 	tst.w	r6, #8
 8000b52:	d00f      	beq.n	8000b74 <HAL_TIM_IRQHandler+0x8a>
      __HAL_TIM_CLEAR_FLAG(htim, TIM_FLAG_CC3);
 8000b54:	6823      	ldr	r3, [r4, #0]
 8000b56:	f06f 0208 	mvn.w	r2, #8
 8000b5a:	611a      	str	r2, [r3, #16]
      htim->Channel = HAL_TIM_ACTIVE_CHANNEL_3;
 8000b5c:	2304      	movs	r3, #4
 8000b5e:	7723      	strb	r3, [r4, #28]
      if ((htim->Instance->CCMR2 & TIM_CCMR2_CC3S) != 0x00U)
 8000b60:	6823      	ldr	r3, [r4, #0]
 8000b62:	69db      	ldr	r3, [r3, #28]
 8000b64:	f013 0f03 	tst.w	r3, #3
 8000b68:	d040      	beq.n	8000bec <HAL_TIM_IRQHandler+0x102>
        HAL_TIM_IC_CaptureCallback(htim);
 8000b6a:	4620      	mov	r0, r4
 8000b6c:	f7ff ffba 	bl	8000ae4 <HAL_TIM_IC_CaptureCallback>
      htim->Channel = HAL_TIM_ACTIVE_CHANNEL_CLEARED;
 8000b70:	2300      	movs	r3, #0
 8000b72:	7723      	strb	r3, [r4, #28]
  if ((itflag & (TIM_FLAG_CC4)) == (TIM_FLAG_CC4))
 8000b74:	f015 0f10 	tst.w	r5, #16
 8000b78:	d012      	beq.n	8000ba0 <HAL_TIM_IRQHandler+0xb6>
    if ((itsource & (TIM_IT_CC4)) == (TIM_IT_CC4))
 8000b7a:	f016 0f10 	tst.w	r6, #16
 8000b7e:	d00f      	beq.n	8000ba0 <HAL_TIM_IRQHandler+0xb6>
      __HAL_TIM_CLEAR_FLAG(htim, TIM_FLAG_CC4);
 8000b80:	6823      	ldr	r3, [r4, #0]
 8000b82:	f06f 0210 	mvn.w	r2, #16
 8000b86:	611a      	str	r2, [r3, #16]
      htim->Channel = HAL_TIM_ACTIVE_CHANNEL_4;
 8000b88:	2308      	movs	r3, #8
 8000b8a:	7723      	strb	r3, [r4, #28]
      if ((htim->Instance->CCMR2 & TIM_CCMR2_CC4S) != 0x00U)
 8000b8c:	6823      	ldr	r3, [r4, #0]
 8000b8e:	69db      	ldr	r3, [r3, #28]
 8000b90:	f413 7f40 	tst.w	r3, #768	; 0x300
 8000b94:	d031      	beq.n	8000bfa <HAL_TIM_IRQHandler+0x110>
        HAL_TIM_IC_CaptureCallback(htim);
 8000b96:	4620      	mov	r0, r4
 8000b98:	f7ff ffa4 	bl	8000ae4 <HAL_TIM_IC_CaptureCallback>
      htim->Channel = HAL_TIM_ACTIVE_CHANNEL_CLEARED;
 8000b9c:	2300      	movs	r3, #0
 8000b9e:	7723      	strb	r3, [r4, #28]
  if ((itflag & (TIM_FLAG_UPDATE)) == (TIM_FLAG_UPDATE))
 8000ba0:	f015 0f01 	tst.w	r5, #1
 8000ba4:	d002      	beq.n	8000bac <HAL_TIM_IRQHandler+0xc2>
    if ((itsource & (TIM_IT_UPDATE)) == (TIM_IT_UPDATE))
 8000ba6:	f016 0f01 	tst.w	r6, #1
 8000baa:	d12d      	bne.n	8000c08 <HAL_TIM_IRQHandler+0x11e>
  if ((itflag & (TIM_FLAG_BREAK)) == (TIM_FLAG_BREAK))
 8000bac:	f015 0f80 	tst.w	r5, #128	; 0x80
 8000bb0:	d002      	beq.n	8000bb8 <HAL_TIM_IRQHandler+0xce>
    if ((itsource & (TIM_IT_BREAK)) == (TIM_IT_BREAK))
 8000bb2:	f016 0f80 	tst.w	r6, #128	; 0x80
 8000bb6:	d12f      	bne.n	8000c18 <HAL_TIM_IRQHandler+0x12e>
  if ((itflag & (TIM_FLAG_TRIGGER)) == (TIM_FLAG_TRIGGER))
 8000bb8:	f015 0f40 	tst.w	r5, #64	; 0x40
 8000bbc:	d002      	beq.n	8000bc4 <HAL_TIM_IRQHandler+0xda>
    if ((itsource & (TIM_IT_TRIGGER)) == (TIM_IT_TRIGGER))
 8000bbe:	f016 0f40 	tst.w	r6, #64	; 0x40
 8000bc2:	d131      	bne.n	8000c28 <HAL_TIM_IRQHandler+0x13e>
  if ((itflag & (TIM_FLAG_COM)) == (TIM_FLAG_COM))
 8000bc4:	f015 0f20 	tst.w	r5, #32
 8000bc8:	d002      	beq.n	8000bd0 <HAL_TIM_IRQHandler+0xe6>
    if ((itsource & (TIM_IT_COM)) == (TIM_IT_COM))
 8000bca:	f016 0f20 	tst.w	r6, #32
 8000bce:	d133      	bne.n	8000c38 <HAL_TIM_IRQHandler+0x14e>
}
 8000bd0:	bd70      	pop	{r4, r5, r6, pc}
          HAL_TIM_OC_DelayElapsedCallback(htim);
 8000bd2:	f7ff ff86 	bl	8000ae2 <HAL_TIM_OC_DelayElapsedCallback>
          HAL_TIM_PWM_PulseFinishedCallback(htim);
 8000bd6:	4620      	mov	r0, r4
 8000bd8:	f7ff ff85 	bl	8000ae6 <HAL_TIM_PWM_PulseFinishedCallback>
 8000bdc:	e79c      	b.n	8000b18 <HAL_TIM_IRQHandler+0x2e>
        HAL_TIM_OC_DelayElapsedCallback(htim);
 8000bde:	4620      	mov	r0, r4
 8000be0:	f7ff ff7f 	bl	8000ae2 <HAL_TIM_OC_DelayElapsedCallback>
        HAL_TIM_PWM_PulseFinishedCallback(htim);
 8000be4:	4620      	mov	r0, r4
 8000be6:	f7ff ff7e 	bl	8000ae6 <HAL_TIM_PWM_PulseFinishedCallback>
 8000bea:	e7ab      	b.n	8000b44 <HAL_TIM_IRQHandler+0x5a>
        HAL_TIM_OC_DelayElapsedCallback(htim);
 8000bec:	4620      	mov	r0, r4
 8000bee:	f7ff ff78 	bl	8000ae2 <HAL_TIM_OC_DelayElapsedCallback>
        HAL_TIM_PWM_PulseFinishedCallback(htim);
 8000bf2:	4620      	mov	r0, r4
 8000bf4:	f7ff ff77 	bl	8000ae6 <HAL_TIM_PWM_PulseFinishedCallback>
 8000bf8:	e7ba      	b.n	8000b70 <HAL_TIM_IRQHandler+0x86>
        HAL_TIM_OC_DelayElapsedCallback(htim);
 8000bfa:	4620      	mov	r0, r4
 8000bfc:	f7ff ff71 	bl	8000ae2 <HAL_TIM_OC_DelayElapsedCallback>
        HAL_TIM_PWM_PulseFinishedCallback(htim);
 8000c00:	4620      	mov	r0, r4
 8000c02:	f7ff ff70 	bl	8000ae6 <HAL_TIM_PWM_PulseFinishedCallback>
 8000c06:	e7c9      	b.n	8000b9c <HAL_TIM_IRQHandler+0xb2>
      __HAL_TIM_CLEAR_FLAG(htim, TIM_FLAG_UPDATE);
 8000c08:	6823      	ldr	r3, [r4, #0]
 8000c0a:	f06f 0201 	mvn.w	r2, #1
 8000c0e:	611a      	str	r2, [r3, #16]
      HAL_TIM_PeriodElapsedCallback(htim);
 8000c10:	4620      	mov	r0, r4
 8000c12:	f7ff ff65 	bl	8000ae0 <HAL_TIM_PeriodElapsedCallback>
 8000c16:	e7c9      	b.n	8000bac <HAL_TIM_IRQHandler+0xc2>
      __HAL_TIM_CLEAR_FLAG(htim, TIM_FLAG_BREAK);
 8000c18:	6823      	ldr	r3, [r4, #0]
 8000c1a:	f06f 0280 	mvn.w	r2, #128	; 0x80
 8000c1e:	611a      	str	r2, [r3, #16]
      HAL_TIMEx_BreakCallback(htim);
 8000c20:	4620      	mov	r0, r4
 8000c22:	f000 f932 	bl	8000e8a <HAL_TIMEx_BreakCallback>
 8000c26:	e7c7      	b.n	8000bb8 <HAL_TIM_IRQHandler+0xce>
      __HAL_TIM_CLEAR_FLAG(htim, TIM_FLAG_TRIGGER);
 8000c28:	6823      	ldr	r3, [r4, #0]
 8000c2a:	f06f 0240 	mvn.w	r2, #64	; 0x40
 8000c2e:	611a      	str	r2, [r3, #16]
      HAL_TIM_TriggerCallback(htim);
 8000c30:	4620      	mov	r0, r4
 8000c32:	f7ff ff59 	bl	8000ae8 <HAL_TIM_TriggerCallback>
 8000c36:	e7c5      	b.n	8000bc4 <HAL_TIM_IRQHandler+0xda>
      __HAL_TIM_CLEAR_FLAG(htim, TIM_FLAG_COM);
 8000c38:	6823      	ldr	r3, [r4, #0]
 8000c3a:	f06f 0220 	mvn.w	r2, #32
 8000c3e:	611a      	str	r2, [r3, #16]
      HAL_TIMEx_CommutCallback(htim);
 8000c40:	4620      	mov	r0, r4
 8000c42:	f000 f921 	bl	8000e88 <HAL_TIMEx_CommutCallback>
}
 8000c46:	e7c3      	b.n	8000bd0 <HAL_TIM_IRQHandler+0xe6>

08000c48 <TIM_Base_SetConfig>:
  * @retval None
  */
void TIM_Base_SetConfig(TIM_TypeDef *TIMx, const TIM_Base_InitTypeDef *Structure)
{
  uint32_t tmpcr1;
  tmpcr1 = TIMx->CR1;
 8000c48:	6803      	ldr	r3, [r0, #0]

  /* Set TIM Time Base Unit parameters ---------------------------------------*/
  if (IS_TIM_COUNTER_MODE_SELECT_INSTANCE(TIMx))
 8000c4a:	4a34      	ldr	r2, [pc, #208]	; (8000d1c <TIM_Base_SetConfig+0xd4>)
 8000c4c:	4290      	cmp	r0, r2
 8000c4e:	d012      	beq.n	8000c76 <TIM_Base_SetConfig+0x2e>
 8000c50:	f1b0 4f80 	cmp.w	r0, #1073741824	; 0x40000000
 8000c54:	d00f      	beq.n	8000c76 <TIM_Base_SetConfig+0x2e>
 8000c56:	f5a2 427c 	sub.w	r2, r2, #64512	; 0xfc00
 8000c5a:	4290      	cmp	r0, r2
 8000c5c:	d00b      	beq.n	8000c76 <TIM_Base_SetConfig+0x2e>
 8000c5e:	f502 6280 	add.w	r2, r2, #1024	; 0x400
 8000c62:	4290      	cmp	r0, r2
 8000c64:	d007      	beq.n	8000c76 <TIM_Base_SetConfig+0x2e>
 8000c66:	f502 6280 	add.w	r2, r2, #1024	; 0x400
 8000c6a:	4290      	cmp	r0, r2
 8000c6c:	d003      	beq.n	8000c76 <TIM_Base_SetConfig+0x2e>
 8000c6e:	f502 4278 	add.w	r2, r2, #63488	; 0xf800
 8000c72:	4290      	cmp	r0, r2
 8000c74:	d103      	bne.n	8000c7e <TIM_Base_SetConfig+0x36>
  {
    /* Select the Counter Mode */
    tmpcr1 &= ~(TIM_CR1_DIR | TIM_CR1_CMS);
 8000c76:	f023 0370 	bic.w	r3, r3, #112	; 0x70
    tmpcr1 |= Structure->CounterMode;
 8000c7a:	684a      	ldr	r2, [r1, #4]
 8000c7c:	4313      	orrs	r3, r2
  }

  if (IS_TIM_CLOCK_DIVISION_INSTANCE(TIMx))
 8000c7e:	4a27      	ldr	r2, [pc, #156]	; (8000d1c <TIM_Base_SetConfig+0xd4>)
 8000c80:	4290      	cmp	r0, r2
 8000c82:	d02a      	beq.n	8000cda <TIM_Base_SetConfig+0x92>
 8000c84:	f1b0 4f80 	cmp.w	r0, #1073741824	; 0x40000000
 8000c88:	d027      	beq.n	8000cda <TIM_Base_SetConfig+0x92>
 8000c8a:	f5a2 427c 	sub.w	r2, r2, #64512	; 0xfc00
 8000c8e:	4290      	cmp	r0, r2
 8000c90:	d023      	beq.n	8000cda <TIM_Base_SetConfig+0x92>
 8000c92:	f502 6280 	add.w	r2, r2, #1024	; 0x400
 8000c96:	4290      	cmp	r0, r2
 8000c98:	d01f      	beq.n	8000cda <TIM_Base_SetConfig+0x92>
 8000c9a:	f502 6280 	add.w	r2, r2, #1024	; 0x400
 8000c9e:	4290      	cmp	r0, r2
 8000ca0:	d01b      	beq.n	8000cda <TIM_Base_SetConfig+0x92>
 8000ca2:	f502 4278 	add.w	r2, r2, #63488	; 0xf800
 8000ca6:	4290      	cmp	r0, r2
 8000ca8:	d017      	beq.n	8000cda <TIM_Base_SetConfig+0x92>
 8000caa:	f502 5270 	add.w	r2, r2, #15360	; 0x3c00
 8000cae:	4290      	cmp	r0, r2
 8000cb0:	d013      	beq.n	8000cda <TIM_Base_SetConfig+0x92>
 8000cb2:	f502 6280 	add.w	r2, r2, #1024	; 0x400
 8000cb6:	4290      	cmp	r0, r2
 8000cb8:	d00f      	beq.n	8000cda <TIM_Base_SetConfig+0x92>
 8000cba:	f502 6280 	add.w	r2, r2, #1024	; 0x400
 8000cbe:	4290      	cmp	r0, r2
 8000cc0:	d00b      	beq.n	8000cda <TIM_Base_SetConfig+0x92>
 8000cc2:	f5a2 3298 	sub.w	r2, r2, #77824	; 0x13000
 8000cc6:	4290      	cmp	r0, r2
 8000cc8:	d007      	beq.n	8000cda <TIM_Base_SetConfig+0x92>
 8000cca:	f502 6280 	add.w	r2, r2, #1024	; 0x400
 8000cce:	4290      	cmp	r0, r2
 8000cd0:	d003      	beq.n	8000cda <TIM_Base_SetConfig+0x92>
 8000cd2:	f502 6280 	add.w	r2, r2, #1024	; 0x400
 8000cd6:	4290      	cmp	r0, r2
 8000cd8:	d103      	bne.n	8000ce2 <TIM_Base_SetConfig+0x9a>
  {
    /* Set the clock division */
    tmpcr1 &= ~TIM_CR1_CKD;
 8000cda:	f423 7340 	bic.w	r3, r3, #768	; 0x300
    tmpcr1 |= (uint32_t)Structure->ClockDivision;
 8000cde:	68ca      	ldr	r2, [r1, #12]
 8000ce0:	4313      	orrs	r3, r2
  }

  /* Set the auto-reload preload */
  MODIFY_REG(tmpcr1, TIM_CR1_ARPE, Structure->AutoReloadPreload);
 8000ce2:	f023 0380 	bic.w	r3, r3, #128	; 0x80
 8000ce6:	694a      	ldr	r2, [r1, #20]
 8000ce8:	4313      	orrs	r3, r2

  TIMx->CR1 = tmpcr1;
 8000cea:	6003      	str	r3, [r0, #0]

  /* Set the Autoreload value */
  TIMx->ARR = (uint32_t)Structure->Period ;
 8000cec:	688b      	ldr	r3, [r1, #8]
 8000cee:	62c3      	str	r3, [r0, #44]	; 0x2c

  /* Set the Prescaler value */
  TIMx->PSC = Structure->Prescaler;
 8000cf0:	680b      	ldr	r3, [r1, #0]
 8000cf2:	6283      	str	r3, [r0, #40]	; 0x28

  if (IS_TIM_REPETITION_COUNTER_INSTANCE(TIMx))
 8000cf4:	4b09      	ldr	r3, [pc, #36]	; (8000d1c <TIM_Base_SetConfig+0xd4>)
 8000cf6:	4298      	cmp	r0, r3
 8000cf8:	d003      	beq.n	8000d02 <TIM_Base_SetConfig+0xba>
 8000cfa:	f503 6380 	add.w	r3, r3, #1024	; 0x400
 8000cfe:	4298      	cmp	r0, r3
 8000d00:	d101      	bne.n	8000d06 <TIM_Base_SetConfig+0xbe>
  {
    /* Set the Repetition Counter value */
    TIMx->RCR = Structure->RepetitionCounter;
 8000d02:	690b      	ldr	r3, [r1, #16]
 8000d04:	6303      	str	r3, [r0, #48]	; 0x30
  }

  /* Generate an update event to reload the Prescaler
     and the repetition counter (only for advanced timer) value immediately */
  TIMx->EGR = TIM_EGR_UG;
 8000d06:	2301      	movs	r3, #1
 8000d08:	6143      	str	r3, [r0, #20]

  /* Check if the update flag is set after the Update Generation, if so clear the UIF flag */
  if (HAL_IS_BIT_SET(TIMx->SR, TIM_FLAG_UPDATE))
 8000d0a:	6903      	ldr	r3, [r0, #16]
 8000d0c:	f013 0f01 	tst.w	r3, #1
 8000d10:	d003      	beq.n	8000d1a <TIM_Base_SetConfig+0xd2>
  {
    /* Clear the update flag */
    CLEAR_BIT(TIMx->SR, TIM_FLAG_UPDATE);
 8000d12:	6903      	ldr	r3, [r0, #16]
 8000d14:	f023 0301 	bic.w	r3, r3, #1
 8000d18:	6103      	str	r3, [r0, #16]
  }
}
 8000d1a:	4770      	bx	lr
 8000d1c:	40010000 	andmi	r0, r1, r0

08000d20 <HAL_TIM_Base_Init>:
  if (htim == NULL)
 8000d20:	2800      	cmp	r0, #0
 8000d22:	f000 80a9 	beq.w	8000e78 <HAL_TIM_Base_Init+0x158>
{
 8000d26:	b510      	push	{r4, lr}
 8000d28:	4604      	mov	r4, r0
  assert_param(IS_TIM_INSTANCE(htim->Instance));
 8000d2a:	6803      	ldr	r3, [r0, #0]
 8000d2c:	4a53      	ldr	r2, [pc, #332]	; (8000e7c <HAL_TIM_Base_Init+0x15c>)
 8000d2e:	4293      	cmp	r3, r2
 8000d30:	d037      	beq.n	8000da2 <HAL_TIM_Base_Init+0x82>
 8000d32:	f1b3 4f80 	cmp.w	r3, #1073741824	; 0x40000000
 8000d36:	d034      	beq.n	8000da2 <HAL_TIM_Base_Init+0x82>
 8000d38:	f5a2 427c 	sub.w	r2, r2, #64512	; 0xfc00
 8000d3c:	4293      	cmp	r3, r2
 8000d3e:	d030      	beq.n	8000da2 <HAL_TIM_Base_Init+0x82>
 8000d40:	f502 6280 	add.w	r2, r2, #1024	; 0x400
 8000d44:	4293      	cmp	r3, r2
 8000d46:	d02c      	beq.n	8000da2 <HAL_TIM_Base_Init+0x82>
 8000d48:	f502 6280 	add.w	r2, r2, #1024	; 0x400
 8000d4c:	4293      	cmp	r3, r2
 8000d4e:	d028      	beq.n	8000da2 <HAL_TIM_Base_Init+0x82>
 8000d50:	f502 6280 	add.w	r2, r2, #1024	; 0x400
 8000d54:	4293      	cmp	r3, r2
 8000d56:	d024      	beq.n	8000da2 <HAL_TIM_Base_Init+0x82>
 8000d58:	f502 6280 	add.w	r2, r2, #1024	; 0x400
 8000d5c:	4293      	cmp	r3, r2
 8000d5e:	d020      	beq.n	8000da2 <HAL_TIM_Base_Init+0x82>
 8000d60:	f502 4270 	add.w	r2, r2, #61440	; 0xf000
 8000d64:	4293      	cmp	r3, r2
 8000d66:	d01c      	beq.n	8000da2 <HAL_TIM_Base_Init+0x82>
 8000d68:	f502 5270 	add.w	r2, r2, #15360	; 0x3c00
 8000d6c:	4293      	cmp	r3, r2
 8000d6e:	d018      	beq.n	8000da2 <HAL_TIM_Base_Init+0x82>
 8000d70:	f502 6280 	add.w	r2, r2, #1024	; 0x400
 8000d74:	4293      	cmp	r3, r2
 8000d76:	d014      	beq.n	8000da2 <HAL_TIM_Base_Init+0x82>
 8000d78:	f502 6280 	add.w	r2, r2, #1024	; 0x400
 8000d7c:	4293      	cmp	r3, r2
 8000d7e:	d010      	beq.n	8000da2 <HAL_TIM_Base_Init+0x82>
 8000d80:	f5a2 3298 	sub.w	r2, r2, #77824	; 0x13000
 8000d84:	4293      	cmp	r3, r2
 8000d86:	d00c      	beq.n	8000da2 <HAL_TIM_Base_Init+0x82>
 8000d88:	f502 6280 	add.w	r2, r2, #1024	; 0x400
 8000d8c:	4293      	cmp	r3, r2
 8000d8e:	d008      	beq.n	8000da2 <HAL_TIM_Base_Init+0x82>
 8000d90:	f502 6280 	add.w	r2, r2, #1024	; 0x400
 8000d94:	4293      	cmp	r3, r2
 8000d96:	d004      	beq.n	8000da2 <HAL_TIM_Base_Init+0x82>
 8000d98:	f240 1113 	movw	r1, #275	; 0x113
 8000d9c:	4838      	ldr	r0, [pc, #224]	; (8000e80 <HAL_TIM_Base_Init+0x160>)
 8000d9e:	f7ff fd1f 	bl	80007e0 <assert_failed>
  assert_param(IS_TIM_COUNTER_MODE(htim->Init.CounterMode));
 8000da2:	68a3      	ldr	r3, [r4, #8]
 8000da4:	b13b      	cbz	r3, 8000db6 <HAL_TIM_Base_Init+0x96>
 8000da6:	2b10      	cmp	r3, #16
 8000da8:	d005      	beq.n	8000db6 <HAL_TIM_Base_Init+0x96>
 8000daa:	2b20      	cmp	r3, #32
 8000dac:	d003      	beq.n	8000db6 <HAL_TIM_Base_Init+0x96>
 8000dae:	2b40      	cmp	r3, #64	; 0x40
 8000db0:	d001      	beq.n	8000db6 <HAL_TIM_Base_Init+0x96>
 8000db2:	2b60      	cmp	r3, #96	; 0x60
 8000db4:	d117      	bne.n	8000de6 <HAL_TIM_Base_Init+0xc6>
  assert_param(IS_TIM_CLOCKDIVISION_DIV(htim->Init.ClockDivision));
 8000db6:	6923      	ldr	r3, [r4, #16]
 8000db8:	b12b      	cbz	r3, 8000dc6 <HAL_TIM_Base_Init+0xa6>
 8000dba:	f5b3 7f80 	cmp.w	r3, #256	; 0x100
 8000dbe:	d002      	beq.n	8000dc6 <HAL_TIM_Base_Init+0xa6>
 8000dc0:	f5b3 7f00 	cmp.w	r3, #512	; 0x200
 8000dc4:	d115      	bne.n	8000df2 <HAL_TIM_Base_Init+0xd2>
  assert_param(IS_TIM_PERIOD(htim, htim->Init.Period));
 8000dc6:	6823      	ldr	r3, [r4, #0]
 8000dc8:	f1b3 4f80 	cmp.w	r3, #1073741824	; 0x40000000
 8000dcc:	d017      	beq.n	8000dfe <HAL_TIM_Base_Init+0xde>
 8000dce:	4a2d      	ldr	r2, [pc, #180]	; (8000e84 <HAL_TIM_Base_Init+0x164>)
 8000dd0:	4293      	cmp	r3, r2
 8000dd2:	d014      	beq.n	8000dfe <HAL_TIM_Base_Init+0xde>
 8000dd4:	68e3      	ldr	r3, [r4, #12]
 8000dd6:	3b01      	subs	r3, #1
 8000dd8:	f64f 72fe 	movw	r2, #65534	; 0xfffe
 8000ddc:	4293      	cmp	r3, r2
 8000dde:	bf8c      	ite	hi
 8000de0:	2300      	movhi	r3, #0
 8000de2:	2301      	movls	r3, #1
 8000de4:	e00f      	b.n	8000e06 <HAL_TIM_Base_Init+0xe6>
  assert_param(IS_TIM_COUNTER_MODE(htim->Init.CounterMode));
 8000de6:	f44f 718a 	mov.w	r1, #276	; 0x114
 8000dea:	4825      	ldr	r0, [pc, #148]	; (8000e80 <HAL_TIM_Base_Init+0x160>)
 8000dec:	f7ff fcf8 	bl	80007e0 <assert_failed>
 8000df0:	e7e1      	b.n	8000db6 <HAL_TIM_Base_Init+0x96>
  assert_param(IS_TIM_CLOCKDIVISION_DIV(htim->Init.ClockDivision));
 8000df2:	f240 1115 	movw	r1, #277	; 0x115
 8000df6:	4822      	ldr	r0, [pc, #136]	; (8000e80 <HAL_TIM_Base_Init+0x160>)
 8000df8:	f7ff fcf2 	bl	80007e0 <assert_failed>
 8000dfc:	e7e3      	b.n	8000dc6 <HAL_TIM_Base_Init+0xa6>
  assert_param(IS_TIM_PERIOD(htim, htim->Init.Period));
 8000dfe:	68e3      	ldr	r3, [r4, #12]
 8000e00:	3b00      	subs	r3, #0
 8000e02:	bf18      	it	ne
 8000e04:	2301      	movne	r3, #1
 8000e06:	b32b      	cbz	r3, 8000e54 <HAL_TIM_Base_Init+0x134>
  assert_param(IS_TIM_AUTORELOAD_PRELOAD(htim->Init.AutoReloadPreload));
 8000e08:	69a3      	ldr	r3, [r4, #24]
 8000e0a:	b10b      	cbz	r3, 8000e10 <HAL_TIM_Base_Init+0xf0>
 8000e0c:	2b80      	cmp	r3, #128	; 0x80
 8000e0e:	d127      	bne.n	8000e60 <HAL_TIM_Base_Init+0x140>
  if (htim->State == HAL_TIM_STATE_RESET)
 8000e10:	f894 303d 	ldrb.w	r3, [r4, #61]	; 0x3d
 8000e14:	b353      	cbz	r3, 8000e6c <HAL_TIM_Base_Init+0x14c>
  htim->State = HAL_TIM_STATE_BUSY;
 8000e16:	2302      	movs	r3, #2
 8000e18:	f884 303d 	strb.w	r3, [r4, #61]	; 0x3d
  TIM_Base_SetConfig(htim->Instance, &htim->Init);
 8000e1c:	4621      	mov	r1, r4
 8000e1e:	f851 0b04 	ldr.w	r0, [r1], #4
 8000e22:	f7ff ff11 	bl	8000c48 <TIM_Base_SetConfig>
  htim->DMABurstState = HAL_DMA_BURST_STATE_READY;
 8000e26:	2301      	movs	r3, #1
 8000e28:	f884 3046 	strb.w	r3, [r4, #70]	; 0x46
  TIM_CHANNEL_STATE_SET_ALL(htim, HAL_TIM_CHANNEL_STATE_READY);
 8000e2c:	f884 303e 	strb.w	r3, [r4, #62]	; 0x3e
 8000e30:	f884 303f 	strb.w	r3, [r4, #63]	; 0x3f
 8000e34:	f884 3040 	strb.w	r3, [r4, #64]	; 0x40
 8000e38:	f884 3041 	strb.w	r3, [r4, #65]	; 0x41
  TIM_CHANNEL_N_STATE_SET_ALL(htim, HAL_TIM_CHANNEL_STATE_READY);
 8000e3c:	f884 3042 	strb.w	r3, [r4, #66]	; 0x42
 8000e40:	f884 3043 	strb.w	r3, [r4, #67]	; 0x43
 8000e44:	f884 3044 	strb.w	r3, [r4, #68]	; 0x44
 8000e48:	f884 3045 	strb.w	r3, [r4, #69]	; 0x45
  htim->State = HAL_TIM_STATE_READY;
 8000e4c:	f884 303d 	strb.w	r3, [r4, #61]	; 0x3d
  return HAL_OK;
 8000e50:	2000      	movs	r0, #0
}
 8000e52:	bd10      	pop	{r4, pc}
  assert_param(IS_TIM_PERIOD(htim, htim->Init.Period));
 8000e54:	f44f 718b 	mov.w	r1, #278	; 0x116
 8000e58:	4809      	ldr	r0, [pc, #36]	; (8000e80 <HAL_TIM_Base_Init+0x160>)
 8000e5a:	f7ff fcc1 	bl	80007e0 <assert_failed>
 8000e5e:	e7d3      	b.n	8000e08 <HAL_TIM_Base_Init+0xe8>
  assert_param(IS_TIM_AUTORELOAD_PRELOAD(htim->Init.AutoReloadPreload));
 8000e60:	f240 1117 	movw	r1, #279	; 0x117
 8000e64:	4806      	ldr	r0, [pc, #24]	; (8000e80 <HAL_TIM_Base_Init+0x160>)
 8000e66:	f7ff fcbb 	bl	80007e0 <assert_failed>
 8000e6a:	e7d1      	b.n	8000e10 <HAL_TIM_Base_Init+0xf0>
    htim->Lock = HAL_UNLOCKED;
 8000e6c:	f884 303c 	strb.w	r3, [r4, #60]	; 0x3c
    HAL_TIM_Base_MspInit(htim);
 8000e70:	4620      	mov	r0, r4
 8000e72:	f7ff fdaf 	bl	80009d4 <HAL_TIM_Base_MspInit>
 8000e76:	e7ce      	b.n	8000e16 <HAL_TIM_Base_Init+0xf6>
    return HAL_ERROR;
 8000e78:	2001      	movs	r0, #1
}
 8000e7a:	4770      	bx	lr
 8000e7c:	40010000 	andmi	r0, r1, r0
 8000e80:	08003a90 	stmdaeq	r0, {r4, r7, r9, fp, ip, sp}
 8000e84:	40000c00 	andmi	r0, r0, r0, lsl #24

08000e88 <HAL_TIMEx_CommutCallback>:
  UNUSED(htim);

  /* NOTE : This function should not be modified, when the callback is needed,
            the HAL_TIMEx_CommutCallback could be implemented in the user file
   */
}
 8000e88:	4770      	bx	lr

08000e8a <HAL_TIMEx_BreakCallback>:
  UNUSED(htim);

  /* NOTE : This function should not be modified, when the callback is needed,
            the HAL_TIMEx_BreakCallback could be implemented in the user file
   */
}
 8000e8a:	4770      	bx	lr

08000e8c <UART_EndRxTransfer>:
  * @retval None
  */
static void UART_EndRxTransfer(UART_HandleTypeDef *huart)
{
  /* Disable RXNE, PE and ERR (Frame error, noise error, overrun error) interrupts */
  ATOMIC_CLEAR_BIT(huart->Instance->CR1, (USART_CR1_RXNEIE | USART_CR1_PEIE));
 8000e8c:	6802      	ldr	r2, [r0, #0]
   __ASM volatile ("ldrex %0, %1" : "=r" (result) : "Q" (*addr) );
 8000e8e:	f102 030c 	add.w	r3, r2, #12
 8000e92:	e853 3f00 	ldrex	r3, [r3]
 8000e96:	f423 7390 	bic.w	r3, r3, #288	; 0x120
   __ASM volatile ("strex %0, %2, %1" : "=&r" (result), "=Q" (*addr) : "r" (value) );
 8000e9a:	320c      	adds	r2, #12
 8000e9c:	e842 3100 	strex	r1, r3, [r2]
 8000ea0:	2900      	cmp	r1, #0
 8000ea2:	d1f3      	bne.n	8000e8c <UART_EndRxTransfer>
  ATOMIC_CLEAR_BIT(huart->Instance->CR3, USART_CR3_EIE);
 8000ea4:	6802      	ldr	r2, [r0, #0]
   __ASM volatile ("ldrex %0, %1" : "=r" (result) : "Q" (*addr) );
 8000ea6:	f102 0314 	add.w	r3, r2, #20
 8000eaa:	e853 3f00 	ldrex	r3, [r3]
 8000eae:	f023 0301 	bic.w	r3, r3, #1
   __ASM volatile ("strex %0, %2, %1" : "=&r" (result), "=Q" (*addr) : "r" (value) );
 8000eb2:	3214      	adds	r2, #20
 8000eb4:	e842 3100 	strex	r1, r3, [r2]
 8000eb8:	2900      	cmp	r1, #0
 8000eba:	d1f3      	bne.n	8000ea4 <UART_EndRxTransfer+0x18>

  /* In case of reception waiting for IDLE event, disable also the IDLE IE interrupt source */
  if (huart->ReceptionType == HAL_UART_RECEPTION_TOIDLE)
 8000ebc:	6b03      	ldr	r3, [r0, #48]	; 0x30
 8000ebe:	2b01      	cmp	r3, #1
 8000ec0:	d005      	beq.n	8000ece <UART_EndRxTransfer+0x42>
  {
    ATOMIC_CLEAR_BIT(huart->Instance->CR1, USART_CR1_IDLEIE);
  }

  /* At end of Rx process, restore huart->RxState to Ready */
  huart->RxState = HAL_UART_STATE_READY;
 8000ec2:	2320      	movs	r3, #32
 8000ec4:	f880 3042 	strb.w	r3, [r0, #66]	; 0x42
  huart->ReceptionType = HAL_UART_RECEPTION_STANDARD;
 8000ec8:	2300      	movs	r3, #0
 8000eca:	6303      	str	r3, [r0, #48]	; 0x30
}
 8000ecc:	4770      	bx	lr
    ATOMIC_CLEAR_BIT(huart->Instance->CR1, USART_CR1_IDLEIE);
 8000ece:	6802      	ldr	r2, [r0, #0]
   __ASM volatile ("ldrex %0, %1" : "=r" (result) : "Q" (*addr) );
 8000ed0:	f102 030c 	add.w	r3, r2, #12
 8000ed4:	e853 3f00 	ldrex	r3, [r3]
 8000ed8:	f023 0310 	bic.w	r3, r3, #16
   __ASM volatile ("strex %0, %2, %1" : "=&r" (result), "=Q" (*addr) : "r" (value) );
 8000edc:	320c      	adds	r2, #12
 8000ede:	e842 3100 	strex	r1, r3, [r2]
 8000ee2:	2900      	cmp	r1, #0
 8000ee4:	d1f3      	bne.n	8000ece <UART_EndRxTransfer+0x42>
 8000ee6:	e7ec      	b.n	8000ec2 <UART_EndRxTransfer+0x36>

08000ee8 <UART_Transmit_IT>:
static HAL_StatusTypeDef UART_Transmit_IT(UART_HandleTypeDef *huart)
{
  const uint16_t *tmp;

  /* Check that a Tx process is ongoing */
  if (huart->gState == HAL_UART_STATE_BUSY_TX)
 8000ee8:	f890 3041 	ldrb.w	r3, [r0, #65]	; 0x41
 8000eec:	b2db      	uxtb	r3, r3
 8000eee:	2b21      	cmp	r3, #33	; 0x21
 8000ef0:	d001      	beq.n	8000ef6 <UART_Transmit_IT+0xe>
    }
    return HAL_OK;
  }
  else
  {
    return HAL_BUSY;
 8000ef2:	2002      	movs	r0, #2
  }
}
 8000ef4:	4770      	bx	lr
    if ((huart->Init.WordLength == UART_WORDLENGTH_9B) && (huart->Init.Parity == UART_PARITY_NONE))
 8000ef6:	6883      	ldr	r3, [r0, #8]
 8000ef8:	f5b3 5f80 	cmp.w	r3, #4096	; 0x1000
 8000efc:	d017      	beq.n	8000f2e <UART_Transmit_IT+0x46>
      huart->Instance->DR = (uint8_t)(*huart->pTxBuffPtr++ & (uint8_t)0x00FF);
 8000efe:	6a03      	ldr	r3, [r0, #32]
 8000f00:	1c5a      	adds	r2, r3, #1
 8000f02:	6202      	str	r2, [r0, #32]
 8000f04:	781a      	ldrb	r2, [r3, #0]
 8000f06:	6803      	ldr	r3, [r0, #0]
 8000f08:	605a      	str	r2, [r3, #4]
    if (--huart->TxXferCount == 0U)
 8000f0a:	8cc3      	ldrh	r3, [r0, #38]	; 0x26
 8000f0c:	b29b      	uxth	r3, r3
 8000f0e:	3b01      	subs	r3, #1
 8000f10:	b29b      	uxth	r3, r3
 8000f12:	84c3      	strh	r3, [r0, #38]	; 0x26
 8000f14:	b94b      	cbnz	r3, 8000f2a <UART_Transmit_IT+0x42>
      __HAL_UART_DISABLE_IT(huart, UART_IT_TXE);
 8000f16:	6802      	ldr	r2, [r0, #0]
 8000f18:	68d3      	ldr	r3, [r2, #12]
 8000f1a:	f023 0380 	bic.w	r3, r3, #128	; 0x80
 8000f1e:	60d3      	str	r3, [r2, #12]
      __HAL_UART_ENABLE_IT(huart, UART_IT_TC);
 8000f20:	6802      	ldr	r2, [r0, #0]
 8000f22:	68d3      	ldr	r3, [r2, #12]
 8000f24:	f043 0340 	orr.w	r3, r3, #64	; 0x40
 8000f28:	60d3      	str	r3, [r2, #12]
    return HAL_OK;
 8000f2a:	2000      	movs	r0, #0
 8000f2c:	4770      	bx	lr
    if ((huart->Init.WordLength == UART_WORDLENGTH_9B) && (huart->Init.Parity == UART_PARITY_NONE))
 8000f2e:	6903      	ldr	r3, [r0, #16]
 8000f30:	2b00      	cmp	r3, #0
 8000f32:	d1e4      	bne.n	8000efe <UART_Transmit_IT+0x16>
      tmp = (const uint16_t *) huart->pTxBuffPtr;
 8000f34:	6a03      	ldr	r3, [r0, #32]
      huart->Instance->DR = (uint16_t)(*tmp & (uint16_t)0x01FF);
 8000f36:	881b      	ldrh	r3, [r3, #0]
 8000f38:	6802      	ldr	r2, [r0, #0]
 8000f3a:	f3c3 0308 	ubfx	r3, r3, #0, #9
 8000f3e:	6053      	str	r3, [r2, #4]
      huart->pTxBuffPtr += 2U;
 8000f40:	6a03      	ldr	r3, [r0, #32]
 8000f42:	3302      	adds	r3, #2
 8000f44:	6203      	str	r3, [r0, #32]
 8000f46:	e7e0      	b.n	8000f0a <UART_Transmit_IT+0x22>

08000f48 <UART_SetConfig>:
  * @param  huart  Pointer to a UART_HandleTypeDef structure that contains
  *                the configuration information for the specified UART module.
  * @retval None
  */
static void UART_SetConfig(UART_HandleTypeDef *huart)
{
 8000f48:	b538      	push	{r3, r4, r5, lr}
 8000f4a:	4604      	mov	r4, r0
  uint32_t tmpreg;
  uint32_t pclk;

  /* Check the parameters */
  assert_param(IS_UART_BAUDRATE(huart->Init.BaudRate));
 8000f4c:	6842      	ldr	r2, [r0, #4]
 8000f4e:	4b57      	ldr	r3, [pc, #348]	; (80010ac <UART_SetConfig+0x164>)
 8000f50:	429a      	cmp	r2, r3
 8000f52:	d83f      	bhi.n	8000fd4 <UART_SetConfig+0x8c>
  assert_param(IS_UART_STOPBITS(huart->Init.StopBits));
 8000f54:	68e3      	ldr	r3, [r4, #12]
 8000f56:	b113      	cbz	r3, 8000f5e <UART_SetConfig+0x16>
 8000f58:	f5b3 5f00 	cmp.w	r3, #8192	; 0x2000
 8000f5c:	d140      	bne.n	8000fe0 <UART_SetConfig+0x98>
  assert_param(IS_UART_PARITY(huart->Init.Parity));
 8000f5e:	6923      	ldr	r3, [r4, #16]
 8000f60:	b12b      	cbz	r3, 8000f6e <UART_SetConfig+0x26>
 8000f62:	f5b3 6f80 	cmp.w	r3, #1024	; 0x400
 8000f66:	d002      	beq.n	8000f6e <UART_SetConfig+0x26>
 8000f68:	f5b3 6fc0 	cmp.w	r3, #1536	; 0x600
 8000f6c:	d13e      	bne.n	8000fec <UART_SetConfig+0xa4>
  assert_param(IS_UART_MODE(huart->Init.Mode));
 8000f6e:	6963      	ldr	r3, [r4, #20]
 8000f70:	f64f 72f3 	movw	r2, #65523	; 0xfff3
 8000f74:	4213      	tst	r3, r2
 8000f76:	d100      	bne.n	8000f7a <UART_SetConfig+0x32>
 8000f78:	b923      	cbnz	r3, 8000f84 <UART_SetConfig+0x3c>
 8000f7a:	f640 6178 	movw	r1, #3704	; 0xe78
 8000f7e:	484c      	ldr	r0, [pc, #304]	; (80010b0 <UART_SetConfig+0x168>)
 8000f80:	f7ff fc2e 	bl	80007e0 <assert_failed>

  /*-------------------------- USART CR2 Configuration -----------------------*/
  /* Configure the UART Stop Bits: Set STOP[13:12] bits
     according to huart->Init.StopBits value */
  MODIFY_REG(huart->Instance->CR2, USART_CR2_STOP, huart->Init.StopBits);
 8000f84:	6822      	ldr	r2, [r4, #0]
 8000f86:	6913      	ldr	r3, [r2, #16]
 8000f88:	f423 5340 	bic.w	r3, r3, #12288	; 0x3000
 8000f8c:	68e1      	ldr	r1, [r4, #12]
 8000f8e:	430b      	orrs	r3, r1
 8000f90:	6113      	str	r3, [r2, #16]
     Set the M bits according to huart->Init.WordLength value
     Set PCE and PS bits according to huart->Init.Parity value
     Set TE and RE bits according to huart->Init.Mode value
     Set OVER8 bit according to huart->Init.OverSampling value */

  tmpreg = (uint32_t)huart->Init.WordLength | huart->Init.Parity | huart->Init.Mode | huart->Init.OverSampling;
 8000f92:	68a3      	ldr	r3, [r4, #8]
 8000f94:	6922      	ldr	r2, [r4, #16]
 8000f96:	4313      	orrs	r3, r2
 8000f98:	6962      	ldr	r2, [r4, #20]
 8000f9a:	4313      	orrs	r3, r2
 8000f9c:	69e2      	ldr	r2, [r4, #28]
 8000f9e:	431a      	orrs	r2, r3
  MODIFY_REG(huart->Instance->CR1,
 8000fa0:	6821      	ldr	r1, [r4, #0]
 8000fa2:	68cb      	ldr	r3, [r1, #12]
 8000fa4:	f423 4316 	bic.w	r3, r3, #38400	; 0x9600
 8000fa8:	f023 030c 	bic.w	r3, r3, #12
 8000fac:	4313      	orrs	r3, r2
 8000fae:	60cb      	str	r3, [r1, #12]
             (uint32_t)(USART_CR1_M | USART_CR1_PCE | USART_CR1_PS | USART_CR1_TE | USART_CR1_RE | USART_CR1_OVER8),
             tmpreg);

  /*-------------------------- USART CR3 Configuration -----------------------*/
  /* Configure the UART HFC: Set CTSE and RTSE bits according to huart->Init.HwFlowCtl value */
  MODIFY_REG(huart->Instance->CR3, (USART_CR3_RTSE | USART_CR3_CTSE), huart->Init.HwFlowCtl);
 8000fb0:	6822      	ldr	r2, [r4, #0]
 8000fb2:	6953      	ldr	r3, [r2, #20]
 8000fb4:	f423 7340 	bic.w	r3, r3, #768	; 0x300
 8000fb8:	69a1      	ldr	r1, [r4, #24]
 8000fba:	430b      	orrs	r3, r1
 8000fbc:	6153      	str	r3, [r2, #20]
    if ((huart->Instance == USART1) || (huart->Instance == USART6) || (huart->Instance == UART9) || (huart->Instance == UART10))
    {
      pclk = HAL_RCC_GetPCLK2Freq();
    }
#elif defined(USART6)
    if ((huart->Instance == USART1) || (huart->Instance == USART6))
 8000fbe:	6823      	ldr	r3, [r4, #0]
 8000fc0:	4a3c      	ldr	r2, [pc, #240]	; (80010b4 <UART_SetConfig+0x16c>)
 8000fc2:	4293      	cmp	r3, r2
 8000fc4:	d018      	beq.n	8000ff8 <UART_SetConfig+0xb0>
 8000fc6:	f502 6280 	add.w	r2, r2, #1024	; 0x400
 8000fca:	4293      	cmp	r3, r2
 8000fcc:	d014      	beq.n	8000ff8 <UART_SetConfig+0xb0>
      pclk = HAL_RCC_GetPCLK2Freq();
    }
#endif /* USART6 */
    else
    {
      pclk = HAL_RCC_GetPCLK1Freq();
 8000fce:	f000 ff83 	bl	8001ed8 <HAL_RCC_GetPCLK1Freq>
 8000fd2:	e013      	b.n	8000ffc <UART_SetConfig+0xb4>
  assert_param(IS_UART_BAUDRATE(huart->Init.BaudRate));
 8000fd4:	f640 6175 	movw	r1, #3701	; 0xe75
 8000fd8:	4835      	ldr	r0, [pc, #212]	; (80010b0 <UART_SetConfig+0x168>)
 8000fda:	f7ff fc01 	bl	80007e0 <assert_failed>
 8000fde:	e7b9      	b.n	8000f54 <UART_SetConfig+0xc>
  assert_param(IS_UART_STOPBITS(huart->Init.StopBits));
 8000fe0:	f640 6176 	movw	r1, #3702	; 0xe76
 8000fe4:	4832      	ldr	r0, [pc, #200]	; (80010b0 <UART_SetConfig+0x168>)
 8000fe6:	f7ff fbfb 	bl	80007e0 <assert_failed>
 8000fea:	e7b8      	b.n	8000f5e <UART_SetConfig+0x16>
  assert_param(IS_UART_PARITY(huart->Init.Parity));
 8000fec:	f640 6177 	movw	r1, #3703	; 0xe77
 8000ff0:	482f      	ldr	r0, [pc, #188]	; (80010b0 <UART_SetConfig+0x168>)
 8000ff2:	f7ff fbf5 	bl	80007e0 <assert_failed>
 8000ff6:	e7ba      	b.n	8000f6e <UART_SetConfig+0x26>
      pclk = HAL_RCC_GetPCLK2Freq();
 8000ff8:	f000 ff7e 	bl	8001ef8 <HAL_RCC_GetPCLK2Freq>
    }
  /*-------------------------- USART BRR Configuration ---------------------*/
  if (huart->Init.OverSampling == UART_OVERSAMPLING_8)
 8000ffc:	69e3      	ldr	r3, [r4, #28]
 8000ffe:	f5b3 4f00 	cmp.w	r3, #32768	; 0x8000
 8001002:	d029      	beq.n	8001058 <UART_SetConfig+0x110>
  {
    huart->Instance->BRR = UART_BRR_SAMPLING8(pclk, huart->Init.BaudRate);
  }
  else
  {
    huart->Instance->BRR = UART_BRR_SAMPLING16(pclk, huart->Init.BaudRate);
 8001004:	2100      	movs	r1, #0
 8001006:	1803      	adds	r3, r0, r0
 8001008:	4149      	adcs	r1, r1
 800100a:	181b      	adds	r3, r3, r0
 800100c:	f141 0100 	adc.w	r1, r1, #0
 8001010:	00c9      	lsls	r1, r1, #3
 8001012:	ea41 7153 	orr.w	r1, r1, r3, lsr #29
 8001016:	00db      	lsls	r3, r3, #3
 8001018:	1818      	adds	r0, r3, r0
 800101a:	6863      	ldr	r3, [r4, #4]
 800101c:	ea4f 0283 	mov.w	r2, r3, lsl #2
 8001020:	ea4f 7393 	mov.w	r3, r3, lsr #30
 8001024:	f141 0100 	adc.w	r1, r1, #0
 8001028:	f7ff f94a 	bl	80002c0 <__aeabi_uldivmod>
 800102c:	4d22      	ldr	r5, [pc, #136]	; (80010b8 <UART_SetConfig+0x170>)
 800102e:	fba5 3200 	umull	r3, r2, r5, r0
 8001032:	0951      	lsrs	r1, r2, #5
 8001034:	2364      	movs	r3, #100	; 0x64
 8001036:	fb03 0311 	mls	r3, r3, r1, r0
 800103a:	011b      	lsls	r3, r3, #4
 800103c:	3332      	adds	r3, #50	; 0x32
 800103e:	fba5 2303 	umull	r2, r3, r5, r3
 8001042:	095b      	lsrs	r3, r3, #5
 8001044:	f003 02f0 	and.w	r2, r3, #240	; 0xf0
 8001048:	eb02 1201 	add.w	r2, r2, r1, lsl #4
 800104c:	f003 030f 	and.w	r3, r3, #15
 8001050:	6821      	ldr	r1, [r4, #0]
 8001052:	4413      	add	r3, r2
 8001054:	608b      	str	r3, [r1, #8]
  }
}
 8001056:	bd38      	pop	{r3, r4, r5, pc}
    huart->Instance->BRR = UART_BRR_SAMPLING8(pclk, huart->Init.BaudRate);
 8001058:	2300      	movs	r3, #0
 800105a:	1802      	adds	r2, r0, r0
 800105c:	eb43 0103 	adc.w	r1, r3, r3
 8001060:	1812      	adds	r2, r2, r0
 8001062:	f141 0100 	adc.w	r1, r1, #0
 8001066:	00c9      	lsls	r1, r1, #3
 8001068:	ea41 7152 	orr.w	r1, r1, r2, lsr #29
 800106c:	00d2      	lsls	r2, r2, #3
 800106e:	1810      	adds	r0, r2, r0
 8001070:	f141 0100 	adc.w	r1, r1, #0
 8001074:	6862      	ldr	r2, [r4, #4]
 8001076:	1892      	adds	r2, r2, r2
 8001078:	415b      	adcs	r3, r3
 800107a:	f7ff f921 	bl	80002c0 <__aeabi_uldivmod>
 800107e:	4d0e      	ldr	r5, [pc, #56]	; (80010b8 <UART_SetConfig+0x170>)
 8001080:	fba5 3200 	umull	r3, r2, r5, r0
 8001084:	0951      	lsrs	r1, r2, #5
 8001086:	2364      	movs	r3, #100	; 0x64
 8001088:	fb03 0311 	mls	r3, r3, r1, r0
 800108c:	00db      	lsls	r3, r3, #3
 800108e:	3332      	adds	r3, #50	; 0x32
 8001090:	fba5 2303 	umull	r2, r3, r5, r3
 8001094:	095b      	lsrs	r3, r3, #5
 8001096:	005a      	lsls	r2, r3, #1
 8001098:	f402 72f8 	and.w	r2, r2, #496	; 0x1f0
 800109c:	eb02 1201 	add.w	r2, r2, r1, lsl #4
 80010a0:	f003 0307 	and.w	r3, r3, #7
 80010a4:	6821      	ldr	r1, [r4, #0]
 80010a6:	4413      	add	r3, r2
 80010a8:	608b      	str	r3, [r1, #8]
 80010aa:	e7d4      	b.n	8001056 <UART_SetConfig+0x10e>
 80010ac:	00a037a0 	adceq	r3, r0, r0, lsr #15
 80010b0:	08003ac8 	stmdaeq	r0, {r3, r6, r7, r9, fp, ip, sp}
 80010b4:	40011000 	andmi	r1, r1, r0
 80010b8:	51eb851f 	mvnpl	r8, pc, lsl r5

080010bc <UART_WaitOnFlagUntilTimeout>:
{
 80010bc:	e92d 43f0 	stmdb	sp!, {r4, r5, r6, r7, r8, r9, lr}
 80010c0:	b083      	sub	sp, #12
 80010c2:	4605      	mov	r5, r0
 80010c4:	460e      	mov	r6, r1
 80010c6:	4617      	mov	r7, r2
 80010c8:	4699      	mov	r9, r3
 80010ca:	f8dd 8028 	ldr.w	r8, [sp, #40]	; 0x28
  while ((__HAL_UART_GET_FLAG(huart, Flag) ? SET : RESET) == Status)
 80010ce:	682c      	ldr	r4, [r5, #0]
 80010d0:	6824      	ldr	r4, [r4, #0]
 80010d2:	ea36 0304 	bics.w	r3, r6, r4
 80010d6:	bf0c      	ite	eq
 80010d8:	f04f 0c01 	moveq.w	ip, #1
 80010dc:	f04f 0c00 	movne.w	ip, #0
 80010e0:	45bc      	cmp	ip, r7
 80010e2:	d128      	bne.n	8001136 <UART_WaitOnFlagUntilTimeout+0x7a>
    if (Timeout != HAL_MAX_DELAY)
 80010e4:	f1b8 3fff 	cmp.w	r8, #4294967295
 80010e8:	d0f1      	beq.n	80010ce <UART_WaitOnFlagUntilTimeout+0x12>
      if (((HAL_GetTick() - Tickstart) > Timeout) || (Timeout == 0U))
 80010ea:	f001 f9a7 	bl	800243c <HAL_GetTick>
 80010ee:	eba0 0009 	sub.w	r0, r0, r9
 80010f2:	4540      	cmp	r0, r8
 80010f4:	d823      	bhi.n	800113e <UART_WaitOnFlagUntilTimeout+0x82>
 80010f6:	f1b8 0f00 	cmp.w	r8, #0
 80010fa:	d022      	beq.n	8001142 <UART_WaitOnFlagUntilTimeout+0x86>
      if ((READ_BIT(huart->Instance->CR1, USART_CR1_RE) != 0U) && (Flag != UART_FLAG_TXE) && (Flag != UART_FLAG_TC))
 80010fc:	682b      	ldr	r3, [r5, #0]
 80010fe:	68da      	ldr	r2, [r3, #12]
 8001100:	f012 0f04 	tst.w	r2, #4
 8001104:	d0e3      	beq.n	80010ce <UART_WaitOnFlagUntilTimeout+0x12>
 8001106:	2e80      	cmp	r6, #128	; 0x80
 8001108:	d0e1      	beq.n	80010ce <UART_WaitOnFlagUntilTimeout+0x12>
 800110a:	2e40      	cmp	r6, #64	; 0x40
 800110c:	d0df      	beq.n	80010ce <UART_WaitOnFlagUntilTimeout+0x12>
        if (__HAL_UART_GET_FLAG(huart, UART_FLAG_ORE) == SET)
 800110e:	681a      	ldr	r2, [r3, #0]
 8001110:	f012 0f08 	tst.w	r2, #8
 8001114:	d0db      	beq.n	80010ce <UART_WaitOnFlagUntilTimeout+0x12>
          __HAL_UART_CLEAR_OREFLAG(huart);
 8001116:	2400      	movs	r4, #0
 8001118:	9401      	str	r4, [sp, #4]
 800111a:	681a      	ldr	r2, [r3, #0]
 800111c:	9201      	str	r2, [sp, #4]
 800111e:	685b      	ldr	r3, [r3, #4]
 8001120:	9301      	str	r3, [sp, #4]
 8001122:	9b01      	ldr	r3, [sp, #4]
          UART_EndRxTransfer(huart);
 8001124:	4628      	mov	r0, r5
 8001126:	f7ff feb1 	bl	8000e8c <UART_EndRxTransfer>
          huart->ErrorCode = HAL_UART_ERROR_ORE;
 800112a:	2308      	movs	r3, #8
 800112c:	646b      	str	r3, [r5, #68]	; 0x44
          __HAL_UNLOCK(huart);
 800112e:	f885 4040 	strb.w	r4, [r5, #64]	; 0x40
          return HAL_ERROR;
 8001132:	2001      	movs	r0, #1
 8001134:	e000      	b.n	8001138 <UART_WaitOnFlagUntilTimeout+0x7c>
  return HAL_OK;
 8001136:	2000      	movs	r0, #0
}
 8001138:	b003      	add	sp, #12
 800113a:	e8bd 83f0 	ldmia.w	sp!, {r4, r5, r6, r7, r8, r9, pc}
        return HAL_TIMEOUT;
 800113e:	2003      	movs	r0, #3
 8001140:	e7fa      	b.n	8001138 <UART_WaitOnFlagUntilTimeout+0x7c>
 8001142:	2003      	movs	r0, #3
 8001144:	e7f8      	b.n	8001138 <UART_WaitOnFlagUntilTimeout+0x7c>
	...

08001148 <HAL_UART_Init>:
  if (huart == NULL)
 8001148:	2800      	cmp	r0, #0
 800114a:	f000 808c 	beq.w	8001266 <HAL_UART_Init+0x11e>
{
 800114e:	b510      	push	{r4, lr}
 8001150:	4604      	mov	r4, r0
  if (huart->Init.HwFlowCtl != UART_HWCONTROL_NONE)
 8001152:	6983      	ldr	r3, [r0, #24]
 8001154:	2b00      	cmp	r3, #0
 8001156:	d056      	beq.n	8001206 <HAL_UART_Init+0xbe>
    assert_param(IS_UART_HWFLOW_INSTANCE(huart->Instance));
 8001158:	6803      	ldr	r3, [r0, #0]
 800115a:	4a44      	ldr	r2, [pc, #272]	; (800126c <HAL_UART_Init+0x124>)
 800115c:	4293      	cmp	r3, r2
 800115e:	d010      	beq.n	8001182 <HAL_UART_Init+0x3a>
 8001160:	f5a2 424c 	sub.w	r2, r2, #52224	; 0xcc00
 8001164:	4293      	cmp	r3, r2
 8001166:	d00c      	beq.n	8001182 <HAL_UART_Init+0x3a>
 8001168:	f502 6280 	add.w	r2, r2, #1024	; 0x400
 800116c:	4293      	cmp	r3, r2
 800116e:	d008      	beq.n	8001182 <HAL_UART_Init+0x3a>
 8001170:	f502 424c 	add.w	r2, r2, #52224	; 0xcc00
 8001174:	4293      	cmp	r3, r2
 8001176:	d004      	beq.n	8001182 <HAL_UART_Init+0x3a>
 8001178:	f240 1173 	movw	r1, #371	; 0x173
 800117c:	483c      	ldr	r0, [pc, #240]	; (8001270 <HAL_UART_Init+0x128>)
 800117e:	f7ff fb2f 	bl	80007e0 <assert_failed>
    assert_param(IS_UART_HARDWARE_FLOW_CONTROL(huart->Init.HwFlowCtl));
 8001182:	69a3      	ldr	r3, [r4, #24]
 8001184:	b143      	cbz	r3, 8001198 <HAL_UART_Init+0x50>
 8001186:	f5b3 7f80 	cmp.w	r3, #256	; 0x100
 800118a:	d005      	beq.n	8001198 <HAL_UART_Init+0x50>
 800118c:	f5b3 7f00 	cmp.w	r3, #512	; 0x200
 8001190:	d002      	beq.n	8001198 <HAL_UART_Init+0x50>
 8001192:	f5b3 7f40 	cmp.w	r3, #768	; 0x300
 8001196:	d130      	bne.n	80011fa <HAL_UART_Init+0xb2>
  assert_param(IS_UART_WORD_LENGTH(huart->Init.WordLength));
 8001198:	68a3      	ldr	r3, [r4, #8]
 800119a:	b113      	cbz	r3, 80011a2 <HAL_UART_Init+0x5a>
 800119c:	f5b3 5f80 	cmp.w	r3, #4096	; 0x1000
 80011a0:	d14f      	bne.n	8001242 <HAL_UART_Init+0xfa>
  assert_param(IS_UART_OVERSAMPLING(huart->Init.OverSampling));
 80011a2:	69e3      	ldr	r3, [r4, #28]
 80011a4:	b113      	cbz	r3, 80011ac <HAL_UART_Init+0x64>
 80011a6:	f5b3 4f00 	cmp.w	r3, #32768	; 0x8000
 80011aa:	d150      	bne.n	800124e <HAL_UART_Init+0x106>
  if (huart->gState == HAL_UART_STATE_RESET)
 80011ac:	f894 3041 	ldrb.w	r3, [r4, #65]	; 0x41
 80011b0:	2b00      	cmp	r3, #0
 80011b2:	d052      	beq.n	800125a <HAL_UART_Init+0x112>
  huart->gState = HAL_UART_STATE_BUSY;
 80011b4:	2324      	movs	r3, #36	; 0x24
 80011b6:	f884 3041 	strb.w	r3, [r4, #65]	; 0x41
  __HAL_UART_DISABLE(huart);
 80011ba:	6822      	ldr	r2, [r4, #0]
 80011bc:	68d3      	ldr	r3, [r2, #12]
 80011be:	f423 5300 	bic.w	r3, r3, #8192	; 0x2000
 80011c2:	60d3      	str	r3, [r2, #12]
  UART_SetConfig(huart);
 80011c4:	4620      	mov	r0, r4
 80011c6:	f7ff febf 	bl	8000f48 <UART_SetConfig>
  CLEAR_BIT(huart->Instance->CR2, (USART_CR2_LINEN | USART_CR2_CLKEN));
 80011ca:	6822      	ldr	r2, [r4, #0]
 80011cc:	6913      	ldr	r3, [r2, #16]
 80011ce:	f423 4390 	bic.w	r3, r3, #18432	; 0x4800
 80011d2:	6113      	str	r3, [r2, #16]
  CLEAR_BIT(huart->Instance->CR3, (USART_CR3_SCEN | USART_CR3_HDSEL | USART_CR3_IREN));
 80011d4:	6822      	ldr	r2, [r4, #0]
 80011d6:	6953      	ldr	r3, [r2, #20]
 80011d8:	f023 032a 	bic.w	r3, r3, #42	; 0x2a
 80011dc:	6153      	str	r3, [r2, #20]
  __HAL_UART_ENABLE(huart);
 80011de:	6822      	ldr	r2, [r4, #0]
 80011e0:	68d3      	ldr	r3, [r2, #12]
 80011e2:	f443 5300 	orr.w	r3, r3, #8192	; 0x2000
 80011e6:	60d3      	str	r3, [r2, #12]
  huart->ErrorCode = HAL_UART_ERROR_NONE;
 80011e8:	2000      	movs	r0, #0
 80011ea:	6460      	str	r0, [r4, #68]	; 0x44
  huart->gState = HAL_UART_STATE_READY;
 80011ec:	2320      	movs	r3, #32
 80011ee:	f884 3041 	strb.w	r3, [r4, #65]	; 0x41
  huart->RxState = HAL_UART_STATE_READY;
 80011f2:	f884 3042 	strb.w	r3, [r4, #66]	; 0x42
  huart->RxEventType = HAL_UART_RXEVENT_TC;
 80011f6:	6360      	str	r0, [r4, #52]	; 0x34
}
 80011f8:	bd10      	pop	{r4, pc}
    assert_param(IS_UART_HARDWARE_FLOW_CONTROL(huart->Init.HwFlowCtl));
 80011fa:	f44f 71ba 	mov.w	r1, #372	; 0x174
 80011fe:	481c      	ldr	r0, [pc, #112]	; (8001270 <HAL_UART_Init+0x128>)
 8001200:	f7ff faee 	bl	80007e0 <assert_failed>
 8001204:	e7c8      	b.n	8001198 <HAL_UART_Init+0x50>
    assert_param(IS_UART_INSTANCE(huart->Instance));
 8001206:	6803      	ldr	r3, [r0, #0]
 8001208:	4a18      	ldr	r2, [pc, #96]	; (800126c <HAL_UART_Init+0x124>)
 800120a:	4293      	cmp	r3, r2
 800120c:	d0c4      	beq.n	8001198 <HAL_UART_Init+0x50>
 800120e:	f5a2 424c 	sub.w	r2, r2, #52224	; 0xcc00
 8001212:	4293      	cmp	r3, r2
 8001214:	d0c0      	beq.n	8001198 <HAL_UART_Init+0x50>
 8001216:	f502 6280 	add.w	r2, r2, #1024	; 0x400
 800121a:	4293      	cmp	r3, r2
 800121c:	d0bc      	beq.n	8001198 <HAL_UART_Init+0x50>
 800121e:	f502 6280 	add.w	r2, r2, #1024	; 0x400
 8001222:	4293      	cmp	r3, r2
 8001224:	d0b8      	beq.n	8001198 <HAL_UART_Init+0x50>
 8001226:	f502 6280 	add.w	r2, r2, #1024	; 0x400
 800122a:	4293      	cmp	r3, r2
 800122c:	d0b4      	beq.n	8001198 <HAL_UART_Init+0x50>
 800122e:	f502 4244 	add.w	r2, r2, #50176	; 0xc400
 8001232:	4293      	cmp	r3, r2
 8001234:	d0b0      	beq.n	8001198 <HAL_UART_Init+0x50>
 8001236:	f44f 71bc 	mov.w	r1, #376	; 0x178
 800123a:	480d      	ldr	r0, [pc, #52]	; (8001270 <HAL_UART_Init+0x128>)
 800123c:	f7ff fad0 	bl	80007e0 <assert_failed>
 8001240:	e7aa      	b.n	8001198 <HAL_UART_Init+0x50>
  assert_param(IS_UART_WORD_LENGTH(huart->Init.WordLength));
 8001242:	f44f 71bd 	mov.w	r1, #378	; 0x17a
 8001246:	480a      	ldr	r0, [pc, #40]	; (8001270 <HAL_UART_Init+0x128>)
 8001248:	f7ff faca 	bl	80007e0 <assert_failed>
 800124c:	e7a9      	b.n	80011a2 <HAL_UART_Init+0x5a>
  assert_param(IS_UART_OVERSAMPLING(huart->Init.OverSampling));
 800124e:	f240 117b 	movw	r1, #379	; 0x17b
 8001252:	4807      	ldr	r0, [pc, #28]	; (8001270 <HAL_UART_Init+0x128>)
 8001254:	f7ff fac4 	bl	80007e0 <assert_failed>
 8001258:	e7a8      	b.n	80011ac <HAL_UART_Init+0x64>
    huart->Lock = HAL_UNLOCKED;
 800125a:	f884 3040 	strb.w	r3, [r4, #64]	; 0x40
    HAL_UART_MspInit(huart);
 800125e:	4620      	mov	r0, r4
 8001260:	f7ff fb0a 	bl	8000878 <HAL_UART_MspInit>
 8001264:	e7a6      	b.n	80011b4 <HAL_UART_Init+0x6c>
    return HAL_ERROR;
 8001266:	2001      	movs	r0, #1
}
 8001268:	4770      	bx	lr
 800126a:	bf00      	nop
 800126c:	40011000 	andmi	r1, r1, r0
 8001270:	08003ac8 	stmdaeq	r0, {r3, r6, r7, r9, fp, ip, sp}

08001274 <HAL_UART_Transmit>:
{
 8001274:	e92d 41f0 	stmdb	sp!, {r4, r5, r6, r7, r8, lr}
 8001278:	b082      	sub	sp, #8
 800127a:	461e      	mov	r6, r3
  if (huart->gState == HAL_UART_STATE_READY)
 800127c:	f890 3041 	ldrb.w	r3, [r0, #65]	; 0x41
 8001280:	b2db      	uxtb	r3, r3
 8001282:	2b20      	cmp	r3, #32
 8001284:	d156      	bne.n	8001334 <HAL_UART_Transmit+0xc0>
 8001286:	4604      	mov	r4, r0
 8001288:	460d      	mov	r5, r1
 800128a:	4690      	mov	r8, r2
    if ((pData == NULL) || (Size == 0U))
 800128c:	2900      	cmp	r1, #0
 800128e:	d055      	beq.n	800133c <HAL_UART_Transmit+0xc8>
 8001290:	b90a      	cbnz	r2, 8001296 <HAL_UART_Transmit+0x22>
      return  HAL_ERROR;
 8001292:	2001      	movs	r0, #1
 8001294:	e04f      	b.n	8001336 <HAL_UART_Transmit+0xc2>
    huart->ErrorCode = HAL_UART_ERROR_NONE;
 8001296:	2300      	movs	r3, #0
 8001298:	6443      	str	r3, [r0, #68]	; 0x44
    huart->gState = HAL_UART_STATE_BUSY_TX;
 800129a:	2321      	movs	r3, #33	; 0x21
 800129c:	f880 3041 	strb.w	r3, [r0, #65]	; 0x41
    tickstart = HAL_GetTick();
 80012a0:	f001 f8cc 	bl	800243c <HAL_GetTick>
 80012a4:	4607      	mov	r7, r0
    huart->TxXferSize = Size;
 80012a6:	f8a4 8024 	strh.w	r8, [r4, #36]	; 0x24
    huart->TxXferCount = Size;
 80012aa:	f8a4 8026 	strh.w	r8, [r4, #38]	; 0x26
    if ((huart->Init.WordLength == UART_WORDLENGTH_9B) && (huart->Init.Parity == UART_PARITY_NONE))
 80012ae:	68a3      	ldr	r3, [r4, #8]
 80012b0:	f5b3 5f80 	cmp.w	r3, #4096	; 0x1000
 80012b4:	d002      	beq.n	80012bc <HAL_UART_Transmit+0x48>
      pdata16bits = NULL;
 80012b6:	f04f 0800 	mov.w	r8, #0
 80012ba:	e014      	b.n	80012e6 <HAL_UART_Transmit+0x72>
    if ((huart->Init.WordLength == UART_WORDLENGTH_9B) && (huart->Init.Parity == UART_PARITY_NONE))
 80012bc:	6923      	ldr	r3, [r4, #16]
 80012be:	b32b      	cbz	r3, 800130c <HAL_UART_Transmit+0x98>
      pdata16bits = NULL;
 80012c0:	f04f 0800 	mov.w	r8, #0
 80012c4:	e00f      	b.n	80012e6 <HAL_UART_Transmit+0x72>
        huart->gState = HAL_UART_STATE_READY;
 80012c6:	2320      	movs	r3, #32
 80012c8:	f884 3041 	strb.w	r3, [r4, #65]	; 0x41
        return HAL_TIMEOUT;
 80012cc:	2003      	movs	r0, #3
 80012ce:	e032      	b.n	8001336 <HAL_UART_Transmit+0xc2>
        huart->Instance->DR = (uint16_t)(*pdata16bits & 0x01FFU);
 80012d0:	f838 3b02 	ldrh.w	r3, [r8], #2
 80012d4:	6822      	ldr	r2, [r4, #0]
 80012d6:	f3c3 0308 	ubfx	r3, r3, #0, #9
 80012da:	6053      	str	r3, [r2, #4]
      huart->TxXferCount--;
 80012dc:	8ce2      	ldrh	r2, [r4, #38]	; 0x26
 80012de:	b292      	uxth	r2, r2
 80012e0:	3a01      	subs	r2, #1
 80012e2:	b292      	uxth	r2, r2
 80012e4:	84e2      	strh	r2, [r4, #38]	; 0x26
    while (huart->TxXferCount > 0U)
 80012e6:	8ce3      	ldrh	r3, [r4, #38]	; 0x26
 80012e8:	b29b      	uxth	r3, r3
 80012ea:	b193      	cbz	r3, 8001312 <HAL_UART_Transmit+0x9e>
      if (UART_WaitOnFlagUntilTimeout(huart, UART_FLAG_TXE, RESET, tickstart, Timeout) != HAL_OK)
 80012ec:	9600      	str	r6, [sp, #0]
 80012ee:	463b      	mov	r3, r7
 80012f0:	2200      	movs	r2, #0
 80012f2:	2180      	movs	r1, #128	; 0x80
 80012f4:	4620      	mov	r0, r4
 80012f6:	f7ff fee1 	bl	80010bc <UART_WaitOnFlagUntilTimeout>
 80012fa:	2800      	cmp	r0, #0
 80012fc:	d1e3      	bne.n	80012c6 <HAL_UART_Transmit+0x52>
      if (pdata8bits == NULL)
 80012fe:	2d00      	cmp	r5, #0
 8001300:	d0e6      	beq.n	80012d0 <HAL_UART_Transmit+0x5c>
        huart->Instance->DR = (uint8_t)(*pdata8bits & 0xFFU);
 8001302:	f815 2b01 	ldrb.w	r2, [r5], #1
 8001306:	6823      	ldr	r3, [r4, #0]
 8001308:	605a      	str	r2, [r3, #4]
        pdata8bits++;
 800130a:	e7e7      	b.n	80012dc <HAL_UART_Transmit+0x68>
      pdata16bits = (const uint16_t *) pData;
 800130c:	46a8      	mov	r8, r5
      pdata8bits  = NULL;
 800130e:	2500      	movs	r5, #0
 8001310:	e7e9      	b.n	80012e6 <HAL_UART_Transmit+0x72>
    if (UART_WaitOnFlagUntilTimeout(huart, UART_FLAG_TC, RESET, tickstart, Timeout) != HAL_OK)
 8001312:	9600      	str	r6, [sp, #0]
 8001314:	463b      	mov	r3, r7
 8001316:	2200      	movs	r2, #0
 8001318:	2140      	movs	r1, #64	; 0x40
 800131a:	4620      	mov	r0, r4
 800131c:	f7ff fece 	bl	80010bc <UART_WaitOnFlagUntilTimeout>
 8001320:	b918      	cbnz	r0, 800132a <HAL_UART_Transmit+0xb6>
    huart->gState = HAL_UART_STATE_READY;
 8001322:	2320      	movs	r3, #32
 8001324:	f884 3041 	strb.w	r3, [r4, #65]	; 0x41
    return HAL_OK;
 8001328:	e005      	b.n	8001336 <HAL_UART_Transmit+0xc2>
      huart->gState = HAL_UART_STATE_READY;
 800132a:	2320      	movs	r3, #32
 800132c:	f884 3041 	strb.w	r3, [r4, #65]	; 0x41
      return HAL_TIMEOUT;
 8001330:	2003      	movs	r0, #3
 8001332:	e000      	b.n	8001336 <HAL_UART_Transmit+0xc2>
    return HAL_BUSY;
 8001334:	2002      	movs	r0, #2
}
 8001336:	b002      	add	sp, #8
 8001338:	e8bd 81f0 	ldmia.w	sp!, {r4, r5, r6, r7, r8, pc}
      return  HAL_ERROR;
 800133c:	2001      	movs	r0, #1
 800133e:	e7fa      	b.n	8001336 <HAL_UART_Transmit+0xc2>

08001340 <HAL_UART_TxCpltCallback>:
}
 8001340:	4770      	bx	lr

08001342 <UART_EndTransmit_IT>:
{
 8001342:	b508      	push	{r3, lr}
  __HAL_UART_DISABLE_IT(huart, UART_IT_TC);
 8001344:	6801      	ldr	r1, [r0, #0]
 8001346:	68ca      	ldr	r2, [r1, #12]
 8001348:	f022 0240 	bic.w	r2, r2, #64	; 0x40
 800134c:	60ca      	str	r2, [r1, #12]
  huart->gState = HAL_UART_STATE_READY;
 800134e:	2220      	movs	r2, #32
 8001350:	f880 2041 	strb.w	r2, [r0, #65]	; 0x41
  HAL_UART_TxCpltCallback(huart);
 8001354:	f7ff fff4 	bl	8001340 <HAL_UART_TxCpltCallback>
}
 8001358:	2000      	movs	r0, #0
 800135a:	bd08      	pop	{r3, pc}

0800135c <HAL_UART_RxCpltCallback>:
}
 800135c:	4770      	bx	lr

0800135e <HAL_UART_ErrorCallback>:
}
 800135e:	4770      	bx	lr

08001360 <UART_DMAAbortOnError>:
{
 8001360:	b508      	push	{r3, lr}
  UART_HandleTypeDef *huart = (UART_HandleTypeDef *)((DMA_HandleTypeDef *)hdma)->Parent;
 8001362:	6b80      	ldr	r0, [r0, #56]	; 0x38
  huart->RxXferCount = 0x00U;
 8001364:	2300      	movs	r3, #0
 8001366:	85c3      	strh	r3, [r0, #46]	; 0x2e
  huart->TxXferCount = 0x00U;
 8001368:	84c3      	strh	r3, [r0, #38]	; 0x26
  HAL_UART_ErrorCallback(huart);
 800136a:	f7ff fff8 	bl	800135e <HAL_UART_ErrorCallback>
}
 800136e:	bd08      	pop	{r3, pc}

08001370 <HAL_UARTEx_RxEventCallback>:
}
 8001370:	4770      	bx	lr

08001372 <UART_Receive_IT>:
  if (huart->RxState == HAL_UART_STATE_BUSY_RX)
 8001372:	f890 3042 	ldrb.w	r3, [r0, #66]	; 0x42
 8001376:	b2db      	uxtb	r3, r3
 8001378:	2b22      	cmp	r3, #34	; 0x22
 800137a:	d169      	bne.n	8001450 <UART_Receive_IT+0xde>
    if ((huart->Init.WordLength == UART_WORDLENGTH_9B) && (huart->Init.Parity == UART_PARITY_NONE))
 800137c:	6883      	ldr	r3, [r0, #8]
 800137e:	f5b3 5f80 	cmp.w	r3, #4096	; 0x1000
 8001382:	d04f      	beq.n	8001424 <UART_Receive_IT+0xb2>
      pdata8bits = (uint8_t *) huart->pRxBuffPtr;
 8001384:	6a82      	ldr	r2, [r0, #40]	; 0x28
      if ((huart->Init.WordLength == UART_WORDLENGTH_9B) || ((huart->Init.WordLength == UART_WORDLENGTH_8B) && (huart->Init.Parity == UART_PARITY_NONE)))
 8001386:	f5b3 5f80 	cmp.w	r3, #4096	; 0x1000
 800138a:	d004      	beq.n	8001396 <UART_Receive_IT+0x24>
 800138c:	2b00      	cmp	r3, #0
 800138e:	d156      	bne.n	800143e <UART_Receive_IT+0xcc>
 8001390:	6903      	ldr	r3, [r0, #16]
 8001392:	2b00      	cmp	r3, #0
 8001394:	d153      	bne.n	800143e <UART_Receive_IT+0xcc>
        *pdata8bits = (uint8_t)(huart->Instance->DR & (uint8_t)0x00FF);
 8001396:	6803      	ldr	r3, [r0, #0]
 8001398:	685b      	ldr	r3, [r3, #4]
 800139a:	7013      	strb	r3, [r2, #0]
      huart->pRxBuffPtr += 1U;
 800139c:	6a83      	ldr	r3, [r0, #40]	; 0x28
 800139e:	3301      	adds	r3, #1
 80013a0:	6283      	str	r3, [r0, #40]	; 0x28
    if (--huart->RxXferCount == 0U)
 80013a2:	8dc3      	ldrh	r3, [r0, #46]	; 0x2e
 80013a4:	b29b      	uxth	r3, r3
 80013a6:	3b01      	subs	r3, #1
 80013a8:	b29b      	uxth	r3, r3
 80013aa:	85c3      	strh	r3, [r0, #46]	; 0x2e
 80013ac:	2b00      	cmp	r3, #0
 80013ae:	d151      	bne.n	8001454 <UART_Receive_IT+0xe2>
{
 80013b0:	b500      	push	{lr}
 80013b2:	b083      	sub	sp, #12
      __HAL_UART_DISABLE_IT(huart, UART_IT_RXNE);
 80013b4:	6802      	ldr	r2, [r0, #0]
 80013b6:	68d3      	ldr	r3, [r2, #12]
 80013b8:	f023 0320 	bic.w	r3, r3, #32
 80013bc:	60d3      	str	r3, [r2, #12]
      __HAL_UART_DISABLE_IT(huart, UART_IT_PE);
 80013be:	6802      	ldr	r2, [r0, #0]
 80013c0:	68d3      	ldr	r3, [r2, #12]
 80013c2:	f423 7380 	bic.w	r3, r3, #256	; 0x100
 80013c6:	60d3      	str	r3, [r2, #12]
      __HAL_UART_DISABLE_IT(huart, UART_IT_ERR);
 80013c8:	6802      	ldr	r2, [r0, #0]
 80013ca:	6953      	ldr	r3, [r2, #20]
 80013cc:	f023 0301 	bic.w	r3, r3, #1
 80013d0:	6153      	str	r3, [r2, #20]
      huart->RxState = HAL_UART_STATE_READY;
 80013d2:	2320      	movs	r3, #32
 80013d4:	f880 3042 	strb.w	r3, [r0, #66]	; 0x42
      huart->RxEventType = HAL_UART_RXEVENT_TC;
 80013d8:	2300      	movs	r3, #0
 80013da:	6343      	str	r3, [r0, #52]	; 0x34
      if (huart->ReceptionType == HAL_UART_RECEPTION_TOIDLE)
 80013dc:	6b03      	ldr	r3, [r0, #48]	; 0x30
 80013de:	2b01      	cmp	r3, #1
 80013e0:	d133      	bne.n	800144a <UART_Receive_IT+0xd8>
        huart->ReceptionType = HAL_UART_RECEPTION_STANDARD;
 80013e2:	2300      	movs	r3, #0
 80013e4:	6303      	str	r3, [r0, #48]	; 0x30
        ATOMIC_CLEAR_BIT(huart->Instance->CR1, USART_CR1_IDLEIE);
 80013e6:	6802      	ldr	r2, [r0, #0]
   __ASM volatile ("ldrex %0, %1" : "=r" (result) : "Q" (*addr) );
 80013e8:	f102 030c 	add.w	r3, r2, #12
 80013ec:	e853 3f00 	ldrex	r3, [r3]
 80013f0:	f023 0310 	bic.w	r3, r3, #16
   __ASM volatile ("strex %0, %2, %1" : "=&r" (result), "=Q" (*addr) : "r" (value) );
 80013f4:	320c      	adds	r2, #12
 80013f6:	e842 3100 	strex	r1, r3, [r2]
 80013fa:	2900      	cmp	r1, #0
 80013fc:	d1f3      	bne.n	80013e6 <UART_Receive_IT+0x74>
        if (__HAL_UART_GET_FLAG(huart, UART_FLAG_IDLE))
 80013fe:	6803      	ldr	r3, [r0, #0]
 8001400:	681a      	ldr	r2, [r3, #0]
 8001402:	f012 0f10 	tst.w	r2, #16
 8001406:	d006      	beq.n	8001416 <UART_Receive_IT+0xa4>
          __HAL_UART_CLEAR_IDLEFLAG(huart);
 8001408:	2200      	movs	r2, #0
 800140a:	9201      	str	r2, [sp, #4]
 800140c:	681a      	ldr	r2, [r3, #0]
 800140e:	9201      	str	r2, [sp, #4]
 8001410:	685b      	ldr	r3, [r3, #4]
 8001412:	9301      	str	r3, [sp, #4]
 8001414:	9b01      	ldr	r3, [sp, #4]
        HAL_UARTEx_RxEventCallback(huart, huart->RxXferSize);
 8001416:	8d81      	ldrh	r1, [r0, #44]	; 0x2c
 8001418:	f7ff ffaa 	bl	8001370 <HAL_UARTEx_RxEventCallback>
      return HAL_OK;
 800141c:	2000      	movs	r0, #0
}
 800141e:	b003      	add	sp, #12
 8001420:	f85d fb04 	ldr.w	pc, [sp], #4
    if ((huart->Init.WordLength == UART_WORDLENGTH_9B) && (huart->Init.Parity == UART_PARITY_NONE))
 8001424:	6902      	ldr	r2, [r0, #16]
 8001426:	2a00      	cmp	r2, #0
 8001428:	d1ac      	bne.n	8001384 <UART_Receive_IT+0x12>
      pdata16bits = (uint16_t *) huart->pRxBuffPtr;
 800142a:	6a82      	ldr	r2, [r0, #40]	; 0x28
      *pdata16bits = (uint16_t)(huart->Instance->DR & (uint16_t)0x01FF);
 800142c:	6803      	ldr	r3, [r0, #0]
 800142e:	685b      	ldr	r3, [r3, #4]
 8001430:	f3c3 0308 	ubfx	r3, r3, #0, #9
 8001434:	8013      	strh	r3, [r2, #0]
      huart->pRxBuffPtr += 2U;
 8001436:	6a83      	ldr	r3, [r0, #40]	; 0x28
 8001438:	3302      	adds	r3, #2
 800143a:	6283      	str	r3, [r0, #40]	; 0x28
 800143c:	e7b1      	b.n	80013a2 <UART_Receive_IT+0x30>
        *pdata8bits = (uint8_t)(huart->Instance->DR & (uint8_t)0x007F);
 800143e:	6803      	ldr	r3, [r0, #0]
 8001440:	685b      	ldr	r3, [r3, #4]
 8001442:	f003 037f 	and.w	r3, r3, #127	; 0x7f
 8001446:	7013      	strb	r3, [r2, #0]
 8001448:	e7a8      	b.n	800139c <UART_Receive_IT+0x2a>
        HAL_UART_RxCpltCallback(huart);
 800144a:	f7ff ff87 	bl	800135c <HAL_UART_RxCpltCallback>
 800144e:	e7e5      	b.n	800141c <UART_Receive_IT+0xaa>
    return HAL_BUSY;
 8001450:	2002      	movs	r0, #2
 8001452:	4770      	bx	lr
    return HAL_OK;
 8001454:	2000      	movs	r0, #0
}
 8001456:	4770      	bx	lr

08001458 <HAL_UART_IRQHandler>:
{
 8001458:	b530      	push	{r4, r5, lr}
 800145a:	b083      	sub	sp, #12
 800145c:	4604      	mov	r4, r0
  uint32_t isrflags   = READ_REG(huart->Instance->SR);
 800145e:	6802      	ldr	r2, [r0, #0]
 8001460:	6813      	ldr	r3, [r2, #0]
  uint32_t cr1its     = READ_REG(huart->Instance->CR1);
 8001462:	68d0      	ldr	r0, [r2, #12]
  uint32_t cr3its     = READ_REG(huart->Instance->CR3);
 8001464:	6951      	ldr	r1, [r2, #20]
  if (errorflags == RESET)
 8001466:	f013 050f 	ands.w	r5, r3, #15
 800146a:	d105      	bne.n	8001478 <HAL_UART_IRQHandler+0x20>
    if (((isrflags & USART_SR_RXNE) != RESET) && ((cr1its & USART_CR1_RXNEIE) != RESET))
 800146c:	f013 0f20 	tst.w	r3, #32
 8001470:	d002      	beq.n	8001478 <HAL_UART_IRQHandler+0x20>
 8001472:	f010 0f20 	tst.w	r0, #32
 8001476:	d119      	bne.n	80014ac <HAL_UART_IRQHandler+0x54>
  if ((errorflags != RESET) && (((cr3its & USART_CR3_EIE) != RESET)
 8001478:	b12d      	cbz	r5, 8001486 <HAL_UART_IRQHandler+0x2e>
 800147a:	f011 0101 	ands.w	r1, r1, #1
 800147e:	d119      	bne.n	80014b4 <HAL_UART_IRQHandler+0x5c>
                                || ((cr1its & (USART_CR1_RXNEIE | USART_CR1_PEIE)) != RESET)))
 8001480:	f410 7f90 	tst.w	r0, #288	; 0x120
 8001484:	d116      	bne.n	80014b4 <HAL_UART_IRQHandler+0x5c>
  if ((huart->ReceptionType == HAL_UART_RECEPTION_TOIDLE)
 8001486:	6b21      	ldr	r1, [r4, #48]	; 0x30
 8001488:	2901      	cmp	r1, #1
 800148a:	d07d      	beq.n	8001588 <HAL_UART_IRQHandler+0x130>
  if (((isrflags & USART_SR_TXE) != RESET) && ((cr1its & USART_CR1_TXEIE) != RESET))
 800148c:	f013 0f80 	tst.w	r3, #128	; 0x80
 8001490:	d003      	beq.n	800149a <HAL_UART_IRQHandler+0x42>
 8001492:	f010 0f80 	tst.w	r0, #128	; 0x80
 8001496:	f040 8119 	bne.w	80016cc <HAL_UART_IRQHandler+0x274>
  if (((isrflags & USART_SR_TC) != RESET) && ((cr1its & USART_CR1_TCIE) != RESET))
 800149a:	f013 0f40 	tst.w	r3, #64	; 0x40
 800149e:	d003      	beq.n	80014a8 <HAL_UART_IRQHandler+0x50>
 80014a0:	f010 0f40 	tst.w	r0, #64	; 0x40
 80014a4:	f040 8116 	bne.w	80016d4 <HAL_UART_IRQHandler+0x27c>
}
 80014a8:	b003      	add	sp, #12
 80014aa:	bd30      	pop	{r4, r5, pc}
      UART_Receive_IT(huart);
 80014ac:	4620      	mov	r0, r4
 80014ae:	f7ff ff60 	bl	8001372 <UART_Receive_IT>
      return;
 80014b2:	e7f9      	b.n	80014a8 <HAL_UART_IRQHandler+0x50>
    if (((isrflags & USART_SR_PE) != RESET) && ((cr1its & USART_CR1_PEIE) != RESET))
 80014b4:	f013 0f01 	tst.w	r3, #1
 80014b8:	d006      	beq.n	80014c8 <HAL_UART_IRQHandler+0x70>
 80014ba:	f410 7f80 	tst.w	r0, #256	; 0x100
 80014be:	d003      	beq.n	80014c8 <HAL_UART_IRQHandler+0x70>
      huart->ErrorCode |= HAL_UART_ERROR_PE;
 80014c0:	6c62      	ldr	r2, [r4, #68]	; 0x44
 80014c2:	f042 0201 	orr.w	r2, r2, #1
 80014c6:	6462      	str	r2, [r4, #68]	; 0x44
    if (((isrflags & USART_SR_NE) != RESET) && ((cr3its & USART_CR3_EIE) != RESET))
 80014c8:	f013 0f04 	tst.w	r3, #4
 80014cc:	d004      	beq.n	80014d8 <HAL_UART_IRQHandler+0x80>
 80014ce:	b119      	cbz	r1, 80014d8 <HAL_UART_IRQHandler+0x80>
      huart->ErrorCode |= HAL_UART_ERROR_NE;
 80014d0:	6c62      	ldr	r2, [r4, #68]	; 0x44
 80014d2:	f042 0202 	orr.w	r2, r2, #2
 80014d6:	6462      	str	r2, [r4, #68]	; 0x44
    if (((isrflags & USART_SR_FE) != RESET) && ((cr3its & USART_CR3_EIE) != RESET))
 80014d8:	f013 0f02 	tst.w	r3, #2
 80014dc:	d004      	beq.n	80014e8 <HAL_UART_IRQHandler+0x90>
 80014de:	b119      	cbz	r1, 80014e8 <HAL_UART_IRQHandler+0x90>
      huart->ErrorCode |= HAL_UART_ERROR_FE;
 80014e0:	6c62      	ldr	r2, [r4, #68]	; 0x44
 80014e2:	f042 0204 	orr.w	r2, r2, #4
 80014e6:	6462      	str	r2, [r4, #68]	; 0x44
    if (((isrflags & USART_SR_ORE) != RESET) && (((cr1its & USART_CR1_RXNEIE) != RESET)
 80014e8:	f013 0f08 	tst.w	r3, #8
 80014ec:	d007      	beq.n	80014fe <HAL_UART_IRQHandler+0xa6>
 80014ee:	f010 0f20 	tst.w	r0, #32
 80014f2:	d100      	bne.n	80014f6 <HAL_UART_IRQHandler+0x9e>
                                                 || ((cr3its & USART_CR3_EIE) != RESET)))
 80014f4:	b119      	cbz	r1, 80014fe <HAL_UART_IRQHandler+0xa6>
      huart->ErrorCode |= HAL_UART_ERROR_ORE;
 80014f6:	6c62      	ldr	r2, [r4, #68]	; 0x44
 80014f8:	f042 0208 	orr.w	r2, r2, #8
 80014fc:	6462      	str	r2, [r4, #68]	; 0x44
    if (huart->ErrorCode != HAL_UART_ERROR_NONE)
 80014fe:	6c62      	ldr	r2, [r4, #68]	; 0x44
 8001500:	2a00      	cmp	r2, #0
 8001502:	d0d1      	beq.n	80014a8 <HAL_UART_IRQHandler+0x50>
      if (((isrflags & USART_SR_RXNE) != RESET) && ((cr1its & USART_CR1_RXNEIE) != RESET))
 8001504:	f013 0f20 	tst.w	r3, #32
 8001508:	d002      	beq.n	8001510 <HAL_UART_IRQHandler+0xb8>
 800150a:	f010 0f20 	tst.w	r0, #32
 800150e:	d129      	bne.n	8001564 <HAL_UART_IRQHandler+0x10c>
      dmarequest = HAL_IS_BIT_SET(huart->Instance->CR3, USART_CR3_DMAR);
 8001510:	6823      	ldr	r3, [r4, #0]
 8001512:	695b      	ldr	r3, [r3, #20]
 8001514:	f003 0340 	and.w	r3, r3, #64	; 0x40
      if (((huart->ErrorCode & HAL_UART_ERROR_ORE) != RESET) || dmarequest)
 8001518:	6c62      	ldr	r2, [r4, #68]	; 0x44
 800151a:	f012 0f08 	tst.w	r2, #8
 800151e:	d100      	bne.n	8001522 <HAL_UART_IRQHandler+0xca>
 8001520:	b363      	cbz	r3, 800157c <HAL_UART_IRQHandler+0x124>
        UART_EndRxTransfer(huart);
 8001522:	4620      	mov	r0, r4
 8001524:	f7ff fcb2 	bl	8000e8c <UART_EndRxTransfer>
        if (HAL_IS_BIT_SET(huart->Instance->CR3, USART_CR3_DMAR))
 8001528:	6823      	ldr	r3, [r4, #0]
 800152a:	695b      	ldr	r3, [r3, #20]
 800152c:	f013 0f40 	tst.w	r3, #64	; 0x40
 8001530:	d020      	beq.n	8001574 <HAL_UART_IRQHandler+0x11c>
          ATOMIC_CLEAR_BIT(huart->Instance->CR3, USART_CR3_DMAR);
 8001532:	6822      	ldr	r2, [r4, #0]
   __ASM volatile ("ldrex %0, %1" : "=r" (result) : "Q" (*addr) );
 8001534:	f102 0314 	add.w	r3, r2, #20
 8001538:	e853 3f00 	ldrex	r3, [r3]
 800153c:	f023 0340 	bic.w	r3, r3, #64	; 0x40
   __ASM volatile ("strex %0, %2, %1" : "=&r" (result), "=Q" (*addr) : "r" (value) );
 8001540:	3214      	adds	r2, #20
 8001542:	e842 3100 	strex	r1, r3, [r2]
 8001546:	2900      	cmp	r1, #0
 8001548:	d1f3      	bne.n	8001532 <HAL_UART_IRQHandler+0xda>
          if (huart->hdmarx != NULL)
 800154a:	6be3      	ldr	r3, [r4, #60]	; 0x3c
 800154c:	b173      	cbz	r3, 800156c <HAL_UART_IRQHandler+0x114>
            huart->hdmarx->XferAbortCallback = UART_DMAAbortOnError;
 800154e:	4a63      	ldr	r2, [pc, #396]	; (80016dc <HAL_UART_IRQHandler+0x284>)
 8001550:	651a      	str	r2, [r3, #80]	; 0x50
            if (HAL_DMA_Abort_IT(huart->hdmarx) != HAL_OK)
 8001552:	6be0      	ldr	r0, [r4, #60]	; 0x3c
 8001554:	f000 febc 	bl	80022d0 <HAL_DMA_Abort_IT>
 8001558:	2800      	cmp	r0, #0
 800155a:	d0a5      	beq.n	80014a8 <HAL_UART_IRQHandler+0x50>
              huart->hdmarx->XferAbortCallback(huart->hdmarx);
 800155c:	6be0      	ldr	r0, [r4, #60]	; 0x3c
 800155e:	6d03      	ldr	r3, [r0, #80]	; 0x50
 8001560:	4798      	blx	r3
 8001562:	e7a1      	b.n	80014a8 <HAL_UART_IRQHandler+0x50>
        UART_Receive_IT(huart);
 8001564:	4620      	mov	r0, r4
 8001566:	f7ff ff04 	bl	8001372 <UART_Receive_IT>
 800156a:	e7d1      	b.n	8001510 <HAL_UART_IRQHandler+0xb8>
            HAL_UART_ErrorCallback(huart);
 800156c:	4620      	mov	r0, r4
 800156e:	f7ff fef6 	bl	800135e <HAL_UART_ErrorCallback>
 8001572:	e799      	b.n	80014a8 <HAL_UART_IRQHandler+0x50>
          HAL_UART_ErrorCallback(huart);
 8001574:	4620      	mov	r0, r4
 8001576:	f7ff fef2 	bl	800135e <HAL_UART_ErrorCallback>
 800157a:	e795      	b.n	80014a8 <HAL_UART_IRQHandler+0x50>
        HAL_UART_ErrorCallback(huart);
 800157c:	4620      	mov	r0, r4
 800157e:	f7ff feee 	bl	800135e <HAL_UART_ErrorCallback>
        huart->ErrorCode = HAL_UART_ERROR_NONE;
 8001582:	2300      	movs	r3, #0
 8001584:	6463      	str	r3, [r4, #68]	; 0x44
    return;
 8001586:	e78f      	b.n	80014a8 <HAL_UART_IRQHandler+0x50>
      && ((isrflags & USART_SR_IDLE) != 0U)
 8001588:	f013 0f10 	tst.w	r3, #16
 800158c:	f43f af7e 	beq.w	800148c <HAL_UART_IRQHandler+0x34>
      && ((cr1its & USART_SR_IDLE) != 0U))
 8001590:	f010 0f10 	tst.w	r0, #16
 8001594:	f43f af7a 	beq.w	800148c <HAL_UART_IRQHandler+0x34>
    __HAL_UART_CLEAR_IDLEFLAG(huart);
 8001598:	2300      	movs	r3, #0
 800159a:	9301      	str	r3, [sp, #4]
 800159c:	6813      	ldr	r3, [r2, #0]
 800159e:	9301      	str	r3, [sp, #4]
 80015a0:	6853      	ldr	r3, [r2, #4]
 80015a2:	9301      	str	r3, [sp, #4]
 80015a4:	9b01      	ldr	r3, [sp, #4]
    if (HAL_IS_BIT_SET(huart->Instance->CR3, USART_CR3_DMAR))
 80015a6:	6953      	ldr	r3, [r2, #20]
 80015a8:	f013 0f40 	tst.w	r3, #64	; 0x40
 80015ac:	d052      	beq.n	8001654 <HAL_UART_IRQHandler+0x1fc>
      uint16_t nb_remaining_rx_data = (uint16_t) __HAL_DMA_GET_COUNTER(huart->hdmarx);
 80015ae:	6be2      	ldr	r2, [r4, #60]	; 0x3c
 80015b0:	6813      	ldr	r3, [r2, #0]
 80015b2:	685b      	ldr	r3, [r3, #4]
 80015b4:	b29b      	uxth	r3, r3
      if ((nb_remaining_rx_data > 0U)
 80015b6:	2b00      	cmp	r3, #0
 80015b8:	f43f af76 	beq.w	80014a8 <HAL_UART_IRQHandler+0x50>
          && (nb_remaining_rx_data < huart->RxXferSize))
 80015bc:	8da1      	ldrh	r1, [r4, #44]	; 0x2c
 80015be:	4299      	cmp	r1, r3
 80015c0:	f67f af72 	bls.w	80014a8 <HAL_UART_IRQHandler+0x50>
        huart->RxXferCount = nb_remaining_rx_data;
 80015c4:	85e3      	strh	r3, [r4, #46]	; 0x2e
        if (huart->hdmarx->Init.Mode != DMA_CIRCULAR)
 80015c6:	69d3      	ldr	r3, [r2, #28]
 80015c8:	f5b3 7f80 	cmp.w	r3, #256	; 0x100
 80015cc:	d037      	beq.n	800163e <HAL_UART_IRQHandler+0x1e6>
          ATOMIC_CLEAR_BIT(huart->Instance->CR1, USART_CR1_PEIE);
 80015ce:	6822      	ldr	r2, [r4, #0]
   __ASM volatile ("ldrex %0, %1" : "=r" (result) : "Q" (*addr) );
 80015d0:	f102 030c 	add.w	r3, r2, #12
 80015d4:	e853 3f00 	ldrex	r3, [r3]
 80015d8:	f423 7380 	bic.w	r3, r3, #256	; 0x100
   __ASM volatile ("strex %0, %2, %1" : "=&r" (result), "=Q" (*addr) : "r" (value) );
 80015dc:	320c      	adds	r2, #12
 80015de:	e842 3100 	strex	r1, r3, [r2]
 80015e2:	2900      	cmp	r1, #0
 80015e4:	d1f3      	bne.n	80015ce <HAL_UART_IRQHandler+0x176>
          ATOMIC_CLEAR_BIT(huart->Instance->CR3, USART_CR3_EIE);
 80015e6:	6822      	ldr	r2, [r4, #0]
   __ASM volatile ("ldrex %0, %1" : "=r" (result) : "Q" (*addr) );
 80015e8:	f102 0314 	add.w	r3, r2, #20
 80015ec:	e853 3f00 	ldrex	r3, [r3]
 80015f0:	f023 0301 	bic.w	r3, r3, #1
   __ASM volatile ("strex %0, %2, %1" : "=&r" (result), "=Q" (*addr) : "r" (value) );
 80015f4:	3214      	adds	r2, #20
 80015f6:	e842 3100 	strex	r1, r3, [r2]
 80015fa:	2900      	cmp	r1, #0
 80015fc:	d1f3      	bne.n	80015e6 <HAL_UART_IRQHandler+0x18e>
          ATOMIC_CLEAR_BIT(huart->Instance->CR3, USART_CR3_DMAR);
 80015fe:	6822      	ldr	r2, [r4, #0]
   __ASM volatile ("ldrex %0, %1" : "=r" (result) : "Q" (*addr) );
 8001600:	f102 0314 	add.w	r3, r2, #20
 8001604:	e853 3f00 	ldrex	r3, [r3]
 8001608:	f023 0340 	bic.w	r3, r3, #64	; 0x40
   __ASM volatile ("strex %0, %2, %1" : "=&r" (result), "=Q" (*addr) : "r" (value) );
 800160c:	3214      	adds	r2, #20
 800160e:	e842 3100 	strex	r1, r3, [r2]
 8001612:	2900      	cmp	r1, #0
 8001614:	d1f3      	bne.n	80015fe <HAL_UART_IRQHandler+0x1a6>
          huart->RxState = HAL_UART_STATE_READY;
 8001616:	2320      	movs	r3, #32
 8001618:	f884 3042 	strb.w	r3, [r4, #66]	; 0x42
          huart->ReceptionType = HAL_UART_RECEPTION_STANDARD;
 800161c:	2300      	movs	r3, #0
 800161e:	6323      	str	r3, [r4, #48]	; 0x30
          ATOMIC_CLEAR_BIT(huart->Instance->CR1, USART_CR1_IDLEIE);
 8001620:	6822      	ldr	r2, [r4, #0]
   __ASM volatile ("ldrex %0, %1" : "=r" (result) : "Q" (*addr) );
 8001622:	f102 030c 	add.w	r3, r2, #12
 8001626:	e853 3f00 	ldrex	r3, [r3]
 800162a:	f023 0310 	bic.w	r3, r3, #16
   __ASM volatile ("strex %0, %2, %1" : "=&r" (result), "=Q" (*addr) : "r" (value) );
 800162e:	320c      	adds	r2, #12
 8001630:	e842 3100 	strex	r1, r3, [r2]
 8001634:	2900      	cmp	r1, #0
 8001636:	d1f3      	bne.n	8001620 <HAL_UART_IRQHandler+0x1c8>
          (void)HAL_DMA_Abort(huart->hdmarx);
 8001638:	6be0      	ldr	r0, [r4, #60]	; 0x3c
 800163a:	f000 fdff 	bl	800223c <HAL_DMA_Abort>
        huart->RxEventType = HAL_UART_RXEVENT_IDLE;
 800163e:	2302      	movs	r3, #2
 8001640:	6363      	str	r3, [r4, #52]	; 0x34
        HAL_UARTEx_RxEventCallback(huart, (huart->RxXferSize - huart->RxXferCount));
 8001642:	8da1      	ldrh	r1, [r4, #44]	; 0x2c
 8001644:	8de3      	ldrh	r3, [r4, #46]	; 0x2e
 8001646:	b29b      	uxth	r3, r3
 8001648:	1ac9      	subs	r1, r1, r3
 800164a:	b289      	uxth	r1, r1
 800164c:	4620      	mov	r0, r4
 800164e:	f7ff fe8f 	bl	8001370 <HAL_UARTEx_RxEventCallback>
      return;
 8001652:	e729      	b.n	80014a8 <HAL_UART_IRQHandler+0x50>
      uint16_t nb_rx_data = huart->RxXferSize - huart->RxXferCount;
 8001654:	8da1      	ldrh	r1, [r4, #44]	; 0x2c
 8001656:	8de3      	ldrh	r3, [r4, #46]	; 0x2e
 8001658:	b29b      	uxth	r3, r3
 800165a:	1ac9      	subs	r1, r1, r3
 800165c:	b289      	uxth	r1, r1
      if ((huart->RxXferCount > 0U)
 800165e:	8de3      	ldrh	r3, [r4, #46]	; 0x2e
 8001660:	b29b      	uxth	r3, r3
 8001662:	2b00      	cmp	r3, #0
 8001664:	f43f af20 	beq.w	80014a8 <HAL_UART_IRQHandler+0x50>
          && (nb_rx_data > 0U))
 8001668:	2900      	cmp	r1, #0
 800166a:	f43f af1d 	beq.w	80014a8 <HAL_UART_IRQHandler+0x50>
        ATOMIC_CLEAR_BIT(huart->Instance->CR1, (USART_CR1_RXNEIE | USART_CR1_PEIE));
 800166e:	6822      	ldr	r2, [r4, #0]
   __ASM volatile ("ldrex %0, %1" : "=r" (result) : "Q" (*addr) );
 8001670:	f102 030c 	add.w	r3, r2, #12
 8001674:	e853 3f00 	ldrex	r3, [r3]
 8001678:	f423 7390 	bic.w	r3, r3, #288	; 0x120
   __ASM volatile ("strex %0, %2, %1" : "=&r" (result), "=Q" (*addr) : "r" (value) );
 800167c:	320c      	adds	r2, #12
 800167e:	e842 3000 	strex	r0, r3, [r2]
 8001682:	2800      	cmp	r0, #0
 8001684:	d1f3      	bne.n	800166e <HAL_UART_IRQHandler+0x216>
        ATOMIC_CLEAR_BIT(huart->Instance->CR3, USART_CR3_EIE);
 8001686:	6822      	ldr	r2, [r4, #0]
   __ASM volatile ("ldrex %0, %1" : "=r" (result) : "Q" (*addr) );
 8001688:	f102 0314 	add.w	r3, r2, #20
 800168c:	e853 3f00 	ldrex	r3, [r3]
 8001690:	f023 0301 	bic.w	r3, r3, #1
   __ASM volatile ("strex %0, %2, %1" : "=&r" (result), "=Q" (*addr) : "r" (value) );
 8001694:	3214      	adds	r2, #20
 8001696:	e842 3000 	strex	r0, r3, [r2]
 800169a:	2800      	cmp	r0, #0
 800169c:	d1f3      	bne.n	8001686 <HAL_UART_IRQHandler+0x22e>
        huart->RxState = HAL_UART_STATE_READY;
 800169e:	2320      	movs	r3, #32
 80016a0:	f884 3042 	strb.w	r3, [r4, #66]	; 0x42
        huart->ReceptionType = HAL_UART_RECEPTION_STANDARD;
 80016a4:	2300      	movs	r3, #0
 80016a6:	6323      	str	r3, [r4, #48]	; 0x30
        ATOMIC_CLEAR_BIT(huart->Instance->CR1, USART_CR1_IDLEIE);
 80016a8:	6822      	ldr	r2, [r4, #0]
   __ASM volatile ("ldrex %0, %1" : "=r" (result) : "Q" (*addr) );
 80016aa:	f102 030c 	add.w	r3, r2, #12
 80016ae:	e853 3f00 	ldrex	r3, [r3]
 80016b2:	f023 0310 	bic.w	r3, r3, #16
   __ASM volatile ("strex %0, %2, %1" : "=&r" (result), "=Q" (*addr) : "r" (value) );
 80016b6:	320c      	adds	r2, #12
 80016b8:	e842 3000 	strex	r0, r3, [r2]
 80016bc:	2800      	cmp	r0, #0
 80016be:	d1f3      	bne.n	80016a8 <HAL_UART_IRQHandler+0x250>
        huart->RxEventType = HAL_UART_RXEVENT_IDLE;
 80016c0:	2302      	movs	r3, #2
 80016c2:	6363      	str	r3, [r4, #52]	; 0x34
        HAL_UARTEx_RxEventCallback(huart, nb_rx_data);
 80016c4:	4620      	mov	r0, r4
 80016c6:	f7ff fe53 	bl	8001370 <HAL_UARTEx_RxEventCallback>
      return;
 80016ca:	e6ed      	b.n	80014a8 <HAL_UART_IRQHandler+0x50>
    UART_Transmit_IT(huart);
 80016cc:	4620      	mov	r0, r4
 80016ce:	f7ff fc0b 	bl	8000ee8 <UART_Transmit_IT>
    return;
 80016d2:	e6e9      	b.n	80014a8 <HAL_UART_IRQHandler+0x50>
    UART_EndTransmit_IT(huart);
 80016d4:	4620      	mov	r0, r4
 80016d6:	f7ff fe34 	bl	8001342 <UART_EndTransmit_IT>
    return;
 80016da:	e6e5      	b.n	80014a8 <HAL_UART_IRQHandler+0x50>
 80016dc:	08001361 	stmdaeq	r0, {r0, r5, r6, r8, r9, ip}

080016e0 <HAL_RCC_OscConfig>:
__weak HAL_StatusTypeDef HAL_RCC_OscConfig(RCC_OscInitTypeDef  *RCC_OscInitStruct)
{
  uint32_t tickstart, pll_config;

  /* Check Null pointer */
  if(RCC_OscInitStruct == NULL)
 80016e0:	2800      	cmp	r0, #0
 80016e2:	f000 825e 	beq.w	8001ba2 <HAL_RCC_OscConfig+0x4c2>
{
 80016e6:	b570      	push	{r4, r5, r6, lr}
 80016e8:	b082      	sub	sp, #8
 80016ea:	4604      	mov	r4, r0
  {
    return HAL_ERROR;
  }

  /* Check the parameters */
  assert_param(IS_RCC_OSCILLATORTYPE(RCC_OscInitStruct->OscillatorType));
 80016ec:	6803      	ldr	r3, [r0, #0]
 80016ee:	2b0f      	cmp	r3, #15
 80016f0:	d839      	bhi.n	8001766 <HAL_RCC_OscConfig+0x86>
  /*------------------------------- HSE Configuration ------------------------*/
  if(((RCC_OscInitStruct->OscillatorType) & RCC_OSCILLATORTYPE_HSE) == RCC_OSCILLATORTYPE_HSE)
 80016f2:	6823      	ldr	r3, [r4, #0]
 80016f4:	f013 0f01 	tst.w	r3, #1
 80016f8:	d04d      	beq.n	8001796 <HAL_RCC_OscConfig+0xb6>
  {
    /* Check the parameters */
    assert_param(IS_RCC_HSE(RCC_OscInitStruct->HSEState));
 80016fa:	6863      	ldr	r3, [r4, #4]
 80016fc:	b12b      	cbz	r3, 800170a <HAL_RCC_OscConfig+0x2a>
 80016fe:	f5b3 3f80 	cmp.w	r3, #65536	; 0x10000
 8001702:	d002      	beq.n	800170a <HAL_RCC_OscConfig+0x2a>
 8001704:	f5b3 2fa0 	cmp.w	r3, #327680	; 0x50000
 8001708:	d132      	bne.n	8001770 <HAL_RCC_OscConfig+0x90>
    /* When the HSE is used as system clock or clock source for PLL in these cases HSE will not disabled */
    if((__HAL_RCC_GET_SYSCLK_SOURCE() == RCC_CFGR_SWS_HSE) ||\
 800170a:	4b80      	ldr	r3, [pc, #512]	; (800190c <HAL_RCC_OscConfig+0x22c>)
 800170c:	689b      	ldr	r3, [r3, #8]
 800170e:	f003 030c 	and.w	r3, r3, #12
 8001712:	2b04      	cmp	r3, #4
 8001714:	d036      	beq.n	8001784 <HAL_RCC_OscConfig+0xa4>
      ((__HAL_RCC_GET_SYSCLK_SOURCE() == RCC_CFGR_SWS_PLL) && ((RCC->PLLCFGR & RCC_PLLCFGR_PLLSRC) == RCC_PLLCFGR_PLLSRC_HSE)))
 8001716:	4b7d      	ldr	r3, [pc, #500]	; (800190c <HAL_RCC_OscConfig+0x22c>)
 8001718:	689b      	ldr	r3, [r3, #8]
 800171a:	f003 030c 	and.w	r3, r3, #12
    if((__HAL_RCC_GET_SYSCLK_SOURCE() == RCC_CFGR_SWS_HSE) ||\
 800171e:	2b08      	cmp	r3, #8
 8001720:	d02b      	beq.n	800177a <HAL_RCC_OscConfig+0x9a>
      }
    }
    else
    {
      /* Set the new HSE configuration ---------------------------------------*/
      __HAL_RCC_HSE_CONFIG(RCC_OscInitStruct->HSEState);
 8001722:	6863      	ldr	r3, [r4, #4]
 8001724:	f5b3 3f80 	cmp.w	r3, #65536	; 0x10000
 8001728:	d05f      	beq.n	80017ea <HAL_RCC_OscConfig+0x10a>
 800172a:	f5b3 2fa0 	cmp.w	r3, #327680	; 0x50000
 800172e:	d062      	beq.n	80017f6 <HAL_RCC_OscConfig+0x116>
 8001730:	4b76      	ldr	r3, [pc, #472]	; (800190c <HAL_RCC_OscConfig+0x22c>)
 8001732:	681a      	ldr	r2, [r3, #0]
 8001734:	f422 3280 	bic.w	r2, r2, #65536	; 0x10000
 8001738:	601a      	str	r2, [r3, #0]
 800173a:	681a      	ldr	r2, [r3, #0]
 800173c:	f422 2280 	bic.w	r2, r2, #262144	; 0x40000
 8001740:	601a      	str	r2, [r3, #0]

      /* Check the HSE State */
      if((RCC_OscInitStruct->HSEState) != RCC_HSE_OFF)
 8001742:	6863      	ldr	r3, [r4, #4]
 8001744:	2b00      	cmp	r3, #0
 8001746:	d060      	beq.n	800180a <HAL_RCC_OscConfig+0x12a>
      {
        /* Get Start Tick */
        tickstart = HAL_GetTick();
 8001748:	f000 fe78 	bl	800243c <HAL_GetTick>
 800174c:	4605      	mov	r5, r0

        /* Wait till HSE is ready */
        while(__HAL_RCC_GET_FLAG(RCC_FLAG_HSERDY) == RESET)
 800174e:	4b6f      	ldr	r3, [pc, #444]	; (800190c <HAL_RCC_OscConfig+0x22c>)
 8001750:	681b      	ldr	r3, [r3, #0]
 8001752:	f413 3f00 	tst.w	r3, #131072	; 0x20000
 8001756:	d11e      	bne.n	8001796 <HAL_RCC_OscConfig+0xb6>
        {
          if((HAL_GetTick() - tickstart ) > HSE_TIMEOUT_VALUE)
 8001758:	f000 fe70 	bl	800243c <HAL_GetTick>
 800175c:	1b40      	subs	r0, r0, r5
 800175e:	2864      	cmp	r0, #100	; 0x64
 8001760:	d9f5      	bls.n	800174e <HAL_RCC_OscConfig+0x6e>
          {
            return HAL_TIMEOUT;
 8001762:	2003      	movs	r0, #3
 8001764:	e224      	b.n	8001bb0 <HAL_RCC_OscConfig+0x4d0>
  assert_param(IS_RCC_OSCILLATORTYPE(RCC_OscInitStruct->OscillatorType));
 8001766:	21e6      	movs	r1, #230	; 0xe6
 8001768:	4869      	ldr	r0, [pc, #420]	; (8001910 <HAL_RCC_OscConfig+0x230>)
 800176a:	f7ff f839 	bl	80007e0 <assert_failed>
 800176e:	e7c0      	b.n	80016f2 <HAL_RCC_OscConfig+0x12>
    assert_param(IS_RCC_HSE(RCC_OscInitStruct->HSEState));
 8001770:	21eb      	movs	r1, #235	; 0xeb
 8001772:	4867      	ldr	r0, [pc, #412]	; (8001910 <HAL_RCC_OscConfig+0x230>)
 8001774:	f7ff f834 	bl	80007e0 <assert_failed>
 8001778:	e7c7      	b.n	800170a <HAL_RCC_OscConfig+0x2a>
      ((__HAL_RCC_GET_SYSCLK_SOURCE() == RCC_CFGR_SWS_PLL) && ((RCC->PLLCFGR & RCC_PLLCFGR_PLLSRC) == RCC_PLLCFGR_PLLSRC_HSE)))
 800177a:	4b64      	ldr	r3, [pc, #400]	; (800190c <HAL_RCC_OscConfig+0x22c>)
 800177c:	685b      	ldr	r3, [r3, #4]
 800177e:	f413 0f80 	tst.w	r3, #4194304	; 0x400000
 8001782:	d0ce      	beq.n	8001722 <HAL_RCC_OscConfig+0x42>
      if((__HAL_RCC_GET_FLAG(RCC_FLAG_HSERDY) != RESET) && (RCC_OscInitStruct->HSEState == RCC_HSE_OFF))
 8001784:	4b61      	ldr	r3, [pc, #388]	; (800190c <HAL_RCC_OscConfig+0x22c>)
 8001786:	681b      	ldr	r3, [r3, #0]
 8001788:	f413 3f00 	tst.w	r3, #131072	; 0x20000
 800178c:	d003      	beq.n	8001796 <HAL_RCC_OscConfig+0xb6>
 800178e:	6863      	ldr	r3, [r4, #4]
 8001790:	2b00      	cmp	r3, #0
 8001792:	f000 8208 	beq.w	8001ba6 <HAL_RCC_OscConfig+0x4c6>
        }
      }
    }
  }
  /*----------------------------- HSI Configuration --------------------------*/
  if(((RCC_OscInitStruct->OscillatorType) & RCC_OSCILLATORTYPE_HSI) == RCC_OSCILLATORTYPE_HSI)
 8001796:	6823      	ldr	r3, [r4, #0]
 8001798:	f013 0f02 	tst.w	r3, #2
 800179c:	d066      	beq.n	800186c <HAL_RCC_OscConfig+0x18c>
  {
    /* Check the parameters */
    assert_param(IS_RCC_HSI(RCC_OscInitStruct->HSIState));
 800179e:	68e3      	ldr	r3, [r4, #12]
 80017a0:	2b01      	cmp	r3, #1
 80017a2:	d841      	bhi.n	8001828 <HAL_RCC_OscConfig+0x148>
    assert_param(IS_RCC_CALIBRATION_VALUE(RCC_OscInitStruct->HSICalibrationValue));
 80017a4:	6923      	ldr	r3, [r4, #16]
 80017a6:	2b1f      	cmp	r3, #31
 80017a8:	d844      	bhi.n	8001834 <HAL_RCC_OscConfig+0x154>

    /* Check if HSI is used as system clock or as PLL source when PLL is selected as system clock */
    if((__HAL_RCC_GET_SYSCLK_SOURCE() == RCC_CFGR_SWS_HSI) ||\
 80017aa:	4b58      	ldr	r3, [pc, #352]	; (800190c <HAL_RCC_OscConfig+0x22c>)
 80017ac:	689b      	ldr	r3, [r3, #8]
 80017ae:	f013 0f0c 	tst.w	r3, #12
 80017b2:	d04a      	beq.n	800184a <HAL_RCC_OscConfig+0x16a>
      ((__HAL_RCC_GET_SYSCLK_SOURCE() == RCC_CFGR_SWS_PLL) && ((RCC->PLLCFGR & RCC_PLLCFGR_PLLSRC) == RCC_PLLCFGR_PLLSRC_HSI)))
 80017b4:	4b55      	ldr	r3, [pc, #340]	; (800190c <HAL_RCC_OscConfig+0x22c>)
 80017b6:	689b      	ldr	r3, [r3, #8]
 80017b8:	f003 030c 	and.w	r3, r3, #12
    if((__HAL_RCC_GET_SYSCLK_SOURCE() == RCC_CFGR_SWS_HSI) ||\
 80017bc:	2b08      	cmp	r3, #8
 80017be:	d03f      	beq.n	8001840 <HAL_RCC_OscConfig+0x160>
      }
    }
    else
    {
      /* Check the HSI State */
      if((RCC_OscInitStruct->HSIState)!= RCC_HSI_OFF)
 80017c0:	68e3      	ldr	r3, [r4, #12]
 80017c2:	2b00      	cmp	r3, #0
 80017c4:	d077      	beq.n	80018b6 <HAL_RCC_OscConfig+0x1d6>
      {
        /* Enable the Internal High Speed oscillator (HSI). */
        __HAL_RCC_HSI_ENABLE();
 80017c6:	4b53      	ldr	r3, [pc, #332]	; (8001914 <HAL_RCC_OscConfig+0x234>)
 80017c8:	2201      	movs	r2, #1
 80017ca:	601a      	str	r2, [r3, #0]

        /* Get Start Tick*/
        tickstart = HAL_GetTick();
 80017cc:	f000 fe36 	bl	800243c <HAL_GetTick>
 80017d0:	4605      	mov	r5, r0

        /* Wait till HSI is ready */
        while(__HAL_RCC_GET_FLAG(RCC_FLAG_HSIRDY) == RESET)
 80017d2:	4b4e      	ldr	r3, [pc, #312]	; (800190c <HAL_RCC_OscConfig+0x22c>)
 80017d4:	681b      	ldr	r3, [r3, #0]
 80017d6:	f013 0f02 	tst.w	r3, #2
 80017da:	d163      	bne.n	80018a4 <HAL_RCC_OscConfig+0x1c4>
        {
          if((HAL_GetTick() - tickstart ) > HSI_TIMEOUT_VALUE)
 80017dc:	f000 fe2e 	bl	800243c <HAL_GetTick>
 80017e0:	1b40      	subs	r0, r0, r5
 80017e2:	2802      	cmp	r0, #2
 80017e4:	d9f5      	bls.n	80017d2 <HAL_RCC_OscConfig+0xf2>
          {
            return HAL_TIMEOUT;
 80017e6:	2003      	movs	r0, #3
 80017e8:	e1e2      	b.n	8001bb0 <HAL_RCC_OscConfig+0x4d0>
      __HAL_RCC_HSE_CONFIG(RCC_OscInitStruct->HSEState);
 80017ea:	4a48      	ldr	r2, [pc, #288]	; (800190c <HAL_RCC_OscConfig+0x22c>)
 80017ec:	6813      	ldr	r3, [r2, #0]
 80017ee:	f443 3380 	orr.w	r3, r3, #65536	; 0x10000
 80017f2:	6013      	str	r3, [r2, #0]
 80017f4:	e7a5      	b.n	8001742 <HAL_RCC_OscConfig+0x62>
 80017f6:	4b45      	ldr	r3, [pc, #276]	; (800190c <HAL_RCC_OscConfig+0x22c>)
 80017f8:	681a      	ldr	r2, [r3, #0]
 80017fa:	f442 2280 	orr.w	r2, r2, #262144	; 0x40000
 80017fe:	601a      	str	r2, [r3, #0]
 8001800:	681a      	ldr	r2, [r3, #0]
 8001802:	f442 3280 	orr.w	r2, r2, #65536	; 0x10000
 8001806:	601a      	str	r2, [r3, #0]
 8001808:	e79b      	b.n	8001742 <HAL_RCC_OscConfig+0x62>
        tickstart = HAL_GetTick();
 800180a:	f000 fe17 	bl	800243c <HAL_GetTick>
 800180e:	4605      	mov	r5, r0
        while(__HAL_RCC_GET_FLAG(RCC_FLAG_HSERDY) != RESET)
 8001810:	4b3e      	ldr	r3, [pc, #248]	; (800190c <HAL_RCC_OscConfig+0x22c>)
 8001812:	681b      	ldr	r3, [r3, #0]
 8001814:	f413 3f00 	tst.w	r3, #131072	; 0x20000
 8001818:	d0bd      	beq.n	8001796 <HAL_RCC_OscConfig+0xb6>
          if((HAL_GetTick() - tickstart ) > HSE_TIMEOUT_VALUE)
 800181a:	f000 fe0f 	bl	800243c <HAL_GetTick>
 800181e:	1b40      	subs	r0, r0, r5
 8001820:	2864      	cmp	r0, #100	; 0x64
 8001822:	d9f5      	bls.n	8001810 <HAL_RCC_OscConfig+0x130>
            return HAL_TIMEOUT;
 8001824:	2003      	movs	r0, #3
 8001826:	e1c3      	b.n	8001bb0 <HAL_RCC_OscConfig+0x4d0>
    assert_param(IS_RCC_HSI(RCC_OscInitStruct->HSIState));
 8001828:	f240 111d 	movw	r1, #285	; 0x11d
 800182c:	4838      	ldr	r0, [pc, #224]	; (8001910 <HAL_RCC_OscConfig+0x230>)
 800182e:	f7fe ffd7 	bl	80007e0 <assert_failed>
 8001832:	e7b7      	b.n	80017a4 <HAL_RCC_OscConfig+0xc4>
    assert_param(IS_RCC_CALIBRATION_VALUE(RCC_OscInitStruct->HSICalibrationValue));
 8001834:	f44f 718f 	mov.w	r1, #286	; 0x11e
 8001838:	4835      	ldr	r0, [pc, #212]	; (8001910 <HAL_RCC_OscConfig+0x230>)
 800183a:	f7fe ffd1 	bl	80007e0 <assert_failed>
 800183e:	e7b4      	b.n	80017aa <HAL_RCC_OscConfig+0xca>
      ((__HAL_RCC_GET_SYSCLK_SOURCE() == RCC_CFGR_SWS_PLL) && ((RCC->PLLCFGR & RCC_PLLCFGR_PLLSRC) == RCC_PLLCFGR_PLLSRC_HSI)))
 8001840:	4b32      	ldr	r3, [pc, #200]	; (800190c <HAL_RCC_OscConfig+0x22c>)
 8001842:	685b      	ldr	r3, [r3, #4]
 8001844:	f413 0f80 	tst.w	r3, #4194304	; 0x400000
 8001848:	d1ba      	bne.n	80017c0 <HAL_RCC_OscConfig+0xe0>
      if((__HAL_RCC_GET_FLAG(RCC_FLAG_HSIRDY) != RESET) && (RCC_OscInitStruct->HSIState != RCC_HSI_ON))
 800184a:	4b30      	ldr	r3, [pc, #192]	; (800190c <HAL_RCC_OscConfig+0x22c>)
 800184c:	681b      	ldr	r3, [r3, #0]
 800184e:	f013 0f02 	tst.w	r3, #2
 8001852:	d003      	beq.n	800185c <HAL_RCC_OscConfig+0x17c>
 8001854:	68e3      	ldr	r3, [r4, #12]
 8001856:	2b01      	cmp	r3, #1
 8001858:	f040 81a7 	bne.w	8001baa <HAL_RCC_OscConfig+0x4ca>
        __HAL_RCC_HSI_CALIBRATIONVALUE_ADJUST(RCC_OscInitStruct->HSICalibrationValue);
 800185c:	4a2b      	ldr	r2, [pc, #172]	; (800190c <HAL_RCC_OscConfig+0x22c>)
 800185e:	6813      	ldr	r3, [r2, #0]
 8001860:	f023 03f8 	bic.w	r3, r3, #248	; 0xf8
 8001864:	6921      	ldr	r1, [r4, #16]
 8001866:	ea43 03c1 	orr.w	r3, r3, r1, lsl #3
 800186a:	6013      	str	r3, [r2, #0]
        }
      }
    }
  }
  /*------------------------------ LSI Configuration -------------------------*/
  if(((RCC_OscInitStruct->OscillatorType) & RCC_OSCILLATORTYPE_LSI) == RCC_OSCILLATORTYPE_LSI)
 800186c:	6823      	ldr	r3, [r4, #0]
 800186e:	f013 0f08 	tst.w	r3, #8
 8001872:	d051      	beq.n	8001918 <HAL_RCC_OscConfig+0x238>
  {
    /* Check the parameters */
    assert_param(IS_RCC_LSI(RCC_OscInitStruct->LSIState));
 8001874:	6963      	ldr	r3, [r4, #20]
 8001876:	2b01      	cmp	r3, #1
 8001878:	d82f      	bhi.n	80018da <HAL_RCC_OscConfig+0x1fa>

    /* Check the LSI State */
    if((RCC_OscInitStruct->LSIState)!= RCC_LSI_OFF)
 800187a:	6963      	ldr	r3, [r4, #20]
 800187c:	b39b      	cbz	r3, 80018e6 <HAL_RCC_OscConfig+0x206>
    {
      /* Enable the Internal Low Speed oscillator (LSI). */
      __HAL_RCC_LSI_ENABLE();
 800187e:	4b25      	ldr	r3, [pc, #148]	; (8001914 <HAL_RCC_OscConfig+0x234>)
 8001880:	2201      	movs	r2, #1
 8001882:	f8c3 2e80 	str.w	r2, [r3, #3712]	; 0xe80

      /* Get Start Tick*/
      tickstart = HAL_GetTick();
 8001886:	f000 fdd9 	bl	800243c <HAL_GetTick>
 800188a:	4605      	mov	r5, r0

      /* Wait till LSI is ready */
      while(__HAL_RCC_GET_FLAG(RCC_FLAG_LSIRDY) == RESET)
 800188c:	4b1f      	ldr	r3, [pc, #124]	; (800190c <HAL_RCC_OscConfig+0x22c>)
 800188e:	6f5b      	ldr	r3, [r3, #116]	; 0x74
 8001890:	f013 0f02 	tst.w	r3, #2
 8001894:	d140      	bne.n	8001918 <HAL_RCC_OscConfig+0x238>
      {
        if((HAL_GetTick() - tickstart ) > LSI_TIMEOUT_VALUE)
 8001896:	f000 fdd1 	bl	800243c <HAL_GetTick>
 800189a:	1b40      	subs	r0, r0, r5
 800189c:	2802      	cmp	r0, #2
 800189e:	d9f5      	bls.n	800188c <HAL_RCC_OscConfig+0x1ac>
        {
          return HAL_TIMEOUT;
 80018a0:	2003      	movs	r0, #3
 80018a2:	e185      	b.n	8001bb0 <HAL_RCC_OscConfig+0x4d0>
        __HAL_RCC_HSI_CALIBRATIONVALUE_ADJUST(RCC_OscInitStruct->HSICalibrationValue);
 80018a4:	4a19      	ldr	r2, [pc, #100]	; (800190c <HAL_RCC_OscConfig+0x22c>)
 80018a6:	6813      	ldr	r3, [r2, #0]
 80018a8:	f023 03f8 	bic.w	r3, r3, #248	; 0xf8
 80018ac:	6921      	ldr	r1, [r4, #16]
 80018ae:	ea43 03c1 	orr.w	r3, r3, r1, lsl #3
 80018b2:	6013      	str	r3, [r2, #0]
 80018b4:	e7da      	b.n	800186c <HAL_RCC_OscConfig+0x18c>
        __HAL_RCC_HSI_DISABLE();
 80018b6:	4b17      	ldr	r3, [pc, #92]	; (8001914 <HAL_RCC_OscConfig+0x234>)
 80018b8:	2200      	movs	r2, #0
 80018ba:	601a      	str	r2, [r3, #0]
        tickstart = HAL_GetTick();
 80018bc:	f000 fdbe 	bl	800243c <HAL_GetTick>
 80018c0:	4605      	mov	r5, r0
        while(__HAL_RCC_GET_FLAG(RCC_FLAG_HSIRDY) != RESET)
 80018c2:	4b12      	ldr	r3, [pc, #72]	; (800190c <HAL_RCC_OscConfig+0x22c>)
 80018c4:	681b      	ldr	r3, [r3, #0]
 80018c6:	f013 0f02 	tst.w	r3, #2
 80018ca:	d0cf      	beq.n	800186c <HAL_RCC_OscConfig+0x18c>
          if((HAL_GetTick() - tickstart ) > HSI_TIMEOUT_VALUE)
 80018cc:	f000 fdb6 	bl	800243c <HAL_GetTick>
 80018d0:	1b40      	subs	r0, r0, r5
 80018d2:	2802      	cmp	r0, #2
 80018d4:	d9f5      	bls.n	80018c2 <HAL_RCC_OscConfig+0x1e2>
            return HAL_TIMEOUT;
 80018d6:	2003      	movs	r0, #3
 80018d8:	e16a      	b.n	8001bb0 <HAL_RCC_OscConfig+0x4d0>
    assert_param(IS_RCC_LSI(RCC_OscInitStruct->LSIState));
 80018da:	f44f 71af 	mov.w	r1, #350	; 0x15e
 80018de:	480c      	ldr	r0, [pc, #48]	; (8001910 <HAL_RCC_OscConfig+0x230>)
 80018e0:	f7fe ff7e 	bl	80007e0 <assert_failed>
 80018e4:	e7c9      	b.n	800187a <HAL_RCC_OscConfig+0x19a>
      }
    }
    else
    {
      /* Disable the Internal Low Speed oscillator (LSI). */
      __HAL_RCC_LSI_DISABLE();
 80018e6:	4b0b      	ldr	r3, [pc, #44]	; (8001914 <HAL_RCC_OscConfig+0x234>)
 80018e8:	2200      	movs	r2, #0
 80018ea:	f8c3 2e80 	str.w	r2, [r3, #3712]	; 0xe80

      /* Get Start Tick */
      tickstart = HAL_GetTick();
 80018ee:	f000 fda5 	bl	800243c <HAL_GetTick>
 80018f2:	4605      	mov	r5, r0

      /* Wait till LSI is ready */
      while(__HAL_RCC_GET_FLAG(RCC_FLAG_LSIRDY) != RESET)
 80018f4:	4b05      	ldr	r3, [pc, #20]	; (800190c <HAL_RCC_OscConfig+0x22c>)
 80018f6:	6f5b      	ldr	r3, [r3, #116]	; 0x74
 80018f8:	f013 0f02 	tst.w	r3, #2
 80018fc:	d00c      	beq.n	8001918 <HAL_RCC_OscConfig+0x238>
      {
        if((HAL_GetTick() - tickstart ) > LSI_TIMEOUT_VALUE)
 80018fe:	f000 fd9d 	bl	800243c <HAL_GetTick>
 8001902:	1b40      	subs	r0, r0, r5
 8001904:	2802      	cmp	r0, #2
 8001906:	d9f5      	bls.n	80018f4 <HAL_RCC_OscConfig+0x214>
        {
          return HAL_TIMEOUT;
 8001908:	2003      	movs	r0, #3
 800190a:	e151      	b.n	8001bb0 <HAL_RCC_OscConfig+0x4d0>
 800190c:	40023800 	andmi	r3, r2, r0, lsl #16
 8001910:	08003b04 	stmdaeq	r0, {r2, r8, r9, fp, ip, sp}
 8001914:	42470000 	submi	r0, r7, #0
        }
      }
    }
  }
  /*------------------------------ LSE Configuration -------------------------*/
  if(((RCC_OscInitStruct->OscillatorType) & RCC_OSCILLATORTYPE_LSE) == RCC_OSCILLATORTYPE_LSE)
 8001918:	6823      	ldr	r3, [r4, #0]
 800191a:	f013 0f04 	tst.w	r3, #4
 800191e:	d07c      	beq.n	8001a1a <HAL_RCC_OscConfig+0x33a>
  {
    FlagStatus       pwrclkchanged = RESET;

    /* Check the parameters */
    assert_param(IS_RCC_LSE(RCC_OscInitStruct->LSEState));
 8001920:	68a3      	ldr	r3, [r4, #8]
 8001922:	2b01      	cmp	r3, #1
 8001924:	d901      	bls.n	800192a <HAL_RCC_OscConfig+0x24a>
 8001926:	2b05      	cmp	r3, #5
 8001928:	d138      	bne.n	800199c <HAL_RCC_OscConfig+0x2bc>

    /* Update LSE configuration in Backup Domain control register    */
    /* Requires to enable write access to Backup Domain of necessary */
    if(__HAL_RCC_PWR_IS_CLK_DISABLED())
 800192a:	4ba4      	ldr	r3, [pc, #656]	; (8001bbc <HAL_RCC_OscConfig+0x4dc>)
 800192c:	6c1b      	ldr	r3, [r3, #64]	; 0x40
 800192e:	f013 5f80 	tst.w	r3, #268435456	; 0x10000000
 8001932:	d139      	bne.n	80019a8 <HAL_RCC_OscConfig+0x2c8>
    {
      __HAL_RCC_PWR_CLK_ENABLE();
 8001934:	2300      	movs	r3, #0
 8001936:	9301      	str	r3, [sp, #4]
 8001938:	4ba0      	ldr	r3, [pc, #640]	; (8001bbc <HAL_RCC_OscConfig+0x4dc>)
 800193a:	6c1a      	ldr	r2, [r3, #64]	; 0x40
 800193c:	f042 5280 	orr.w	r2, r2, #268435456	; 0x10000000
 8001940:	641a      	str	r2, [r3, #64]	; 0x40
 8001942:	6c1b      	ldr	r3, [r3, #64]	; 0x40
 8001944:	f003 5380 	and.w	r3, r3, #268435456	; 0x10000000
 8001948:	9301      	str	r3, [sp, #4]
 800194a:	9b01      	ldr	r3, [sp, #4]
      pwrclkchanged = SET;
 800194c:	2501      	movs	r5, #1
    }

    if(HAL_IS_BIT_CLR(PWR->CR, PWR_CR_DBP))
 800194e:	4b9c      	ldr	r3, [pc, #624]	; (8001bc0 <HAL_RCC_OscConfig+0x4e0>)
 8001950:	681b      	ldr	r3, [r3, #0]
 8001952:	f413 7f80 	tst.w	r3, #256	; 0x100
 8001956:	d029      	beq.n	80019ac <HAL_RCC_OscConfig+0x2cc>
        }
      }
    }

    /* Set the new LSE configuration -----------------------------------------*/
    __HAL_RCC_LSE_CONFIG(RCC_OscInitStruct->LSEState);
 8001958:	68a3      	ldr	r3, [r4, #8]
 800195a:	2b01      	cmp	r3, #1
 800195c:	d03a      	beq.n	80019d4 <HAL_RCC_OscConfig+0x2f4>
 800195e:	2b05      	cmp	r3, #5
 8001960:	d03e      	beq.n	80019e0 <HAL_RCC_OscConfig+0x300>
 8001962:	4b96      	ldr	r3, [pc, #600]	; (8001bbc <HAL_RCC_OscConfig+0x4dc>)
 8001964:	6f1a      	ldr	r2, [r3, #112]	; 0x70
 8001966:	f022 0201 	bic.w	r2, r2, #1
 800196a:	671a      	str	r2, [r3, #112]	; 0x70
 800196c:	6f1a      	ldr	r2, [r3, #112]	; 0x70
 800196e:	f022 0204 	bic.w	r2, r2, #4
 8001972:	671a      	str	r2, [r3, #112]	; 0x70
    /* Check the LSE State */
    if((RCC_OscInitStruct->LSEState) != RCC_LSE_OFF)
 8001974:	68a3      	ldr	r3, [r4, #8]
 8001976:	2b00      	cmp	r3, #0
 8001978:	d03c      	beq.n	80019f4 <HAL_RCC_OscConfig+0x314>
    {
      /* Get Start Tick*/
      tickstart = HAL_GetTick();
 800197a:	f000 fd5f 	bl	800243c <HAL_GetTick>
 800197e:	4606      	mov	r6, r0

      /* Wait till LSE is ready */
      while(__HAL_RCC_GET_FLAG(RCC_FLAG_LSERDY) == RESET)
 8001980:	4b8e      	ldr	r3, [pc, #568]	; (8001bbc <HAL_RCC_OscConfig+0x4dc>)
 8001982:	6f1b      	ldr	r3, [r3, #112]	; 0x70
 8001984:	f013 0f02 	tst.w	r3, #2
 8001988:	d145      	bne.n	8001a16 <HAL_RCC_OscConfig+0x336>
      {
        if((HAL_GetTick() - tickstart ) > RCC_LSE_TIMEOUT_VALUE)
 800198a:	f000 fd57 	bl	800243c <HAL_GetTick>
 800198e:	1b80      	subs	r0, r0, r6
 8001990:	f241 3388 	movw	r3, #5000	; 0x1388
 8001994:	4298      	cmp	r0, r3
 8001996:	d9f3      	bls.n	8001980 <HAL_RCC_OscConfig+0x2a0>
        {
          return HAL_TIMEOUT;
 8001998:	2003      	movs	r0, #3
 800199a:	e109      	b.n	8001bb0 <HAL_RCC_OscConfig+0x4d0>
    assert_param(IS_RCC_LSE(RCC_OscInitStruct->LSEState));
 800199c:	f44f 71c5 	mov.w	r1, #394	; 0x18a
 80019a0:	4888      	ldr	r0, [pc, #544]	; (8001bc4 <HAL_RCC_OscConfig+0x4e4>)
 80019a2:	f7fe ff1d 	bl	80007e0 <assert_failed>
 80019a6:	e7c0      	b.n	800192a <HAL_RCC_OscConfig+0x24a>
    FlagStatus       pwrclkchanged = RESET;
 80019a8:	2500      	movs	r5, #0
 80019aa:	e7d0      	b.n	800194e <HAL_RCC_OscConfig+0x26e>
      SET_BIT(PWR->CR, PWR_CR_DBP);
 80019ac:	4a84      	ldr	r2, [pc, #528]	; (8001bc0 <HAL_RCC_OscConfig+0x4e0>)
 80019ae:	6813      	ldr	r3, [r2, #0]
 80019b0:	f443 7380 	orr.w	r3, r3, #256	; 0x100
 80019b4:	6013      	str	r3, [r2, #0]
      tickstart = HAL_GetTick();
 80019b6:	f000 fd41 	bl	800243c <HAL_GetTick>
 80019ba:	4606      	mov	r6, r0
      while(HAL_IS_BIT_CLR(PWR->CR, PWR_CR_DBP))
 80019bc:	4b80      	ldr	r3, [pc, #512]	; (8001bc0 <HAL_RCC_OscConfig+0x4e0>)
 80019be:	681b      	ldr	r3, [r3, #0]
 80019c0:	f413 7f80 	tst.w	r3, #256	; 0x100
 80019c4:	d1c8      	bne.n	8001958 <HAL_RCC_OscConfig+0x278>
        if((HAL_GetTick() - tickstart) > RCC_DBP_TIMEOUT_VALUE)
 80019c6:	f000 fd39 	bl	800243c <HAL_GetTick>
 80019ca:	1b80      	subs	r0, r0, r6
 80019cc:	2802      	cmp	r0, #2
 80019ce:	d9f5      	bls.n	80019bc <HAL_RCC_OscConfig+0x2dc>
          return HAL_TIMEOUT;
 80019d0:	2003      	movs	r0, #3
 80019d2:	e0ed      	b.n	8001bb0 <HAL_RCC_OscConfig+0x4d0>
    __HAL_RCC_LSE_CONFIG(RCC_OscInitStruct->LSEState);
 80019d4:	4a79      	ldr	r2, [pc, #484]	; (8001bbc <HAL_RCC_OscConfig+0x4dc>)
 80019d6:	6f13      	ldr	r3, [r2, #112]	; 0x70
 80019d8:	f043 0301 	orr.w	r3, r3, #1
 80019dc:	6713      	str	r3, [r2, #112]	; 0x70
 80019de:	e7c9      	b.n	8001974 <HAL_RCC_OscConfig+0x294>
 80019e0:	4b76      	ldr	r3, [pc, #472]	; (8001bbc <HAL_RCC_OscConfig+0x4dc>)
 80019e2:	6f1a      	ldr	r2, [r3, #112]	; 0x70
 80019e4:	f042 0204 	orr.w	r2, r2, #4
 80019e8:	671a      	str	r2, [r3, #112]	; 0x70
 80019ea:	6f1a      	ldr	r2, [r3, #112]	; 0x70
 80019ec:	f042 0201 	orr.w	r2, r2, #1
 80019f0:	671a      	str	r2, [r3, #112]	; 0x70
 80019f2:	e7bf      	b.n	8001974 <HAL_RCC_OscConfig+0x294>
      }
    }
    else
    {
      /* Get Start Tick */
      tickstart = HAL_GetTick();
 80019f4:	f000 fd22 	bl	800243c <HAL_GetTick>
 80019f8:	4606      	mov	r6, r0

      /* Wait till LSE is ready */
      while(__HAL_RCC_GET_FLAG(RCC_FLAG_LSERDY) != RESET)
 80019fa:	4b70      	ldr	r3, [pc, #448]	; (8001bbc <HAL_RCC_OscConfig+0x4dc>)
 80019fc:	6f1b      	ldr	r3, [r3, #112]	; 0x70
 80019fe:	f013 0f02 	tst.w	r3, #2
 8001a02:	d008      	beq.n	8001a16 <HAL_RCC_OscConfig+0x336>
      {
        if((HAL_GetTick() - tickstart ) > RCC_LSE_TIMEOUT_VALUE)
 8001a04:	f000 fd1a 	bl	800243c <HAL_GetTick>
 8001a08:	1b80      	subs	r0, r0, r6
 8001a0a:	f241 3388 	movw	r3, #5000	; 0x1388
 8001a0e:	4298      	cmp	r0, r3
 8001a10:	d9f3      	bls.n	80019fa <HAL_RCC_OscConfig+0x31a>
        {
          return HAL_TIMEOUT;
 8001a12:	2003      	movs	r0, #3
 8001a14:	e0cc      	b.n	8001bb0 <HAL_RCC_OscConfig+0x4d0>
        }
      }
    }

    /* Restore clock configuration if changed */
    if(pwrclkchanged == SET)
 8001a16:	2d00      	cmp	r5, #0
 8001a18:	d13c      	bne.n	8001a94 <HAL_RCC_OscConfig+0x3b4>
      __HAL_RCC_PWR_CLK_DISABLE();
    }
  }
  /*-------------------------------- PLL Configuration -----------------------*/
  /* Check the parameters */
  assert_param(IS_RCC_PLL(RCC_OscInitStruct->PLL.PLLState));
 8001a1a:	69a3      	ldr	r3, [r4, #24]
 8001a1c:	2b02      	cmp	r3, #2
 8001a1e:	d83f      	bhi.n	8001aa0 <HAL_RCC_OscConfig+0x3c0>
  if ((RCC_OscInitStruct->PLL.PLLState) != RCC_PLL_NONE)
 8001a20:	69a3      	ldr	r3, [r4, #24]
 8001a22:	2b00      	cmp	r3, #0
 8001a24:	f000 80c3 	beq.w	8001bae <HAL_RCC_OscConfig+0x4ce>
  {
    /* Check if the PLL is used as system clock or not */
    if(__HAL_RCC_GET_SYSCLK_SOURCE() != RCC_CFGR_SWS_PLL)
 8001a28:	4a64      	ldr	r2, [pc, #400]	; (8001bbc <HAL_RCC_OscConfig+0x4dc>)
 8001a2a:	6892      	ldr	r2, [r2, #8]
 8001a2c:	f002 020c 	and.w	r2, r2, #12
 8001a30:	2a08      	cmp	r2, #8
 8001a32:	f000 8091 	beq.w	8001b58 <HAL_RCC_OscConfig+0x478>
    {
      if((RCC_OscInitStruct->PLL.PLLState) == RCC_PLL_ON)
 8001a36:	2b02      	cmp	r3, #2
 8001a38:	d17a      	bne.n	8001b30 <HAL_RCC_OscConfig+0x450>
      {
        /* Check the parameters */
        assert_param(IS_RCC_PLLSOURCE(RCC_OscInitStruct->PLL.PLLSource));
 8001a3a:	69e3      	ldr	r3, [r4, #28]
 8001a3c:	b113      	cbz	r3, 8001a44 <HAL_RCC_OscConfig+0x364>
 8001a3e:	f5b3 0f80 	cmp.w	r3, #4194304	; 0x400000
 8001a42:	d133      	bne.n	8001aac <HAL_RCC_OscConfig+0x3cc>
        assert_param(IS_RCC_PLLM_VALUE(RCC_OscInitStruct->PLL.PLLM));
 8001a44:	6a23      	ldr	r3, [r4, #32]
 8001a46:	3b02      	subs	r3, #2
 8001a48:	2b3d      	cmp	r3, #61	; 0x3d
 8001a4a:	d835      	bhi.n	8001ab8 <HAL_RCC_OscConfig+0x3d8>
        assert_param(IS_RCC_PLLN_VALUE(RCC_OscInitStruct->PLL.PLLN));
 8001a4c:	6a63      	ldr	r3, [r4, #36]	; 0x24
 8001a4e:	3b32      	subs	r3, #50	; 0x32
 8001a50:	f5b3 7fbf 	cmp.w	r3, #382	; 0x17e
 8001a54:	d836      	bhi.n	8001ac4 <HAL_RCC_OscConfig+0x3e4>
        assert_param(IS_RCC_PLLP_VALUE(RCC_OscInitStruct->PLL.PLLP));
 8001a56:	6aa3      	ldr	r3, [r4, #40]	; 0x28
 8001a58:	2b02      	cmp	r3, #2
 8001a5a:	d005      	beq.n	8001a68 <HAL_RCC_OscConfig+0x388>
 8001a5c:	2b04      	cmp	r3, #4
 8001a5e:	d003      	beq.n	8001a68 <HAL_RCC_OscConfig+0x388>
 8001a60:	2b06      	cmp	r3, #6
 8001a62:	d001      	beq.n	8001a68 <HAL_RCC_OscConfig+0x388>
 8001a64:	2b08      	cmp	r3, #8
 8001a66:	d133      	bne.n	8001ad0 <HAL_RCC_OscConfig+0x3f0>
        assert_param(IS_RCC_PLLQ_VALUE(RCC_OscInitStruct->PLL.PLLQ));
 8001a68:	6ae3      	ldr	r3, [r4, #44]	; 0x2c
 8001a6a:	3b02      	subs	r3, #2
 8001a6c:	2b0d      	cmp	r3, #13
 8001a6e:	d835      	bhi.n	8001adc <HAL_RCC_OscConfig+0x3fc>

        /* Disable the main PLL. */
        __HAL_RCC_PLL_DISABLE();
 8001a70:	4b55      	ldr	r3, [pc, #340]	; (8001bc8 <HAL_RCC_OscConfig+0x4e8>)
 8001a72:	2200      	movs	r2, #0
 8001a74:	661a      	str	r2, [r3, #96]	; 0x60

        /* Get Start Tick */
        tickstart = HAL_GetTick();
 8001a76:	f000 fce1 	bl	800243c <HAL_GetTick>
 8001a7a:	4605      	mov	r5, r0

        /* Wait till PLL is disabled */
        while(__HAL_RCC_GET_FLAG(RCC_FLAG_PLLRDY) != RESET)
 8001a7c:	4b4f      	ldr	r3, [pc, #316]	; (8001bbc <HAL_RCC_OscConfig+0x4dc>)
 8001a7e:	681b      	ldr	r3, [r3, #0]
 8001a80:	f013 7f00 	tst.w	r3, #33554432	; 0x2000000
 8001a84:	d030      	beq.n	8001ae8 <HAL_RCC_OscConfig+0x408>
        {
          if((HAL_GetTick() - tickstart ) > PLL_TIMEOUT_VALUE)
 8001a86:	f000 fcd9 	bl	800243c <HAL_GetTick>
 8001a8a:	1b40      	subs	r0, r0, r5
 8001a8c:	2802      	cmp	r0, #2
 8001a8e:	d9f5      	bls.n	8001a7c <HAL_RCC_OscConfig+0x39c>
          {
            return HAL_TIMEOUT;
 8001a90:	2003      	movs	r0, #3
 8001a92:	e08d      	b.n	8001bb0 <HAL_RCC_OscConfig+0x4d0>
      __HAL_RCC_PWR_CLK_DISABLE();
 8001a94:	4a49      	ldr	r2, [pc, #292]	; (8001bbc <HAL_RCC_OscConfig+0x4dc>)
 8001a96:	6c13      	ldr	r3, [r2, #64]	; 0x40
 8001a98:	f023 5380 	bic.w	r3, r3, #268435456	; 0x10000000
 8001a9c:	6413      	str	r3, [r2, #64]	; 0x40
 8001a9e:	e7bc      	b.n	8001a1a <HAL_RCC_OscConfig+0x33a>
  assert_param(IS_RCC_PLL(RCC_OscInitStruct->PLL.PLLState));
 8001aa0:	f240 11cd 	movw	r1, #461	; 0x1cd
 8001aa4:	4847      	ldr	r0, [pc, #284]	; (8001bc4 <HAL_RCC_OscConfig+0x4e4>)
 8001aa6:	f7fe fe9b 	bl	80007e0 <assert_failed>
 8001aaa:	e7b9      	b.n	8001a20 <HAL_RCC_OscConfig+0x340>
        assert_param(IS_RCC_PLLSOURCE(RCC_OscInitStruct->PLL.PLLSource));
 8001aac:	f44f 71eb 	mov.w	r1, #470	; 0x1d6
 8001ab0:	4844      	ldr	r0, [pc, #272]	; (8001bc4 <HAL_RCC_OscConfig+0x4e4>)
 8001ab2:	f7fe fe95 	bl	80007e0 <assert_failed>
 8001ab6:	e7c5      	b.n	8001a44 <HAL_RCC_OscConfig+0x364>
        assert_param(IS_RCC_PLLM_VALUE(RCC_OscInitStruct->PLL.PLLM));
 8001ab8:	f240 11d7 	movw	r1, #471	; 0x1d7
 8001abc:	4841      	ldr	r0, [pc, #260]	; (8001bc4 <HAL_RCC_OscConfig+0x4e4>)
 8001abe:	f7fe fe8f 	bl	80007e0 <assert_failed>
 8001ac2:	e7c3      	b.n	8001a4c <HAL_RCC_OscConfig+0x36c>
        assert_param(IS_RCC_PLLN_VALUE(RCC_OscInitStruct->PLL.PLLN));
 8001ac4:	f44f 71ec 	mov.w	r1, #472	; 0x1d8
 8001ac8:	483e      	ldr	r0, [pc, #248]	; (8001bc4 <HAL_RCC_OscConfig+0x4e4>)
 8001aca:	f7fe fe89 	bl	80007e0 <assert_failed>
 8001ace:	e7c2      	b.n	8001a56 <HAL_RCC_OscConfig+0x376>
        assert_param(IS_RCC_PLLP_VALUE(RCC_OscInitStruct->PLL.PLLP));
 8001ad0:	f240 11d9 	movw	r1, #473	; 0x1d9
 8001ad4:	483b      	ldr	r0, [pc, #236]	; (8001bc4 <HAL_RCC_OscConfig+0x4e4>)
 8001ad6:	f7fe fe83 	bl	80007e0 <assert_failed>
 8001ada:	e7c5      	b.n	8001a68 <HAL_RCC_OscConfig+0x388>
        assert_param(IS_RCC_PLLQ_VALUE(RCC_OscInitStruct->PLL.PLLQ));
 8001adc:	f44f 71ed 	mov.w	r1, #474	; 0x1da
 8001ae0:	4838      	ldr	r0, [pc, #224]	; (8001bc4 <HAL_RCC_OscConfig+0x4e4>)
 8001ae2:	f7fe fe7d 	bl	80007e0 <assert_failed>
 8001ae6:	e7c3      	b.n	8001a70 <HAL_RCC_OscConfig+0x390>
          }
        }

        /* Configure the main PLL clock source, multiplication and division factors. */
        WRITE_REG(RCC->PLLCFGR, (RCC_OscInitStruct->PLL.PLLSource                                            | \
 8001ae8:	69e3      	ldr	r3, [r4, #28]
 8001aea:	6a22      	ldr	r2, [r4, #32]
 8001aec:	4313      	orrs	r3, r2
 8001aee:	6a62      	ldr	r2, [r4, #36]	; 0x24
 8001af0:	ea43 1382 	orr.w	r3, r3, r2, lsl #6
 8001af4:	6aa2      	ldr	r2, [r4, #40]	; 0x28
 8001af6:	0852      	lsrs	r2, r2, #1
 8001af8:	3a01      	subs	r2, #1
 8001afa:	ea43 4302 	orr.w	r3, r3, r2, lsl #16
 8001afe:	6ae2      	ldr	r2, [r4, #44]	; 0x2c
 8001b00:	ea43 6302 	orr.w	r3, r3, r2, lsl #24
 8001b04:	4a2d      	ldr	r2, [pc, #180]	; (8001bbc <HAL_RCC_OscConfig+0x4dc>)
 8001b06:	6053      	str	r3, [r2, #4]
                                 RCC_OscInitStruct->PLL.PLLM                                                 | \
                                 (RCC_OscInitStruct->PLL.PLLN << RCC_PLLCFGR_PLLN_Pos)             | \
                                 (((RCC_OscInitStruct->PLL.PLLP >> 1U) - 1U) << RCC_PLLCFGR_PLLP_Pos) | \
                                 (RCC_OscInitStruct->PLL.PLLQ << RCC_PLLCFGR_PLLQ_Pos)));
        /* Enable the main PLL. */
        __HAL_RCC_PLL_ENABLE();
 8001b08:	4b2f      	ldr	r3, [pc, #188]	; (8001bc8 <HAL_RCC_OscConfig+0x4e8>)
 8001b0a:	2201      	movs	r2, #1
 8001b0c:	661a      	str	r2, [r3, #96]	; 0x60

        /* Get Start Tick */
        tickstart = HAL_GetTick();
 8001b0e:	f000 fc95 	bl	800243c <HAL_GetTick>
 8001b12:	4604      	mov	r4, r0

        /* Wait till PLL is ready */
        while(__HAL_RCC_GET_FLAG(RCC_FLAG_PLLRDY) == RESET)
 8001b14:	4b29      	ldr	r3, [pc, #164]	; (8001bbc <HAL_RCC_OscConfig+0x4dc>)
 8001b16:	681b      	ldr	r3, [r3, #0]
 8001b18:	f013 7f00 	tst.w	r3, #33554432	; 0x2000000
 8001b1c:	d106      	bne.n	8001b2c <HAL_RCC_OscConfig+0x44c>
        {
          if((HAL_GetTick() - tickstart ) > PLL_TIMEOUT_VALUE)
 8001b1e:	f000 fc8d 	bl	800243c <HAL_GetTick>
 8001b22:	1b00      	subs	r0, r0, r4
 8001b24:	2802      	cmp	r0, #2
 8001b26:	d9f5      	bls.n	8001b14 <HAL_RCC_OscConfig+0x434>
          {
            return HAL_TIMEOUT;
 8001b28:	2003      	movs	r0, #3
 8001b2a:	e041      	b.n	8001bb0 <HAL_RCC_OscConfig+0x4d0>
          return HAL_ERROR;
        }
      }
    }
  }
  return HAL_OK;
 8001b2c:	2000      	movs	r0, #0
 8001b2e:	e03f      	b.n	8001bb0 <HAL_RCC_OscConfig+0x4d0>
        __HAL_RCC_PLL_DISABLE();
 8001b30:	4b25      	ldr	r3, [pc, #148]	; (8001bc8 <HAL_RCC_OscConfig+0x4e8>)
 8001b32:	2200      	movs	r2, #0
 8001b34:	661a      	str	r2, [r3, #96]	; 0x60
        tickstart = HAL_GetTick();
 8001b36:	f000 fc81 	bl	800243c <HAL_GetTick>
 8001b3a:	4604      	mov	r4, r0
        while(__HAL_RCC_GET_FLAG(RCC_FLAG_PLLRDY) != RESET)
 8001b3c:	4b1f      	ldr	r3, [pc, #124]	; (8001bbc <HAL_RCC_OscConfig+0x4dc>)
 8001b3e:	681b      	ldr	r3, [r3, #0]
 8001b40:	f013 7f00 	tst.w	r3, #33554432	; 0x2000000
 8001b44:	d006      	beq.n	8001b54 <HAL_RCC_OscConfig+0x474>
          if((HAL_GetTick() - tickstart ) > PLL_TIMEOUT_VALUE)
 8001b46:	f000 fc79 	bl	800243c <HAL_GetTick>
 8001b4a:	1b00      	subs	r0, r0, r4
 8001b4c:	2802      	cmp	r0, #2
 8001b4e:	d9f5      	bls.n	8001b3c <HAL_RCC_OscConfig+0x45c>
            return HAL_TIMEOUT;
 8001b50:	2003      	movs	r0, #3
 8001b52:	e02d      	b.n	8001bb0 <HAL_RCC_OscConfig+0x4d0>
  return HAL_OK;
 8001b54:	2000      	movs	r0, #0
 8001b56:	e02b      	b.n	8001bb0 <HAL_RCC_OscConfig+0x4d0>
      if((RCC_OscInitStruct->PLL.PLLState) == RCC_PLL_OFF)
 8001b58:	2b01      	cmp	r3, #1
 8001b5a:	d02b      	beq.n	8001bb4 <HAL_RCC_OscConfig+0x4d4>
        pll_config = RCC->PLLCFGR;
 8001b5c:	4b17      	ldr	r3, [pc, #92]	; (8001bbc <HAL_RCC_OscConfig+0x4dc>)
 8001b5e:	685b      	ldr	r3, [r3, #4]
            (READ_BIT(pll_config, RCC_PLLCFGR_PLLSRC) != RCC_OscInitStruct->PLL.PLLSource) ||
 8001b60:	f403 0180 	and.w	r1, r3, #4194304	; 0x400000
 8001b64:	69e2      	ldr	r2, [r4, #28]
        if (((RCC_OscInitStruct->PLL.PLLState) == RCC_PLL_OFF) ||
 8001b66:	4291      	cmp	r1, r2
 8001b68:	d126      	bne.n	8001bb8 <HAL_RCC_OscConfig+0x4d8>
            (READ_BIT(pll_config, RCC_PLLCFGR_PLLM) != (RCC_OscInitStruct->PLL.PLLM) << RCC_PLLCFGR_PLLM_Pos) ||
 8001b6a:	f003 023f 	and.w	r2, r3, #63	; 0x3f
 8001b6e:	6a21      	ldr	r1, [r4, #32]
            (READ_BIT(pll_config, RCC_PLLCFGR_PLLSRC) != RCC_OscInitStruct->PLL.PLLSource) ||
 8001b70:	428a      	cmp	r2, r1
 8001b72:	d12b      	bne.n	8001bcc <HAL_RCC_OscConfig+0x4ec>
            (READ_BIT(pll_config, RCC_PLLCFGR_PLLN) != (RCC_OscInitStruct->PLL.PLLN) << RCC_PLLCFGR_PLLN_Pos) ||
 8001b74:	6a61      	ldr	r1, [r4, #36]	; 0x24
            (READ_BIT(pll_config, RCC_PLLCFGR_PLLM) != (RCC_OscInitStruct->PLL.PLLM) << RCC_PLLCFGR_PLLM_Pos) ||
 8001b76:	f647 72c0 	movw	r2, #32704	; 0x7fc0
 8001b7a:	401a      	ands	r2, r3
 8001b7c:	ebb2 1f81 	cmp.w	r2, r1, lsl #6
 8001b80:	d126      	bne.n	8001bd0 <HAL_RCC_OscConfig+0x4f0>
            (READ_BIT(pll_config, RCC_PLLCFGR_PLLP) != (((RCC_OscInitStruct->PLL.PLLP >> 1U) - 1U)) << RCC_PLLCFGR_PLLP_Pos) ||
 8001b82:	f403 3140 	and.w	r1, r3, #196608	; 0x30000
 8001b86:	6aa2      	ldr	r2, [r4, #40]	; 0x28
 8001b88:	0852      	lsrs	r2, r2, #1
 8001b8a:	3a01      	subs	r2, #1
            (READ_BIT(pll_config, RCC_PLLCFGR_PLLN) != (RCC_OscInitStruct->PLL.PLLN) << RCC_PLLCFGR_PLLN_Pos) ||
 8001b8c:	ebb1 4f02 	cmp.w	r1, r2, lsl #16
 8001b90:	d120      	bne.n	8001bd4 <HAL_RCC_OscConfig+0x4f4>
            (READ_BIT(pll_config, RCC_PLLCFGR_PLLQ) != (RCC_OscInitStruct->PLL.PLLQ << RCC_PLLCFGR_PLLQ_Pos)))
 8001b92:	f003 6370 	and.w	r3, r3, #251658240	; 0xf000000
 8001b96:	6ae2      	ldr	r2, [r4, #44]	; 0x2c
            (READ_BIT(pll_config, RCC_PLLCFGR_PLLP) != (((RCC_OscInitStruct->PLL.PLLP >> 1U) - 1U)) << RCC_PLLCFGR_PLLP_Pos) ||
 8001b98:	ebb3 6f02 	cmp.w	r3, r2, lsl #24
 8001b9c:	d11c      	bne.n	8001bd8 <HAL_RCC_OscConfig+0x4f8>
  return HAL_OK;
 8001b9e:	2000      	movs	r0, #0
 8001ba0:	e006      	b.n	8001bb0 <HAL_RCC_OscConfig+0x4d0>
    return HAL_ERROR;
 8001ba2:	2001      	movs	r0, #1
}
 8001ba4:	4770      	bx	lr
        return HAL_ERROR;
 8001ba6:	2001      	movs	r0, #1
 8001ba8:	e002      	b.n	8001bb0 <HAL_RCC_OscConfig+0x4d0>
        return HAL_ERROR;
 8001baa:	2001      	movs	r0, #1
 8001bac:	e000      	b.n	8001bb0 <HAL_RCC_OscConfig+0x4d0>
  return HAL_OK;
 8001bae:	2000      	movs	r0, #0
}
 8001bb0:	b002      	add	sp, #8
 8001bb2:	bd70      	pop	{r4, r5, r6, pc}
        return HAL_ERROR;
 8001bb4:	2001      	movs	r0, #1
 8001bb6:	e7fb      	b.n	8001bb0 <HAL_RCC_OscConfig+0x4d0>
          return HAL_ERROR;
 8001bb8:	2001      	movs	r0, #1
 8001bba:	e7f9      	b.n	8001bb0 <HAL_RCC_OscConfig+0x4d0>
 8001bbc:	40023800 	andmi	r3, r2, r0, lsl #16
 8001bc0:	40007000 	andmi	r7, r0, r0
 8001bc4:	08003b04 	stmdaeq	r0, {r2, r8, r9, fp, ip, sp}
 8001bc8:	42470000 	submi	r0, r7, #0
 8001bcc:	2001      	movs	r0, #1
 8001bce:	e7ef      	b.n	8001bb0 <HAL_RCC_OscConfig+0x4d0>
 8001bd0:	2001      	movs	r0, #1
 8001bd2:	e7ed      	b.n	8001bb0 <HAL_RCC_OscConfig+0x4d0>
 8001bd4:	2001      	movs	r0, #1
 8001bd6:	e7eb      	b.n	8001bb0 <HAL_RCC_OscConfig+0x4d0>
 8001bd8:	2001      	movs	r0, #1
 8001bda:	e7e9      	b.n	8001bb0 <HAL_RCC_OscConfig+0x4d0>

08001bdc <HAL_RCC_GetSysClockFreq>:
  *
  *
  * @retval SYSCLK frequency
  */
__weak uint32_t HAL_RCC_GetSysClockFreq(void)
{
 8001bdc:	b508      	push	{r3, lr}
  uint32_t pllm = 0U, pllvco = 0U, pllp = 0U;
  uint32_t sysclockfreq = 0U;

  /* Get SYSCLK source -------------------------------------------------------*/
  switch (RCC->CFGR & RCC_CFGR_SWS)
 8001bde:	4b31      	ldr	r3, [pc, #196]	; (8001ca4 <HAL_RCC_GetSysClockFreq+0xc8>)
 8001be0:	689b      	ldr	r3, [r3, #8]
 8001be2:	f003 030c 	and.w	r3, r3, #12
 8001be6:	2b04      	cmp	r3, #4
 8001be8:	d057      	beq.n	8001c9a <HAL_RCC_GetSysClockFreq+0xbe>
 8001bea:	2b08      	cmp	r3, #8
 8001bec:	d157      	bne.n	8001c9e <HAL_RCC_GetSysClockFreq+0xc2>
    }
    case RCC_CFGR_SWS_PLL:  /* PLL used as system clock  source */
    {
      /* PLL_VCO = (HSE_VALUE or HSI_VALUE / PLLM) * PLLN
      SYSCLK = PLL_VCO / PLLP */
      pllm = RCC->PLLCFGR & RCC_PLLCFGR_PLLM;
 8001bee:	4b2d      	ldr	r3, [pc, #180]	; (8001ca4 <HAL_RCC_GetSysClockFreq+0xc8>)
 8001bf0:	685a      	ldr	r2, [r3, #4]
 8001bf2:	f002 023f 	and.w	r2, r2, #63	; 0x3f
      if(__HAL_RCC_GET_PLL_OSCSOURCE() != RCC_PLLSOURCE_HSI)
 8001bf6:	685b      	ldr	r3, [r3, #4]
 8001bf8:	f413 0f80 	tst.w	r3, #4194304	; 0x400000
 8001bfc:	d02a      	beq.n	8001c54 <HAL_RCC_GetSysClockFreq+0x78>
      {
        /* HSE used as PLL clock source */
        pllvco = (uint32_t) ((((uint64_t) HSE_VALUE * ((uint64_t) ((RCC->PLLCFGR & RCC_PLLCFGR_PLLN) >> RCC_PLLCFGR_PLLN_Pos)))) / (uint64_t)pllm);
 8001bfe:	4b29      	ldr	r3, [pc, #164]	; (8001ca4 <HAL_RCC_GetSysClockFreq+0xc8>)
 8001c00:	6859      	ldr	r1, [r3, #4]
 8001c02:	f3c1 1c88 	ubfx	ip, r1, #6, #9
 8001c06:	ea4f 114c 	mov.w	r1, ip, lsl #5
 8001c0a:	ebb1 000c 	subs.w	r0, r1, ip
 8001c0e:	eb6e 0e0e 	sbc.w	lr, lr, lr
 8001c12:	ea4f 138e 	mov.w	r3, lr, lsl #6
 8001c16:	ea43 6390 	orr.w	r3, r3, r0, lsr #26
 8001c1a:	0181      	lsls	r1, r0, #6
 8001c1c:	1a09      	subs	r1, r1, r0
 8001c1e:	eb63 030e 	sbc.w	r3, r3, lr
 8001c22:	00db      	lsls	r3, r3, #3
 8001c24:	ea43 7351 	orr.w	r3, r3, r1, lsr #29
 8001c28:	00c9      	lsls	r1, r1, #3
 8001c2a:	eb11 0c0c 	adds.w	ip, r1, ip
 8001c2e:	f143 0300 	adc.w	r3, r3, #0
 8001c32:	0259      	lsls	r1, r3, #9
 8001c34:	2300      	movs	r3, #0
 8001c36:	ea4f 204c 	mov.w	r0, ip, lsl #9
 8001c3a:	ea41 51dc 	orr.w	r1, r1, ip, lsr #23
 8001c3e:	f7fe fb3f 	bl	80002c0 <__aeabi_uldivmod>
      else
      {
        /* HSI used as PLL clock source */
        pllvco = (uint32_t) ((((uint64_t) HSI_VALUE * ((uint64_t) ((RCC->PLLCFGR & RCC_PLLCFGR_PLLN) >> RCC_PLLCFGR_PLLN_Pos)))) / (uint64_t)pllm);
      }
      pllp = ((((RCC->PLLCFGR & RCC_PLLCFGR_PLLP) >> RCC_PLLCFGR_PLLP_Pos) + 1U) *2U);
 8001c42:	4b18      	ldr	r3, [pc, #96]	; (8001ca4 <HAL_RCC_GetSysClockFreq+0xc8>)
 8001c44:	685b      	ldr	r3, [r3, #4]
 8001c46:	f3c3 4301 	ubfx	r3, r3, #16, #2
 8001c4a:	3301      	adds	r3, #1
 8001c4c:	005b      	lsls	r3, r3, #1

      sysclockfreq = pllvco/pllp;
 8001c4e:	fbb0 f0f3 	udiv	r0, r0, r3
      break;
 8001c52:	e025      	b.n	8001ca0 <HAL_RCC_GetSysClockFreq+0xc4>
        pllvco = (uint32_t) ((((uint64_t) HSI_VALUE * ((uint64_t) ((RCC->PLLCFGR & RCC_PLLCFGR_PLLN) >> RCC_PLLCFGR_PLLN_Pos)))) / (uint64_t)pllm);
 8001c54:	4b13      	ldr	r3, [pc, #76]	; (8001ca4 <HAL_RCC_GetSysClockFreq+0xc8>)
 8001c56:	6859      	ldr	r1, [r3, #4]
 8001c58:	f3c1 1c88 	ubfx	ip, r1, #6, #9
 8001c5c:	ea4f 114c 	mov.w	r1, ip, lsl #5
 8001c60:	ebb1 000c 	subs.w	r0, r1, ip
 8001c64:	eb6e 0e0e 	sbc.w	lr, lr, lr
 8001c68:	ea4f 138e 	mov.w	r3, lr, lsl #6
 8001c6c:	ea43 6390 	orr.w	r3, r3, r0, lsr #26
 8001c70:	0181      	lsls	r1, r0, #6
 8001c72:	1a09      	subs	r1, r1, r0
 8001c74:	eb63 030e 	sbc.w	r3, r3, lr
 8001c78:	00db      	lsls	r3, r3, #3
 8001c7a:	ea43 7351 	orr.w	r3, r3, r1, lsr #29
 8001c7e:	00c9      	lsls	r1, r1, #3
 8001c80:	eb11 0c0c 	adds.w	ip, r1, ip
 8001c84:	f143 0300 	adc.w	r3, r3, #0
 8001c88:	0299      	lsls	r1, r3, #10
 8001c8a:	2300      	movs	r3, #0
 8001c8c:	ea4f 208c 	mov.w	r0, ip, lsl #10
 8001c90:	ea41 519c 	orr.w	r1, r1, ip, lsr #22
 8001c94:	f7fe fb14 	bl	80002c0 <__aeabi_uldivmod>
 8001c98:	e7d3      	b.n	8001c42 <HAL_RCC_GetSysClockFreq+0x66>
      sysclockfreq = HSE_VALUE;
 8001c9a:	4803      	ldr	r0, [pc, #12]	; (8001ca8 <HAL_RCC_GetSysClockFreq+0xcc>)
 8001c9c:	e000      	b.n	8001ca0 <HAL_RCC_GetSysClockFreq+0xc4>
  switch (RCC->CFGR & RCC_CFGR_SWS)
 8001c9e:	4803      	ldr	r0, [pc, #12]	; (8001cac <HAL_RCC_GetSysClockFreq+0xd0>)
      sysclockfreq = HSI_VALUE;
      break;
    }
  }
  return sysclockfreq;
}
 8001ca0:	bd08      	pop	{r3, pc}
 8001ca2:	bf00      	nop
 8001ca4:	40023800 	andmi	r3, r2, r0, lsl #16
 8001ca8:	007a1200 	rsbseq	r1, sl, r0, lsl #4
 8001cac:	00f42400 	rscseq	r2, r4, r0, lsl #8

08001cb0 <HAL_RCC_ClockConfig>:
  if(RCC_ClkInitStruct == NULL)
 8001cb0:	2800      	cmp	r0, #0
 8001cb2:	f000 80f7 	beq.w	8001ea4 <HAL_RCC_ClockConfig+0x1f4>
{
 8001cb6:	b570      	push	{r4, r5, r6, lr}
 8001cb8:	460d      	mov	r5, r1
 8001cba:	4604      	mov	r4, r0
  assert_param(IS_RCC_CLOCKTYPE(RCC_ClkInitStruct->ClockType));
 8001cbc:	6803      	ldr	r3, [r0, #0]
 8001cbe:	3b01      	subs	r3, #1
 8001cc0:	2b0e      	cmp	r3, #14
 8001cc2:	d86b      	bhi.n	8001d9c <HAL_RCC_ClockConfig+0xec>
  assert_param(IS_FLASH_LATENCY(FLatency));
 8001cc4:	2d07      	cmp	r5, #7
 8001cc6:	d86f      	bhi.n	8001da8 <HAL_RCC_ClockConfig+0xf8>
  if(FLatency > __HAL_FLASH_GET_LATENCY())
 8001cc8:	4b7a      	ldr	r3, [pc, #488]	; (8001eb4 <HAL_RCC_ClockConfig+0x204>)
 8001cca:	681b      	ldr	r3, [r3, #0]
 8001ccc:	f003 0307 	and.w	r3, r3, #7
 8001cd0:	42ab      	cmp	r3, r5
 8001cd2:	d208      	bcs.n	8001ce6 <HAL_RCC_ClockConfig+0x36>
    __HAL_FLASH_SET_LATENCY(FLatency);
 8001cd4:	b2eb      	uxtb	r3, r5
 8001cd6:	4a77      	ldr	r2, [pc, #476]	; (8001eb4 <HAL_RCC_ClockConfig+0x204>)
 8001cd8:	7013      	strb	r3, [r2, #0]
    if(__HAL_FLASH_GET_LATENCY() != FLatency)
 8001cda:	6813      	ldr	r3, [r2, #0]
 8001cdc:	f003 0307 	and.w	r3, r3, #7
 8001ce0:	42ab      	cmp	r3, r5
 8001ce2:	f040 80e1 	bne.w	8001ea8 <HAL_RCC_ClockConfig+0x1f8>
  if(((RCC_ClkInitStruct->ClockType) & RCC_CLOCKTYPE_HCLK) == RCC_CLOCKTYPE_HCLK)
 8001ce6:	6823      	ldr	r3, [r4, #0]
 8001ce8:	f013 0f02 	tst.w	r3, #2
 8001cec:	d029      	beq.n	8001d42 <HAL_RCC_ClockConfig+0x92>
    if(((RCC_ClkInitStruct->ClockType) & RCC_CLOCKTYPE_PCLK1) == RCC_CLOCKTYPE_PCLK1)
 8001cee:	f013 0f04 	tst.w	r3, #4
 8001cf2:	d004      	beq.n	8001cfe <HAL_RCC_ClockConfig+0x4e>
      MODIFY_REG(RCC->CFGR, RCC_CFGR_PPRE1, RCC_HCLK_DIV16);
 8001cf4:	4a70      	ldr	r2, [pc, #448]	; (8001eb8 <HAL_RCC_ClockConfig+0x208>)
 8001cf6:	6893      	ldr	r3, [r2, #8]
 8001cf8:	f443 53e0 	orr.w	r3, r3, #7168	; 0x1c00
 8001cfc:	6093      	str	r3, [r2, #8]
    if(((RCC_ClkInitStruct->ClockType) & RCC_CLOCKTYPE_PCLK2) == RCC_CLOCKTYPE_PCLK2)
 8001cfe:	6823      	ldr	r3, [r4, #0]
 8001d00:	f013 0f08 	tst.w	r3, #8
 8001d04:	d004      	beq.n	8001d10 <HAL_RCC_ClockConfig+0x60>
      MODIFY_REG(RCC->CFGR, RCC_CFGR_PPRE2, (RCC_HCLK_DIV16 << 3));
 8001d06:	4a6c      	ldr	r2, [pc, #432]	; (8001eb8 <HAL_RCC_ClockConfig+0x208>)
 8001d08:	6893      	ldr	r3, [r2, #8]
 8001d0a:	f443 4360 	orr.w	r3, r3, #57344	; 0xe000
 8001d0e:	6093      	str	r3, [r2, #8]
    assert_param(IS_RCC_HCLK(RCC_ClkInitStruct->AHBCLKDivider));
 8001d10:	68a3      	ldr	r3, [r4, #8]
 8001d12:	b17b      	cbz	r3, 8001d34 <HAL_RCC_ClockConfig+0x84>
 8001d14:	2b80      	cmp	r3, #128	; 0x80
 8001d16:	d00d      	beq.n	8001d34 <HAL_RCC_ClockConfig+0x84>
 8001d18:	2b90      	cmp	r3, #144	; 0x90
 8001d1a:	d00b      	beq.n	8001d34 <HAL_RCC_ClockConfig+0x84>
 8001d1c:	2ba0      	cmp	r3, #160	; 0xa0
 8001d1e:	d009      	beq.n	8001d34 <HAL_RCC_ClockConfig+0x84>
 8001d20:	2bb0      	cmp	r3, #176	; 0xb0
 8001d22:	d007      	beq.n	8001d34 <HAL_RCC_ClockConfig+0x84>
 8001d24:	2bc0      	cmp	r3, #192	; 0xc0
 8001d26:	d005      	beq.n	8001d34 <HAL_RCC_ClockConfig+0x84>
 8001d28:	2bd0      	cmp	r3, #208	; 0xd0
 8001d2a:	d003      	beq.n	8001d34 <HAL_RCC_ClockConfig+0x84>
 8001d2c:	2be0      	cmp	r3, #224	; 0xe0
 8001d2e:	d001      	beq.n	8001d34 <HAL_RCC_ClockConfig+0x84>
 8001d30:	2bf0      	cmp	r3, #240	; 0xf0
 8001d32:	d13f      	bne.n	8001db4 <HAL_RCC_ClockConfig+0x104>
    MODIFY_REG(RCC->CFGR, RCC_CFGR_HPRE, RCC_ClkInitStruct->AHBCLKDivider);
 8001d34:	4a60      	ldr	r2, [pc, #384]	; (8001eb8 <HAL_RCC_ClockConfig+0x208>)
 8001d36:	6893      	ldr	r3, [r2, #8]
 8001d38:	f023 03f0 	bic.w	r3, r3, #240	; 0xf0
 8001d3c:	68a1      	ldr	r1, [r4, #8]
 8001d3e:	430b      	orrs	r3, r1
 8001d40:	6093      	str	r3, [r2, #8]
  if(((RCC_ClkInitStruct->ClockType) & RCC_CLOCKTYPE_SYSCLK) == RCC_CLOCKTYPE_SYSCLK)
 8001d42:	6823      	ldr	r3, [r4, #0]
 8001d44:	f013 0f01 	tst.w	r3, #1
 8001d48:	d04e      	beq.n	8001de8 <HAL_RCC_ClockConfig+0x138>
    assert_param(IS_RCC_SYSCLKSOURCE(RCC_ClkInitStruct->SYSCLKSource));
 8001d4a:	6863      	ldr	r3, [r4, #4]
 8001d4c:	2b03      	cmp	r3, #3
 8001d4e:	d837      	bhi.n	8001dc0 <HAL_RCC_ClockConfig+0x110>
    if(RCC_ClkInitStruct->SYSCLKSource == RCC_SYSCLKSOURCE_HSE)
 8001d50:	6863      	ldr	r3, [r4, #4]
 8001d52:	2b01      	cmp	r3, #1
 8001d54:	d03a      	beq.n	8001dcc <HAL_RCC_ClockConfig+0x11c>
    else if((RCC_ClkInitStruct->SYSCLKSource == RCC_SYSCLKSOURCE_PLLCLK)   ||
 8001d56:	1e9a      	subs	r2, r3, #2
 8001d58:	2a01      	cmp	r2, #1
 8001d5a:	d93e      	bls.n	8001dda <HAL_RCC_ClockConfig+0x12a>
      if(__HAL_RCC_GET_FLAG(RCC_FLAG_HSIRDY) == RESET)
 8001d5c:	4a56      	ldr	r2, [pc, #344]	; (8001eb8 <HAL_RCC_ClockConfig+0x208>)
 8001d5e:	6812      	ldr	r2, [r2, #0]
 8001d60:	f012 0f02 	tst.w	r2, #2
 8001d64:	f000 80a2 	beq.w	8001eac <HAL_RCC_ClockConfig+0x1fc>
    __HAL_RCC_SYSCLK_CONFIG(RCC_ClkInitStruct->SYSCLKSource);
 8001d68:	4953      	ldr	r1, [pc, #332]	; (8001eb8 <HAL_RCC_ClockConfig+0x208>)
 8001d6a:	688a      	ldr	r2, [r1, #8]
 8001d6c:	f022 0203 	bic.w	r2, r2, #3
 8001d70:	4313      	orrs	r3, r2
 8001d72:	608b      	str	r3, [r1, #8]
    tickstart = HAL_GetTick();
 8001d74:	f000 fb62 	bl	800243c <HAL_GetTick>
 8001d78:	4606      	mov	r6, r0
    while (__HAL_RCC_GET_SYSCLK_SOURCE() != (RCC_ClkInitStruct->SYSCLKSource << RCC_CFGR_SWS_Pos))
 8001d7a:	4b4f      	ldr	r3, [pc, #316]	; (8001eb8 <HAL_RCC_ClockConfig+0x208>)
 8001d7c:	689b      	ldr	r3, [r3, #8]
 8001d7e:	f003 030c 	and.w	r3, r3, #12
 8001d82:	6862      	ldr	r2, [r4, #4]
 8001d84:	ebb3 0f82 	cmp.w	r3, r2, lsl #2
 8001d88:	d02e      	beq.n	8001de8 <HAL_RCC_ClockConfig+0x138>
      if ((HAL_GetTick() - tickstart) > CLOCKSWITCH_TIMEOUT_VALUE)
 8001d8a:	f000 fb57 	bl	800243c <HAL_GetTick>
 8001d8e:	1b80      	subs	r0, r0, r6
 8001d90:	f241 3388 	movw	r3, #5000	; 0x1388
 8001d94:	4298      	cmp	r0, r3
 8001d96:	d9f0      	bls.n	8001d7a <HAL_RCC_ClockConfig+0xca>
        return HAL_TIMEOUT;
 8001d98:	2003      	movs	r0, #3
 8001d9a:	e076      	b.n	8001e8a <HAL_RCC_ClockConfig+0x1da>
  assert_param(IS_RCC_CLOCKTYPE(RCC_ClkInitStruct->ClockType));
 8001d9c:	f240 215a 	movw	r1, #602	; 0x25a
 8001da0:	4846      	ldr	r0, [pc, #280]	; (8001ebc <HAL_RCC_ClockConfig+0x20c>)
 8001da2:	f7fe fd1d 	bl	80007e0 <assert_failed>
 8001da6:	e78d      	b.n	8001cc4 <HAL_RCC_ClockConfig+0x14>
  assert_param(IS_FLASH_LATENCY(FLatency));
 8001da8:	f240 215b 	movw	r1, #603	; 0x25b
 8001dac:	4843      	ldr	r0, [pc, #268]	; (8001ebc <HAL_RCC_ClockConfig+0x20c>)
 8001dae:	f7fe fd17 	bl	80007e0 <assert_failed>
 8001db2:	e789      	b.n	8001cc8 <HAL_RCC_ClockConfig+0x18>
    assert_param(IS_RCC_HCLK(RCC_ClkInitStruct->AHBCLKDivider));
 8001db4:	f240 217e 	movw	r1, #638	; 0x27e
 8001db8:	4840      	ldr	r0, [pc, #256]	; (8001ebc <HAL_RCC_ClockConfig+0x20c>)
 8001dba:	f7fe fd11 	bl	80007e0 <assert_failed>
 8001dbe:	e7b9      	b.n	8001d34 <HAL_RCC_ClockConfig+0x84>
    assert_param(IS_RCC_SYSCLKSOURCE(RCC_ClkInitStruct->SYSCLKSource));
 8001dc0:	f240 2185 	movw	r1, #645	; 0x285
 8001dc4:	483d      	ldr	r0, [pc, #244]	; (8001ebc <HAL_RCC_ClockConfig+0x20c>)
 8001dc6:	f7fe fd0b 	bl	80007e0 <assert_failed>
 8001dca:	e7c1      	b.n	8001d50 <HAL_RCC_ClockConfig+0xa0>
      if(__HAL_RCC_GET_FLAG(RCC_FLAG_HSERDY) == RESET)
 8001dcc:	4a3a      	ldr	r2, [pc, #232]	; (8001eb8 <HAL_RCC_ClockConfig+0x208>)
 8001dce:	6812      	ldr	r2, [r2, #0]
 8001dd0:	f412 3f00 	tst.w	r2, #131072	; 0x20000
 8001dd4:	d1c8      	bne.n	8001d68 <HAL_RCC_ClockConfig+0xb8>
        return HAL_ERROR;
 8001dd6:	2001      	movs	r0, #1
 8001dd8:	e057      	b.n	8001e8a <HAL_RCC_ClockConfig+0x1da>
      if(__HAL_RCC_GET_FLAG(RCC_FLAG_PLLRDY) == RESET)
 8001dda:	4a37      	ldr	r2, [pc, #220]	; (8001eb8 <HAL_RCC_ClockConfig+0x208>)
 8001ddc:	6812      	ldr	r2, [r2, #0]
 8001dde:	f012 7f00 	tst.w	r2, #33554432	; 0x2000000
 8001de2:	d1c1      	bne.n	8001d68 <HAL_RCC_ClockConfig+0xb8>
        return HAL_ERROR;
 8001de4:	2001      	movs	r0, #1
 8001de6:	e050      	b.n	8001e8a <HAL_RCC_ClockConfig+0x1da>
  if(FLatency < __HAL_FLASH_GET_LATENCY())
 8001de8:	4b32      	ldr	r3, [pc, #200]	; (8001eb4 <HAL_RCC_ClockConfig+0x204>)
 8001dea:	681b      	ldr	r3, [r3, #0]
 8001dec:	f003 0307 	and.w	r3, r3, #7
 8001df0:	42ab      	cmp	r3, r5
 8001df2:	d907      	bls.n	8001e04 <HAL_RCC_ClockConfig+0x154>
    __HAL_FLASH_SET_LATENCY(FLatency);
 8001df4:	b2ea      	uxtb	r2, r5
 8001df6:	4b2f      	ldr	r3, [pc, #188]	; (8001eb4 <HAL_RCC_ClockConfig+0x204>)
 8001df8:	701a      	strb	r2, [r3, #0]
    if(__HAL_FLASH_GET_LATENCY() != FLatency)
 8001dfa:	681b      	ldr	r3, [r3, #0]
 8001dfc:	f003 0307 	and.w	r3, r3, #7
 8001e00:	42ab      	cmp	r3, r5
 8001e02:	d155      	bne.n	8001eb0 <HAL_RCC_ClockConfig+0x200>
  if(((RCC_ClkInitStruct->ClockType) & RCC_CLOCKTYPE_PCLK1) == RCC_CLOCKTYPE_PCLK1)
 8001e04:	6823      	ldr	r3, [r4, #0]
 8001e06:	f013 0f04 	tst.w	r3, #4
 8001e0a:	d014      	beq.n	8001e36 <HAL_RCC_ClockConfig+0x186>
    assert_param(IS_RCC_PCLK(RCC_ClkInitStruct->APB1CLKDivider));
 8001e0c:	68e3      	ldr	r3, [r4, #12]
 8001e0e:	b15b      	cbz	r3, 8001e28 <HAL_RCC_ClockConfig+0x178>
 8001e10:	f5b3 5f80 	cmp.w	r3, #4096	; 0x1000
 8001e14:	d008      	beq.n	8001e28 <HAL_RCC_ClockConfig+0x178>
 8001e16:	f5b3 5fa0 	cmp.w	r3, #5120	; 0x1400
 8001e1a:	d005      	beq.n	8001e28 <HAL_RCC_ClockConfig+0x178>
 8001e1c:	f5b3 5fc0 	cmp.w	r3, #6144	; 0x1800
 8001e20:	d002      	beq.n	8001e28 <HAL_RCC_ClockConfig+0x178>
 8001e22:	f5b3 5fe0 	cmp.w	r3, #7168	; 0x1c00
 8001e26:	d131      	bne.n	8001e8c <HAL_RCC_ClockConfig+0x1dc>
    MODIFY_REG(RCC->CFGR, RCC_CFGR_PPRE1, RCC_ClkInitStruct->APB1CLKDivider);
 8001e28:	4a23      	ldr	r2, [pc, #140]	; (8001eb8 <HAL_RCC_ClockConfig+0x208>)
 8001e2a:	6893      	ldr	r3, [r2, #8]
 8001e2c:	f423 53e0 	bic.w	r3, r3, #7168	; 0x1c00
 8001e30:	68e1      	ldr	r1, [r4, #12]
 8001e32:	430b      	orrs	r3, r1
 8001e34:	6093      	str	r3, [r2, #8]
  if(((RCC_ClkInitStruct->ClockType) & RCC_CLOCKTYPE_PCLK2) == RCC_CLOCKTYPE_PCLK2)
 8001e36:	6823      	ldr	r3, [r4, #0]
 8001e38:	f013 0f08 	tst.w	r3, #8
 8001e3c:	d015      	beq.n	8001e6a <HAL_RCC_ClockConfig+0x1ba>
    assert_param(IS_RCC_PCLK(RCC_ClkInitStruct->APB2CLKDivider));
 8001e3e:	6923      	ldr	r3, [r4, #16]
 8001e40:	b15b      	cbz	r3, 8001e5a <HAL_RCC_ClockConfig+0x1aa>
 8001e42:	f5b3 5f80 	cmp.w	r3, #4096	; 0x1000
 8001e46:	d008      	beq.n	8001e5a <HAL_RCC_ClockConfig+0x1aa>
 8001e48:	f5b3 5fa0 	cmp.w	r3, #5120	; 0x1400
 8001e4c:	d005      	beq.n	8001e5a <HAL_RCC_ClockConfig+0x1aa>
 8001e4e:	f5b3 5fc0 	cmp.w	r3, #6144	; 0x1800
 8001e52:	d002      	beq.n	8001e5a <HAL_RCC_ClockConfig+0x1aa>
 8001e54:	f5b3 5fe0 	cmp.w	r3, #7168	; 0x1c00
 8001e58:	d11e      	bne.n	8001e98 <HAL_RCC_ClockConfig+0x1e8>
    MODIFY_REG(RCC->CFGR, RCC_CFGR_PPRE2, ((RCC_ClkInitStruct->APB2CLKDivider) << 3U));
 8001e5a:	4a17      	ldr	r2, [pc, #92]	; (8001eb8 <HAL_RCC_ClockConfig+0x208>)
 8001e5c:	6893      	ldr	r3, [r2, #8]
 8001e5e:	f423 4360 	bic.w	r3, r3, #57344	; 0xe000
 8001e62:	6921      	ldr	r1, [r4, #16]
 8001e64:	ea43 03c1 	orr.w	r3, r3, r1, lsl #3
 8001e68:	6093      	str	r3, [r2, #8]
  SystemCoreClock = HAL_RCC_GetSysClockFreq() >> AHBPrescTable[(RCC->CFGR & RCC_CFGR_HPRE)>> RCC_CFGR_HPRE_Pos];
 8001e6a:	f7ff feb7 	bl	8001bdc <HAL_RCC_GetSysClockFreq>
 8001e6e:	4b12      	ldr	r3, [pc, #72]	; (8001eb8 <HAL_RCC_ClockConfig+0x208>)
 8001e70:	689b      	ldr	r3, [r3, #8]
 8001e72:	f3c3 1303 	ubfx	r3, r3, #4, #4
 8001e76:	4a12      	ldr	r2, [pc, #72]	; (8001ec0 <HAL_RCC_ClockConfig+0x210>)
 8001e78:	5cd3      	ldrb	r3, [r2, r3]
 8001e7a:	40d8      	lsrs	r0, r3
 8001e7c:	4b11      	ldr	r3, [pc, #68]	; (8001ec4 <HAL_RCC_ClockConfig+0x214>)
 8001e7e:	6018      	str	r0, [r3, #0]
  HAL_InitTick (uwTickPrio);
 8001e80:	4b11      	ldr	r3, [pc, #68]	; (8001ec8 <HAL_RCC_ClockConfig+0x218>)
 8001e82:	6818      	ldr	r0, [r3, #0]
 8001e84:	f7fe fd54 	bl	8000930 <HAL_InitTick>
  return HAL_OK;
 8001e88:	2000      	movs	r0, #0
}
 8001e8a:	bd70      	pop	{r4, r5, r6, pc}
    assert_param(IS_RCC_PCLK(RCC_ClkInitStruct->APB1CLKDivider));
 8001e8c:	f240 21c3 	movw	r1, #707	; 0x2c3
 8001e90:	480a      	ldr	r0, [pc, #40]	; (8001ebc <HAL_RCC_ClockConfig+0x20c>)
 8001e92:	f7fe fca5 	bl	80007e0 <assert_failed>
 8001e96:	e7c7      	b.n	8001e28 <HAL_RCC_ClockConfig+0x178>
    assert_param(IS_RCC_PCLK(RCC_ClkInitStruct->APB2CLKDivider));
 8001e98:	f240 21ca 	movw	r1, #714	; 0x2ca
 8001e9c:	4807      	ldr	r0, [pc, #28]	; (8001ebc <HAL_RCC_ClockConfig+0x20c>)
 8001e9e:	f7fe fc9f 	bl	80007e0 <assert_failed>
 8001ea2:	e7da      	b.n	8001e5a <HAL_RCC_ClockConfig+0x1aa>
    return HAL_ERROR;
 8001ea4:	2001      	movs	r0, #1
}
 8001ea6:	4770      	bx	lr
      return HAL_ERROR;
 8001ea8:	2001      	movs	r0, #1
 8001eaa:	e7ee      	b.n	8001e8a <HAL_RCC_ClockConfig+0x1da>
        return HAL_ERROR;
 8001eac:	2001      	movs	r0, #1
 8001eae:	e7ec      	b.n	8001e8a <HAL_RCC_ClockConfig+0x1da>
      return HAL_ERROR;
 8001eb0:	2001      	movs	r0, #1
 8001eb2:	e7ea      	b.n	8001e8a <HAL_RCC_ClockConfig+0x1da>
 8001eb4:	40023c00 	andmi	r3, r2, r0, lsl #24
 8001eb8:	40023800 	andmi	r3, r2, r0, lsl #16
 8001ebc:	08003b04 	stmdaeq	r0, {r2, r8, r9, fp, ip, sp}
 8001ec0:	08003bb4 	stmdaeq	r0, {r2, r4, r5, r7, r8, r9, fp, ip, sp}
 8001ec4:	20000008 	andcs	r0, r0, r8
 8001ec8:	20000004 	andcs	r0, r0, r4

08001ecc <HAL_RCC_GetHCLKFreq>:
  * @retval HCLK frequency
  */
uint32_t HAL_RCC_GetHCLKFreq(void)
{
  return SystemCoreClock;
}
 8001ecc:	4b01      	ldr	r3, [pc, #4]	; (8001ed4 <HAL_RCC_GetHCLKFreq+0x8>)
 8001ece:	6818      	ldr	r0, [r3, #0]
 8001ed0:	4770      	bx	lr
 8001ed2:	bf00      	nop
 8001ed4:	20000008 	andcs	r0, r0, r8

08001ed8 <HAL_RCC_GetPCLK1Freq>:
  * @note   Each time PCLK1 changes, this function must be called to update the
  *         right PCLK1 value. Otherwise, any configuration based on this function will be incorrect.
  * @retval PCLK1 frequency
  */
uint32_t HAL_RCC_GetPCLK1Freq(void)
{
 8001ed8:	b508      	push	{r3, lr}
  /* Get HCLK source and Compute PCLK1 frequency ---------------------------*/
  return (HAL_RCC_GetHCLKFreq() >> APBPrescTable[(RCC->CFGR & RCC_CFGR_PPRE1)>> RCC_CFGR_PPRE1_Pos]);
 8001eda:	f7ff fff7 	bl	8001ecc <HAL_RCC_GetHCLKFreq>
 8001ede:	4b04      	ldr	r3, [pc, #16]	; (8001ef0 <HAL_RCC_GetPCLK1Freq+0x18>)
 8001ee0:	689b      	ldr	r3, [r3, #8]
 8001ee2:	f3c3 2382 	ubfx	r3, r3, #10, #3
 8001ee6:	4a03      	ldr	r2, [pc, #12]	; (8001ef4 <HAL_RCC_GetPCLK1Freq+0x1c>)
 8001ee8:	5cd3      	ldrb	r3, [r2, r3]
}
 8001eea:	40d8      	lsrs	r0, r3
 8001eec:	bd08      	pop	{r3, pc}
 8001eee:	bf00      	nop
 8001ef0:	40023800 	andmi	r3, r2, r0, lsl #16
 8001ef4:	08003bc4 	stmdaeq	r0, {r2, r6, r7, r8, r9, fp, ip, sp}

08001ef8 <HAL_RCC_GetPCLK2Freq>:
  * @note   Each time PCLK2 changes, this function must be called to update the
  *         right PCLK2 value. Otherwise, any configuration based on this function will be incorrect.
  * @retval PCLK2 frequency
  */
uint32_t HAL_RCC_GetPCLK2Freq(void)
{
 8001ef8:	b508      	push	{r3, lr}
  /* Get HCLK source and Compute PCLK2 frequency ---------------------------*/
  return (HAL_RCC_GetHCLKFreq()>> APBPrescTable[(RCC->CFGR & RCC_CFGR_PPRE2)>> RCC_CFGR_PPRE2_Pos]);
 8001efa:	f7ff ffe7 	bl	8001ecc <HAL_RCC_GetHCLKFreq>
 8001efe:	4b04      	ldr	r3, [pc, #16]	; (8001f10 <HAL_RCC_GetPCLK2Freq+0x18>)
 8001f00:	689b      	ldr	r3, [r3, #8]
 8001f02:	f3c3 3342 	ubfx	r3, r3, #13, #3
 8001f06:	4a03      	ldr	r2, [pc, #12]	; (8001f14 <HAL_RCC_GetPCLK2Freq+0x1c>)
 8001f08:	5cd3      	ldrb	r3, [r2, r3]
}
 8001f0a:	40d8      	lsrs	r0, r3
 8001f0c:	bd08      	pop	{r3, pc}
 8001f0e:	bf00      	nop
 8001f10:	40023800 	andmi	r3, r2, r0, lsl #16
 8001f14:	08003bc4 	stmdaeq	r0, {r2, r6, r7, r8, r9, fp, ip, sp}

08001f18 <HAL_RCC_GetClockConfig>:
  * @retval None
  */
void HAL_RCC_GetClockConfig(RCC_ClkInitTypeDef  *RCC_ClkInitStruct, uint32_t *pFLatency)
{
  /* Set all possible values for the Clock type parameter --------------------*/
  RCC_ClkInitStruct->ClockType = RCC_CLOCKTYPE_SYSCLK | RCC_CLOCKTYPE_HCLK | RCC_CLOCKTYPE_PCLK1 | RCC_CLOCKTYPE_PCLK2;
 8001f18:	230f      	movs	r3, #15
 8001f1a:	6003      	str	r3, [r0, #0]

  /* Get the SYSCLK configuration --------------------------------------------*/
  RCC_ClkInitStruct->SYSCLKSource = (uint32_t)(RCC->CFGR & RCC_CFGR_SW);
 8001f1c:	4b0b      	ldr	r3, [pc, #44]	; (8001f4c <HAL_RCC_GetClockConfig+0x34>)
 8001f1e:	689a      	ldr	r2, [r3, #8]
 8001f20:	f002 0203 	and.w	r2, r2, #3
 8001f24:	6042      	str	r2, [r0, #4]

  /* Get the HCLK configuration ----------------------------------------------*/
  RCC_ClkInitStruct->AHBCLKDivider = (uint32_t)(RCC->CFGR & RCC_CFGR_HPRE);
 8001f26:	689a      	ldr	r2, [r3, #8]
 8001f28:	f002 02f0 	and.w	r2, r2, #240	; 0xf0
 8001f2c:	6082      	str	r2, [r0, #8]

  /* Get the APB1 configuration ----------------------------------------------*/
  RCC_ClkInitStruct->APB1CLKDivider = (uint32_t)(RCC->CFGR & RCC_CFGR_PPRE1);
 8001f2e:	689a      	ldr	r2, [r3, #8]
 8001f30:	f402 52e0 	and.w	r2, r2, #7168	; 0x1c00
 8001f34:	60c2      	str	r2, [r0, #12]

  /* Get the APB2 configuration ----------------------------------------------*/
  RCC_ClkInitStruct->APB2CLKDivider = (uint32_t)((RCC->CFGR & RCC_CFGR_PPRE2) >> 3U);
 8001f36:	689b      	ldr	r3, [r3, #8]
 8001f38:	08db      	lsrs	r3, r3, #3
 8001f3a:	f403 53e0 	and.w	r3, r3, #7168	; 0x1c00
 8001f3e:	6103      	str	r3, [r0, #16]

  /* Get the Flash Wait State (Latency) configuration ------------------------*/
  *pFLatency = (uint32_t)(FLASH->ACR & FLASH_ACR_LATENCY);
 8001f40:	4b03      	ldr	r3, [pc, #12]	; (8001f50 <HAL_RCC_GetClockConfig+0x38>)
 8001f42:	681b      	ldr	r3, [r3, #0]
 8001f44:	f003 0307 	and.w	r3, r3, #7
 8001f48:	600b      	str	r3, [r1, #0]
}
 8001f4a:	4770      	bx	lr
 8001f4c:	40023800 	andmi	r3, r2, r0, lsl #16
 8001f50:	40023c00 	andmi	r3, r2, r0, lsl #24

08001f54 <HAL_GPIO_Init>:
  * @param  GPIO_Init pointer to a GPIO_InitTypeDef structure that contains
  *         the configuration information for the specified GPIO peripheral.
  * @retval None
  */
void HAL_GPIO_Init(GPIO_TypeDef  *GPIOx, GPIO_InitTypeDef *GPIO_Init)
{
 8001f54:	e92d 41f0 	stmdb	sp!, {r4, r5, r6, r7, r8, lr}
 8001f58:	b082      	sub	sp, #8
 8001f5a:	4607      	mov	r7, r0
 8001f5c:	460e      	mov	r6, r1
  uint32_t ioposition = 0x00U;
  uint32_t iocurrent = 0x00U;
  uint32_t temp = 0x00U;

  /* Check the parameters */
  assert_param(IS_GPIO_ALL_INSTANCE(GPIOx));
 8001f5e:	4b54      	ldr	r3, [pc, #336]	; (80020b0 <HAL_GPIO_Init+0x15c>)
 8001f60:	4298      	cmp	r0, r3
 8001f62:	d023      	beq.n	8001fac <HAL_GPIO_Init+0x58>
 8001f64:	f503 6380 	add.w	r3, r3, #1024	; 0x400
 8001f68:	4298      	cmp	r0, r3
 8001f6a:	d01f      	beq.n	8001fac <HAL_GPIO_Init+0x58>
 8001f6c:	f503 6380 	add.w	r3, r3, #1024	; 0x400
 8001f70:	4298      	cmp	r0, r3
 8001f72:	d01b      	beq.n	8001fac <HAL_GPIO_Init+0x58>
 8001f74:	f503 6380 	add.w	r3, r3, #1024	; 0x400
 8001f78:	4298      	cmp	r0, r3
 8001f7a:	d017      	beq.n	8001fac <HAL_GPIO_Init+0x58>
 8001f7c:	f503 6380 	add.w	r3, r3, #1024	; 0x400
 8001f80:	4298      	cmp	r0, r3
 8001f82:	d013      	beq.n	8001fac <HAL_GPIO_Init+0x58>
 8001f84:	f503 6380 	add.w	r3, r3, #1024	; 0x400
 8001f88:	4298      	cmp	r0, r3
 8001f8a:	d00f      	beq.n	8001fac <HAL_GPIO_Init+0x58>
 8001f8c:	f503 6380 	add.w	r3, r3, #1024	; 0x400
 8001f90:	4298      	cmp	r0, r3
 8001f92:	d00b      	beq.n	8001fac <HAL_GPIO_Init+0x58>
 8001f94:	f503 6380 	add.w	r3, r3, #1024	; 0x400
 8001f98:	4298      	cmp	r0, r3
 8001f9a:	d007      	beq.n	8001fac <HAL_GPIO_Init+0x58>
 8001f9c:	f503 6380 	add.w	r3, r3, #1024	; 0x400
 8001fa0:	4298      	cmp	r0, r3
 8001fa2:	d003      	beq.n	8001fac <HAL_GPIO_Init+0x58>
 8001fa4:	21ac      	movs	r1, #172	; 0xac
 8001fa6:	4843      	ldr	r0, [pc, #268]	; (80020b4 <HAL_GPIO_Init+0x160>)
 8001fa8:	f7fe fc1a 	bl	80007e0 <assert_failed>
  assert_param(IS_GPIO_PIN(GPIO_Init->Pin));
 8001fac:	6833      	ldr	r3, [r6, #0]
 8001fae:	b29a      	uxth	r2, r3
 8001fb0:	b112      	cbz	r2, 8001fb8 <HAL_GPIO_Init+0x64>
 8001fb2:	0c1b      	lsrs	r3, r3, #16
 8001fb4:	041b      	lsls	r3, r3, #16
 8001fb6:	b11b      	cbz	r3, 8001fc0 <HAL_GPIO_Init+0x6c>
 8001fb8:	21ad      	movs	r1, #173	; 0xad
 8001fba:	483e      	ldr	r0, [pc, #248]	; (80020b4 <HAL_GPIO_Init+0x160>)
 8001fbc:	f7fe fc10 	bl	80007e0 <assert_failed>
  assert_param(IS_GPIO_MODE(GPIO_Init->Mode));
 8001fc0:	6873      	ldr	r3, [r6, #4]
 8001fc2:	2b01      	cmp	r3, #1
 8001fc4:	d919      	bls.n	8001ffa <HAL_GPIO_Init+0xa6>
 8001fc6:	2b11      	cmp	r3, #17
 8001fc8:	d017      	beq.n	8001ffa <HAL_GPIO_Init+0xa6>
 8001fca:	2b02      	cmp	r3, #2
 8001fcc:	d015      	beq.n	8001ffa <HAL_GPIO_Init+0xa6>
 8001fce:	2b12      	cmp	r3, #18
 8001fd0:	d013      	beq.n	8001ffa <HAL_GPIO_Init+0xa6>
 8001fd2:	f5b3 1f88 	cmp.w	r3, #1114112	; 0x110000
 8001fd6:	d010      	beq.n	8001ffa <HAL_GPIO_Init+0xa6>
 8001fd8:	f5b3 1f04 	cmp.w	r3, #2162688	; 0x210000
 8001fdc:	d00d      	beq.n	8001ffa <HAL_GPIO_Init+0xa6>
 8001fde:	f5b3 1f44 	cmp.w	r3, #3211264	; 0x310000
 8001fe2:	d00a      	beq.n	8001ffa <HAL_GPIO_Init+0xa6>
 8001fe4:	f5b3 1f90 	cmp.w	r3, #1179648	; 0x120000
 8001fe8:	d007      	beq.n	8001ffa <HAL_GPIO_Init+0xa6>
 8001fea:	f5b3 1f08 	cmp.w	r3, #2228224	; 0x220000
 8001fee:	d004      	beq.n	8001ffa <HAL_GPIO_Init+0xa6>
 8001ff0:	f5b3 1f48 	cmp.w	r3, #3276800	; 0x320000
 8001ff4:	d001      	beq.n	8001ffa <HAL_GPIO_Init+0xa6>
 8001ff6:	2b03      	cmp	r3, #3
 8001ff8:	d101      	bne.n	8001ffe <HAL_GPIO_Init+0xaa>
        /* Enable SYSCFG Clock */
        __HAL_RCC_SYSCFG_CLK_ENABLE();

        temp = SYSCFG->EXTICR[position >> 2U];
        temp &= ~(0x0FU << (4U * (position & 0x03U)));
        temp |= ((uint32_t)(GPIO_GET_INDEX(GPIOx)) << (4U * (position & 0x03U)));
 8001ffa:	2400      	movs	r4, #0
 8001ffc:	e092      	b.n	8002124 <HAL_GPIO_Init+0x1d0>
  assert_param(IS_GPIO_MODE(GPIO_Init->Mode));
 8001ffe:	21ae      	movs	r1, #174	; 0xae
 8002000:	482c      	ldr	r0, [pc, #176]	; (80020b4 <HAL_GPIO_Init+0x160>)
 8002002:	f7fe fbed 	bl	80007e0 <assert_failed>
 8002006:	e7f8      	b.n	8001ffa <HAL_GPIO_Init+0xa6>
        assert_param(IS_GPIO_SPEED(GPIO_Init->Speed));
 8002008:	68f3      	ldr	r3, [r6, #12]
 800200a:	2b03      	cmp	r3, #3
 800200c:	d813      	bhi.n	8002036 <HAL_GPIO_Init+0xe2>
        temp = GPIOx->OSPEEDR; 
 800200e:	68ba      	ldr	r2, [r7, #8]
        temp &= ~(GPIO_OSPEEDER_OSPEEDR0 << (position * 2U));
 8002010:	0061      	lsls	r1, r4, #1
 8002012:	2303      	movs	r3, #3
 8002014:	408b      	lsls	r3, r1
 8002016:	ea22 0203 	bic.w	r2, r2, r3
        temp |= (GPIO_Init->Speed << (position * 2U));
 800201a:	68f3      	ldr	r3, [r6, #12]
 800201c:	408b      	lsls	r3, r1
 800201e:	4313      	orrs	r3, r2
        GPIOx->OSPEEDR = temp;
 8002020:	60bb      	str	r3, [r7, #8]
        temp = GPIOx->OTYPER;
 8002022:	687a      	ldr	r2, [r7, #4]
        temp &= ~(GPIO_OTYPER_OT_0 << position) ;
 8002024:	ea22 0205 	bic.w	r2, r2, r5
        temp |= (((GPIO_Init->Mode & OUTPUT_TYPE) >> OUTPUT_TYPE_Pos) << position);
 8002028:	6873      	ldr	r3, [r6, #4]
 800202a:	f3c3 1500 	ubfx	r5, r3, #4, #1
 800202e:	40a5      	lsls	r5, r4
 8002030:	4315      	orrs	r5, r2
        GPIOx->OTYPER = temp;
 8002032:	607d      	str	r5, [r7, #4]
 8002034:	e087      	b.n	8002146 <HAL_GPIO_Init+0x1f2>
        assert_param(IS_GPIO_SPEED(GPIO_Init->Speed));
 8002036:	21c0      	movs	r1, #192	; 0xc0
 8002038:	481e      	ldr	r0, [pc, #120]	; (80020b4 <HAL_GPIO_Init+0x160>)
 800203a:	f7fe fbd1 	bl	80007e0 <assert_failed>
 800203e:	e7e6      	b.n	800200e <HAL_GPIO_Init+0xba>
        assert_param(IS_GPIO_PULL(GPIO_Init->Pull));
 8002040:	21d1      	movs	r1, #209	; 0xd1
 8002042:	481c      	ldr	r0, [pc, #112]	; (80020b4 <HAL_GPIO_Init+0x160>)
 8002044:	f7fe fbcc 	bl	80007e0 <assert_failed>
 8002048:	e086      	b.n	8002158 <HAL_GPIO_Init+0x204>
        assert_param(IS_GPIO_AF(GPIO_Init->Alternate));
 800204a:	6933      	ldr	r3, [r6, #16]
 800204c:	b1bb      	cbz	r3, 800207e <HAL_GPIO_Init+0x12a>
 800204e:	2b09      	cmp	r3, #9
 8002050:	d015      	beq.n	800207e <HAL_GPIO_Init+0x12a>
 8002052:	2b01      	cmp	r3, #1
 8002054:	d013      	beq.n	800207e <HAL_GPIO_Init+0x12a>
 8002056:	2b02      	cmp	r3, #2
 8002058:	d011      	beq.n	800207e <HAL_GPIO_Init+0x12a>
 800205a:	2b03      	cmp	r3, #3
 800205c:	d00f      	beq.n	800207e <HAL_GPIO_Init+0x12a>
 800205e:	2b04      	cmp	r3, #4
 8002060:	d00d      	beq.n	800207e <HAL_GPIO_Init+0x12a>
 8002062:	2b05      	cmp	r3, #5
 8002064:	d00b      	beq.n	800207e <HAL_GPIO_Init+0x12a>
 8002066:	2b06      	cmp	r3, #6
 8002068:	d009      	beq.n	800207e <HAL_GPIO_Init+0x12a>
 800206a:	2b07      	cmp	r3, #7
 800206c:	d007      	beq.n	800207e <HAL_GPIO_Init+0x12a>
 800206e:	2b08      	cmp	r3, #8
 8002070:	d005      	beq.n	800207e <HAL_GPIO_Init+0x12a>
 8002072:	2b0a      	cmp	r3, #10
 8002074:	d003      	beq.n	800207e <HAL_GPIO_Init+0x12a>
 8002076:	2b0c      	cmp	r3, #12
 8002078:	d001      	beq.n	800207e <HAL_GPIO_Init+0x12a>
 800207a:	2b0f      	cmp	r3, #15
 800207c:	d110      	bne.n	80020a0 <HAL_GPIO_Init+0x14c>
        temp = GPIOx->AFR[position >> 3U];
 800207e:	08e2      	lsrs	r2, r4, #3
 8002080:	3208      	adds	r2, #8
 8002082:	f857 0022 	ldr.w	r0, [r7, r2, lsl #2]
        temp &= ~(0xFU << ((uint32_t)(position & 0x07U) * 4U)) ;
 8002086:	f004 0307 	and.w	r3, r4, #7
 800208a:	0099      	lsls	r1, r3, #2
 800208c:	230f      	movs	r3, #15
 800208e:	408b      	lsls	r3, r1
 8002090:	ea20 0003 	bic.w	r0, r0, r3
        temp |= ((uint32_t)(GPIO_Init->Alternate) << (((uint32_t)position & 0x07U) * 4U));
 8002094:	6933      	ldr	r3, [r6, #16]
 8002096:	408b      	lsls	r3, r1
 8002098:	4303      	orrs	r3, r0
        GPIOx->AFR[position >> 3U] = temp;
 800209a:	f847 3022 	str.w	r3, [r7, r2, lsl #2]
 800209e:	e06b      	b.n	8002178 <HAL_GPIO_Init+0x224>
        assert_param(IS_GPIO_AF(GPIO_Init->Alternate));
 80020a0:	21de      	movs	r1, #222	; 0xde
 80020a2:	4804      	ldr	r0, [pc, #16]	; (80020b4 <HAL_GPIO_Init+0x160>)
 80020a4:	f7fe fb9c 	bl	80007e0 <assert_failed>
 80020a8:	e7e9      	b.n	800207e <HAL_GPIO_Init+0x12a>
        temp |= ((uint32_t)(GPIO_GET_INDEX(GPIOx)) << (4U * (position & 0x03U)));
 80020aa:	2307      	movs	r3, #7
 80020ac:	e005      	b.n	80020ba <HAL_GPIO_Init+0x166>
 80020ae:	bf00      	nop
 80020b0:	40020000 	andmi	r0, r2, r0
 80020b4:	08003b3c 	stmdaeq	r0, {r2, r3, r4, r5, r8, r9, fp, ip, sp}
 80020b8:	2300      	movs	r3, #0
 80020ba:	408b      	lsls	r3, r1
 80020bc:	4303      	orrs	r3, r0
        SYSCFG->EXTICR[position >> 2U] = temp;
 80020be:	3202      	adds	r2, #2
 80020c0:	495a      	ldr	r1, [pc, #360]	; (800222c <HAL_GPIO_Init+0x2d8>)
 80020c2:	f841 3022 	str.w	r3, [r1, r2, lsl #2]

        /* Clear Rising Falling edge configuration */
        temp = EXTI->RTSR;
 80020c6:	4b5a      	ldr	r3, [pc, #360]	; (8002230 <HAL_GPIO_Init+0x2dc>)
 80020c8:	689a      	ldr	r2, [r3, #8]
        temp &= ~((uint32_t)iocurrent);
 80020ca:	ea6f 0308 	mvn.w	r3, r8
 80020ce:	ea22 0108 	bic.w	r1, r2, r8
        if((GPIO_Init->Mode & TRIGGER_RISING) != 0x00U)
 80020d2:	6870      	ldr	r0, [r6, #4]
 80020d4:	f410 1f80 	tst.w	r0, #1048576	; 0x100000
 80020d8:	d001      	beq.n	80020de <HAL_GPIO_Init+0x18a>
        {
          temp |= iocurrent;
 80020da:	ea48 0102 	orr.w	r1, r8, r2
        }
        EXTI->RTSR = temp;
 80020de:	4a54      	ldr	r2, [pc, #336]	; (8002230 <HAL_GPIO_Init+0x2dc>)
 80020e0:	6091      	str	r1, [r2, #8]

        temp = EXTI->FTSR;
 80020e2:	68d2      	ldr	r2, [r2, #12]
        temp &= ~((uint32_t)iocurrent);
 80020e4:	ea03 0102 	and.w	r1, r3, r2
        if((GPIO_Init->Mode & TRIGGER_FALLING) != 0x00U)
 80020e8:	6870      	ldr	r0, [r6, #4]
 80020ea:	f410 1f00 	tst.w	r0, #2097152	; 0x200000
 80020ee:	d001      	beq.n	80020f4 <HAL_GPIO_Init+0x1a0>
        {
          temp |= iocurrent;
 80020f0:	ea48 0102 	orr.w	r1, r8, r2
        }
        EXTI->FTSR = temp;
 80020f4:	4a4e      	ldr	r2, [pc, #312]	; (8002230 <HAL_GPIO_Init+0x2dc>)
 80020f6:	60d1      	str	r1, [r2, #12]

        temp = EXTI->EMR;
 80020f8:	6852      	ldr	r2, [r2, #4]
        temp &= ~((uint32_t)iocurrent);
 80020fa:	ea03 0102 	and.w	r1, r3, r2
        if((GPIO_Init->Mode & EXTI_EVT) != 0x00U)
 80020fe:	6870      	ldr	r0, [r6, #4]
 8002100:	f410 3f00 	tst.w	r0, #131072	; 0x20000
 8002104:	d001      	beq.n	800210a <HAL_GPIO_Init+0x1b6>
        {
          temp |= iocurrent;
 8002106:	ea48 0102 	orr.w	r1, r8, r2
        }
        EXTI->EMR = temp;
 800210a:	4a49      	ldr	r2, [pc, #292]	; (8002230 <HAL_GPIO_Init+0x2dc>)
 800210c:	6051      	str	r1, [r2, #4]

        /* Clear EXTI line configuration */
        temp = EXTI->IMR;
 800210e:	6812      	ldr	r2, [r2, #0]
        temp &= ~((uint32_t)iocurrent);
 8002110:	4013      	ands	r3, r2
        if((GPIO_Init->Mode & EXTI_IT) != 0x00U)
 8002112:	6871      	ldr	r1, [r6, #4]
 8002114:	f411 3f80 	tst.w	r1, #65536	; 0x10000
 8002118:	d001      	beq.n	800211e <HAL_GPIO_Init+0x1ca>
        {
          temp |= iocurrent;
 800211a:	ea48 0302 	orr.w	r3, r8, r2
        }
        EXTI->IMR = temp;
 800211e:	4a44      	ldr	r2, [pc, #272]	; (8002230 <HAL_GPIO_Init+0x2dc>)
 8002120:	6013      	str	r3, [r2, #0]
  for(position = 0U; position < GPIO_NUMBER; position++)
 8002122:	3401      	adds	r4, #1
 8002124:	2c0f      	cmp	r4, #15
 8002126:	d87e      	bhi.n	8002226 <HAL_GPIO_Init+0x2d2>
    ioposition = 0x01U << position;
 8002128:	2501      	movs	r5, #1
 800212a:	40a5      	lsls	r5, r4
    iocurrent = (uint32_t)(GPIO_Init->Pin) & ioposition;
 800212c:	6833      	ldr	r3, [r6, #0]
 800212e:	ea03 0805 	and.w	r8, r3, r5
    if(iocurrent == ioposition)
 8002132:	ea35 0303 	bics.w	r3, r5, r3
 8002136:	d1f4      	bne.n	8002122 <HAL_GPIO_Init+0x1ce>
      if(((GPIO_Init->Mode & GPIO_MODE) == MODE_OUTPUT) || \
 8002138:	6873      	ldr	r3, [r6, #4]
 800213a:	f003 0303 	and.w	r3, r3, #3
 800213e:	3b01      	subs	r3, #1
 8002140:	2b01      	cmp	r3, #1
 8002142:	f67f af61 	bls.w	8002008 <HAL_GPIO_Init+0xb4>
      if((GPIO_Init->Mode & GPIO_MODE) != MODE_ANALOG)
 8002146:	6873      	ldr	r3, [r6, #4]
 8002148:	f003 0303 	and.w	r3, r3, #3
 800214c:	2b03      	cmp	r3, #3
 800214e:	d00d      	beq.n	800216c <HAL_GPIO_Init+0x218>
        assert_param(IS_GPIO_PULL(GPIO_Init->Pull));
 8002150:	68b3      	ldr	r3, [r6, #8]
 8002152:	2b02      	cmp	r3, #2
 8002154:	f63f af74 	bhi.w	8002040 <HAL_GPIO_Init+0xec>
        temp = GPIOx->PUPDR;
 8002158:	68fa      	ldr	r2, [r7, #12]
        temp &= ~(GPIO_PUPDR_PUPDR0 << (position * 2U));
 800215a:	0061      	lsls	r1, r4, #1
 800215c:	2303      	movs	r3, #3
 800215e:	408b      	lsls	r3, r1
 8002160:	ea22 0203 	bic.w	r2, r2, r3
        temp |= ((GPIO_Init->Pull) << (position * 2U));
 8002164:	68b3      	ldr	r3, [r6, #8]
 8002166:	408b      	lsls	r3, r1
 8002168:	4313      	orrs	r3, r2
        GPIOx->PUPDR = temp;
 800216a:	60fb      	str	r3, [r7, #12]
      if((GPIO_Init->Mode & GPIO_MODE) == MODE_AF)
 800216c:	6873      	ldr	r3, [r6, #4]
 800216e:	f003 0303 	and.w	r3, r3, #3
 8002172:	2b02      	cmp	r3, #2
 8002174:	f43f af69 	beq.w	800204a <HAL_GPIO_Init+0xf6>
      temp = GPIOx->MODER;
 8002178:	683a      	ldr	r2, [r7, #0]
      temp &= ~(GPIO_MODER_MODER0 << (position * 2U));
 800217a:	0061      	lsls	r1, r4, #1
 800217c:	2303      	movs	r3, #3
 800217e:	408b      	lsls	r3, r1
 8002180:	ea22 0203 	bic.w	r2, r2, r3
      temp |= ((GPIO_Init->Mode & GPIO_MODE) << (position * 2U));
 8002184:	6873      	ldr	r3, [r6, #4]
 8002186:	f003 0303 	and.w	r3, r3, #3
 800218a:	408b      	lsls	r3, r1
 800218c:	4313      	orrs	r3, r2
      GPIOx->MODER = temp;
 800218e:	603b      	str	r3, [r7, #0]
      if((GPIO_Init->Mode & EXTI_MODE) != 0x00U)
 8002190:	6873      	ldr	r3, [r6, #4]
 8002192:	f413 3f40 	tst.w	r3, #196608	; 0x30000
 8002196:	d0c4      	beq.n	8002122 <HAL_GPIO_Init+0x1ce>
        __HAL_RCC_SYSCFG_CLK_ENABLE();
 8002198:	2300      	movs	r3, #0
 800219a:	9301      	str	r3, [sp, #4]
 800219c:	4b25      	ldr	r3, [pc, #148]	; (8002234 <HAL_GPIO_Init+0x2e0>)
 800219e:	6c5a      	ldr	r2, [r3, #68]	; 0x44
 80021a0:	f442 4280 	orr.w	r2, r2, #16384	; 0x4000
 80021a4:	645a      	str	r2, [r3, #68]	; 0x44
 80021a6:	6c5b      	ldr	r3, [r3, #68]	; 0x44
 80021a8:	f403 4380 	and.w	r3, r3, #16384	; 0x4000
 80021ac:	9301      	str	r3, [sp, #4]
 80021ae:	9b01      	ldr	r3, [sp, #4]
        temp = SYSCFG->EXTICR[position >> 2U];
 80021b0:	08a2      	lsrs	r2, r4, #2
 80021b2:	1c91      	adds	r1, r2, #2
 80021b4:	4b1d      	ldr	r3, [pc, #116]	; (800222c <HAL_GPIO_Init+0x2d8>)
 80021b6:	f853 0021 	ldr.w	r0, [r3, r1, lsl #2]
        temp &= ~(0x0FU << (4U * (position & 0x03U)));
 80021ba:	f004 0303 	and.w	r3, r4, #3
 80021be:	0099      	lsls	r1, r3, #2
 80021c0:	230f      	movs	r3, #15
 80021c2:	408b      	lsls	r3, r1
 80021c4:	ea20 0003 	bic.w	r0, r0, r3
        temp |= ((uint32_t)(GPIO_GET_INDEX(GPIOx)) << (4U * (position & 0x03U)));
 80021c8:	4b1b      	ldr	r3, [pc, #108]	; (8002238 <HAL_GPIO_Init+0x2e4>)
 80021ca:	429f      	cmp	r7, r3
 80021cc:	f43f af74 	beq.w	80020b8 <HAL_GPIO_Init+0x164>
 80021d0:	f503 6380 	add.w	r3, r3, #1024	; 0x400
 80021d4:	429f      	cmp	r7, r3
 80021d6:	d01a      	beq.n	800220e <HAL_GPIO_Init+0x2ba>
 80021d8:	f503 6380 	add.w	r3, r3, #1024	; 0x400
 80021dc:	429f      	cmp	r7, r3
 80021de:	d018      	beq.n	8002212 <HAL_GPIO_Init+0x2be>
 80021e0:	f503 6380 	add.w	r3, r3, #1024	; 0x400
 80021e4:	429f      	cmp	r7, r3
 80021e6:	d016      	beq.n	8002216 <HAL_GPIO_Init+0x2c2>
 80021e8:	f503 6380 	add.w	r3, r3, #1024	; 0x400
 80021ec:	429f      	cmp	r7, r3
 80021ee:	d014      	beq.n	800221a <HAL_GPIO_Init+0x2c6>
 80021f0:	f503 6380 	add.w	r3, r3, #1024	; 0x400
 80021f4:	429f      	cmp	r7, r3
 80021f6:	d012      	beq.n	800221e <HAL_GPIO_Init+0x2ca>
 80021f8:	f503 6380 	add.w	r3, r3, #1024	; 0x400
 80021fc:	429f      	cmp	r7, r3
 80021fe:	d010      	beq.n	8002222 <HAL_GPIO_Init+0x2ce>
 8002200:	f503 6380 	add.w	r3, r3, #1024	; 0x400
 8002204:	429f      	cmp	r7, r3
 8002206:	f43f af50 	beq.w	80020aa <HAL_GPIO_Init+0x156>
 800220a:	2308      	movs	r3, #8
 800220c:	e755      	b.n	80020ba <HAL_GPIO_Init+0x166>
 800220e:	2301      	movs	r3, #1
 8002210:	e753      	b.n	80020ba <HAL_GPIO_Init+0x166>
 8002212:	2302      	movs	r3, #2
 8002214:	e751      	b.n	80020ba <HAL_GPIO_Init+0x166>
 8002216:	2303      	movs	r3, #3
 8002218:	e74f      	b.n	80020ba <HAL_GPIO_Init+0x166>
 800221a:	2304      	movs	r3, #4
 800221c:	e74d      	b.n	80020ba <HAL_GPIO_Init+0x166>
 800221e:	2305      	movs	r3, #5
 8002220:	e74b      	b.n	80020ba <HAL_GPIO_Init+0x166>
 8002222:	2306      	movs	r3, #6
 8002224:	e749      	b.n	80020ba <HAL_GPIO_Init+0x166>
      }
    }
  }
}
 8002226:	b002      	add	sp, #8
 8002228:	e8bd 81f0 	ldmia.w	sp!, {r4, r5, r6, r7, r8, pc}
 800222c:	40013800 	andmi	r3, r1, r0, lsl #16
 8002230:	40013c00 	andmi	r3, r1, r0, lsl #24
 8002234:	40023800 	andmi	r3, r2, r0, lsl #16
 8002238:	40020000 	andmi	r0, r2, r0

0800223c <HAL_DMA_Abort>:
  *        and the Stream will be effectively disabled only after the transfer of
  *        this single data is finished.  
  * @retval HAL status
  */
HAL_StatusTypeDef HAL_DMA_Abort(DMA_HandleTypeDef *hdma)
{
 800223c:	b570      	push	{r4, r5, r6, lr}
 800223e:	4604      	mov	r4, r0
  /* calculate DMA base and stream number */
  DMA_Base_Registers *regs = (DMA_Base_Registers *)hdma->StreamBaseAddress;
 8002240:	6d86      	ldr	r6, [r0, #88]	; 0x58
  
  uint32_t tickstart = HAL_GetTick();
 8002242:	f000 f8fb 	bl	800243c <HAL_GetTick>
  
  if(hdma->State != HAL_DMA_STATE_BUSY)
 8002246:	f894 3035 	ldrb.w	r3, [r4, #53]	; 0x35
 800224a:	b2db      	uxtb	r3, r3
 800224c:	2b02      	cmp	r3, #2
 800224e:	d006      	beq.n	800225e <HAL_DMA_Abort+0x22>
  {
    hdma->ErrorCode = HAL_DMA_ERROR_NO_XFER;
 8002250:	2380      	movs	r3, #128	; 0x80
 8002252:	6563      	str	r3, [r4, #84]	; 0x54
    
    /* Process Unlocked */
    __HAL_UNLOCK(hdma);
 8002254:	2300      	movs	r3, #0
 8002256:	f884 3034 	strb.w	r3, [r4, #52]	; 0x34
    
    return HAL_ERROR;
 800225a:	2001      	movs	r0, #1
    
    /* Process Unlocked */
    __HAL_UNLOCK(hdma);
  }
  return HAL_OK;
}
 800225c:	bd70      	pop	{r4, r5, r6, pc}
 800225e:	4605      	mov	r5, r0
    hdma->Instance->CR  &= ~(DMA_IT_TC | DMA_IT_TE | DMA_IT_DME);
 8002260:	6822      	ldr	r2, [r4, #0]
 8002262:	6813      	ldr	r3, [r2, #0]
 8002264:	f023 0316 	bic.w	r3, r3, #22
 8002268:	6013      	str	r3, [r2, #0]
    hdma->Instance->FCR &= ~(DMA_IT_FE);
 800226a:	6822      	ldr	r2, [r4, #0]
 800226c:	6953      	ldr	r3, [r2, #20]
 800226e:	f023 0380 	bic.w	r3, r3, #128	; 0x80
 8002272:	6153      	str	r3, [r2, #20]
    if((hdma->XferHalfCpltCallback != NULL) || (hdma->XferM1HalfCpltCallback != NULL))
 8002274:	6c23      	ldr	r3, [r4, #64]	; 0x40
 8002276:	b1e3      	cbz	r3, 80022b2 <HAL_DMA_Abort+0x76>
      hdma->Instance->CR  &= ~(DMA_IT_HT);
 8002278:	6822      	ldr	r2, [r4, #0]
 800227a:	6813      	ldr	r3, [r2, #0]
 800227c:	f023 0308 	bic.w	r3, r3, #8
 8002280:	6013      	str	r3, [r2, #0]
    __HAL_DMA_DISABLE(hdma);
 8002282:	6822      	ldr	r2, [r4, #0]
 8002284:	6813      	ldr	r3, [r2, #0]
 8002286:	f023 0301 	bic.w	r3, r3, #1
 800228a:	6013      	str	r3, [r2, #0]
    while((hdma->Instance->CR & DMA_SxCR_EN) != RESET)
 800228c:	6823      	ldr	r3, [r4, #0]
 800228e:	681b      	ldr	r3, [r3, #0]
 8002290:	f013 0f01 	tst.w	r3, #1
 8002294:	d011      	beq.n	80022ba <HAL_DMA_Abort+0x7e>
      if((HAL_GetTick() - tickstart ) > HAL_TIMEOUT_DMA_ABORT)
 8002296:	f000 f8d1 	bl	800243c <HAL_GetTick>
 800229a:	1b43      	subs	r3, r0, r5
 800229c:	2b05      	cmp	r3, #5
 800229e:	d9f5      	bls.n	800228c <HAL_DMA_Abort+0x50>
        hdma->ErrorCode = HAL_DMA_ERROR_TIMEOUT;
 80022a0:	2320      	movs	r3, #32
 80022a2:	6563      	str	r3, [r4, #84]	; 0x54
        hdma->State = HAL_DMA_STATE_TIMEOUT;
 80022a4:	2003      	movs	r0, #3
 80022a6:	f884 0035 	strb.w	r0, [r4, #53]	; 0x35
        __HAL_UNLOCK(hdma);
 80022aa:	2300      	movs	r3, #0
 80022ac:	f884 3034 	strb.w	r3, [r4, #52]	; 0x34
        return HAL_TIMEOUT;
 80022b0:	e7d4      	b.n	800225c <HAL_DMA_Abort+0x20>
    if((hdma->XferHalfCpltCallback != NULL) || (hdma->XferM1HalfCpltCallback != NULL))
 80022b2:	6ca3      	ldr	r3, [r4, #72]	; 0x48
 80022b4:	2b00      	cmp	r3, #0
 80022b6:	d1df      	bne.n	8002278 <HAL_DMA_Abort+0x3c>
 80022b8:	e7e3      	b.n	8002282 <HAL_DMA_Abort+0x46>
    regs->IFCR = 0x3FU << hdma->StreamIndex;
 80022ba:	6de2      	ldr	r2, [r4, #92]	; 0x5c
 80022bc:	233f      	movs	r3, #63	; 0x3f
 80022be:	4093      	lsls	r3, r2
 80022c0:	60b3      	str	r3, [r6, #8]
    hdma->State = HAL_DMA_STATE_READY;
 80022c2:	2301      	movs	r3, #1
 80022c4:	f884 3035 	strb.w	r3, [r4, #53]	; 0x35
    __HAL_UNLOCK(hdma);
 80022c8:	2000      	movs	r0, #0
 80022ca:	f884 0034 	strb.w	r0, [r4, #52]	; 0x34
  return HAL_OK;
 80022ce:	e7c5      	b.n	800225c <HAL_DMA_Abort+0x20>

080022d0 <HAL_DMA_Abort_IT>:
  *                 the configuration information for the specified DMA Stream.
  * @retval HAL status
  */
HAL_StatusTypeDef HAL_DMA_Abort_IT(DMA_HandleTypeDef *hdma)
{
  if(hdma->State != HAL_DMA_STATE_BUSY)
 80022d0:	f890 3035 	ldrb.w	r3, [r0, #53]	; 0x35
 80022d4:	b2db      	uxtb	r3, r3
 80022d6:	2b02      	cmp	r3, #2
 80022d8:	d003      	beq.n	80022e2 <HAL_DMA_Abort_IT+0x12>
  {
    hdma->ErrorCode = HAL_DMA_ERROR_NO_XFER;
 80022da:	2380      	movs	r3, #128	; 0x80
 80022dc:	6543      	str	r3, [r0, #84]	; 0x54
    return HAL_ERROR;
 80022de:	2001      	movs	r0, #1
 80022e0:	4770      	bx	lr
  }
  else
  {
    /* Set Abort State  */
    hdma->State = HAL_DMA_STATE_ABORT;
 80022e2:	2305      	movs	r3, #5
 80022e4:	f880 3035 	strb.w	r3, [r0, #53]	; 0x35
    
    /* Disable the stream */
    __HAL_DMA_DISABLE(hdma);
 80022e8:	6802      	ldr	r2, [r0, #0]
 80022ea:	6813      	ldr	r3, [r2, #0]
 80022ec:	f023 0301 	bic.w	r3, r3, #1
 80022f0:	6013      	str	r3, [r2, #0]
  }

  return HAL_OK;
 80022f2:	2000      	movs	r0, #0
}
 80022f4:	4770      	bx	lr
	...

080022f8 <HAL_NVIC_SetPriorityGrouping>:
  * @note   When the NVIC_PriorityGroup_0 is selected, IRQ preemption is no more possible. 
  *         The pending IRQ priority will be managed only by the subpriority. 
  * @retval None
  */
void HAL_NVIC_SetPriorityGrouping(uint32_t PriorityGroup)
{
 80022f8:	b510      	push	{r4, lr}
 80022fa:	4604      	mov	r4, r0
  /* Check the parameters */
  assert_param(IS_NVIC_PRIORITY_GROUP(PriorityGroup));
 80022fc:	1ec3      	subs	r3, r0, #3
 80022fe:	2b04      	cmp	r3, #4
 8002300:	d80f      	bhi.n	8002322 <HAL_NVIC_SetPriorityGrouping+0x2a>
__STATIC_INLINE void __NVIC_SetPriorityGrouping(uint32_t PriorityGroup)
{
  uint32_t reg_value;
  uint32_t PriorityGroupTmp = (PriorityGroup & (uint32_t)0x07UL);             /* only values 0..7 are used          */

  reg_value  =  SCB->AIRCR;                                                   /* read old register configuration    */
 8002302:	4a0a      	ldr	r2, [pc, #40]	; (800232c <HAL_NVIC_SetPriorityGrouping+0x34>)
 8002304:	68d3      	ldr	r3, [r2, #12]
  reg_value &= ~((uint32_t)(SCB_AIRCR_VECTKEY_Msk | SCB_AIRCR_PRIGROUP_Msk)); /* clear bits to change               */
 8002306:	f423 63e0 	bic.w	r3, r3, #1792	; 0x700
 800230a:	041b      	lsls	r3, r3, #16
 800230c:	0c1b      	lsrs	r3, r3, #16
  reg_value  =  (reg_value                                   |
                ((uint32_t)0x5FAUL << SCB_AIRCR_VECTKEY_Pos) |
                (PriorityGroupTmp << SCB_AIRCR_PRIGROUP_Pos)  );              /* Insert write key and priority group */
 800230e:	0224      	lsls	r4, r4, #8
 8002310:	f404 64e0 	and.w	r4, r4, #1792	; 0x700
                ((uint32_t)0x5FAUL << SCB_AIRCR_VECTKEY_Pos) |
 8002314:	4323      	orrs	r3, r4
  reg_value  =  (reg_value                                   |
 8002316:	f043 63bf 	orr.w	r3, r3, #100139008	; 0x5f80000
 800231a:	f443 3300 	orr.w	r3, r3, #131072	; 0x20000
  SCB->AIRCR =  reg_value;
 800231e:	60d3      	str	r3, [r2, #12]
  
  /* Set the PRIGROUP[10:8] bits according to the PriorityGroup parameter value */
  NVIC_SetPriorityGrouping(PriorityGroup);
}
 8002320:	bd10      	pop	{r4, pc}
  assert_param(IS_NVIC_PRIORITY_GROUP(PriorityGroup));
 8002322:	2190      	movs	r1, #144	; 0x90
 8002324:	4802      	ldr	r0, [pc, #8]	; (8002330 <HAL_NVIC_SetPriorityGrouping+0x38>)
 8002326:	f7fe fa5b 	bl	80007e0 <assert_failed>
 800232a:	e7ea      	b.n	8002302 <HAL_NVIC_SetPriorityGrouping+0xa>
 800232c:	e000ed00 	and	lr, r0, r0, lsl #26
 8002330:	08003b78 	stmdaeq	r0, {r3, r4, r5, r6, r8, r9, fp, ip, sp}

08002334 <HAL_NVIC_SetPriority>:
  *         This parameter can be a value between 0 and 15
  *         A lower priority value indicates a higher priority.          
  * @retval None
  */
void HAL_NVIC_SetPriority(IRQn_Type IRQn, uint32_t PreemptPriority, uint32_t SubPriority)
{ 
 8002334:	b570      	push	{r4, r5, r6, lr}
 8002336:	4605      	mov	r5, r0
 8002338:	460c      	mov	r4, r1
 800233a:	4616      	mov	r6, r2
  uint32_t prioritygroup = 0x00U;
  
  /* Check the parameters */
  assert_param(IS_NVIC_SUB_PRIORITY(SubPriority));
 800233c:	2a0f      	cmp	r2, #15
 800233e:	d825      	bhi.n	800238c <HAL_NVIC_SetPriority+0x58>
  assert_param(IS_NVIC_PREEMPTION_PRIORITY(PreemptPriority));
 8002340:	2c0f      	cmp	r4, #15
 8002342:	d828      	bhi.n	8002396 <HAL_NVIC_SetPriority+0x62>
  \details Reads the priority grouping field from the NVIC Interrupt Controller.
  \return                Priority grouping field (SCB->AIRCR [10:8] PRIGROUP field).
 */
__STATIC_INLINE uint32_t __NVIC_GetPriorityGrouping(void)
{
  return ((uint32_t)((SCB->AIRCR & SCB_AIRCR_PRIGROUP_Msk) >> SCB_AIRCR_PRIGROUP_Pos));
 8002344:	4b1b      	ldr	r3, [pc, #108]	; (80023b4 <HAL_NVIC_SetPriority+0x80>)
 8002346:	68db      	ldr	r3, [r3, #12]
 8002348:	f3c3 2302 	ubfx	r3, r3, #8, #3
{
  uint32_t PriorityGroupTmp = (PriorityGroup & (uint32_t)0x07UL);   /* only values 0..7 are used          */
  uint32_t PreemptPriorityBits;
  uint32_t SubPriorityBits;

  PreemptPriorityBits = ((7UL - PriorityGroupTmp) > (uint32_t)(__NVIC_PRIO_BITS)) ? (uint32_t)(__NVIC_PRIO_BITS) : (uint32_t)(7UL - PriorityGroupTmp);
 800234c:	f1c3 0107 	rsb	r1, r3, #7
 8002350:	2904      	cmp	r1, #4
 8002352:	bf28      	it	cs
 8002354:	2104      	movcs	r1, #4
  SubPriorityBits     = ((PriorityGroupTmp + (uint32_t)(__NVIC_PRIO_BITS)) < (uint32_t)7UL) ? (uint32_t)0UL : (uint32_t)((PriorityGroupTmp - 7UL) + (uint32_t)(__NVIC_PRIO_BITS));
 8002356:	1d1a      	adds	r2, r3, #4
 8002358:	2a06      	cmp	r2, #6
 800235a:	d921      	bls.n	80023a0 <HAL_NVIC_SetPriority+0x6c>
 800235c:	3b03      	subs	r3, #3

  return (
           ((PreemptPriority & (uint32_t)((1UL << (PreemptPriorityBits)) - 1UL)) << SubPriorityBits) |
 800235e:	f04f 32ff 	mov.w	r2, #4294967295
 8002362:	fa02 f101 	lsl.w	r1, r2, r1
 8002366:	ea24 0401 	bic.w	r4, r4, r1
 800236a:	409c      	lsls	r4, r3
           ((SubPriority     & (uint32_t)((1UL << (SubPriorityBits    )) - 1UL)))
 800236c:	fa02 f303 	lsl.w	r3, r2, r3
 8002370:	ea26 0603 	bic.w	r6, r6, r3
           ((PreemptPriority & (uint32_t)((1UL << (PreemptPriorityBits)) - 1UL)) << SubPriorityBits) |
 8002374:	4334      	orrs	r4, r6
  if ((int32_t)(IRQn) >= 0)
 8002376:	2d00      	cmp	r5, #0
 8002378:	db14      	blt.n	80023a4 <HAL_NVIC_SetPriority+0x70>
    NVIC->IP[((uint32_t)IRQn)]               = (uint8_t)((priority << (8U - __NVIC_PRIO_BITS)) & (uint32_t)0xFFUL);
 800237a:	0124      	lsls	r4, r4, #4
 800237c:	b2e4      	uxtb	r4, r4
 800237e:	f105 4560 	add.w	r5, r5, #3758096384	; 0xe0000000
 8002382:	f505 4561 	add.w	r5, r5, #57600	; 0xe100
 8002386:	f885 4300 	strb.w	r4, [r5, #768]	; 0x300
  
  prioritygroup = NVIC_GetPriorityGrouping();
  
  NVIC_SetPriority(IRQn, NVIC_EncodePriority(prioritygroup, PreemptPriority, SubPriority));
}
 800238a:	bd70      	pop	{r4, r5, r6, pc}
  assert_param(IS_NVIC_SUB_PRIORITY(SubPriority));
 800238c:	21a8      	movs	r1, #168	; 0xa8
 800238e:	480a      	ldr	r0, [pc, #40]	; (80023b8 <HAL_NVIC_SetPriority+0x84>)
 8002390:	f7fe fa26 	bl	80007e0 <assert_failed>
 8002394:	e7d4      	b.n	8002340 <HAL_NVIC_SetPriority+0xc>
  assert_param(IS_NVIC_PREEMPTION_PRIORITY(PreemptPriority));
 8002396:	21a9      	movs	r1, #169	; 0xa9
 8002398:	4807      	ldr	r0, [pc, #28]	; (80023b8 <HAL_NVIC_SetPriority+0x84>)
 800239a:	f7fe fa21 	bl	80007e0 <assert_failed>
 800239e:	e7d1      	b.n	8002344 <HAL_NVIC_SetPriority+0x10>
  SubPriorityBits     = ((PriorityGroupTmp + (uint32_t)(__NVIC_PRIO_BITS)) < (uint32_t)7UL) ? (uint32_t)0UL : (uint32_t)((PriorityGroupTmp - 7UL) + (uint32_t)(__NVIC_PRIO_BITS));
 80023a0:	2300      	movs	r3, #0
 80023a2:	e7dc      	b.n	800235e <HAL_NVIC_SetPriority+0x2a>
    SCB->SHP[(((uint32_t)IRQn) & 0xFUL)-4UL] = (uint8_t)((priority << (8U - __NVIC_PRIO_BITS)) & (uint32_t)0xFFUL);
 80023a4:	f005 050f 	and.w	r5, r5, #15
 80023a8:	0124      	lsls	r4, r4, #4
 80023aa:	b2e4      	uxtb	r4, r4
 80023ac:	4b03      	ldr	r3, [pc, #12]	; (80023bc <HAL_NVIC_SetPriority+0x88>)
 80023ae:	555c      	strb	r4, [r3, r5]
}
 80023b0:	e7eb      	b.n	800238a <HAL_NVIC_SetPriority+0x56>
 80023b2:	bf00      	nop
 80023b4:	e000ed00 	and	lr, r0, r0, lsl #26
 80023b8:	08003b78 	stmdaeq	r0, {r3, r4, r5, r6, r8, r9, fp, ip, sp}
 80023bc:	e000ed14 	and	lr, r0, r4, lsl sp

080023c0 <HAL_NVIC_EnableIRQ>:
  *         This parameter can be an enumerator of IRQn_Type enumeration
  *         (For the complete STM32 Devices IRQ Channels list, please refer to the appropriate CMSIS device file (stm32f4xxxx.h))
  * @retval None
  */
void HAL_NVIC_EnableIRQ(IRQn_Type IRQn)
{
 80023c0:	b510      	push	{r4, lr}
  /* Check the parameters */
  assert_param(IS_NVIC_DEVICE_IRQ(IRQn));
 80023c2:	1e04      	subs	r4, r0, #0
 80023c4:	db0a      	blt.n	80023dc <HAL_NVIC_EnableIRQ+0x1c>
  if ((int32_t)(IRQn) >= 0)
 80023c6:	2c00      	cmp	r4, #0
 80023c8:	db07      	blt.n	80023da <HAL_NVIC_EnableIRQ+0x1a>
    NVIC->ISER[(((uint32_t)IRQn) >> 5UL)] = (uint32_t)(1UL << (((uint32_t)IRQn) & 0x1FUL));
 80023ca:	f004 021f 	and.w	r2, r4, #31
 80023ce:	0964      	lsrs	r4, r4, #5
 80023d0:	2301      	movs	r3, #1
 80023d2:	4093      	lsls	r3, r2
 80023d4:	4a04      	ldr	r2, [pc, #16]	; (80023e8 <HAL_NVIC_EnableIRQ+0x28>)
 80023d6:	f842 3024 	str.w	r3, [r2, r4, lsl #2]
  
  /* Enable interrupt */
  NVIC_EnableIRQ(IRQn);
}
 80023da:	bd10      	pop	{r4, pc}
  assert_param(IS_NVIC_DEVICE_IRQ(IRQn));
 80023dc:	21bc      	movs	r1, #188	; 0xbc
 80023de:	4803      	ldr	r0, [pc, #12]	; (80023ec <HAL_NVIC_EnableIRQ+0x2c>)
 80023e0:	f7fe f9fe 	bl	80007e0 <assert_failed>
 80023e4:	e7ef      	b.n	80023c6 <HAL_NVIC_EnableIRQ+0x6>
 80023e6:	bf00      	nop
 80023e8:	e000e100 	and	lr, r0, r0, lsl #2
 80023ec:	08003b78 	stmdaeq	r0, {r3, r4, r5, r6, r8, r9, fp, ip, sp}

080023f0 <HAL_Init>:
  *         need to ensure that the SysTick time base is always set to 1 millisecond
  *         to have correct HAL operation.
  * @retval HAL status
  */
HAL_StatusTypeDef HAL_Init(void)
{
 80023f0:	b508      	push	{r3, lr}
  /* Configure Flash prefetch, Instruction cache, Data cache */ 
#if (INSTRUCTION_CACHE_ENABLE != 0U)
  __HAL_FLASH_INSTRUCTION_CACHE_ENABLE();
 80023f2:	4b0b      	ldr	r3, [pc, #44]	; (8002420 <HAL_Init+0x30>)
 80023f4:	681a      	ldr	r2, [r3, #0]
 80023f6:	f442 7200 	orr.w	r2, r2, #512	; 0x200
 80023fa:	601a      	str	r2, [r3, #0]
#endif /* INSTRUCTION_CACHE_ENABLE */

#if (DATA_CACHE_ENABLE != 0U)
  __HAL_FLASH_DATA_CACHE_ENABLE();
 80023fc:	681a      	ldr	r2, [r3, #0]
 80023fe:	f442 6280 	orr.w	r2, r2, #1024	; 0x400
 8002402:	601a      	str	r2, [r3, #0]
#endif /* DATA_CACHE_ENABLE */

#if (PREFETCH_ENABLE != 0U)
  __HAL_FLASH_PREFETCH_BUFFER_ENABLE();
 8002404:	681a      	ldr	r2, [r3, #0]
 8002406:	f442 7280 	orr.w	r2, r2, #256	; 0x100
 800240a:	601a      	str	r2, [r3, #0]
#endif /* PREFETCH_ENABLE */

  /* Set Interrupt Group Priority */
  HAL_NVIC_SetPriorityGrouping(NVIC_PRIORITYGROUP_4);
 800240c:	2003      	movs	r0, #3
 800240e:	f7ff ff73 	bl	80022f8 <HAL_NVIC_SetPriorityGrouping>

  /* Use systick as time base source and configure 1ms tick (default clock after Reset is HSI) */
  HAL_InitTick(TICK_INT_PRIORITY);
 8002412:	200f      	movs	r0, #15
 8002414:	f7fe fa8c 	bl	8000930 <HAL_InitTick>

  /* Init the low level hardware */
  HAL_MspInit();
 8002418:	f7fe fa6e 	bl	80008f8 <HAL_MspInit>

  /* Return function status */
  return HAL_OK;
}
 800241c:	2000      	movs	r0, #0
 800241e:	bd08      	pop	{r3, pc}
 8002420:	40023c00 	andmi	r3, r2, r0, lsl #24

08002424 <HAL_IncTick>:
  *      implementations in user file.
  * @retval None
  */
__weak void HAL_IncTick(void)
{
  uwTick += uwTickFreq;
 8002424:	4a03      	ldr	r2, [pc, #12]	; (8002434 <HAL_IncTick+0x10>)
 8002426:	6811      	ldr	r1, [r2, #0]
 8002428:	4b03      	ldr	r3, [pc, #12]	; (8002438 <HAL_IncTick+0x14>)
 800242a:	781b      	ldrb	r3, [r3, #0]
 800242c:	440b      	add	r3, r1
 800242e:	6013      	str	r3, [r2, #0]
}
 8002430:	4770      	bx	lr
 8002432:	bf00      	nop
 8002434:	20000124 	andcs	r0, r0, r4, lsr #2
 8002438:	20000000 	andcs	r0, r0, r0

0800243c <HAL_GetTick>:
  *       implementations in user file.
  * @retval tick value
  */
__weak uint32_t HAL_GetTick(void)
{
  return uwTick;
 800243c:	4b01      	ldr	r3, [pc, #4]	; (8002444 <HAL_GetTick+0x8>)
 800243e:	6818      	ldr	r0, [r3, #0]
}
 8002440:	4770      	bx	lr
 8002442:	bf00      	nop
 8002444:	20000124 	andcs	r0, r0, r4, lsr #2

08002448 <HAL_Delay>:
  *       implementations in user file.
  * @param Delay specifies the delay time length, in milliseconds.
  * @retval None
  */
__weak void HAL_Delay(uint32_t Delay)
{
 8002448:	b538      	push	{r3, r4, r5, lr}
 800244a:	4604      	mov	r4, r0
  uint32_t tickstart = HAL_GetTick();
 800244c:	f7ff fff6 	bl	800243c <HAL_GetTick>
 8002450:	4605      	mov	r5, r0
  uint32_t wait = Delay;

  /* Add a freq to guarantee minimum wait */
  if (wait < HAL_MAX_DELAY)
 8002452:	f1b4 3fff 	cmp.w	r4, #4294967295
 8002456:	d002      	beq.n	800245e <HAL_Delay+0x16>
  {
    wait += (uint32_t)(uwTickFreq);
 8002458:	4b04      	ldr	r3, [pc, #16]	; (800246c <HAL_Delay+0x24>)
 800245a:	781b      	ldrb	r3, [r3, #0]
 800245c:	441c      	add	r4, r3
  }

  while((HAL_GetTick() - tickstart) < wait)
 800245e:	f7ff ffed 	bl	800243c <HAL_GetTick>
 8002462:	1b40      	subs	r0, r0, r5
 8002464:	42a0      	cmp	r0, r4
 8002466:	d3fa      	bcc.n	800245e <HAL_Delay+0x16>
  {
  }
}
 8002468:	bd38      	pop	{r3, r4, r5, pc}
 800246a:	bf00      	nop
 800246c:	20000000 	andcs	r0, r0, r0

08002470 <SystemInit>:
  */
void SystemInit(void)
{
  /* FPU settings ------------------------------------------------------------*/
  #if (__FPU_PRESENT == 1) && (__FPU_USED == 1)
    SCB->CPACR |= ((3UL << 10*2)|(3UL << 11*2));  /* set CP10 and CP11 Full Access */
 8002470:	4a03      	ldr	r2, [pc, #12]	; (8002480 <SystemInit+0x10>)
 8002472:	f8d2 3088 	ldr.w	r3, [r2, #136]	; 0x88
 8002476:	f443 0370 	orr.w	r3, r3, #15728640	; 0xf00000
 800247a:	f8c2 3088 	str.w	r3, [r2, #136]	; 0x88

  /* Configure the Vector Table location -------------------------------------*/
#if defined(USER_VECT_TAB_ADDRESS)
  SCB->VTOR = VECT_TAB_BASE_ADDRESS | VECT_TAB_OFFSET; /* Vector Table Relocation in Internal SRAM */
#endif /* USER_VECT_TAB_ADDRESS */
}
 800247e:	4770      	bx	lr
 8002480:	e000ed00 	and	lr, r0, r0, lsl #26

08002484 <fault_dump_opcode>:
    FD_CODE_TEXT_BASE,  FD_CODE_TEXT_ENDS,  FD_CODE_TEXT_SIZE );
    printf("Code Stack Growth Downward:%d\r\n", 
    FD_STACK_GROWTH_DOWNWARD);
}

static unsigned int fault_dump_opcode(unsigned int pc) {
 8002484:	b082      	sub	sp, #8
    uint16_t value[2] = {0};
 8002486:	2300      	movs	r3, #0
 8002488:	9301      	str	r3, [sp, #4]
    unsigned int opcode = 0;
    for (int i = 0; i < (sizeof(value) / sizeof(uint16_t)); i++) {
 800248a:	e007      	b.n	800249c <fault_dump_opcode+0x18>
        value[i] = *(uint16_t*)(pc + i * sizeof(uint16_t));
 800248c:	f830 1013 	ldrh.w	r1, [r0, r3, lsl #1]
 8002490:	aa02      	add	r2, sp, #8
 8002492:	eb02 0243 	add.w	r2, r2, r3, lsl #1
 8002496:	f822 1c04 	strh.w	r1, [r2, #-4]
    for (int i = 0; i < (sizeof(value) / sizeof(uint16_t)); i++) {
 800249a:	3301      	adds	r3, #1
 800249c:	2b01      	cmp	r3, #1
 800249e:	d9f5      	bls.n	800248c <fault_dump_opcode+0x8>
    }
    opcode = ((unsigned int)value[1] << 0x10) |
 80024a0:	f8bd 0006 	ldrh.w	r0, [sp, #6]
             ((unsigned int)value[0] << 0x00);
 80024a4:	f8bd 3004 	ldrh.w	r3, [sp, #4]
    return opcode;
}
 80024a8:	ea43 4000 	orr.w	r0, r3, r0, lsl #16
 80024ac:	b002      	add	sp, #8
 80024ae:	4770      	bx	lr

080024b0 <opcode_is_bl_or_blx>:

static bool opcode_is_bl_or_blx(unsigned int ins) {
#define FD_BL_OPCODE_MASK   (0xF800)
#define FD_BL_OPCODE_BL     (0xF000)
#define FD_BL_OPCODE_BLX    (0xF800)
    uint16_t opcode1 = (((ins >> 0x00) & 0xFFFF) & FD_BL_OPCODE_MASK);
 80024b0:	f400 4378 	and.w	r3, r0, #63488	; 0xf800
    uint16_t opcode2 = (((ins >> 0x10) & 0xFFFF) & FD_BL_OPCODE_MASK);
 80024b4:	0c00      	lsrs	r0, r0, #16
 80024b6:	f400 4078 	and.w	r0, r0, #63488	; 0xf800
    if ((opcode1 == FD_BL_OPCODE_BL) || (opcode1 == FD_BL_OPCODE_BLX)) {
 80024ba:	f5b3 4f70 	cmp.w	r3, #61440	; 0xf000
 80024be:	d00a      	beq.n	80024d6 <opcode_is_bl_or_blx+0x26>
 80024c0:	f5b3 4f78 	cmp.w	r3, #63488	; 0xf800
 80024c4:	d009      	beq.n	80024da <opcode_is_bl_or_blx+0x2a>
        return true;
    }
    if ((opcode2 == FD_BL_OPCODE_BL) || (opcode2 == FD_BL_OPCODE_BLX)) {
 80024c6:	f5b0 4f70 	cmp.w	r0, #61440	; 0xf000
 80024ca:	d008      	beq.n	80024de <opcode_is_bl_or_blx+0x2e>
 80024cc:	f5b0 4f78 	cmp.w	r0, #63488	; 0xf800
 80024d0:	d007      	beq.n	80024e2 <opcode_is_bl_or_blx+0x32>
        return true;
    }
    return false;
 80024d2:	2000      	movs	r0, #0
 80024d4:	4770      	bx	lr
        return true;
 80024d6:	2001      	movs	r0, #1
 80024d8:	4770      	bx	lr
 80024da:	2001      	movs	r0, #1
 80024dc:	4770      	bx	lr
        return true;
 80024de:	2001      	movs	r0, #1
 80024e0:	4770      	bx	lr
 80024e2:	2001      	movs	r0, #1
}
 80024e4:	4770      	bx	lr
	...

080024e8 <fault_dump_callstack>:
    }
    printf("\r\n");
    while (1);
}

int fault_dump_callstack(unsigned int *buffer, size_t size, unsigned int *stack_point, unsigned int *stack_start) {
 80024e8:	e92d 43f8 	stmdb	sp!, {r3, r4, r5, r6, r7, r8, r9, lr}
    int count = 0;
    unsigned int pc = 0, op = 0, *sp = NULL;
    if ((buffer == NULL) || (size <= 0)) {
 80024ec:	b348      	cbz	r0, 8002542 <fault_dump_callstack+0x5a>
 80024ee:	460f      	mov	r7, r1
 80024f0:	4614      	mov	r4, r2
 80024f2:	461d      	mov	r5, r3
 80024f4:	4680      	mov	r8, r0
 80024f6:	b339      	cbz	r1, 8002548 <fault_dump_callstack+0x60>
        return -FD_EEMPTY;
    }
    FD_STACK_CHECKIT(stack_point, stack_start) {
 80024f8:	b34a      	cbz	r2, 800254e <fault_dump_callstack+0x66>
 80024fa:	429a      	cmp	r2, r3
 80024fc:	d82a      	bhi.n	8002554 <fault_dump_callstack+0x6c>
    int count = 0;
 80024fe:	2600      	movs	r6, #0
 8002500:	e000      	b.n	8002504 <fault_dump_callstack+0x1c>
        return -FD_EINVAL;
    }
    FD_STACK_FOREACH(stack_point, stack_start) {
 8002502:	3404      	adds	r4, #4
 8002504:	b1d4      	cbz	r4, 800253c <fault_dump_callstack+0x54>
 8002506:	42ac      	cmp	r4, r5
 8002508:	d818      	bhi.n	800253c <fault_dump_callstack+0x54>
        // Read stack[x] value to pc.
        pc = *(unsigned int *)sp;
 800250a:	6822      	ldr	r2, [r4, #0]
        // PC must be in the code segment.
        if ((pc < FD_CODE_TEXT_BASE) || (pc > FD_CODE_TEXT_ENDS)) {
 800250c:	4813      	ldr	r0, [pc, #76]	; (800255c <fault_dump_callstack+0x74>)
 800250e:	4290      	cmp	r0, r2
 8002510:	d8f7      	bhi.n	8002502 <fault_dump_callstack+0x1a>
 8002512:	4b13      	ldr	r3, [pc, #76]	; (8002560 <fault_dump_callstack+0x78>)
 8002514:	4293      	cmp	r3, r2
 8002516:	d3f4      	bcc.n	8002502 <fault_dump_callstack+0x1a>
            continue;
        }
        // The thumb instruction must be an odd number.
        if ((pc % 2) == 0) {
 8002518:	f012 0f01 	tst.w	r2, #1
 800251c:	d0f1      	beq.n	8002502 <fault_dump_callstack+0x1a>
            continue;
        }
        // Fix thumb instruction set.
        pc = pc - 1;
        // Calculate the address of the instruction being executed before pushing on the stack.
        pc = pc - sizeof(unsigned int);
 800251e:	f1a2 0905 	sub.w	r9, r2, #5
        // The thumb instruction is at least 2-byte aligned.
        if ((pc & 0x1) != 0) {
 8002522:	d0ee      	beq.n	8002502 <fault_dump_callstack+0x1a>
            continue;
        }
        // Read the instruction at the PC address.
        op = fault_dump_opcode(pc);
 8002524:	4648      	mov	r0, r9
 8002526:	f7ff ffad 	bl	8002484 <fault_dump_opcode>
        // Only BL or BLX opcode need to be recorded.
        if (!opcode_is_bl_or_blx(op)) {
 800252a:	f7ff ffc1 	bl	80024b0 <opcode_is_bl_or_blx>
 800252e:	2800      	cmp	r0, #0
 8002530:	d0e7      	beq.n	8002502 <fault_dump_callstack+0x1a>
            continue;
        }
        // storage this address.
        buffer[count] = pc;
 8002532:	f848 9026 	str.w	r9, [r8, r6, lsl #2]
        count = count + 1;
 8002536:	3601      	adds	r6, #1
        if (count >= size) {
 8002538:	42be      	cmp	r6, r7
 800253a:	d3e2      	bcc.n	8002502 <fault_dump_callstack+0x1a>
            break;
        }
    }
    return count;
}
 800253c:	4630      	mov	r0, r6
 800253e:	e8bd 83f8 	ldmia.w	sp!, {r3, r4, r5, r6, r7, r8, r9, pc}
        return -FD_EEMPTY;
 8002542:	f06f 0601 	mvn.w	r6, #1
 8002546:	e7f9      	b.n	800253c <fault_dump_callstack+0x54>
 8002548:	f06f 0601 	mvn.w	r6, #1
 800254c:	e7f6      	b.n	800253c <fault_dump_callstack+0x54>
        return -FD_EINVAL;
 800254e:	f06f 0602 	mvn.w	r6, #2
 8002552:	e7f3      	b.n	800253c <fault_dump_callstack+0x54>
 8002554:	f06f 0602 	mvn.w	r6, #2
 8002558:	e7f0      	b.n	800253c <fault_dump_callstack+0x54>
 800255a:	bf00      	nop
 800255c:	08000190 	stmdaeq	r0, {r4, r7, r8}
 8002560:	080039d8 	stmdaeq	r0, {r3, r4, r6, r7, r8, fp, ip, sp}

08002564 <dump_exc_return>:
static void dump_exc_return(unsigned int exc_return) {
 8002564:	b510      	push	{r4, lr}
 8002566:	4604      	mov	r4, r0
    printf(" EXE_RETURN: 0x%08X \r\n", exc_return);
 8002568:	4601      	mov	r1, r0
 800256a:	4803      	ldr	r0, [pc, #12]	; (8002578 <dump_exc_return+0x14>)
 800256c:	f000 fa24 	bl	80029b8 <iprintf>
    fault_dump_exc_return(exc_return);
 8002570:	4620      	mov	r0, r4
 8002572:	f000 f905 	bl	8002780 <fault_dump_exc_return>
}
 8002576:	bd10      	pop	{r4, pc}
 8002578:	08003bcc 	stmdaeq	r0, {r2, r3, r6, r7, r8, r9, fp, ip, sp}

0800257c <stack_using_msp>:
static bool stack_using_msp(unsigned int exc_return) {
 800257c:	b508      	push	{r3, lr}
    result = fault_dump_using_msp(exc_return);
 800257e:	f000 f943 	bl	8002808 <fault_dump_using_msp>
}
 8002582:	bd08      	pop	{r3, pc}

08002584 <fault_dump_init>:
void fault_dump_init(void) {
 8002584:	b508      	push	{r3, lr}
    fd_main_stack_base = FD_CODE_STACK_BASE;
 8002586:	490a      	ldr	r1, [pc, #40]	; (80025b0 <fault_dump_init+0x2c>)
 8002588:	4b0a      	ldr	r3, [pc, #40]	; (80025b4 <fault_dump_init+0x30>)
 800258a:	6019      	str	r1, [r3, #0]
    fd_main_stack_full = FD_CODE_STACK_FULL;
 800258c:	4a0a      	ldr	r2, [pc, #40]	; (80025b8 <fault_dump_init+0x34>)
 800258e:	4b0b      	ldr	r3, [pc, #44]	; (80025bc <fault_dump_init+0x38>)
 8002590:	601a      	str	r2, [r3, #0]
    printf("Code Stack:[%08X - %08X], size:%d\r\n",
 8002592:	1a53      	subs	r3, r2, r1
 8002594:	480a      	ldr	r0, [pc, #40]	; (80025c0 <fault_dump_init+0x3c>)
 8002596:	f000 fa0f 	bl	80029b8 <iprintf>
    printf("Code Text :[%08X - %08X], size:%d\r\n",
 800259a:	490a      	ldr	r1, [pc, #40]	; (80025c4 <fault_dump_init+0x40>)
 800259c:	4a0a      	ldr	r2, [pc, #40]	; (80025c8 <fault_dump_init+0x44>)
 800259e:	1a53      	subs	r3, r2, r1
 80025a0:	480a      	ldr	r0, [pc, #40]	; (80025cc <fault_dump_init+0x48>)
 80025a2:	f000 fa09 	bl	80029b8 <iprintf>
    printf("Code Stack Growth Downward:%d\r\n", 
 80025a6:	2101      	movs	r1, #1
 80025a8:	4809      	ldr	r0, [pc, #36]	; (80025d0 <fault_dump_init+0x4c>)
 80025aa:	f000 fa05 	bl	80029b8 <iprintf>
}
 80025ae:	bd08      	pop	{r3, pc}
 80025b0:	20000a88 	andcs	r0, r0, r8, lsl #21
 80025b4:	20000228 	andcs	r0, r0, r8, lsr #4
 80025b8:	20001288 	andcs	r1, r0, r8, lsl #5
 80025bc:	2000022c 	andcs	r0, r0, ip, lsr #4
 80025c0:	08003be4 	stmdaeq	r0, {r2, r5, r6, r7, r8, r9, fp, ip, sp}
 80025c4:	08000190 	stmdaeq	r0, {r4, r7, r8}
 80025c8:	080039d8 	stmdaeq	r0, {r3, r4, r6, r7, r8, fp, ip, sp}
 80025cc:	08003c08 	stmdaeq	r0, {r3, sl, fp, ip, sp}
 80025d0:	08003c2c 	stmdaeq	r0, {r2, r3, r5, sl, fp, ip, sp}

080025d4 <fault_dump_handler>:
void fault_dump_handler(unsigned int *stack, unsigned int linker) {
 80025d4:	b5f8      	push	{r3, r4, r5, r6, r7, lr}
 80025d6:	4605      	mov	r5, r0
 80025d8:	460e      	mov	r6, r1
    frame.manual.r4  = FD_STACK_READVAL(point);
 80025da:	6803      	ldr	r3, [r0, #0]
 80025dc:	4c4e      	ldr	r4, [pc, #312]	; (8002718 <fault_dump_handler+0x144>)
 80025de:	6023      	str	r3, [r4, #0]
    frame.manual.r5  = FD_STACK_READVAL(point);
 80025e0:	6843      	ldr	r3, [r0, #4]
 80025e2:	6063      	str	r3, [r4, #4]
    frame.manual.r6  = FD_STACK_READVAL(point);
 80025e4:	6883      	ldr	r3, [r0, #8]
 80025e6:	60a3      	str	r3, [r4, #8]
    frame.manual.r7  = FD_STACK_READVAL(point);
 80025e8:	68c3      	ldr	r3, [r0, #12]
 80025ea:	60e3      	str	r3, [r4, #12]
    frame.manual.r8  = FD_STACK_READVAL(point);
 80025ec:	6903      	ldr	r3, [r0, #16]
 80025ee:	6123      	str	r3, [r4, #16]
    frame.manual.r9  = FD_STACK_READVAL(point);
 80025f0:	6943      	ldr	r3, [r0, #20]
 80025f2:	6163      	str	r3, [r4, #20]
    frame.manual.r10 = FD_STACK_READVAL(point);
 80025f4:	6983      	ldr	r3, [r0, #24]
 80025f6:	61a3      	str	r3, [r4, #24]
    frame.manual.r11 = FD_STACK_READVAL(point);
 80025f8:	69c3      	ldr	r3, [r0, #28]
 80025fa:	61e3      	str	r3, [r4, #28]
    frame.except.r0  = FD_STACK_READVAL(point);
 80025fc:	6a03      	ldr	r3, [r0, #32]
 80025fe:	6223      	str	r3, [r4, #32]
    frame.except.r1  = FD_STACK_READVAL(point);
 8002600:	6a43      	ldr	r3, [r0, #36]	; 0x24
 8002602:	6263      	str	r3, [r4, #36]	; 0x24
    frame.except.r2  = FD_STACK_READVAL(point);
 8002604:	6a83      	ldr	r3, [r0, #40]	; 0x28
 8002606:	62a3      	str	r3, [r4, #40]	; 0x28
    frame.except.r3  = FD_STACK_READVAL(point);
 8002608:	6ac3      	ldr	r3, [r0, #44]	; 0x2c
 800260a:	62e3      	str	r3, [r4, #44]	; 0x2c
    frame.except.r12 = FD_STACK_READVAL(point);
 800260c:	6b03      	ldr	r3, [r0, #48]	; 0x30
 800260e:	6323      	str	r3, [r4, #48]	; 0x30
    frame.except.lr  = FD_STACK_READVAL(point);
 8002610:	6b43      	ldr	r3, [r0, #52]	; 0x34
 8002612:	6363      	str	r3, [r4, #52]	; 0x34
    frame.except.pc  = FD_STACK_READVAL(point);
 8002614:	6b83      	ldr	r3, [r0, #56]	; 0x38
 8002616:	63a3      	str	r3, [r4, #56]	; 0x38
    frame.except.psr = FD_STACK_READVAL(point);
 8002618:	6bc3      	ldr	r3, [r0, #60]	; 0x3c
 800261a:	63e3      	str	r3, [r4, #60]	; 0x3c
    printf("\r\n");
 800261c:	4f3f      	ldr	r7, [pc, #252]	; (800271c <fault_dump_handler+0x148>)
 800261e:	4638      	mov	r0, r7
 8002620:	f000 fa50 	bl	8002ac4 <puts>
    printf(" HardFault Information Dump \r\n");
 8002624:	483e      	ldr	r0, [pc, #248]	; (8002720 <fault_dump_handler+0x14c>)
 8002626:	f000 fa4d 	bl	8002ac4 <puts>
    printf(" Stack Frame   \r\n");
 800262a:	483e      	ldr	r0, [pc, #248]	; (8002724 <fault_dump_handler+0x150>)
 800262c:	f000 fa4a 	bl	8002ac4 <puts>
    printf(" R0   = 0x%08X \r\n", (unsigned int)frame.except.r0);
 8002630:	6a21      	ldr	r1, [r4, #32]
 8002632:	483d      	ldr	r0, [pc, #244]	; (8002728 <fault_dump_handler+0x154>)
 8002634:	f000 f9c0 	bl	80029b8 <iprintf>
    printf(" R1   = 0x%08X \r\n", (unsigned int)frame.except.r1);
 8002638:	6a61      	ldr	r1, [r4, #36]	; 0x24
 800263a:	483c      	ldr	r0, [pc, #240]	; (800272c <fault_dump_handler+0x158>)
 800263c:	f000 f9bc 	bl	80029b8 <iprintf>
    printf(" R2   = 0x%08X \r\n", (unsigned int)frame.except.r2);
 8002640:	6aa1      	ldr	r1, [r4, #40]	; 0x28
 8002642:	483b      	ldr	r0, [pc, #236]	; (8002730 <fault_dump_handler+0x15c>)
 8002644:	f000 f9b8 	bl	80029b8 <iprintf>
    printf(" R3   = 0x%08X \r\n", (unsigned int)frame.except.r3);
 8002648:	6ae1      	ldr	r1, [r4, #44]	; 0x2c
 800264a:	483a      	ldr	r0, [pc, #232]	; (8002734 <fault_dump_handler+0x160>)
 800264c:	f000 f9b4 	bl	80029b8 <iprintf>
    printf(" R4   = 0x%08X \r\n", (unsigned int)frame.manual.r4);
 8002650:	6821      	ldr	r1, [r4, #0]
 8002652:	4839      	ldr	r0, [pc, #228]	; (8002738 <fault_dump_handler+0x164>)
 8002654:	f000 f9b0 	bl	80029b8 <iprintf>
    printf(" R5   = 0x%08X \r\n", (unsigned int)frame.manual.r5);
 8002658:	6861      	ldr	r1, [r4, #4]
 800265a:	4838      	ldr	r0, [pc, #224]	; (800273c <fault_dump_handler+0x168>)
 800265c:	f000 f9ac 	bl	80029b8 <iprintf>
    printf(" R6   = 0x%08X \r\n", (unsigned int)frame.manual.r6);
 8002660:	68a1      	ldr	r1, [r4, #8]
 8002662:	4837      	ldr	r0, [pc, #220]	; (8002740 <fault_dump_handler+0x16c>)
 8002664:	f000 f9a8 	bl	80029b8 <iprintf>
    printf(" R7   = 0x%08X \r\n", (unsigned int)frame.manual.r7);
 8002668:	68e1      	ldr	r1, [r4, #12]
 800266a:	4836      	ldr	r0, [pc, #216]	; (8002744 <fault_dump_handler+0x170>)
 800266c:	f000 f9a4 	bl	80029b8 <iprintf>
    printf(" R8   = 0x%08X \r\n", (unsigned int)frame.manual.r8);
 8002670:	6921      	ldr	r1, [r4, #16]
 8002672:	4835      	ldr	r0, [pc, #212]	; (8002748 <fault_dump_handler+0x174>)
 8002674:	f000 f9a0 	bl	80029b8 <iprintf>
    printf(" R9   = 0x%08X \r\n", (unsigned int)frame.manual.r9);
 8002678:	6961      	ldr	r1, [r4, #20]
 800267a:	4834      	ldr	r0, [pc, #208]	; (800274c <fault_dump_handler+0x178>)
 800267c:	f000 f99c 	bl	80029b8 <iprintf>
    printf(" R10  = 0x%08X \r\n", (unsigned int)frame.manual.r10);
 8002680:	69a1      	ldr	r1, [r4, #24]
 8002682:	4833      	ldr	r0, [pc, #204]	; (8002750 <fault_dump_handler+0x17c>)
 8002684:	f000 f998 	bl	80029b8 <iprintf>
    printf(" R11  = 0x%08X \r\n", (unsigned int)frame.manual.r11);
 8002688:	69e1      	ldr	r1, [r4, #28]
 800268a:	4832      	ldr	r0, [pc, #200]	; (8002754 <fault_dump_handler+0x180>)
 800268c:	f000 f994 	bl	80029b8 <iprintf>
    printf(" R12  = 0x%08X \r\n", (unsigned int)frame.except.r12);
 8002690:	6b21      	ldr	r1, [r4, #48]	; 0x30
 8002692:	4831      	ldr	r0, [pc, #196]	; (8002758 <fault_dump_handler+0x184>)
 8002694:	f000 f990 	bl	80029b8 <iprintf>
    printf(" LR   = 0x%08X \r\n", (unsigned int)frame.except.lr);
 8002698:	6b61      	ldr	r1, [r4, #52]	; 0x34
 800269a:	4830      	ldr	r0, [pc, #192]	; (800275c <fault_dump_handler+0x188>)
 800269c:	f000 f98c 	bl	80029b8 <iprintf>
    printf(" PC   = 0x%08X \r\n", (unsigned int)frame.except.pc);
 80026a0:	6ba1      	ldr	r1, [r4, #56]	; 0x38
 80026a2:	482f      	ldr	r0, [pc, #188]	; (8002760 <fault_dump_handler+0x18c>)
 80026a4:	f000 f988 	bl	80029b8 <iprintf>
    printf(" PSR  = 0x%08X \r\n", (unsigned int)frame.except.psr);
 80026a8:	6be1      	ldr	r1, [r4, #60]	; 0x3c
 80026aa:	482e      	ldr	r0, [pc, #184]	; (8002764 <fault_dump_handler+0x190>)
 80026ac:	f000 f984 	bl	80029b8 <iprintf>
    printf("\r\n");
 80026b0:	4638      	mov	r0, r7
 80026b2:	f000 fa07 	bl	8002ac4 <puts>
    dump_exc_return(linker);
 80026b6:	4630      	mov	r0, r6
 80026b8:	f7ff ff54 	bl	8002564 <dump_exc_return>
    if (stack_using_msp(linker)) {
 80026bc:	4630      	mov	r0, r6
 80026be:	f7ff ff5d 	bl	800257c <stack_using_msp>
 80026c2:	b190      	cbz	r0, 80026ea <fault_dump_handler+0x116>
        count = fd_msp_stack_parser(buffer, FD_STACK_DUMP_DEPTH_MAX, 
 80026c4:	4b28      	ldr	r3, [pc, #160]	; (8002768 <fault_dump_handler+0x194>)
 80026c6:	681c      	ldr	r4, [r3, #0]
 80026c8:	4b28      	ldr	r3, [pc, #160]	; (800276c <fault_dump_handler+0x198>)
 80026ca:	f105 0240 	add.w	r2, r5, #64	; 0x40
 80026ce:	2140      	movs	r1, #64	; 0x40
 80026d0:	4827      	ldr	r0, [pc, #156]	; (8002770 <fault_dump_handler+0x19c>)
 80026d2:	47a0      	blx	r4
 80026d4:	4605      	mov	r5, r0
    printf(" Stack Call: ");
 80026d6:	4827      	ldr	r0, [pc, #156]	; (8002774 <fault_dump_handler+0x1a0>)
 80026d8:	f000 f96e 	bl	80029b8 <iprintf>
    printf("%08X ", (unsigned int)frame.except.pc);
 80026dc:	4b0e      	ldr	r3, [pc, #56]	; (8002718 <fault_dump_handler+0x144>)
 80026de:	6b99      	ldr	r1, [r3, #56]	; 0x38
 80026e0:	4825      	ldr	r0, [pc, #148]	; (8002778 <fault_dump_handler+0x1a4>)
 80026e2:	f000 f969 	bl	80029b8 <iprintf>
    for (index = 0; index < count; index++) {
 80026e6:	2400      	movs	r4, #0
 80026e8:	e00f      	b.n	800270a <fault_dump_handler+0x136>
        count = fd_psp_stack_parser(buffer, FD_STACK_DUMP_DEPTH_MAX, stack, NULL);
 80026ea:	4b24      	ldr	r3, [pc, #144]	; (800277c <fault_dump_handler+0x1a8>)
 80026ec:	681c      	ldr	r4, [r3, #0]
 80026ee:	2300      	movs	r3, #0
 80026f0:	462a      	mov	r2, r5
 80026f2:	2140      	movs	r1, #64	; 0x40
 80026f4:	481e      	ldr	r0, [pc, #120]	; (8002770 <fault_dump_handler+0x19c>)
 80026f6:	47a0      	blx	r4
 80026f8:	4605      	mov	r5, r0
 80026fa:	e7ec      	b.n	80026d6 <fault_dump_handler+0x102>
        printf("%08X ", buffer[index]);
 80026fc:	4b1c      	ldr	r3, [pc, #112]	; (8002770 <fault_dump_handler+0x19c>)
 80026fe:	f853 1024 	ldr.w	r1, [r3, r4, lsl #2]
 8002702:	481d      	ldr	r0, [pc, #116]	; (8002778 <fault_dump_handler+0x1a4>)
 8002704:	f000 f958 	bl	80029b8 <iprintf>
    for (index = 0; index < count; index++) {
 8002708:	3401      	adds	r4, #1
 800270a:	42a5      	cmp	r5, r4
 800270c:	dcf6      	bgt.n	80026fc <fault_dump_handler+0x128>
    printf("\r\n");
 800270e:	4803      	ldr	r0, [pc, #12]	; (800271c <fault_dump_handler+0x148>)
 8002710:	f000 f9d8 	bl	8002ac4 <puts>
    while (1);
 8002714:	e7fe      	b.n	8002714 <fault_dump_handler+0x140>
 8002716:	bf00      	nop
 8002718:	20000230 	andcs	r0, r0, r0, lsr r2
 800271c:	08003c68 	stmdaeq	r0, {r3, r5, r6, sl, fp, ip, sp}
 8002720:	08003c4c 	stmdaeq	r0, {r2, r3, r6, sl, fp, ip, sp}
 8002724:	08003c6c 	stmdaeq	r0, {r2, r3, r5, r6, sl, fp, ip, sp}
 8002728:	08003c80 	stmdaeq	r0, {r7, sl, fp, ip, sp}
 800272c:	08003c94 	stmdaeq	r0, {r2, r4, r7, sl, fp, ip, sp}
 8002730:	08003ca8 	stmdaeq	r0, {r3, r5, r7, sl, fp, ip, sp}
 8002734:	08003cbc 	stmdaeq	r0, {r2, r3, r4, r5, r7, sl, fp, ip, sp}
 8002738:	08003cd0 	stmdaeq	r0, {r4, r6, r7, sl, fp, ip, sp}
 800273c:	08003ce4 	stmdaeq	r0, {r2, r5, r6, r7, sl, fp, ip, sp}
 8002740:	08003cf8 	stmdaeq	r0, {r3, r4, r5, r6, r7, sl, fp, ip, sp}
 8002744:	08003d0c 	stmdaeq	r0, {r2, r3, r8, sl, fp, ip, sp}
 8002748:	08003d20 	stmdaeq	r0, {r5, r8, sl, fp, ip, sp}
 800274c:	08003d34 	stmdaeq	r0, {r2, r4, r5, r8, sl, fp, ip, sp}
 8002750:	08003d48 	stmdaeq	r0, {r3, r6, r8, sl, fp, ip, sp}
 8002754:	08003d5c 	stmdaeq	r0, {r2, r3, r4, r6, r8, sl, fp, ip, sp}
 8002758:	08003d70 	stmdaeq	r0, {r4, r5, r6, r8, sl, fp, ip, sp}
 800275c:	08003d84 	stmdaeq	r0, {r2, r7, r8, sl, fp, ip, sp}
 8002760:	08003d98 	stmdaeq	r0, {r3, r4, r7, r8, sl, fp, ip, sp}
 8002764:	08003dac 	stmdaeq	r0, {r2, r3, r5, r7, r8, sl, fp, ip, sp}
 8002768:	2000000c 	andcs	r0, r0, ip
 800276c:	20001288 	andcs	r1, r0, r8, lsl #5
 8002770:	20000128 	andcs	r0, r0, r8, lsr #2
 8002774:	08003dc0 	stmdaeq	r0, {r6, r7, r8, sl, fp, ip, sp}
 8002778:	08003dd0 	stmdaeq	r0, {r4, r6, r7, r8, sl, fp, ip, sp}
 800277c:	20000010 	andcs	r0, r0, r0, lsl r0

08002780 <fault_dump_exc_return>:
  *
  ******************************************************************************
  */
#include "fault-dump.h"

void fault_dump_exc_return(unsigned int exc_return) {
 8002780:	b510      	push	{r4, lr}
 8002782:	4604      	mov	r4, r0
    printf(" \r\n");
 8002784:	4816      	ldr	r0, [pc, #88]	; (80027e0 <fault_dump_exc_return+0x60>)
 8002786:	f000 f99d 	bl	8002ac4 <puts>
    printf(" Bit2 Return Stack Select..:");
 800278a:	4816      	ldr	r0, [pc, #88]	; (80027e4 <fault_dump_exc_return+0x64>)
 800278c:	f000 f914 	bl	80029b8 <iprintf>
    if (FD_CHECK_BIT(exc_return, 2)) {
 8002790:	f014 0f04 	tst.w	r4, #4
 8002794:	d018      	beq.n	80027c8 <fault_dump_exc_return+0x48>
        printf("[Use PSP...............].\r\n");
 8002796:	4814      	ldr	r0, [pc, #80]	; (80027e8 <fault_dump_exc_return+0x68>)
 8002798:	f000 f994 	bl	8002ac4 <puts>
    } else {
        printf("[Use MSP...............].\r\n");
    }
    printf(" Bit3 Return Mode Select...:");
 800279c:	4813      	ldr	r0, [pc, #76]	; (80027ec <fault_dump_exc_return+0x6c>)
 800279e:	f000 f90b 	bl	80029b8 <iprintf>
    if (FD_CHECK_BIT(exc_return, 3)) {
 80027a2:	f014 0f08 	tst.w	r4, #8
 80027a6:	d013      	beq.n	80027d0 <fault_dump_exc_return+0x50>
        printf("[Use Thread Mode.......].\r\n");
 80027a8:	4811      	ldr	r0, [pc, #68]	; (80027f0 <fault_dump_exc_return+0x70>)
 80027aa:	f000 f98b 	bl	8002ac4 <puts>
    } else {
        printf("[Use Process Mode......].\r\n");
    }
    printf(" Bit4 Stack Frame Type.....:");
 80027ae:	4811      	ldr	r0, [pc, #68]	; (80027f4 <fault_dump_exc_return+0x74>)
 80027b0:	f000 f902 	bl	80029b8 <iprintf>
    if (FD_CHECK_BIT(exc_return, 4)) {
 80027b4:	f014 0f10 	tst.w	r4, #16
 80027b8:	d00e      	beq.n	80027d8 <fault_dump_exc_return+0x58>
        printf("[Use 8 World Frame.....].\r\n");
 80027ba:	480f      	ldr	r0, [pc, #60]	; (80027f8 <fault_dump_exc_return+0x78>)
 80027bc:	f000 f982 	bl	8002ac4 <puts>
    } else {
        printf("[Use 26 World Frame....].\r\n");
    }
    printf(" \r\n");
 80027c0:	4807      	ldr	r0, [pc, #28]	; (80027e0 <fault_dump_exc_return+0x60>)
 80027c2:	f000 f97f 	bl	8002ac4 <puts>
}
 80027c6:	bd10      	pop	{r4, pc}
        printf("[Use MSP...............].\r\n");
 80027c8:	480c      	ldr	r0, [pc, #48]	; (80027fc <fault_dump_exc_return+0x7c>)
 80027ca:	f000 f97b 	bl	8002ac4 <puts>
 80027ce:	e7e5      	b.n	800279c <fault_dump_exc_return+0x1c>
        printf("[Use Process Mode......].\r\n");
 80027d0:	480b      	ldr	r0, [pc, #44]	; (8002800 <fault_dump_exc_return+0x80>)
 80027d2:	f000 f977 	bl	8002ac4 <puts>
 80027d6:	e7ea      	b.n	80027ae <fault_dump_exc_return+0x2e>
        printf("[Use 26 World Frame....].\r\n");
 80027d8:	480a      	ldr	r0, [pc, #40]	; (8002804 <fault_dump_exc_return+0x84>)
 80027da:	f000 f973 	bl	8002ac4 <puts>
 80027de:	e7ef      	b.n	80027c0 <fault_dump_exc_return+0x40>
 80027e0:	08003dd8 	stmdaeq	r0, {r3, r4, r6, r7, r8, sl, fp, ip, sp}
 80027e4:	08003ddc 	stmdaeq	r0, {r2, r3, r4, r6, r7, r8, sl, fp, ip, sp}
 80027e8:	08003dfc 	stmdaeq	r0, {r2, r3, r4, r5, r6, r7, r8, sl, fp, ip, sp}
 80027ec:	08003e34 	stmdaeq	r0, {r2, r4, r5, r9, sl, fp, ip, sp}
 80027f0:	08003e54 	stmdaeq	r0, {r2, r4, r6, r9, sl, fp, ip, sp}
 80027f4:	08003e8c 	stmdaeq	r0, {r2, r3, r7, r9, sl, fp, ip, sp}
