
build/gcc/an505-qemu.elf:     file format elf32-littlearm


Disassembly of section .text:

10000000 <__Vectors>:
10000000:	38100000 	ldmdacc	r0, {}	; <UNPREDICTABLE>
10000004:	10001f69 	andne	r1, r0, r9, ror #30
10000008:	10001fbd 			; <UNDEFINED> instruction: 0x10001fbd
1000000c:	10001fd9 	ldrdne	r1, [r0], -r9
10000010:	10001fbd 			; <UNDEFINED> instruction: 0x10001fbd
10000014:	10001fbd 			; <UNDEFINED> instruction: 0x10001fbd
10000018:	10001fbd 			; <UNDEFINED> instruction: 0x10001fbd
1000001c:	10001fbd 			; <UNDEFINED> instruction: 0x10001fbd
	...
1000002c:	10001fbd 			; <UNDEFINED> instruction: 0x10001fbd
10000030:	10001fbd 			; <UNDEFINED> instruction: 0x10001fbd
10000034:	00000000 	andeq	r0, r0, r0
10000038:	10001fbd 			; <UNDEFINED> instruction: 0x10001fbd
1000003c:	10001fbd 			; <UNDEFINED> instruction: 0x10001fbd
10000040:	10001fbd 			; <UNDEFINED> instruction: 0x10001fbd
10000044:	10001fbd 			; <UNDEFINED> instruction: 0x10001fbd
10000048:	10001fbd 			; <UNDEFINED> instruction: 0x10001fbd
1000004c:	10001fbd 			; <UNDEFINED> instruction: 0x10001fbd
10000050:	10001fbd 			; <UNDEFINED> instruction: 0x10001fbd
10000054:	10001fbd 			; <UNDEFINED> instruction: 0x10001fbd
10000058:	10001fbd 			; <UNDEFINED> instruction: 0x10001fbd
1000005c:	10001fbd 			; <UNDEFINED> instruction: 0x10001fbd
10000060:	10001fbd 			; <UNDEFINED> instruction: 0x10001fbd
10000064:	10001fbd 			; <UNDEFINED> instruction: 0x10001fbd
	...

100007c0 <__do_global_dtors_aux>:
100007c0:	b510      	push	{r4, lr}
100007c2:	4c05      	ldr	r4, [pc, #20]	; (100007d8 <__do_global_dtors_aux+0x18>)
100007c4:	7823      	ldrb	r3, [r4, #0]
100007c6:	b933      	cbnz	r3, 100007d6 <__do_global_dtors_aux+0x16>
100007c8:	4b04      	ldr	r3, [pc, #16]	; (100007dc <__do_global_dtors_aux+0x1c>)
100007ca:	b113      	cbz	r3, 100007d2 <__do_global_dtors_aux+0x12>
100007cc:	4804      	ldr	r0, [pc, #16]	; (100007e0 <__do_global_dtors_aux+0x20>)
100007ce:	e000      	b.n	100007d2 <__do_global_dtors_aux+0x12>
100007d0:	bf00      	nop
100007d2:	2301      	movs	r3, #1
100007d4:	7023      	strb	r3, [r4, #0]
100007d6:	bd10      	pop	{r4, pc}
100007d8:	38000440 	stmdacc	r0, {r6, sl}
100007dc:	00000000 	andeq	r0, r0, r0
100007e0:	1000444c 	andne	r4, r0, ip, asr #8

100007e4 <frame_dummy>:
100007e4:	b508      	push	{r3, lr}
100007e6:	4b03      	ldr	r3, [pc, #12]	; (100007f4 <frame_dummy+0x10>)
100007e8:	b11b      	cbz	r3, 100007f2 <frame_dummy+0xe>
100007ea:	4903      	ldr	r1, [pc, #12]	; (100007f8 <frame_dummy+0x14>)
100007ec:	4803      	ldr	r0, [pc, #12]	; (100007fc <frame_dummy+0x18>)
100007ee:	e000      	b.n	100007f2 <frame_dummy+0xe>
100007f0:	bf00      	nop
100007f2:	bd08      	pop	{r3, pc}
100007f4:	00000000 	andeq	r0, r0, r0
100007f8:	38000444 	stmdacc	r0, {r2, r6, sl}
100007fc:	1000444c 	andne	r4, r0, ip, asr #8

10000800 <fault_unalign_trigger>:
    SCB->CCR |= SCB_CCR_DIV_0_TRP_Msk;
    c = (a + (b / c));
    printf("c = %d\r\n", c);
}

void fault_unalign_trigger(void) {
10000800:	b530      	push	{r4, r5, lr}
10000802:	b083      	sub	sp, #12
    volatile int *addr = NULL;
    volatile int value = 0;
10000804:	2400      	movs	r4, #0
10000806:	9401      	str	r4, [sp, #4]
    SCB->CCR |= SCB_CCR_UNALIGN_TRP_Msk;
10000808:	4a0e      	ldr	r2, [pc, #56]	; (10000844 <fault_unalign_trigger+0x44>)
1000080a:	6953      	ldr	r3, [r2, #20]
1000080c:	f043 0308 	orr.w	r3, r3, #8
10000810:	6153      	str	r3, [r2, #20]

    addr = (int*)0x00;
    value = *addr;
10000812:	6823      	ldr	r3, [r4, #0]
10000814:	9301      	str	r3, [sp, #4]
    printf("addr:0x%02X-value:0x%08X\r\n", (int)addr, value);
10000816:	9a01      	ldr	r2, [sp, #4]
10000818:	4d0b      	ldr	r5, [pc, #44]	; (10000848 <fault_unalign_trigger+0x48>)
1000081a:	4621      	mov	r1, r4
1000081c:	4628      	mov	r0, r5
1000081e:	f001 f965 	bl	10001aec <printf>
    addr = (int*)0x04;
    value = *addr;
10000822:	6863      	ldr	r3, [r4, #4]
10000824:	9301      	str	r3, [sp, #4]
    printf("addr:0x%02X-value:0x%08X\r\n", (int)addr, value);
10000826:	9a01      	ldr	r2, [sp, #4]
10000828:	2104      	movs	r1, #4
1000082a:	4628      	mov	r0, r5
1000082c:	f001 f95e 	bl	10001aec <printf>
    addr = (int*)0x03;
    value = *addr;
10000830:	f8d4 3003 	ldr.w	r3, [r4, #3]
10000834:	9301      	str	r3, [sp, #4]
    printf("addr:0x%02X-value:0x%08X\r\n", (int)addr, value);
10000836:	9a01      	ldr	r2, [sp, #4]
10000838:	2103      	movs	r1, #3
1000083a:	4628      	mov	r0, r5
1000083c:	f001 f956 	bl	10001aec <printf>
}
10000840:	b003      	add	sp, #12
10000842:	bd30      	pop	{r4, r5, pc}
10000844:	e000ed00 	and	lr, r0, r0, lsl #26
10000848:	10003f14 	andne	r3, r0, r4, lsl pc

1000084c <dump_callstack>:

void dump_callstack(void) {
1000084c:	b530      	push	{r4, r5, lr}
1000084e:	b0c1      	sub	sp, #260	; 0x104
    unsigned int buffer[FD_STACK_DUMP_DEPTH_MAX] = {0};
10000850:	f44f 7280 	mov.w	r2, #256	; 0x100
10000854:	2100      	movs	r1, #0
10000856:	4668      	mov	r0, sp
10000858:	f001 fbe8 	bl	1000202c <memset>
    unsigned int point = fault_dump_bm_stack_point();
1000085c:	f001 faee 	bl	10001e3c <fault_dump_bm_stack_point>
10000860:	4604      	mov	r4, r0
    unsigned int start = fault_dump_bm_stack_start();
10000862:	f001 faef 	bl	10001e44 <fault_dump_bm_stack_start>
10000866:	4603      	mov	r3, r0
    int count = fault_dump_callstack(buffer, FD_STACK_DUMP_DEPTH_MAX, (unsigned int*)point, (unsigned int*)start);
10000868:	4622      	mov	r2, r4
1000086a:	2140      	movs	r1, #64	; 0x40
1000086c:	4668      	mov	r0, sp
1000086e:	f001 f9e5 	bl	10001c3c <fault_dump_callstack>
    if (count < 0) {
10000872:	1e05      	subs	r5, r0, #0
10000874:	db04      	blt.n	10000880 <dump_callstack+0x34>
        printf("CallStack dump error: %d\r\n", count);
    } else {
        printf("CallStack:[ ");
10000876:	480b      	ldr	r0, [pc, #44]	; (100008a4 <dump_callstack+0x58>)
10000878:	f001 f938 	bl	10001aec <printf>
        for (int i = 0; i < count; i++) {
1000087c:	2400      	movs	r4, #0
1000087e:	e00a      	b.n	10000896 <dump_callstack+0x4a>
        printf("CallStack dump error: %d\r\n", count);
10000880:	4629      	mov	r1, r5
10000882:	4809      	ldr	r0, [pc, #36]	; (100008a8 <dump_callstack+0x5c>)
10000884:	f001 f932 	bl	10001aec <printf>
10000888:	e00a      	b.n	100008a0 <dump_callstack+0x54>
            printf("%08X ", buffer[i]);
1000088a:	f85d 1024 	ldr.w	r1, [sp, r4, lsl #2]
1000088e:	4807      	ldr	r0, [pc, #28]	; (100008ac <dump_callstack+0x60>)
10000890:	f001 f92c 	bl	10001aec <printf>
        for (int i = 0; i < count; i++) {
10000894:	3401      	adds	r4, #1
10000896:	42ac      	cmp	r4, r5
10000898:	dbf7      	blt.n	1000088a <dump_callstack+0x3e>
        }
        printf("] \r\n");
1000089a:	4805      	ldr	r0, [pc, #20]	; (100008b0 <dump_callstack+0x64>)
1000089c:	f001 f946 	bl	10001b2c <puts>
    }
}
100008a0:	b041      	add	sp, #260	; 0x104
100008a2:	bd30      	pop	{r4, r5, pc}
100008a4:	10003f4c 	andne	r3, r0, ip, asr #30
100008a8:	10003f30 	andne	r3, r0, r0, lsr pc
100008ac:	10003f5c 	andne	r3, r0, ip, asr pc
100008b0:	10003f64 	andne	r3, r0, r4, ror #30

100008b4 <test0>:

void test0(void) {
100008b4:	b508      	push	{r3, lr}
    printf("this is %s.\r\n", __func__);
100008b6:	4904      	ldr	r1, [pc, #16]	; (100008c8 <test0+0x14>)
100008b8:	4804      	ldr	r0, [pc, #16]	; (100008cc <test0+0x18>)
100008ba:	f001 f917 	bl	10001aec <printf>
    dump_callstack();
100008be:	f7ff ffc5 	bl	1000084c <dump_callstack>
    // trigger a fault.
    fault_unalign_trigger();
100008c2:	f7ff ff9d 	bl	10000800 <fault_unalign_trigger>
}
100008c6:	bd08      	pop	{r3, pc}
100008c8:	10003fbc 			; <UNDEFINED> instruction: 0x10003fbc
100008cc:	10003f68 	andne	r3, r0, r8, ror #30

100008d0 <test1>:

void test1(void) {
100008d0:	b508      	push	{r3, lr}
    printf("this is %s.\r\n", __func__);
100008d2:	4903      	ldr	r1, [pc, #12]	; (100008e0 <test1+0x10>)
100008d4:	4803      	ldr	r0, [pc, #12]	; (100008e4 <test1+0x14>)
100008d6:	f001 f909 	bl	10001aec <printf>
    test0();
100008da:	f7ff ffeb 	bl	100008b4 <test0>
}
100008de:	bd08      	pop	{r3, pc}
100008e0:	10003fb4 			; <UNDEFINED> instruction: 0x10003fb4
100008e4:	10003f68 	andne	r3, r0, r8, ror #30

100008e8 <test2>:

void test2(void) {
100008e8:	b508      	push	{r3, lr}
    printf("this is %s.\r\n", __func__);
100008ea:	4903      	ldr	r1, [pc, #12]	; (100008f8 <test2+0x10>)
100008ec:	4803      	ldr	r0, [pc, #12]	; (100008fc <test2+0x14>)
100008ee:	f001 f8fd 	bl	10001aec <printf>
    test1();
100008f2:	f7ff ffed 	bl	100008d0 <test1>
}
100008f6:	bd08      	pop	{r3, pc}
100008f8:	10003fac 	andne	r3, r0, ip, lsr #31
100008fc:	10003f68 	andne	r3, r0, r8, ror #30

10000900 <test3>:

void test3(void) {
10000900:	b508      	push	{r3, lr}
    printf("this is %s.\r\n", __func__);
10000902:	4903      	ldr	r1, [pc, #12]	; (10000910 <test3+0x10>)
10000904:	4803      	ldr	r0, [pc, #12]	; (10000914 <test3+0x14>)
10000906:	f001 f8f1 	bl	10001aec <printf>
    test2();
1000090a:	f7ff ffed 	bl	100008e8 <test2>
}
1000090e:	bd08      	pop	{r3, pc}
10000910:	10003fa4 	andne	r3, r0, r4, lsr #31
10000914:	10003f68 	andne	r3, r0, r8, ror #30

10000918 <test4>:

void test4(void) {
10000918:	b508      	push	{r3, lr}
    printf("this is %s.\r\n", __func__);
1000091a:	4903      	ldr	r1, [pc, #12]	; (10000928 <test4+0x10>)
1000091c:	4803      	ldr	r0, [pc, #12]	; (1000092c <test4+0x14>)
1000091e:	f001 f8e5 	bl	10001aec <printf>
    test3();
10000922:	f7ff ffed 	bl	10000900 <test3>
}
10000926:	bd08      	pop	{r3, pc}
10000928:	10003f9c 	mulne	r0, ip, pc	; <UNPREDICTABLE>
1000092c:	10003f68 	andne	r3, r0, r8, ror #30

10000930 <test5>:

void test5(void) {
10000930:	b508      	push	{r3, lr}
    printf("this is %s.\r\n", __func__);
10000932:	4903      	ldr	r1, [pc, #12]	; (10000940 <test5+0x10>)
10000934:	4803      	ldr	r0, [pc, #12]	; (10000944 <test5+0x14>)
10000936:	f001 f8d9 	bl	10001aec <printf>
    test4();
1000093a:	f7ff ffed 	bl	10000918 <test4>
}
1000093e:	bd08      	pop	{r3, pc}
10000940:	10003f94 	mulne	r0, r4, pc	; <UNPREDICTABLE>
10000944:	10003f68 	andne	r3, r0, r8, ror #30

10000948 <main>:

int main(void) {
10000948:	b510      	push	{r4, lr}
    int count = 0;
    uart_init();
1000094a:	f001 f8ff 	bl	10001b4c <uart_init>

    printf("Start\r\n");
1000094e:	4807      	ldr	r0, [pc, #28]	; (1000096c <main+0x24>)
10000950:	f001 f8ec 	bl	10001b2c <puts>
    fault_dump_init();
10000954:	f001 f94a 	bl	10001bec <fault_dump_init>
    test5();
10000958:	f7ff ffea 	bl	10000930 <test5>
    int count = 0;
1000095c:	2100      	movs	r1, #0

    while (1) {
        __NOP();
1000095e:	bf00      	nop
        printf("hello world - %d.\r\n", count++);
10000960:	1c4c      	adds	r4, r1, #1
10000962:	4803      	ldr	r0, [pc, #12]	; (10000970 <main+0x28>)
10000964:	f001 f8c2 	bl	10001aec <printf>
10000968:	4621      	mov	r1, r4
1000096a:	e7f8      	b.n	1000095e <main+0x16>
1000096c:	10003f78 	andne	r3, r0, r8, ror pc
10000970:	10003f80 	andne	r3, r0, r0, lsl #31

10000974 <SystemInit>:
 *----------------------------------------------------------------------------*/
void SystemInit (void)
{

#if defined (__VTOR_PRESENT) && (__VTOR_PRESENT == 1U)
  SCB->VTOR = (uint32_t) &(__VECTOR_TABLE[0]);
10000974:	4b06      	ldr	r3, [pc, #24]	; (10000990 <SystemInit+0x1c>)
10000976:	4a07      	ldr	r2, [pc, #28]	; (10000994 <SystemInit+0x20>)
10000978:	609a      	str	r2, [r3, #8]
#endif

#if defined (__FPU_USED) && (__FPU_USED == 1U)
  SCB->CPACR |= ((3U << 10U*2U) |           /* enable CP10 Full Access */
1000097a:	f8d3 2088 	ldr.w	r2, [r3, #136]	; 0x88
1000097e:	f442 0270 	orr.w	r2, r2, #15728640	; 0xf00000
10000982:	f8c3 2088 	str.w	r2, [r3, #136]	; 0x88

#if defined (__ARM_FEATURE_CMSE) && (__ARM_FEATURE_CMSE == 3U)
  TZ_SAU_Setup();
#endif

  SystemCoreClock = SYSTEM_CLOCK;
10000986:	4b04      	ldr	r3, [pc, #16]	; (10000998 <SystemInit+0x24>)
10000988:	4a04      	ldr	r2, [pc, #16]	; (1000099c <SystemInit+0x28>)
1000098a:	601a      	str	r2, [r3, #0]
}
1000098c:	4770      	bx	lr
1000098e:	bf00      	nop
10000990:	e000ed00 	and	lr, r0, r0, lsl #26
10000994:	10000000 	andne	r0, r0, r0
10000998:	38000000 	stmdacc	r0, {}	; <UNPREDICTABLE>
1000099c:	017d7840 	cmneq	sp, r0, asr #16

100009a0 <_out_null>:

// internal null output
static inline void _out_null(char character, void* buffer, size_t idx, size_t maxlen)
{
  (void)character; (void)buffer; (void)idx; (void)maxlen;
}
100009a0:	4770      	bx	lr

100009a2 <_atoi>:
}


// internal ASCII string to unsigned int conversion
static unsigned int _atoi(const char** str)
{
100009a2:	4601      	mov	r1, r0
  unsigned int i = 0U;
100009a4:	2000      	movs	r0, #0
  while (_is_digit(**str)) {
100009a6:	e007      	b.n	100009b8 <_atoi+0x16>
    i = i * 10U + (unsigned int)(*((*str)++) - '0');
100009a8:	eb00 0080 	add.w	r0, r0, r0, lsl #2
100009ac:	1c53      	adds	r3, r2, #1
100009ae:	600b      	str	r3, [r1, #0]
100009b0:	7813      	ldrb	r3, [r2, #0]
100009b2:	eb03 0040 	add.w	r0, r3, r0, lsl #1
100009b6:	3830      	subs	r0, #48	; 0x30
  while (_is_digit(**str)) {
100009b8:	680a      	ldr	r2, [r1, #0]
100009ba:	7813      	ldrb	r3, [r2, #0]
  return (ch >= '0') && (ch <= '9');
100009bc:	3b30      	subs	r3, #48	; 0x30
100009be:	b2db      	uxtb	r3, r3
  while (_is_digit(**str)) {
100009c0:	2b09      	cmp	r3, #9
100009c2:	d9f1      	bls.n	100009a8 <_atoi+0x6>
  }
  return i;
}
100009c4:	4770      	bx	lr

100009c6 <_out_rev>:


// output the specified string in reverse, taking care of any zero-padding
static size_t _out_rev(out_fct_type out, char* buffer, size_t idx, size_t maxlen, const char* buf, size_t len, unsigned int width, unsigned int flags)
{
100009c6:	e92d 4ff0 	stmdb	sp!, {r4, r5, r6, r7, r8, r9, sl, fp, lr}
100009ca:	b083      	sub	sp, #12
100009cc:	4605      	mov	r5, r0
100009ce:	460e      	mov	r6, r1
100009d0:	4693      	mov	fp, r2
100009d2:	461f      	mov	r7, r3
100009d4:	f8dd a030 	ldr.w	sl, [sp, #48]	; 0x30
100009d8:	9c0d      	ldr	r4, [sp, #52]	; 0x34
100009da:	f8dd 9038 	ldr.w	r9, [sp, #56]	; 0x38
  const size_t start_idx = idx;

  // pad spaces up to given width
  if (!(flags & FLAGS_LEFT) && !(flags & FLAGS_ZEROPAD)) {
100009de:	9b0f      	ldr	r3, [sp, #60]	; 0x3c
100009e0:	f013 0f03 	tst.w	r3, #3
100009e4:	d119      	bne.n	10000a1a <_out_rev+0x54>
    for (size_t i = len; i < width; i++) {
100009e6:	46a0      	mov	r8, r4
100009e8:	9201      	str	r2, [sp, #4]
100009ea:	45c8      	cmp	r8, r9
100009ec:	d209      	bcs.n	10000a02 <_out_rev+0x3c>
      out(' ', buffer, idx++, maxlen);
100009ee:	f102 0b01 	add.w	fp, r2, #1
100009f2:	463b      	mov	r3, r7
100009f4:	4631      	mov	r1, r6
100009f6:	2020      	movs	r0, #32
100009f8:	47a8      	blx	r5
    for (size_t i = len; i < width; i++) {
100009fa:	f108 0801 	add.w	r8, r8, #1
      out(' ', buffer, idx++, maxlen);
100009fe:	465a      	mov	r2, fp
10000a00:	e7f3      	b.n	100009ea <_out_rev+0x24>
10000a02:	f8dd b004 	ldr.w	fp, [sp, #4]
10000a06:	e008      	b.n	10000a1a <_out_rev+0x54>
    }
  }

  // reverse string
  while (len) {
    out(buf[--len], buffer, idx++, maxlen);
10000a08:	3c01      	subs	r4, #1
10000a0a:	f102 0801 	add.w	r8, r2, #1
10000a0e:	463b      	mov	r3, r7
10000a10:	4631      	mov	r1, r6
10000a12:	f81a 0004 	ldrb.w	r0, [sl, r4]
10000a16:	47a8      	blx	r5
10000a18:	4642      	mov	r2, r8
  while (len) {
10000a1a:	2c00      	cmp	r4, #0
10000a1c:	d1f4      	bne.n	10000a08 <_out_rev+0x42>
  }

  // append pad spaces up to given width
  if (flags & FLAGS_LEFT) {
10000a1e:	9b0f      	ldr	r3, [sp, #60]	; 0x3c
10000a20:	f013 0f02 	tst.w	r3, #2
10000a24:	d103      	bne.n	10000a2e <_out_rev+0x68>
      out(' ', buffer, idx++, maxlen);
    }
  }

  return idx;
}
10000a26:	4610      	mov	r0, r2
10000a28:	b003      	add	sp, #12
10000a2a:	e8bd 8ff0 	ldmia.w	sp!, {r4, r5, r6, r7, r8, r9, sl, fp, pc}
    while (idx - start_idx < width) {
10000a2e:	eba2 030b 	sub.w	r3, r2, fp
10000a32:	454b      	cmp	r3, r9
10000a34:	d2f7      	bcs.n	10000a26 <_out_rev+0x60>
      out(' ', buffer, idx++, maxlen);
10000a36:	1c54      	adds	r4, r2, #1
10000a38:	463b      	mov	r3, r7
10000a3a:	4631      	mov	r1, r6
10000a3c:	2020      	movs	r0, #32
10000a3e:	47a8      	blx	r5
10000a40:	4622      	mov	r2, r4
10000a42:	e7f4      	b.n	10000a2e <_out_rev+0x68>

10000a44 <_ntoa_format>:


// internal itoa format
static size_t _ntoa_format(out_fct_type out, char* buffer, size_t idx, size_t maxlen, char* buf, size_t len, bool negative, unsigned int base, unsigned int prec, unsigned int width, unsigned int flags)
{
10000a44:	e92d 43f0 	stmdb	sp!, {r4, r5, r6, r7, r8, r9, lr}
10000a48:	b085      	sub	sp, #20
10000a4a:	9d0c      	ldr	r5, [sp, #48]	; 0x30
10000a4c:	9c0d      	ldr	r4, [sp, #52]	; 0x34
10000a4e:	f89d 9038 	ldrb.w	r9, [sp, #56]	; 0x38
10000a52:	f8dd 803c 	ldr.w	r8, [sp, #60]	; 0x3c
10000a56:	f8dd e040 	ldr.w	lr, [sp, #64]	; 0x40
10000a5a:	9f11      	ldr	r7, [sp, #68]	; 0x44
10000a5c:	9e12      	ldr	r6, [sp, #72]	; 0x48
  // pad leading zeros
  if (!(flags & FLAGS_LEFT)) {
10000a5e:	f016 0f02 	tst.w	r6, #2
10000a62:	d121      	bne.n	10000aa8 <_ntoa_format+0x64>
    if (width && (flags & FLAGS_ZEROPAD) && (negative || (flags & (FLAGS_PLUS | FLAGS_SPACE)))) {
10000a64:	b17f      	cbz	r7, 10000a86 <_ntoa_format+0x42>
10000a66:	f016 0f01 	tst.w	r6, #1
10000a6a:	d00c      	beq.n	10000a86 <_ntoa_format+0x42>
10000a6c:	f1b9 0f00 	cmp.w	r9, #0
10000a70:	d102      	bne.n	10000a78 <_ntoa_format+0x34>
10000a72:	f016 0f0c 	tst.w	r6, #12
10000a76:	d006      	beq.n	10000a86 <_ntoa_format+0x42>
      width--;
10000a78:	3f01      	subs	r7, #1
10000a7a:	e004      	b.n	10000a86 <_ntoa_format+0x42>
    }
    while ((len < prec) && (len < PRINTF_NTOA_BUFFER_SIZE)) {
      buf[len++] = '0';
10000a7c:	f04f 0c30 	mov.w	ip, #48	; 0x30
10000a80:	f805 c004 	strb.w	ip, [r5, r4]
10000a84:	3401      	adds	r4, #1
    while ((len < prec) && (len < PRINTF_NTOA_BUFFER_SIZE)) {
10000a86:	4574      	cmp	r4, lr
10000a88:	d201      	bcs.n	10000a8e <_ntoa_format+0x4a>
10000a8a:	2c1f      	cmp	r4, #31
10000a8c:	d9f6      	bls.n	10000a7c <_ntoa_format+0x38>
    }
    while ((flags & FLAGS_ZEROPAD) && (len < width) && (len < PRINTF_NTOA_BUFFER_SIZE)) {
10000a8e:	f016 0f01 	tst.w	r6, #1
10000a92:	d009      	beq.n	10000aa8 <_ntoa_format+0x64>
10000a94:	42bc      	cmp	r4, r7
10000a96:	d207      	bcs.n	10000aa8 <_ntoa_format+0x64>
10000a98:	2c1f      	cmp	r4, #31
10000a9a:	d805      	bhi.n	10000aa8 <_ntoa_format+0x64>
      buf[len++] = '0';
10000a9c:	f04f 0c30 	mov.w	ip, #48	; 0x30
10000aa0:	f805 c004 	strb.w	ip, [r5, r4]
10000aa4:	3401      	adds	r4, #1
10000aa6:	e7f2      	b.n	10000a8e <_ntoa_format+0x4a>
    }
  }

  // handle hash
  if (flags & FLAGS_HASH) {
10000aa8:	f016 0f10 	tst.w	r6, #16
10000aac:	d017      	beq.n	10000ade <_ntoa_format+0x9a>
    if (!(flags & FLAGS_PRECISION) && len && ((len == prec) || (len == width))) {
10000aae:	f416 6f80 	tst.w	r6, #1024	; 0x400
10000ab2:	d104      	bne.n	10000abe <_ntoa_format+0x7a>
10000ab4:	b11c      	cbz	r4, 10000abe <_ntoa_format+0x7a>
10000ab6:	4574      	cmp	r4, lr
10000ab8:	d024      	beq.n	10000b04 <_ntoa_format+0xc0>
10000aba:	42bc      	cmp	r4, r7
10000abc:	d022      	beq.n	10000b04 <_ntoa_format+0xc0>
      len--;
      if (len && (base == 16U)) {
        len--;
      }
    }
    if ((base == 16U) && !(flags & FLAGS_UPPERCASE) && (len < PRINTF_NTOA_BUFFER_SIZE)) {
10000abe:	f1b8 0f10 	cmp.w	r8, #16
10000ac2:	d02b      	beq.n	10000b1c <_ntoa_format+0xd8>
      buf[len++] = 'x';
    }
    else if ((base == 16U) && (flags & FLAGS_UPPERCASE) && (len < PRINTF_NTOA_BUFFER_SIZE)) {
10000ac4:	f1b8 0f10 	cmp.w	r8, #16
10000ac8:	d033      	beq.n	10000b32 <_ntoa_format+0xee>
      buf[len++] = 'X';
    }
    else if ((base == 2U) && (len < PRINTF_NTOA_BUFFER_SIZE)) {
10000aca:	f1b8 0f02 	cmp.w	r8, #2
10000ace:	d03b      	beq.n	10000b48 <_ntoa_format+0x104>
      buf[len++] = 'b';
    }
    if (len < PRINTF_NTOA_BUFFER_SIZE) {
10000ad0:	2c1f      	cmp	r4, #31
10000ad2:	d804      	bhi.n	10000ade <_ntoa_format+0x9a>
      buf[len++] = '0';
10000ad4:	f04f 0c30 	mov.w	ip, #48	; 0x30
10000ad8:	f805 c004 	strb.w	ip, [r5, r4]
10000adc:	3401      	adds	r4, #1
    }
  }

  if (len < PRINTF_NTOA_BUFFER_SIZE) {
10000ade:	2c1f      	cmp	r4, #31
10000ae0:	d807      	bhi.n	10000af2 <_ntoa_format+0xae>
    if (negative) {
10000ae2:	f1b9 0f00 	cmp.w	r9, #0
10000ae6:	d037      	beq.n	10000b58 <_ntoa_format+0x114>
      buf[len++] = '-';
10000ae8:	f04f 0c2d 	mov.w	ip, #45	; 0x2d
10000aec:	f805 c004 	strb.w	ip, [r5, r4]
10000af0:	3401      	adds	r4, #1
    else if (flags & FLAGS_SPACE) {
      buf[len++] = ' ';
    }
  }

  return _out_rev(out, buffer, idx, maxlen, buf, len, width, flags);
10000af2:	9603      	str	r6, [sp, #12]
10000af4:	9702      	str	r7, [sp, #8]
10000af6:	9401      	str	r4, [sp, #4]
10000af8:	9500      	str	r5, [sp, #0]
10000afa:	f7ff ff64 	bl	100009c6 <_out_rev>
}
10000afe:	b005      	add	sp, #20
10000b00:	e8bd 83f0 	ldmia.w	sp!, {r4, r5, r6, r7, r8, r9, pc}
      if (len && (base == 16U)) {
10000b04:	f1b4 0c01 	subs.w	ip, r4, #1
10000b08:	d006      	beq.n	10000b18 <_ntoa_format+0xd4>
10000b0a:	f1b8 0f10 	cmp.w	r8, #16
10000b0e:	d001      	beq.n	10000b14 <_ntoa_format+0xd0>
      len--;
10000b10:	4664      	mov	r4, ip
10000b12:	e7d4      	b.n	10000abe <_ntoa_format+0x7a>
        len--;
10000b14:	3c02      	subs	r4, #2
10000b16:	e7d2      	b.n	10000abe <_ntoa_format+0x7a>
      len--;
10000b18:	4664      	mov	r4, ip
10000b1a:	e7d0      	b.n	10000abe <_ntoa_format+0x7a>
    if ((base == 16U) && !(flags & FLAGS_UPPERCASE) && (len < PRINTF_NTOA_BUFFER_SIZE)) {
10000b1c:	f016 0f20 	tst.w	r6, #32
10000b20:	d1d0      	bne.n	10000ac4 <_ntoa_format+0x80>
10000b22:	2c1f      	cmp	r4, #31
10000b24:	d8ce      	bhi.n	10000ac4 <_ntoa_format+0x80>
      buf[len++] = 'x';
10000b26:	f04f 0c78 	mov.w	ip, #120	; 0x78
10000b2a:	f805 c004 	strb.w	ip, [r5, r4]
10000b2e:	3401      	adds	r4, #1
10000b30:	e7ce      	b.n	10000ad0 <_ntoa_format+0x8c>
    else if ((base == 16U) && (flags & FLAGS_UPPERCASE) && (len < PRINTF_NTOA_BUFFER_SIZE)) {
10000b32:	f016 0f20 	tst.w	r6, #32
10000b36:	d0c8      	beq.n	10000aca <_ntoa_format+0x86>
10000b38:	2c1f      	cmp	r4, #31
10000b3a:	d8c6      	bhi.n	10000aca <_ntoa_format+0x86>
      buf[len++] = 'X';
10000b3c:	f04f 0c58 	mov.w	ip, #88	; 0x58
10000b40:	f805 c004 	strb.w	ip, [r5, r4]
10000b44:	3401      	adds	r4, #1
10000b46:	e7c3      	b.n	10000ad0 <_ntoa_format+0x8c>
    else if ((base == 2U) && (len < PRINTF_NTOA_BUFFER_SIZE)) {
10000b48:	2c1f      	cmp	r4, #31
10000b4a:	d8c1      	bhi.n	10000ad0 <_ntoa_format+0x8c>
      buf[len++] = 'b';
10000b4c:	f04f 0c62 	mov.w	ip, #98	; 0x62
10000b50:	f805 c004 	strb.w	ip, [r5, r4]
10000b54:	3401      	adds	r4, #1
10000b56:	e7bb      	b.n	10000ad0 <_ntoa_format+0x8c>
    else if (flags & FLAGS_PLUS) {
10000b58:	f016 0f04 	tst.w	r6, #4
10000b5c:	d005      	beq.n	10000b6a <_ntoa_format+0x126>
      buf[len++] = '+';  // ignore the space if the '+' exists
10000b5e:	f04f 0c2b 	mov.w	ip, #43	; 0x2b
10000b62:	f805 c004 	strb.w	ip, [r5, r4]
10000b66:	3401      	adds	r4, #1
10000b68:	e7c3      	b.n	10000af2 <_ntoa_format+0xae>
    else if (flags & FLAGS_SPACE) {
10000b6a:	f016 0f08 	tst.w	r6, #8
10000b6e:	d0c0      	beq.n	10000af2 <_ntoa_format+0xae>
      buf[len++] = ' ';
10000b70:	f04f 0c20 	mov.w	ip, #32
10000b74:	f805 c004 	strb.w	ip, [r5, r4]
10000b78:	3401      	adds	r4, #1
10000b7a:	e7ba      	b.n	10000af2 <_ntoa_format+0xae>

10000b7c <_ntoa_long>:


// internal itoa for 'long' type
static size_t _ntoa_long(out_fct_type out, char* buffer, size_t idx, size_t maxlen, unsigned long value, bool negative, unsigned long base, unsigned int prec, unsigned int width, unsigned int flags)
{
10000b7c:	b5f0      	push	{r4, r5, r6, r7, lr}
10000b7e:	b091      	sub	sp, #68	; 0x44
10000b80:	9c16      	ldr	r4, [sp, #88]	; 0x58
10000b82:	9d18      	ldr	r5, [sp, #96]	; 0x60
10000b84:	9e1b      	ldr	r6, [sp, #108]	; 0x6c
  char buf[PRINTF_NTOA_BUFFER_SIZE];
  size_t len = 0U;

  // no hash for 0 values
  if (!value) {
10000b86:	b90c      	cbnz	r4, 10000b8c <_ntoa_long+0x10>
    flags &= ~FLAGS_HASH;
10000b88:	f026 0610 	bic.w	r6, r6, #16
  }

  // write if precision != 0 and value is != 0
  if (!(flags & FLAGS_PRECISION) || value) {
10000b8c:	f416 6e80 	ands.w	lr, r6, #1024	; 0x400
10000b90:	d016      	beq.n	10000bc0 <_ntoa_long+0x44>
10000b92:	b364      	cbz	r4, 10000bee <_ntoa_long+0x72>
10000b94:	f04f 0e00 	mov.w	lr, #0
10000b98:	e012      	b.n	10000bc0 <_ntoa_long+0x44>
    do {
      const char digit = (char)(value % base);
      buf[len++] = digit < 10 ? '0' + digit : (flags & FLAGS_UPPERCASE ? 'A' : 'a') + digit - 10;
10000b9a:	f10c 0c30 	add.w	ip, ip, #48	; 0x30
10000b9e:	fa5f fc8c 	uxtb.w	ip, ip
10000ba2:	f10e 0701 	add.w	r7, lr, #1
10000ba6:	f10e 0e40 	add.w	lr, lr, #64	; 0x40
10000baa:	44ee      	add	lr, sp
10000bac:	f80e cc20 	strb.w	ip, [lr, #-32]
      value /= base;
10000bb0:	fbb4 fcf5 	udiv	ip, r4, r5
    } while (value && (len < PRINTF_NTOA_BUFFER_SIZE));
10000bb4:	42ac      	cmp	r4, r5
10000bb6:	d31b      	bcc.n	10000bf0 <_ntoa_long+0x74>
10000bb8:	2f1f      	cmp	r7, #31
10000bba:	d819      	bhi.n	10000bf0 <_ntoa_long+0x74>
      buf[len++] = digit < 10 ? '0' + digit : (flags & FLAGS_UPPERCASE ? 'A' : 'a') + digit - 10;
10000bbc:	46be      	mov	lr, r7
      value /= base;
10000bbe:	4664      	mov	r4, ip
      const char digit = (char)(value % base);
10000bc0:	fbb4 fcf5 	udiv	ip, r4, r5
10000bc4:	fb05 4c1c 	mls	ip, r5, ip, r4
10000bc8:	fa5f fc8c 	uxtb.w	ip, ip
      buf[len++] = digit < 10 ? '0' + digit : (flags & FLAGS_UPPERCASE ? 'A' : 'a') + digit - 10;
10000bcc:	f1bc 0f09 	cmp.w	ip, #9
10000bd0:	d9e3      	bls.n	10000b9a <_ntoa_long+0x1e>
10000bd2:	f016 0f20 	tst.w	r6, #32
10000bd6:	d008      	beq.n	10000bea <_ntoa_long+0x6e>
10000bd8:	2741      	movs	r7, #65	; 0x41
10000bda:	44bc      	add	ip, r7
10000bdc:	fa5f fc8c 	uxtb.w	ip, ip
10000be0:	f1ac 0c0a 	sub.w	ip, ip, #10
10000be4:	fa5f fc8c 	uxtb.w	ip, ip
10000be8:	e7db      	b.n	10000ba2 <_ntoa_long+0x26>
10000bea:	2761      	movs	r7, #97	; 0x61
10000bec:	e7f5      	b.n	10000bda <_ntoa_long+0x5e>
  size_t len = 0U;
10000bee:	4627      	mov	r7, r4
  }

  return _ntoa_format(out, buffer, idx, maxlen, buf, len, negative, (unsigned int)base, prec, width, flags);
10000bf0:	9606      	str	r6, [sp, #24]
10000bf2:	9c1a      	ldr	r4, [sp, #104]	; 0x68
10000bf4:	9405      	str	r4, [sp, #20]
10000bf6:	9c19      	ldr	r4, [sp, #100]	; 0x64
10000bf8:	9404      	str	r4, [sp, #16]
10000bfa:	9503      	str	r5, [sp, #12]
10000bfc:	f89d 405c 	ldrb.w	r4, [sp, #92]	; 0x5c
10000c00:	9402      	str	r4, [sp, #8]
10000c02:	9701      	str	r7, [sp, #4]
10000c04:	ac08      	add	r4, sp, #32
10000c06:	9400      	str	r4, [sp, #0]
10000c08:	f7ff ff1c 	bl	10000a44 <_ntoa_format>
}
10000c0c:	b011      	add	sp, #68	; 0x44
10000c0e:	bdf0      	pop	{r4, r5, r6, r7, pc}

10000c10 <_ntoa_long_long>:


// internal itoa for 'long long' type
#if defined(PRINTF_SUPPORT_LONG_LONG)
static size_t _ntoa_long_long(out_fct_type out, char* buffer, size_t idx, size_t maxlen, unsigned long long value, bool negative, unsigned long long base, unsigned int prec, unsigned int width, unsigned int flags)
{
10000c10:	e92d 4ff0 	stmdb	sp!, {r4, r5, r6, r7, r8, r9, sl, fp, lr}
10000c14:	b095      	sub	sp, #84	; 0x54
10000c16:	9009      	str	r0, [sp, #36]	; 0x24
10000c18:	910a      	str	r1, [sp, #40]	; 0x28
10000c1a:	920b      	str	r2, [sp, #44]	; 0x2c
10000c1c:	469b      	mov	fp, r3
10000c1e:	9d1e      	ldr	r5, [sp, #120]	; 0x78
10000c20:	9e1f      	ldr	r6, [sp, #124]	; 0x7c
10000c22:	9f22      	ldr	r7, [sp, #136]	; 0x88
10000c24:	f8dd 808c 	ldr.w	r8, [sp, #140]	; 0x8c
10000c28:	f8dd a098 	ldr.w	sl, [sp, #152]	; 0x98
  char buf[PRINTF_NTOA_BUFFER_SIZE];
  size_t len = 0U;

  // no hash for 0 values
  if (!value) {
10000c2c:	ea55 0306 	orrs.w	r3, r5, r6
10000c30:	d101      	bne.n	10000c36 <_ntoa_long_long+0x26>
    flags &= ~FLAGS_HASH;
10000c32:	f02a 0a10 	bic.w	sl, sl, #16
  }

  // write if precision != 0 and value is != 0
  if (!(flags & FLAGS_PRECISION) || value) {
10000c36:	f41a 6480 	ands.w	r4, sl, #1024	; 0x400
10000c3a:	d01f      	beq.n	10000c7c <_ntoa_long_long+0x6c>
10000c3c:	ea55 0306 	orrs.w	r3, r5, r6
10000c40:	d030      	beq.n	10000ca4 <_ntoa_long_long+0x94>
10000c42:	2400      	movs	r4, #0
10000c44:	e01a      	b.n	10000c7c <_ntoa_long_long+0x6c>
    do {
      const char digit = (char)(value % base);
      buf[len++] = digit < 10 ? '0' + digit : (flags & FLAGS_UPPERCASE ? 'A' : 'a') + digit - 10;
10000c46:	f103 0230 	add.w	r2, r3, #48	; 0x30
10000c4a:	b2d2      	uxtb	r2, r2
10000c4c:	f104 0901 	add.w	r9, r4, #1
10000c50:	f104 0350 	add.w	r3, r4, #80	; 0x50
10000c54:	eb0d 0403 	add.w	r4, sp, r3
10000c58:	f804 2c20 	strb.w	r2, [r4, #-32]
      value /= base;
10000c5c:	463a      	mov	r2, r7
10000c5e:	4643      	mov	r3, r8
10000c60:	4628      	mov	r0, r5
10000c62:	4631      	mov	r1, r6
10000c64:	f001 ff44 	bl	10002af0 <__aeabi_uldivmod>
    } while (value && (len < PRINTF_NTOA_BUFFER_SIZE));
10000c68:	42bd      	cmp	r5, r7
10000c6a:	eb76 0308 	sbcs.w	r3, r6, r8
10000c6e:	d31b      	bcc.n	10000ca8 <_ntoa_long_long+0x98>
10000c70:	f1b9 0f1f 	cmp.w	r9, #31
10000c74:	d818      	bhi.n	10000ca8 <_ntoa_long_long+0x98>
      buf[len++] = digit < 10 ? '0' + digit : (flags & FLAGS_UPPERCASE ? 'A' : 'a') + digit - 10;
10000c76:	464c      	mov	r4, r9
      value /= base;
10000c78:	4605      	mov	r5, r0
10000c7a:	460e      	mov	r6, r1
      const char digit = (char)(value % base);
10000c7c:	463a      	mov	r2, r7
10000c7e:	4643      	mov	r3, r8
10000c80:	4628      	mov	r0, r5
10000c82:	4631      	mov	r1, r6
10000c84:	f001 ff34 	bl	10002af0 <__aeabi_uldivmod>
10000c88:	b2d3      	uxtb	r3, r2
      buf[len++] = digit < 10 ? '0' + digit : (flags & FLAGS_UPPERCASE ? 'A' : 'a') + digit - 10;
10000c8a:	2b09      	cmp	r3, #9
10000c8c:	d9db      	bls.n	10000c46 <_ntoa_long_long+0x36>
10000c8e:	f01a 0f20 	tst.w	sl, #32
10000c92:	d005      	beq.n	10000ca0 <_ntoa_long_long+0x90>
10000c94:	2241      	movs	r2, #65	; 0x41
10000c96:	441a      	add	r2, r3
10000c98:	b2d2      	uxtb	r2, r2
10000c9a:	3a0a      	subs	r2, #10
10000c9c:	b2d2      	uxtb	r2, r2
10000c9e:	e7d5      	b.n	10000c4c <_ntoa_long_long+0x3c>
10000ca0:	2261      	movs	r2, #97	; 0x61
10000ca2:	e7f8      	b.n	10000c96 <_ntoa_long_long+0x86>
  size_t len = 0U;
10000ca4:	f04f 0900 	mov.w	r9, #0
  }

  return _ntoa_format(out, buffer, idx, maxlen, buf, len, negative, (unsigned int)base, prec, width, flags);
10000ca8:	f8cd a018 	str.w	sl, [sp, #24]
10000cac:	9b25      	ldr	r3, [sp, #148]	; 0x94
10000cae:	9305      	str	r3, [sp, #20]
10000cb0:	9b24      	ldr	r3, [sp, #144]	; 0x90
10000cb2:	9304      	str	r3, [sp, #16]
10000cb4:	9703      	str	r7, [sp, #12]
10000cb6:	f89d 3080 	ldrb.w	r3, [sp, #128]	; 0x80
10000cba:	9302      	str	r3, [sp, #8]
10000cbc:	f8cd 9004 	str.w	r9, [sp, #4]
10000cc0:	ab0c      	add	r3, sp, #48	; 0x30
10000cc2:	9300      	str	r3, [sp, #0]
10000cc4:	465b      	mov	r3, fp
10000cc6:	9a0b      	ldr	r2, [sp, #44]	; 0x2c
10000cc8:	990a      	ldr	r1, [sp, #40]	; 0x28
10000cca:	9809      	ldr	r0, [sp, #36]	; 0x24
10000ccc:	f7ff feba 	bl	10000a44 <_ntoa_format>
}
10000cd0:	b015      	add	sp, #84	; 0x54
10000cd2:	e8bd 8ff0 	ldmia.w	sp!, {r4, r5, r6, r7, r8, r9, sl, fp, pc}
	...

10000cd8 <_etoa>:


#if defined(PRINTF_SUPPORT_EXPONENTIAL)
// internal ftoa variant for exponential floating-point type, contributed by Martijn Jasperse <m.jasperse@gmail.com>
static size_t _etoa(out_fct_type out, char* buffer, size_t idx, size_t maxlen, double value, unsigned int prec, unsigned int width, unsigned int flags)
{
10000cd8:	e92d 4ff0 	stmdb	sp!, {r4, r5, r6, r7, r8, r9, sl, fp, lr}
10000cdc:	ed2d 8b02 	vpush	{d8}
10000ce0:	b091      	sub	sp, #68	; 0x44
10000ce2:	4682      	mov	sl, r0
10000ce4:	460c      	mov	r4, r1
10000ce6:	4693      	mov	fp, r2
10000ce8:	461d      	mov	r5, r3
  // check for NaN and special values
  if ((value != value) || (value > DBL_MAX) || (value < -DBL_MAX)) {
10000cea:	e9dd 231c 	ldrd	r2, r3, [sp, #112]	; 0x70
10000cee:	4610      	mov	r0, r2
10000cf0:	4619      	mov	r1, r3
10000cf2:	f001 fe83 	bl	100029fc <__aeabi_dcmpeq>
10000cf6:	2800      	cmp	r0, #0
10000cf8:	f000 8107 	beq.w	10000f0a <_etoa+0x232>
10000cfc:	f04f 32ff 	mov.w	r2, #4294967295	; 0xffffffff
10000d00:	4bb1      	ldr	r3, [pc, #708]	; (10000fc8 <_etoa+0x2f0>)
10000d02:	e9dd 011c 	ldrd	r0, r1, [sp, #112]	; 0x70
10000d06:	f001 fea1 	bl	10002a4c <__aeabi_dcmpgt>
10000d0a:	2800      	cmp	r0, #0
10000d0c:	f040 80fd 	bne.w	10000f0a <_etoa+0x232>
10000d10:	f04f 32ff 	mov.w	r2, #4294967295	; 0xffffffff
10000d14:	f46f 1380 	mvn.w	r3, #1048576	; 0x100000
10000d18:	e9dd 011c 	ldrd	r0, r1, [sp, #112]	; 0x70
10000d1c:	f001 fe78 	bl	10002a10 <__aeabi_dcmplt>
10000d20:	2800      	cmp	r0, #0
10000d22:	f040 80f2 	bne.w	10000f0a <_etoa+0x232>
    return _ftoa(out, buffer, idx, maxlen, value, prec, width, flags);
  }

  // determine the sign
  const bool negative = value < 0;
  if (negative) {
10000d26:	2200      	movs	r2, #0
10000d28:	2300      	movs	r3, #0
10000d2a:	e9dd 011c 	ldrd	r0, r1, [sp, #112]	; 0x70
10000d2e:	f001 fe6f 	bl	10002a10 <__aeabi_dcmplt>
10000d32:	2800      	cmp	r0, #0
10000d34:	f040 80fe 	bne.w	10000f34 <_etoa+0x25c>
10000d38:	ed9d 7b1c 	vldr	d7, [sp, #112]	; 0x70
10000d3c:	ed8d 7b06 	vstr	d7, [sp, #24]
    value = -value;
  }

  // default precision
  if (!(flags & FLAGS_PRECISION)) {
10000d40:	9b20      	ldr	r3, [sp, #128]	; 0x80
10000d42:	f413 6380 	ands.w	r3, r3, #1024	; 0x400
10000d46:	930f      	str	r3, [sp, #60]	; 0x3c
10000d48:	d101      	bne.n	10000d4e <_etoa+0x76>
    prec = PRINTF_DEFAULT_FLOAT_PRECISION;
10000d4a:	2306      	movs	r3, #6
10000d4c:	931e      	str	r3, [sp, #120]	; 0x78
    uint64_t U;
    double   F;
  } conv;

  conv.F = value;
  int exp2 = (int)((conv.U >> 52U) & 0x07FFU) - 1023;           // effectively log2
10000d4e:	e9dd 0106 	ldrd	r0, r1, [sp, #24]
10000d52:	4602      	mov	r2, r0
10000d54:	f3c1 500a 	ubfx	r0, r1, #20, #11
  conv.U = (conv.U & ((1ULL << 52U) - 1U)) | (1023ULL << 52U);  // drop the exponent so conv.F is now in [1,2)
10000d58:	f3c1 0313 	ubfx	r3, r1, #0, #20
10000d5c:	4690      	mov	r8, r2
10000d5e:	f043 597f 	orr.w	r9, r3, #1069547520	; 0x3fc00000
10000d62:	f449 1940 	orr.w	r9, r9, #3145728	; 0x300000
  // now approximate log10 from the log2 integer part and an expansion of ln around 1.5
  int expval = (int)(0.1760912590558 + exp2 * 0.301029995663981 + (conv.F - 1.5) * 0.289529654602168);
10000d66:	f2a0 30ff 	subw	r0, r0, #1023	; 0x3ff
10000d6a:	f001 fb75 	bl	10002458 <__aeabi_i2d>
10000d6e:	a384      	add	r3, pc, #528	; (adr r3, 10000f80 <_etoa+0x2a8>)
10000d70:	e9d3 2300 	ldrd	r2, r3, [r3]
10000d74:	f001 fbda 	bl	1000252c <__aeabi_dmul>
10000d78:	a383      	add	r3, pc, #524	; (adr r3, 10000f88 <_etoa+0x2b0>)
10000d7a:	e9d3 2300 	ldrd	r2, r3, [r3]
10000d7e:	f001 fa1f 	bl	100021c0 <__adddf3>
10000d82:	4606      	mov	r6, r0
10000d84:	460f      	mov	r7, r1
10000d86:	2200      	movs	r2, #0
10000d88:	4b90      	ldr	r3, [pc, #576]	; (10000fcc <_etoa+0x2f4>)
10000d8a:	4640      	mov	r0, r8
10000d8c:	4649      	mov	r1, r9
10000d8e:	f001 fa15 	bl	100021bc <__aeabi_dsub>
10000d92:	a37f      	add	r3, pc, #508	; (adr r3, 10000f90 <_etoa+0x2b8>)
10000d94:	e9d3 2300 	ldrd	r2, r3, [r3]
10000d98:	f001 fbc8 	bl	1000252c <__aeabi_dmul>
10000d9c:	4602      	mov	r2, r0
10000d9e:	460b      	mov	r3, r1
10000da0:	4630      	mov	r0, r6
10000da2:	4639      	mov	r1, r7
10000da4:	f001 fa0c 	bl	100021c0 <__adddf3>
10000da8:	f001 fe5a 	bl	10002a60 <__aeabi_d2iz>
10000dac:	4606      	mov	r6, r0
  // now we want to compute 10^expval but we want to be sure it won't overflow
  exp2 = (int)(expval * 3.321928094887362 + 0.5);
10000dae:	f001 fb53 	bl	10002458 <__aeabi_i2d>
10000db2:	4680      	mov	r8, r0
10000db4:	4689      	mov	r9, r1
10000db6:	a378      	add	r3, pc, #480	; (adr r3, 10000f98 <_etoa+0x2c0>)
10000db8:	e9d3 2300 	ldrd	r2, r3, [r3]
10000dbc:	f001 fbb6 	bl	1000252c <__aeabi_dmul>
10000dc0:	2200      	movs	r2, #0
10000dc2:	4b83      	ldr	r3, [pc, #524]	; (10000fd0 <_etoa+0x2f8>)
10000dc4:	f001 f9fc 	bl	100021c0 <__adddf3>
10000dc8:	f001 fe4a 	bl	10002a60 <__aeabi_d2iz>
10000dcc:	4607      	mov	r7, r0
  const double z  = expval * 2.302585092994046 - exp2 * 0.6931471805599453;
10000dce:	a374      	add	r3, pc, #464	; (adr r3, 10000fa0 <_etoa+0x2c8>)
10000dd0:	e9d3 2300 	ldrd	r2, r3, [r3]
10000dd4:	4640      	mov	r0, r8
10000dd6:	4649      	mov	r1, r9
10000dd8:	f001 fba8 	bl	1000252c <__aeabi_dmul>
10000ddc:	4680      	mov	r8, r0
10000dde:	4689      	mov	r9, r1
10000de0:	4638      	mov	r0, r7
10000de2:	f001 fb39 	bl	10002458 <__aeabi_i2d>
10000de6:	a370      	add	r3, pc, #448	; (adr r3, 10000fa8 <_etoa+0x2d0>)
10000de8:	e9d3 2300 	ldrd	r2, r3, [r3]
10000dec:	f001 fb9e 	bl	1000252c <__aeabi_dmul>
10000df0:	4602      	mov	r2, r0
10000df2:	460b      	mov	r3, r1
10000df4:	4640      	mov	r0, r8
10000df6:	4649      	mov	r1, r9
10000df8:	f001 f9e0 	bl	100021bc <__aeabi_dsub>
10000dfc:	4680      	mov	r8, r0
10000dfe:	4689      	mov	r9, r1
  const double z2 = z * z;
10000e00:	4602      	mov	r2, r0
10000e02:	460b      	mov	r3, r1
10000e04:	f001 fb92 	bl	1000252c <__aeabi_dmul>
10000e08:	e9cd 010a 	strd	r0, r1, [sp, #40]	; 0x28
  conv.U = (uint64_t)(exp2 + 1023) << 52U;
10000e0c:	f207 37ff 	addw	r7, r7, #1023	; 0x3ff
10000e10:	2100      	movs	r1, #0
10000e12:	2200      	movs	r2, #0
10000e14:	e9cd 1208 	strd	r1, r2, [sp, #32]
10000e18:	053b      	lsls	r3, r7, #20
10000e1a:	9309      	str	r3, [sp, #36]	; 0x24
10000e1c:	2300      	movs	r3, #0
10000e1e:	9308      	str	r3, [sp, #32]
  // compute exp(z) using continued fractions, see https://en.wikipedia.org/wiki/Exponential_function#Continued_fractions_for_ex
  conv.F *= 1 + 2 * z / (2 - z + (z2 / (6 + (z2 / (10 + z2 / 14)))));
10000e20:	4642      	mov	r2, r8
10000e22:	464b      	mov	r3, r9
10000e24:	4640      	mov	r0, r8
10000e26:	4649      	mov	r1, r9
10000e28:	f001 f9ca 	bl	100021c0 <__adddf3>
10000e2c:	e9cd 010c 	strd	r0, r1, [sp, #48]	; 0x30
10000e30:	4642      	mov	r2, r8
10000e32:	464b      	mov	r3, r9
10000e34:	2000      	movs	r0, #0
10000e36:	f04f 4180 	mov.w	r1, #1073741824	; 0x40000000
10000e3a:	f001 f9bf 	bl	100021bc <__aeabi_dsub>
10000e3e:	4680      	mov	r8, r0
10000e40:	4689      	mov	r9, r1
10000e42:	2200      	movs	r2, #0
10000e44:	4b63      	ldr	r3, [pc, #396]	; (10000fd4 <_etoa+0x2fc>)
10000e46:	e9dd 010a 	ldrd	r0, r1, [sp, #40]	; 0x28
10000e4a:	f001 fc99 	bl	10002780 <__aeabi_ddiv>
10000e4e:	2200      	movs	r2, #0
10000e50:	4b61      	ldr	r3, [pc, #388]	; (10000fd8 <_etoa+0x300>)
10000e52:	f001 f9b5 	bl	100021c0 <__adddf3>
10000e56:	4602      	mov	r2, r0
10000e58:	460b      	mov	r3, r1
10000e5a:	e9dd 010a 	ldrd	r0, r1, [sp, #40]	; 0x28
10000e5e:	f001 fc8f 	bl	10002780 <__aeabi_ddiv>
10000e62:	2200      	movs	r2, #0
10000e64:	4b5d      	ldr	r3, [pc, #372]	; (10000fdc <_etoa+0x304>)
10000e66:	f001 f9ab 	bl	100021c0 <__adddf3>
10000e6a:	4602      	mov	r2, r0
10000e6c:	460b      	mov	r3, r1
10000e6e:	e9dd 010a 	ldrd	r0, r1, [sp, #40]	; 0x28
10000e72:	f001 fc85 	bl	10002780 <__aeabi_ddiv>
10000e76:	4602      	mov	r2, r0
10000e78:	460b      	mov	r3, r1
10000e7a:	4640      	mov	r0, r8
10000e7c:	4649      	mov	r1, r9
10000e7e:	f001 f99f 	bl	100021c0 <__adddf3>
10000e82:	4602      	mov	r2, r0
10000e84:	460b      	mov	r3, r1
10000e86:	e9dd 010c 	ldrd	r0, r1, [sp, #48]	; 0x30
10000e8a:	f001 fc79 	bl	10002780 <__aeabi_ddiv>
10000e8e:	2200      	movs	r2, #0
10000e90:	4b53      	ldr	r3, [pc, #332]	; (10000fe0 <_etoa+0x308>)
10000e92:	f001 f995 	bl	100021c0 <__adddf3>
10000e96:	e9dd 2308 	ldrd	r2, r3, [sp, #32]
10000e9a:	f001 fb47 	bl	1000252c <__aeabi_dmul>
10000e9e:	4680      	mov	r8, r0
10000ea0:	4689      	mov	r9, r1
10000ea2:	ec49 8b18 	vmov	d8, r8, r9
  // correct for rounding errors
  if (value < conv.F) {
10000ea6:	e9dd 2306 	ldrd	r2, r3, [sp, #24]
10000eaa:	f001 fdcf 	bl	10002a4c <__aeabi_dcmpgt>
10000eae:	b140      	cbz	r0, 10000ec2 <_etoa+0x1ea>
    expval--;
10000eb0:	3e01      	subs	r6, #1
    conv.F /= 10;
10000eb2:	2200      	movs	r2, #0
10000eb4:	4b48      	ldr	r3, [pc, #288]	; (10000fd8 <_etoa+0x300>)
10000eb6:	4640      	mov	r0, r8
10000eb8:	4649      	mov	r1, r9
10000eba:	f001 fc61 	bl	10002780 <__aeabi_ddiv>
10000ebe:	ec41 0b18 	vmov	d8, r0, r1
  }

  // the exponent format is "%+03d" and largest value is "307", so set aside 4-5 characters
  unsigned int minwidth = ((expval < 100) && (expval > -100)) ? 4U : 5U;
10000ec2:	f106 0363 	add.w	r3, r6, #99	; 0x63
10000ec6:	2bc6      	cmp	r3, #198	; 0xc6
10000ec8:	d83f      	bhi.n	10000f4a <_etoa+0x272>
10000eca:	2704      	movs	r7, #4

  // in "%g" mode, "prec" is the number of *significant figures* not decimals
  if (flags & FLAGS_ADAPT_EXP) {
10000ecc:	9b20      	ldr	r3, [sp, #128]	; 0x80
10000ece:	f413 6f00 	tst.w	r3, #2048	; 0x800
10000ed2:	d044      	beq.n	10000f5e <_etoa+0x286>
    // do we want to fall-back to "%f" mode?
    if ((value >= 1e-4) && (value < 1e6)) {
10000ed4:	a336      	add	r3, pc, #216	; (adr r3, 10000fb0 <_etoa+0x2d8>)
10000ed6:	e9d3 2300 	ldrd	r2, r3, [r3]
10000eda:	e9dd 8906 	ldrd	r8, r9, [sp, #24]
10000ede:	4640      	mov	r0, r8
10000ee0:	4649      	mov	r1, r9
10000ee2:	f001 fda9 	bl	10002a38 <__aeabi_dcmpge>
10000ee6:	2800      	cmp	r0, #0
10000ee8:	d03f      	beq.n	10000f6a <_etoa+0x292>
10000eea:	a333      	add	r3, pc, #204	; (adr r3, 10000fb8 <_etoa+0x2e0>)
10000eec:	e9d3 2300 	ldrd	r2, r3, [r3]
10000ef0:	4640      	mov	r0, r8
10000ef2:	4649      	mov	r1, r9
10000ef4:	f001 fd8c 	bl	10002a10 <__aeabi_dcmplt>
10000ef8:	2800      	cmp	r0, #0
10000efa:	d036      	beq.n	10000f6a <_etoa+0x292>
      if ((int)prec > expval) {
10000efc:	9b1e      	ldr	r3, [sp, #120]	; 0x78
10000efe:	42b3      	cmp	r3, r6
10000f00:	dd25      	ble.n	10000f4e <_etoa+0x276>
        prec = (unsigned)((int)prec - expval - 1);
10000f02:	1b9e      	subs	r6, r3, r6
10000f04:	1e73      	subs	r3, r6, #1
10000f06:	931e      	str	r3, [sp, #120]	; 0x78
10000f08:	e023      	b.n	10000f52 <_etoa+0x27a>
    return _ftoa(out, buffer, idx, maxlen, value, prec, width, flags);
10000f0a:	9b20      	ldr	r3, [sp, #128]	; 0x80
10000f0c:	9304      	str	r3, [sp, #16]
10000f0e:	9b1f      	ldr	r3, [sp, #124]	; 0x7c
10000f10:	9303      	str	r3, [sp, #12]
10000f12:	9b1e      	ldr	r3, [sp, #120]	; 0x78
10000f14:	9302      	str	r3, [sp, #8]
10000f16:	ed9d 7b1c 	vldr	d7, [sp, #112]	; 0x70
10000f1a:	ed8d 7b00 	vstr	d7, [sp]
10000f1e:	462b      	mov	r3, r5
10000f20:	465a      	mov	r2, fp
10000f22:	4621      	mov	r1, r4
10000f24:	4650      	mov	r0, sl
10000f26:	f000 f8cf 	bl	100010c8 <_ftoa>
    if (flags & FLAGS_LEFT) {
      while (idx - start_idx < width) out(' ', buffer, idx++, maxlen);
    }
  }
  return idx;
}
10000f2a:	b011      	add	sp, #68	; 0x44
10000f2c:	ecbd 8b02 	vpop	{d8}
10000f30:	e8bd 8ff0 	ldmia.w	sp!, {r4, r5, r6, r7, r8, r9, sl, fp, pc}
    value = -value;
10000f34:	ed9f 7b22 	vldr	d7, [pc, #136]	; 10000fc0 <_etoa+0x2e8>
10000f38:	ed8d 7b06 	vstr	d7, [sp, #24]
10000f3c:	9b1c      	ldr	r3, [sp, #112]	; 0x70
10000f3e:	9306      	str	r3, [sp, #24]
10000f40:	9b1d      	ldr	r3, [sp, #116]	; 0x74
10000f42:	f103 4300 	add.w	r3, r3, #2147483648	; 0x80000000
10000f46:	9307      	str	r3, [sp, #28]
10000f48:	e6fa      	b.n	10000d40 <_etoa+0x68>
  unsigned int minwidth = ((expval < 100) && (expval > -100)) ? 4U : 5U;
10000f4a:	2705      	movs	r7, #5
10000f4c:	e7be      	b.n	10000ecc <_etoa+0x1f4>
        prec = 0;
10000f4e:	2300      	movs	r3, #0
10000f50:	931e      	str	r3, [sp, #120]	; 0x78
      flags |= FLAGS_PRECISION;   // make sure _ftoa respects precision
10000f52:	9b20      	ldr	r3, [sp, #128]	; 0x80
10000f54:	f443 6380 	orr.w	r3, r3, #1024	; 0x400
10000f58:	9320      	str	r3, [sp, #128]	; 0x80
      minwidth = 0U;
10000f5a:	2700      	movs	r7, #0
      expval   = 0;
10000f5c:	463e      	mov	r6, r7
  if (width > minwidth) {
10000f5e:	9b1f      	ldr	r3, [sp, #124]	; 0x7c
10000f60:	429f      	cmp	r7, r3
10000f62:	d23f      	bcs.n	10000fe4 <_etoa+0x30c>
    fwidth -= minwidth;
10000f64:	eba3 0807 	sub.w	r8, r3, r7
10000f68:	e03e      	b.n	10000fe8 <_etoa+0x310>
      if ((prec > 0) && (flags & FLAGS_PRECISION)) {
10000f6a:	9b1e      	ldr	r3, [sp, #120]	; 0x78
10000f6c:	2b00      	cmp	r3, #0
10000f6e:	d0f6      	beq.n	10000f5e <_etoa+0x286>
10000f70:	9b0f      	ldr	r3, [sp, #60]	; 0x3c
10000f72:	2b00      	cmp	r3, #0
10000f74:	d0f3      	beq.n	10000f5e <_etoa+0x286>
        --prec;
10000f76:	9b1e      	ldr	r3, [sp, #120]	; 0x78
10000f78:	3b01      	subs	r3, #1
10000f7a:	931e      	str	r3, [sp, #120]	; 0x78
10000f7c:	e7ef      	b.n	10000f5e <_etoa+0x286>
10000f7e:	bf00      	nop
10000f80:	509f79fb 			; <UNDEFINED> instruction: 0x509f79fb
10000f84:	3fd34413 	svccc	0x00d34413
10000f88:	8b60c8b3 	blhi	1183325c <__copy_table_end__+0x182ed28>
10000f8c:	3fc68a28 	svccc	0x00c68a28
10000f90:	636f4361 	cmnvs	pc, #-2080374783	; 0x84000001
10000f94:	3fd287a7 	svccc	0x00d287a7
10000f98:	0979a371 	ldmdbeq	r9!, {r0, r4, r5, r6, r8, r9, sp, pc}^
10000f9c:	400a934f 	andmi	r9, sl, pc, asr #6
10000fa0:	bbb55516 	bllt	ed56400 <__RAM_SIZE+0xec56400>
10000fa4:	40026bb1 			; <UNDEFINED> instruction: 0x40026bb1
10000fa8:	fefa39ef 			; <UNDEFINED> instruction: 0xfefa39ef
10000fac:	3fe62e42 	svccc	0x00e62e42
10000fb0:	eb1c432d 	bl	10711c6c <__copy_table_end__+0x70d738>
10000fb4:	3f1a36e2 	svccc	0x001a36e2
10000fb8:	00000000 	andeq	r0, r0, r0
10000fbc:	412e8480 	smlawbmi	lr, r0, r4, r8
	...
10000fc8:	7fefffff 	svcvc	0x00efffff
10000fcc:	3ff80000 	svccc	0x00f80000
10000fd0:	3fe00000 	svccc	0x00e00000
10000fd4:	402c0000 	eormi	r0, ip, r0
10000fd8:	40240000 	eormi	r0, r4, r0
10000fdc:	40180000 	andsmi	r0, r8, r0
10000fe0:	3ff00000 	svccc	0x00f00000	; IMB
    fwidth = 0U;
10000fe4:	f04f 0800 	mov.w	r8, #0
  if ((flags & FLAGS_LEFT) && minwidth) {
10000fe8:	9b20      	ldr	r3, [sp, #128]	; 0x80
10000fea:	f013 0902 	ands.w	r9, r3, #2
10000fee:	d002      	beq.n	10000ff6 <_etoa+0x31e>
10000ff0:	b10f      	cbz	r7, 10000ff6 <_etoa+0x31e>
    fwidth = 0U;
10000ff2:	f04f 0800 	mov.w	r8, #0
  if (expval) {
10000ff6:	b13e      	cbz	r6, 10001008 <_etoa+0x330>
    value /= conv.F;
10000ff8:	ec53 2b18 	vmov	r2, r3, d8
10000ffc:	e9dd 0106 	ldrd	r0, r1, [sp, #24]
10001000:	f001 fbbe 	bl	10002780 <__aeabi_ddiv>
10001004:	e9cd 0106 	strd	r0, r1, [sp, #24]
  idx = _ftoa(out, buffer, idx, maxlen, negative ? -value : value, prec, fwidth, flags & ~FLAGS_ADAPT_EXP);
10001008:	2200      	movs	r2, #0
1000100a:	2300      	movs	r3, #0
1000100c:	e9dd 011c 	ldrd	r0, r1, [sp, #112]	; 0x70
10001010:	f001 fcfe 	bl	10002a10 <__aeabi_dcmplt>
10001014:	2800      	cmp	r0, #0
10001016:	d13d      	bne.n	10001094 <_etoa+0x3bc>
10001018:	9b20      	ldr	r3, [sp, #128]	; 0x80
1000101a:	f423 6300 	bic.w	r3, r3, #2048	; 0x800
1000101e:	9304      	str	r3, [sp, #16]
10001020:	f8cd 800c 	str.w	r8, [sp, #12]
10001024:	9b1e      	ldr	r3, [sp, #120]	; 0x78
10001026:	9302      	str	r3, [sp, #8]
10001028:	ed9d 7b06 	vldr	d7, [sp, #24]
1000102c:	ed8d 7b00 	vstr	d7, [sp]
10001030:	462b      	mov	r3, r5
10001032:	465a      	mov	r2, fp
10001034:	4621      	mov	r1, r4
10001036:	4650      	mov	r0, sl
10001038:	f000 f846 	bl	100010c8 <_ftoa>
  if (minwidth) {
1000103c:	2f00      	cmp	r7, #0
1000103e:	f43f af74 	beq.w	10000f2a <_etoa+0x252>
    out((flags & FLAGS_UPPERCASE) ? 'E' : 'e', buffer, idx++, maxlen);
10001042:	9b20      	ldr	r3, [sp, #128]	; 0x80
10001044:	f013 0f20 	tst.w	r3, #32
10001048:	d02c      	beq.n	100010a4 <_etoa+0x3cc>
1000104a:	f04f 0c45 	mov.w	ip, #69	; 0x45
1000104e:	f100 0801 	add.w	r8, r0, #1
10001052:	462b      	mov	r3, r5
10001054:	4602      	mov	r2, r0
10001056:	4621      	mov	r1, r4
10001058:	4660      	mov	r0, ip
1000105a:	47d0      	blx	sl
    idx = _ntoa_long(out, buffer, idx, maxlen, (expval < 0) ? -expval : expval, expval < 0, 10, 0, minwidth-1, FLAGS_ZEROPAD | FLAGS_PLUS);
1000105c:	ea86 73e6 	eor.w	r3, r6, r6, asr #31
10001060:	eba3 73e6 	sub.w	r3, r3, r6, asr #31
10001064:	2205      	movs	r2, #5
10001066:	9205      	str	r2, [sp, #20]
10001068:	3f01      	subs	r7, #1
1000106a:	9704      	str	r7, [sp, #16]
1000106c:	2200      	movs	r2, #0
1000106e:	9203      	str	r2, [sp, #12]
10001070:	220a      	movs	r2, #10
10001072:	9202      	str	r2, [sp, #8]
10001074:	0ff0      	lsrs	r0, r6, #31
10001076:	9001      	str	r0, [sp, #4]
10001078:	9300      	str	r3, [sp, #0]
1000107a:	462b      	mov	r3, r5
1000107c:	4642      	mov	r2, r8
1000107e:	4621      	mov	r1, r4
10001080:	4650      	mov	r0, sl
10001082:	f7ff fd7b 	bl	10000b7c <_ntoa_long>
    if (flags & FLAGS_LEFT) {
10001086:	f1b9 0f00 	cmp.w	r9, #0
1000108a:	f43f af4e 	beq.w	10000f2a <_etoa+0x252>
1000108e:	4602      	mov	r2, r0
10001090:	9f1f      	ldr	r7, [sp, #124]	; 0x7c
10001092:	e010      	b.n	100010b6 <_etoa+0x3de>
  idx = _ftoa(out, buffer, idx, maxlen, negative ? -value : value, prec, fwidth, flags & ~FLAGS_ADAPT_EXP);
10001094:	e9dd 0106 	ldrd	r0, r1, [sp, #24]
10001098:	4602      	mov	r2, r0
1000109a:	f101 4300 	add.w	r3, r1, #2147483648	; 0x80000000
1000109e:	e9cd 2306 	strd	r2, r3, [sp, #24]
100010a2:	e7b9      	b.n	10001018 <_etoa+0x340>
    out((flags & FLAGS_UPPERCASE) ? 'E' : 'e', buffer, idx++, maxlen);
100010a4:	f04f 0c65 	mov.w	ip, #101	; 0x65
100010a8:	e7d1      	b.n	1000104e <_etoa+0x376>
      while (idx - start_idx < width) out(' ', buffer, idx++, maxlen);
100010aa:	1c56      	adds	r6, r2, #1
100010ac:	462b      	mov	r3, r5
100010ae:	4621      	mov	r1, r4
100010b0:	2020      	movs	r0, #32
100010b2:	47d0      	blx	sl
100010b4:	4632      	mov	r2, r6
100010b6:	eba2 030b 	sub.w	r3, r2, fp
100010ba:	42bb      	cmp	r3, r7
100010bc:	d3f5      	bcc.n	100010aa <_etoa+0x3d2>
100010be:	4610      	mov	r0, r2
100010c0:	e733      	b.n	10000f2a <_etoa+0x252>
100010c2:	bf00      	nop
100010c4:	0000      	movs	r0, r0
	...

100010c8 <_ftoa>:
{
100010c8:	e92d 4ff0 	stmdb	sp!, {r4, r5, r6, r7, r8, r9, sl, fp, lr}
100010cc:	ed2d 8b02 	vpush	{d8}
100010d0:	b095      	sub	sp, #84	; 0x54
100010d2:	9007      	str	r0, [sp, #28]
100010d4:	910a      	str	r1, [sp, #40]	; 0x28
100010d6:	4692      	mov	sl, r2
100010d8:	469b      	mov	fp, r3
100010da:	e9dd 8920 	ldrd	r8, r9, [sp, #128]	; 0x80
100010de:	9d22      	ldr	r5, [sp, #136]	; 0x88
  if (value != value)
100010e0:	4642      	mov	r2, r8
100010e2:	464b      	mov	r3, r9
100010e4:	4640      	mov	r0, r8
100010e6:	4649      	mov	r1, r9
100010e8:	f001 fc88 	bl	100029fc <__aeabi_dcmpeq>
100010ec:	2800      	cmp	r0, #0
100010ee:	d040      	beq.n	10001172 <_ftoa+0xaa>
  if (value < -DBL_MAX)
100010f0:	f04f 32ff 	mov.w	r2, #4294967295	; 0xffffffff
100010f4:	f46f 1380 	mvn.w	r3, #1048576	; 0x100000
100010f8:	4640      	mov	r0, r8
100010fa:	4649      	mov	r1, r9
100010fc:	f001 fc88 	bl	10002a10 <__aeabi_dcmplt>
10001100:	2800      	cmp	r0, #0
10001102:	d145      	bne.n	10001190 <_ftoa+0xc8>
  if (value > DBL_MAX)
10001104:	f04f 32ff 	mov.w	r2, #4294967295	; 0xffffffff
10001108:	4b9f      	ldr	r3, [pc, #636]	; (10001388 <_ftoa+0x2c0>)
1000110a:	4640      	mov	r0, r8
1000110c:	4649      	mov	r1, r9
1000110e:	f001 fc9d 	bl	10002a4c <__aeabi_dcmpgt>
10001112:	2800      	cmp	r0, #0
10001114:	d14b      	bne.n	100011ae <_ftoa+0xe6>
  if ((value > PRINTF_MAX_FLOAT) || (value < -PRINTF_MAX_FLOAT)) {
10001116:	a398      	add	r3, pc, #608	; (adr r3, 10001378 <_ftoa+0x2b0>)
10001118:	e9d3 2300 	ldrd	r2, r3, [r3]
1000111c:	4640      	mov	r0, r8
1000111e:	4649      	mov	r1, r9
10001120:	f001 fc94 	bl	10002a4c <__aeabi_dcmpgt>
10001124:	2800      	cmp	r0, #0
10001126:	d15a      	bne.n	100011de <_ftoa+0x116>
10001128:	a395      	add	r3, pc, #596	; (adr r3, 10001380 <_ftoa+0x2b8>)
1000112a:	e9d3 2300 	ldrd	r2, r3, [r3]
1000112e:	4640      	mov	r0, r8
10001130:	4649      	mov	r1, r9
10001132:	f001 fc6d 	bl	10002a10 <__aeabi_dcmplt>
10001136:	2800      	cmp	r0, #0
10001138:	d151      	bne.n	100011de <_ftoa+0x116>
  if (value < 0) {
1000113a:	2200      	movs	r2, #0
1000113c:	2300      	movs	r3, #0
1000113e:	4640      	mov	r0, r8
10001140:	4649      	mov	r1, r9
10001142:	f001 fc65 	bl	10002a10 <__aeabi_dcmplt>
10001146:	2800      	cmp	r0, #0
10001148:	d157      	bne.n	100011fa <_ftoa+0x132>
  bool negative = false;
1000114a:	2300      	movs	r3, #0
1000114c:	930b      	str	r3, [sp, #44]	; 0x2c
  if (!(flags & FLAGS_PRECISION)) {
1000114e:	9b24      	ldr	r3, [sp, #144]	; 0x90
10001150:	f413 6f80 	tst.w	r3, #1024	; 0x400
10001154:	d05c      	beq.n	10001210 <_ftoa+0x148>
    prec = PRINTF_DEFAULT_FLOAT_PRECISION;
10001156:	2400      	movs	r4, #0
  while ((len < PRINTF_FTOA_BUFFER_SIZE) && (prec > 9U)) {
10001158:	2c1f      	cmp	r4, #31
1000115a:	d85b      	bhi.n	10001214 <_ftoa+0x14c>
1000115c:	2d09      	cmp	r5, #9
1000115e:	d959      	bls.n	10001214 <_ftoa+0x14c>
    buf[len++] = '0';
10001160:	f104 0350 	add.w	r3, r4, #80	; 0x50
10001164:	446b      	add	r3, sp
10001166:	2230      	movs	r2, #48	; 0x30
10001168:	f803 2c20 	strb.w	r2, [r3, #-32]
    prec--;
1000116c:	3d01      	subs	r5, #1
    buf[len++] = '0';
1000116e:	3401      	adds	r4, #1
10001170:	e7f2      	b.n	10001158 <_ftoa+0x90>
    return _out_rev(out, buffer, idx, maxlen, "nan", 3, width, flags);
10001172:	9b24      	ldr	r3, [sp, #144]	; 0x90
10001174:	9303      	str	r3, [sp, #12]
10001176:	9b23      	ldr	r3, [sp, #140]	; 0x8c
10001178:	9302      	str	r3, [sp, #8]
1000117a:	2303      	movs	r3, #3
1000117c:	9301      	str	r3, [sp, #4]
1000117e:	4b83      	ldr	r3, [pc, #524]	; (1000138c <_ftoa+0x2c4>)
10001180:	9300      	str	r3, [sp, #0]
10001182:	465b      	mov	r3, fp
10001184:	4652      	mov	r2, sl
10001186:	990a      	ldr	r1, [sp, #40]	; 0x28
10001188:	9807      	ldr	r0, [sp, #28]
1000118a:	f7ff fc1c 	bl	100009c6 <_out_rev>
1000118e:	e12c      	b.n	100013ea <_ftoa+0x322>
    return _out_rev(out, buffer, idx, maxlen, "fni-", 4, width, flags);
10001190:	9b24      	ldr	r3, [sp, #144]	; 0x90
10001192:	9303      	str	r3, [sp, #12]
10001194:	9b23      	ldr	r3, [sp, #140]	; 0x8c
10001196:	9302      	str	r3, [sp, #8]
10001198:	2304      	movs	r3, #4
1000119a:	9301      	str	r3, [sp, #4]
1000119c:	4b7c      	ldr	r3, [pc, #496]	; (10001390 <_ftoa+0x2c8>)
1000119e:	9300      	str	r3, [sp, #0]
100011a0:	465b      	mov	r3, fp
100011a2:	4652      	mov	r2, sl
100011a4:	990a      	ldr	r1, [sp, #40]	; 0x28
100011a6:	9807      	ldr	r0, [sp, #28]
100011a8:	f7ff fc0d 	bl	100009c6 <_out_rev>
100011ac:	e11d      	b.n	100013ea <_ftoa+0x322>
    return _out_rev(out, buffer, idx, maxlen, (flags & FLAGS_PLUS) ? "fni+" : "fni", (flags & FLAGS_PLUS) ? 4U : 3U, width, flags);
100011ae:	9b24      	ldr	r3, [sp, #144]	; 0x90
100011b0:	f013 0304 	ands.w	r3, r3, #4
100011b4:	d00f      	beq.n	100011d6 <_ftoa+0x10e>
100011b6:	4a77      	ldr	r2, [pc, #476]	; (10001394 <_ftoa+0x2cc>)
100011b8:	b17b      	cbz	r3, 100011da <_ftoa+0x112>
100011ba:	2304      	movs	r3, #4
100011bc:	9924      	ldr	r1, [sp, #144]	; 0x90
100011be:	9103      	str	r1, [sp, #12]
100011c0:	9923      	ldr	r1, [sp, #140]	; 0x8c
100011c2:	9102      	str	r1, [sp, #8]
100011c4:	9301      	str	r3, [sp, #4]
100011c6:	9200      	str	r2, [sp, #0]
100011c8:	465b      	mov	r3, fp
100011ca:	4652      	mov	r2, sl
100011cc:	990a      	ldr	r1, [sp, #40]	; 0x28
100011ce:	9807      	ldr	r0, [sp, #28]
100011d0:	f7ff fbf9 	bl	100009c6 <_out_rev>
100011d4:	e109      	b.n	100013ea <_ftoa+0x322>
100011d6:	4a70      	ldr	r2, [pc, #448]	; (10001398 <_ftoa+0x2d0>)
100011d8:	e7ee      	b.n	100011b8 <_ftoa+0xf0>
100011da:	2303      	movs	r3, #3
100011dc:	e7ee      	b.n	100011bc <_ftoa+0xf4>
    return _etoa(out, buffer, idx, maxlen, value, prec, width, flags);
100011de:	9b24      	ldr	r3, [sp, #144]	; 0x90
100011e0:	9304      	str	r3, [sp, #16]
100011e2:	9b23      	ldr	r3, [sp, #140]	; 0x8c
100011e4:	9303      	str	r3, [sp, #12]
100011e6:	9502      	str	r5, [sp, #8]
100011e8:	e9cd 8900 	strd	r8, r9, [sp]
100011ec:	465b      	mov	r3, fp
100011ee:	4652      	mov	r2, sl
100011f0:	990a      	ldr	r1, [sp, #40]	; 0x28
100011f2:	9807      	ldr	r0, [sp, #28]
100011f4:	f7ff fd70 	bl	10000cd8 <_etoa>
100011f8:	e0f7      	b.n	100013ea <_ftoa+0x322>
    value = 0 - value;
100011fa:	4642      	mov	r2, r8
100011fc:	464b      	mov	r3, r9
100011fe:	2000      	movs	r0, #0
10001200:	2100      	movs	r1, #0
10001202:	f000 ffdb 	bl	100021bc <__aeabi_dsub>
10001206:	4680      	mov	r8, r0
10001208:	4689      	mov	r9, r1
    negative = true;
1000120a:	2301      	movs	r3, #1
1000120c:	930b      	str	r3, [sp, #44]	; 0x2c
1000120e:	e79e      	b.n	1000114e <_ftoa+0x86>
    prec = PRINTF_DEFAULT_FLOAT_PRECISION;
10001210:	2506      	movs	r5, #6
10001212:	e7a0      	b.n	10001156 <_ftoa+0x8e>
  int whole = (int)value;
10001214:	4640      	mov	r0, r8
10001216:	4649      	mov	r1, r9
10001218:	f001 fc22 	bl	10002a60 <__aeabi_d2iz>
1000121c:	4606      	mov	r6, r0
  double tmp = (value - whole) * pow10[prec];
1000121e:	f001 f91b 	bl	10002458 <__aeabi_i2d>
10001222:	4602      	mov	r2, r0
10001224:	460b      	mov	r3, r1
10001226:	4640      	mov	r0, r8
10001228:	4649      	mov	r1, r9
1000122a:	f000 ffc7 	bl	100021bc <__aeabi_dsub>
1000122e:	4b5b      	ldr	r3, [pc, #364]	; (1000139c <_ftoa+0x2d4>)
10001230:	eb03 03c5 	add.w	r3, r3, r5, lsl #3
10001234:	ed93 8b00 	vldr	d8, [r3]
10001238:	ec53 2b18 	vmov	r2, r3, d8
1000123c:	f001 f976 	bl	1000252c <__aeabi_dmul>
10001240:	4602      	mov	r2, r0
10001242:	460b      	mov	r3, r1
10001244:	e9cd 2308 	strd	r2, r3, [sp, #32]
  unsigned long frac = (unsigned long)tmp;
10001248:	f001 fc32 	bl	10002ab0 <__aeabi_d2uiz>
1000124c:	4607      	mov	r7, r0
  diff = tmp - frac;
1000124e:	f001 f8f3 	bl	10002438 <__aeabi_ui2d>
10001252:	4602      	mov	r2, r0
10001254:	460b      	mov	r3, r1
10001256:	e9dd 0108 	ldrd	r0, r1, [sp, #32]
1000125a:	f000 ffaf 	bl	100021bc <__aeabi_dsub>
1000125e:	4602      	mov	r2, r0
10001260:	460b      	mov	r3, r1
10001262:	e9cd 2308 	strd	r2, r3, [sp, #32]
  if (diff > 0.5) {
10001266:	2200      	movs	r2, #0
10001268:	4b4d      	ldr	r3, [pc, #308]	; (100013a0 <_ftoa+0x2d8>)
1000126a:	f001 fbef 	bl	10002a4c <__aeabi_dcmpgt>
1000126e:	b350      	cbz	r0, 100012c6 <_ftoa+0x1fe>
    ++frac;
10001270:	3701      	adds	r7, #1
    if (frac >= pow10[prec]) {
10001272:	4638      	mov	r0, r7
10001274:	f001 f8e0 	bl	10002438 <__aeabi_ui2d>
10001278:	4602      	mov	r2, r0
1000127a:	460b      	mov	r3, r1
1000127c:	ec51 0b18 	vmov	r0, r1, d8
10001280:	f001 fbd0 	bl	10002a24 <__aeabi_dcmple>
10001284:	b108      	cbz	r0, 1000128a <_ftoa+0x1c2>
      ++whole;
10001286:	3601      	adds	r6, #1
      frac = 0;
10001288:	2700      	movs	r7, #0
  if (prec == 0U) {
1000128a:	bb55      	cbnz	r5, 100012e2 <_ftoa+0x21a>
    diff = value - (double)whole;
1000128c:	4630      	mov	r0, r6
1000128e:	f001 f8e3 	bl	10002458 <__aeabi_i2d>
10001292:	4602      	mov	r2, r0
10001294:	460b      	mov	r3, r1
10001296:	4640      	mov	r0, r8
10001298:	4649      	mov	r1, r9
1000129a:	f000 ff8f 	bl	100021bc <__aeabi_dsub>
1000129e:	4607      	mov	r7, r0
100012a0:	4688      	mov	r8, r1
    if ((!(diff < 0.5) || (diff > 0.5)) && (whole & 1)) {
100012a2:	2200      	movs	r2, #0
100012a4:	4b3e      	ldr	r3, [pc, #248]	; (100013a0 <_ftoa+0x2d8>)
100012a6:	f001 fbb3 	bl	10002a10 <__aeabi_dcmplt>
100012aa:	b138      	cbz	r0, 100012bc <_ftoa+0x1f4>
100012ac:	2200      	movs	r2, #0
100012ae:	4b3c      	ldr	r3, [pc, #240]	; (100013a0 <_ftoa+0x2d8>)
100012b0:	4638      	mov	r0, r7
100012b2:	4641      	mov	r1, r8
100012b4:	f001 fbca 	bl	10002a4c <__aeabi_dcmpgt>
100012b8:	2800      	cmp	r0, #0
100012ba:	d042      	beq.n	10001342 <_ftoa+0x27a>
100012bc:	f016 0f01 	tst.w	r6, #1
100012c0:	d03f      	beq.n	10001342 <_ftoa+0x27a>
      ++whole;
100012c2:	3601      	adds	r6, #1
100012c4:	e03d      	b.n	10001342 <_ftoa+0x27a>
  else if (diff < 0.5) {
100012c6:	2200      	movs	r2, #0
100012c8:	4b35      	ldr	r3, [pc, #212]	; (100013a0 <_ftoa+0x2d8>)
100012ca:	e9dd 0108 	ldrd	r0, r1, [sp, #32]
100012ce:	f001 fb9f 	bl	10002a10 <__aeabi_dcmplt>
100012d2:	2800      	cmp	r0, #0
100012d4:	d1d9      	bne.n	1000128a <_ftoa+0x1c2>
  else if ((frac == 0U) || (frac & 1U)) {
100012d6:	b117      	cbz	r7, 100012de <_ftoa+0x216>
100012d8:	f017 0f01 	tst.w	r7, #1
100012dc:	d0d5      	beq.n	1000128a <_ftoa+0x1c2>
    ++frac;
100012de:	3701      	adds	r7, #1
100012e0:	e7d3      	b.n	1000128a <_ftoa+0x1c2>
    while (len < PRINTF_FTOA_BUFFER_SIZE) {
100012e2:	2c1f      	cmp	r4, #31
100012e4:	d817      	bhi.n	10001316 <_ftoa+0x24e>
      --count;
100012e6:	3d01      	subs	r5, #1
      buf[len++] = (char)(48U + (frac % 10U));
100012e8:	4b2e      	ldr	r3, [pc, #184]	; (100013a4 <_ftoa+0x2dc>)
100012ea:	fba3 2307 	umull	r2, r3, r3, r7
100012ee:	08db      	lsrs	r3, r3, #3
100012f0:	4619      	mov	r1, r3
100012f2:	eb03 0383 	add.w	r3, r3, r3, lsl #2
100012f6:	eba7 0343 	sub.w	r3, r7, r3, lsl #1
100012fa:	1c62      	adds	r2, r4, #1
100012fc:	3330      	adds	r3, #48	; 0x30
100012fe:	f104 0050 	add.w	r0, r4, #80	; 0x50
10001302:	eb0d 0400 	add.w	r4, sp, r0
10001306:	f804 3c20 	strb.w	r3, [r4, #-32]
      if (!(frac /= 10U)) {
1000130a:	2f09      	cmp	r7, #9
1000130c:	d902      	bls.n	10001314 <_ftoa+0x24c>
1000130e:	460f      	mov	r7, r1
      buf[len++] = (char)(48U + (frac % 10U));
10001310:	4614      	mov	r4, r2
10001312:	e7e6      	b.n	100012e2 <_ftoa+0x21a>
10001314:	4614      	mov	r4, r2
    while ((len < PRINTF_FTOA_BUFFER_SIZE) && (count-- > 0U)) {
10001316:	2c1f      	cmp	r4, #31
10001318:	d80a      	bhi.n	10001330 <_ftoa+0x268>
1000131a:	1e6b      	subs	r3, r5, #1
1000131c:	b145      	cbz	r5, 10001330 <_ftoa+0x268>
      buf[len++] = '0';
1000131e:	f104 0250 	add.w	r2, r4, #80	; 0x50
10001322:	446a      	add	r2, sp
10001324:	2130      	movs	r1, #48	; 0x30
10001326:	f802 1c20 	strb.w	r1, [r2, #-32]
    while ((len < PRINTF_FTOA_BUFFER_SIZE) && (count-- > 0U)) {
1000132a:	461d      	mov	r5, r3
      buf[len++] = '0';
1000132c:	3401      	adds	r4, #1
1000132e:	e7f2      	b.n	10001316 <_ftoa+0x24e>
    if (len < PRINTF_FTOA_BUFFER_SIZE) {
10001330:	2c1f      	cmp	r4, #31
10001332:	d806      	bhi.n	10001342 <_ftoa+0x27a>
      buf[len++] = '.';
10001334:	f104 0350 	add.w	r3, r4, #80	; 0x50
10001338:	446b      	add	r3, sp
1000133a:	222e      	movs	r2, #46	; 0x2e
1000133c:	f803 2c20 	strb.w	r2, [r3, #-32]
10001340:	3401      	adds	r4, #1
  while (len < PRINTF_FTOA_BUFFER_SIZE) {
10001342:	2c1f      	cmp	r4, #31
10001344:	d833      	bhi.n	100013ae <_ftoa+0x2e6>
    buf[len++] = (char)(48 + (whole % 10));
10001346:	4a18      	ldr	r2, [pc, #96]	; (100013a8 <_ftoa+0x2e0>)
10001348:	fb82 3206 	smull	r3, r2, r2, r6
1000134c:	17f3      	asrs	r3, r6, #31
1000134e:	ebc3 03a2 	rsb	r3, r3, r2, asr #2
10001352:	461a      	mov	r2, r3
10001354:	eb03 0383 	add.w	r3, r3, r3, lsl #2
10001358:	eba6 0343 	sub.w	r3, r6, r3, lsl #1
1000135c:	1c61      	adds	r1, r4, #1
1000135e:	3330      	adds	r3, #48	; 0x30
10001360:	f104 0050 	add.w	r0, r4, #80	; 0x50
10001364:	eb0d 0400 	add.w	r4, sp, r0
10001368:	f804 3c20 	strb.w	r3, [r4, #-32]
    if (!(whole /= 10)) {
1000136c:	4616      	mov	r6, r2
1000136e:	b1ea      	cbz	r2, 100013ac <_ftoa+0x2e4>
    buf[len++] = (char)(48 + (whole % 10));
10001370:	460c      	mov	r4, r1
10001372:	e7e6      	b.n	10001342 <_ftoa+0x27a>
10001374:	f3af 8000 	nop.w
10001378:	00000000 	andeq	r0, r0, r0
1000137c:	41cdcd65 	bicmi	ip, sp, r5, ror #26
10001380:	00000000 	andeq	r0, r0, r0
10001384:	c1cdcd65 	bicgt	ip, sp, r5, ror #26
10001388:	7fefffff 	svcvc	0x00efffff
1000138c:	10003fd0 	ldrdne	r3, [r0], -r0
10001390:	10003fd4 	ldrdne	r3, [r0], -r4
10001394:	10003fc8 	andne	r3, r0, r8, asr #31
10001398:	10003fc4 	andne	r3, r0, r4, asr #31
1000139c:	10003fe0 	andne	r3, r0, r0, ror #31
100013a0:	3fe00000 	svccc	0x00e00000
100013a4:	cccccccd 	stclgt	12, cr12, [ip], {205}	; 0xcd
100013a8:	66666667 	strbtvs	r6, [r6], -r7, ror #12
100013ac:	460c      	mov	r4, r1
  if (!(flags & FLAGS_LEFT) && (flags & FLAGS_ZEROPAD)) {
100013ae:	9b24      	ldr	r3, [sp, #144]	; 0x90
100013b0:	f003 0303 	and.w	r3, r3, #3
100013b4:	2b01      	cmp	r3, #1
100013b6:	d01d      	beq.n	100013f4 <_ftoa+0x32c>
  if (len < PRINTF_FTOA_BUFFER_SIZE) {
100013b8:	2c1f      	cmp	r4, #31
100013ba:	d809      	bhi.n	100013d0 <_ftoa+0x308>
    if (negative) {
100013bc:	9b0b      	ldr	r3, [sp, #44]	; 0x2c
100013be:	2b00      	cmp	r3, #0
100013c0:	d035      	beq.n	1000142e <_ftoa+0x366>
      buf[len++] = '-';
100013c2:	f104 0350 	add.w	r3, r4, #80	; 0x50
100013c6:	446b      	add	r3, sp
100013c8:	222d      	movs	r2, #45	; 0x2d
100013ca:	f803 2c20 	strb.w	r2, [r3, #-32]
100013ce:	3401      	adds	r4, #1
  return _out_rev(out, buffer, idx, maxlen, buf, len, width, flags);
100013d0:	9b24      	ldr	r3, [sp, #144]	; 0x90
100013d2:	9303      	str	r3, [sp, #12]
100013d4:	9b23      	ldr	r3, [sp, #140]	; 0x8c
100013d6:	9302      	str	r3, [sp, #8]
100013d8:	9401      	str	r4, [sp, #4]
100013da:	ab0c      	add	r3, sp, #48	; 0x30
100013dc:	9300      	str	r3, [sp, #0]
100013de:	465b      	mov	r3, fp
100013e0:	4652      	mov	r2, sl
100013e2:	990a      	ldr	r1, [sp, #40]	; 0x28
100013e4:	9807      	ldr	r0, [sp, #28]
100013e6:	f7ff faee 	bl	100009c6 <_out_rev>
}
100013ea:	b015      	add	sp, #84	; 0x54
100013ec:	ecbd 8b02 	vpop	{d8}
100013f0:	e8bd 8ff0 	ldmia.w	sp!, {r4, r5, r6, r7, r8, r9, sl, fp, pc}
    if (width && (negative || (flags & (FLAGS_PLUS | FLAGS_SPACE)))) {
100013f4:	9b23      	ldr	r3, [sp, #140]	; 0x8c
100013f6:	b1b3      	cbz	r3, 10001426 <_ftoa+0x35e>
100013f8:	9b0b      	ldr	r3, [sp, #44]	; 0x2c
100013fa:	b91b      	cbnz	r3, 10001404 <_ftoa+0x33c>
100013fc:	9b24      	ldr	r3, [sp, #144]	; 0x90
100013fe:	f013 0f0c 	tst.w	r3, #12
10001402:	d012      	beq.n	1000142a <_ftoa+0x362>
      width--;
10001404:	9b23      	ldr	r3, [sp, #140]	; 0x8c
10001406:	3b01      	subs	r3, #1
10001408:	9323      	str	r3, [sp, #140]	; 0x8c
1000140a:	4619      	mov	r1, r3
1000140c:	e006      	b.n	1000141c <_ftoa+0x354>
      buf[len++] = '0';
1000140e:	f104 0350 	add.w	r3, r4, #80	; 0x50
10001412:	446b      	add	r3, sp
10001414:	2230      	movs	r2, #48	; 0x30
10001416:	f803 2c20 	strb.w	r2, [r3, #-32]
1000141a:	3401      	adds	r4, #1
    while ((len < width) && (len < PRINTF_FTOA_BUFFER_SIZE)) {
1000141c:	428c      	cmp	r4, r1
1000141e:	d2cb      	bcs.n	100013b8 <_ftoa+0x2f0>
10001420:	2c1f      	cmp	r4, #31
10001422:	d9f4      	bls.n	1000140e <_ftoa+0x346>
10001424:	e7c8      	b.n	100013b8 <_ftoa+0x2f0>
10001426:	9923      	ldr	r1, [sp, #140]	; 0x8c
10001428:	e7f8      	b.n	1000141c <_ftoa+0x354>
1000142a:	9923      	ldr	r1, [sp, #140]	; 0x8c
1000142c:	e7f6      	b.n	1000141c <_ftoa+0x354>
    else if (flags & FLAGS_PLUS) {
1000142e:	9b24      	ldr	r3, [sp, #144]	; 0x90
10001430:	f013 0f04 	tst.w	r3, #4
10001434:	d007      	beq.n	10001446 <_ftoa+0x37e>
      buf[len++] = '+';  // ignore the space if the '+' exists
10001436:	f104 0350 	add.w	r3, r4, #80	; 0x50
1000143a:	446b      	add	r3, sp
1000143c:	222b      	movs	r2, #43	; 0x2b
1000143e:	f803 2c20 	strb.w	r2, [r3, #-32]
10001442:	3401      	adds	r4, #1
10001444:	e7c4      	b.n	100013d0 <_ftoa+0x308>
    else if (flags & FLAGS_SPACE) {
10001446:	9b24      	ldr	r3, [sp, #144]	; 0x90
10001448:	f013 0f08 	tst.w	r3, #8
1000144c:	d0c0      	beq.n	100013d0 <_ftoa+0x308>
      buf[len++] = ' ';
1000144e:	f104 0350 	add.w	r3, r4, #80	; 0x50
10001452:	446b      	add	r3, sp
10001454:	2220      	movs	r2, #32
10001456:	f803 2c20 	strb.w	r2, [r3, #-32]
1000145a:	3401      	adds	r4, #1
1000145c:	e7b8      	b.n	100013d0 <_ftoa+0x308>
1000145e:	bf00      	nop

10001460 <_vsnprintf>:
#endif  // PRINTF_SUPPORT_FLOAT


// internal vsnprintf
static int _vsnprintf(out_fct_type out, char* buffer, const size_t maxlen, const char* format, va_list va)
{
10001460:	e92d 4ff0 	stmdb	sp!, {r4, r5, r6, r7, r8, r9, sl, fp, lr}
10001464:	b08f      	sub	sp, #60	; 0x3c
10001466:	4607      	mov	r7, r0
10001468:	4616      	mov	r6, r2
1000146a:	930d      	str	r3, [sp, #52]	; 0x34
  unsigned int flags, width, precision, n;
  size_t idx = 0U;

  if (!buffer) {
1000146c:	4688      	mov	r8, r1
1000146e:	2900      	cmp	r1, #0
10001470:	f000 8324 	beq.w	10001abc <_vsnprintf+0x65c>
          while (l++ < width) {
            out(' ', buffer, idx++, maxlen);
          }
        }
        format++;
        break;
10001474:	2400      	movs	r4, #0
  while (*format)
10001476:	9b0d      	ldr	r3, [sp, #52]	; 0x34
10001478:	7818      	ldrb	r0, [r3, #0]
1000147a:	2800      	cmp	r0, #0
1000147c:	f000 8320 	beq.w	10001ac0 <_vsnprintf+0x660>
    if (*format != '%') {
10001480:	2825      	cmp	r0, #37	; 0x25
10001482:	d009      	beq.n	10001498 <_vsnprintf+0x38>
      out(*format, buffer, idx++, maxlen);
10001484:	1c65      	adds	r5, r4, #1
10001486:	4633      	mov	r3, r6
10001488:	4622      	mov	r2, r4
1000148a:	4641      	mov	r1, r8
1000148c:	47b8      	blx	r7
      format++;
1000148e:	9b0d      	ldr	r3, [sp, #52]	; 0x34
10001490:	3301      	adds	r3, #1
10001492:	930d      	str	r3, [sp, #52]	; 0x34
      out(*format, buffer, idx++, maxlen);
10001494:	462c      	mov	r4, r5
      continue;
10001496:	e7ee      	b.n	10001476 <_vsnprintf+0x16>
      format++;
10001498:	3301      	adds	r3, #1
1000149a:	930d      	str	r3, [sp, #52]	; 0x34
    flags = 0U;
1000149c:	2500      	movs	r5, #0
      switch (*format) {
1000149e:	9b0d      	ldr	r3, [sp, #52]	; 0x34
100014a0:	7819      	ldrb	r1, [r3, #0]
100014a2:	f1a1 0220 	sub.w	r2, r1, #32
100014a6:	2a10      	cmp	r2, #16
100014a8:	d80a      	bhi.n	100014c0 <_vsnprintf+0x60>
100014aa:	e8df f002 	tbb	[pc, r2]
100014ae:	3d090938 	vstrcc.16	s0, [r9, #-112]	; 0xffffff90	; <UNPREDICTABLE>
100014b2:	09090909 	stmdbeq	r9, {r0, r3, r8, fp}
100014b6:	33090909 	movwcc	r0, #39177	; 0x9909
100014ba:	09092e09 	stmdbeq	r9, {r0, r3, r9, sl, fp, sp}
100014be:	f1a10029 			; <UNDEFINED> instruction: 0xf1a10029
  return (ch >= '0') && (ch <= '9');
100014c2:	0330      	lsls	r0, r6, #12
100014c4:	b2db      	uxtb	r3, r3
    if (_is_digit(*format)) {
100014c6:	2b09      	cmp	r3, #9
100014c8:	d933      	bls.n	10001532 <_vsnprintf+0xd2>
    else if (*format == '*') {
100014ca:	292a      	cmp	r1, #42	; 0x2a
100014cc:	d036      	beq.n	1000153c <_vsnprintf+0xdc>
    width = 0U;
100014ce:	2300      	movs	r3, #0
100014d0:	930a      	str	r3, [sp, #40]	; 0x28
    if (*format == '.') {
100014d2:	9b0d      	ldr	r3, [sp, #52]	; 0x34
100014d4:	781a      	ldrb	r2, [r3, #0]
100014d6:	2a2e      	cmp	r2, #46	; 0x2e
100014d8:	d040      	beq.n	1000155c <_vsnprintf+0xfc>
    precision = 0U;
100014da:	f04f 0b00 	mov.w	fp, #0
    switch (*format) {
100014de:	9a0d      	ldr	r2, [sp, #52]	; 0x34
100014e0:	7813      	ldrb	r3, [r2, #0]
100014e2:	3b68      	subs	r3, #104	; 0x68
100014e4:	2b12      	cmp	r3, #18
100014e6:	d877      	bhi.n	100015d8 <_vsnprintf+0x178>
100014e8:	e8df f003 	tbb	[pc, r3]
100014ec:	76d37664 	ldrbvc	r7, [r3], r4, ror #12
100014f0:	76767656 			; <UNDEFINED> instruction: 0x76767656
100014f4:	76767676 			; <UNDEFINED> instruction: 0x76767676
100014f8:	76767672 			; <UNDEFINED> instruction: 0x76767672
100014fc:	00d87676 	sbcseq	r7, r8, r6, ror r6
        case '0': flags |= FLAGS_ZEROPAD; format++; n = 1U; break;
10001500:	f045 0501 	orr.w	r5, r5, #1
10001504:	3301      	adds	r3, #1
10001506:	930d      	str	r3, [sp, #52]	; 0x34
    } while (n);
10001508:	e7c9      	b.n	1000149e <_vsnprintf+0x3e>
        case '-': flags |= FLAGS_LEFT;    format++; n = 1U; break;
1000150a:	f045 0502 	orr.w	r5, r5, #2
1000150e:	3301      	adds	r3, #1
10001510:	930d      	str	r3, [sp, #52]	; 0x34
    } while (n);
10001512:	e7c4      	b.n	1000149e <_vsnprintf+0x3e>
        case '+': flags |= FLAGS_PLUS;    format++; n = 1U; break;
10001514:	f045 0504 	orr.w	r5, r5, #4
10001518:	3301      	adds	r3, #1
1000151a:	930d      	str	r3, [sp, #52]	; 0x34
    } while (n);
1000151c:	e7bf      	b.n	1000149e <_vsnprintf+0x3e>
        case ' ': flags |= FLAGS_SPACE;   format++; n = 1U; break;
1000151e:	f045 0508 	orr.w	r5, r5, #8
10001522:	3301      	adds	r3, #1
10001524:	930d      	str	r3, [sp, #52]	; 0x34
    } while (n);
10001526:	e7ba      	b.n	1000149e <_vsnprintf+0x3e>
        case '#': flags |= FLAGS_HASH;    format++; n = 1U; break;
10001528:	f045 0510 	orr.w	r5, r5, #16
1000152c:	3301      	adds	r3, #1
1000152e:	930d      	str	r3, [sp, #52]	; 0x34
    } while (n);
10001530:	e7b5      	b.n	1000149e <_vsnprintf+0x3e>
      width = _atoi(&format);
10001532:	a80d      	add	r0, sp, #52	; 0x34
10001534:	f7ff fa35 	bl	100009a2 <_atoi>
10001538:	900a      	str	r0, [sp, #40]	; 0x28
1000153a:	e7ca      	b.n	100014d2 <_vsnprintf+0x72>
      const int w = va_arg(va, int);
1000153c:	9b18      	ldr	r3, [sp, #96]	; 0x60
1000153e:	1d1a      	adds	r2, r3, #4
10001540:	9218      	str	r2, [sp, #96]	; 0x60
10001542:	6818      	ldr	r0, [r3, #0]
      if (w < 0) {
10001544:	2800      	cmp	r0, #0
10001546:	db04      	blt.n	10001552 <_vsnprintf+0xf2>
        width = (unsigned int)w;
10001548:	900a      	str	r0, [sp, #40]	; 0x28
      format++;
1000154a:	9b0d      	ldr	r3, [sp, #52]	; 0x34
1000154c:	3301      	adds	r3, #1
1000154e:	930d      	str	r3, [sp, #52]	; 0x34
10001550:	e7bf      	b.n	100014d2 <_vsnprintf+0x72>
        flags |= FLAGS_LEFT;    // reverse padding
10001552:	f045 0502 	orr.w	r5, r5, #2
        width = (unsigned int)-w;
10001556:	4243      	negs	r3, r0
10001558:	930a      	str	r3, [sp, #40]	; 0x28
1000155a:	e7f6      	b.n	1000154a <_vsnprintf+0xea>
      flags |= FLAGS_PRECISION;
1000155c:	f445 6580 	orr.w	r5, r5, #1024	; 0x400
      format++;
10001560:	1c5a      	adds	r2, r3, #1
10001562:	920d      	str	r2, [sp, #52]	; 0x34
      if (_is_digit(*format)) {
10001564:	785a      	ldrb	r2, [r3, #1]
  return (ch >= '0') && (ch <= '9');
10001566:	f1a2 0330 	sub.w	r3, r2, #48	; 0x30
1000156a:	b2db      	uxtb	r3, r3
      if (_is_digit(*format)) {
1000156c:	2b09      	cmp	r3, #9
1000156e:	d904      	bls.n	1000157a <_vsnprintf+0x11a>
      else if (*format == '*') {
10001570:	2a2a      	cmp	r2, #42	; 0x2a
10001572:	d007      	beq.n	10001584 <_vsnprintf+0x124>
    precision = 0U;
10001574:	f04f 0b00 	mov.w	fp, #0
10001578:	e7b1      	b.n	100014de <_vsnprintf+0x7e>
        precision = _atoi(&format);
1000157a:	a80d      	add	r0, sp, #52	; 0x34
1000157c:	f7ff fa11 	bl	100009a2 <_atoi>
10001580:	4683      	mov	fp, r0
10001582:	e7ac      	b.n	100014de <_vsnprintf+0x7e>
        const int prec = (int)va_arg(va, int);
10001584:	9b18      	ldr	r3, [sp, #96]	; 0x60
10001586:	1d1a      	adds	r2, r3, #4
10001588:	9218      	str	r2, [sp, #96]	; 0x60
1000158a:	681b      	ldr	r3, [r3, #0]
        precision = prec > 0 ? (unsigned int)prec : 0U;
1000158c:	ea23 7be3 	bic.w	fp, r3, r3, asr #31
        format++;
10001590:	9b0d      	ldr	r3, [sp, #52]	; 0x34
10001592:	3301      	adds	r3, #1
10001594:	930d      	str	r3, [sp, #52]	; 0x34
10001596:	e7a2      	b.n	100014de <_vsnprintf+0x7e>
        flags |= FLAGS_LONG;
10001598:	f445 7180 	orr.w	r1, r5, #256	; 0x100
        format++;
1000159c:	1c53      	adds	r3, r2, #1
1000159e:	930d      	str	r3, [sp, #52]	; 0x34
        if (*format == 'l') {
100015a0:	7852      	ldrb	r2, [r2, #1]
100015a2:	2a6c      	cmp	r2, #108	; 0x6c
100015a4:	d001      	beq.n	100015aa <_vsnprintf+0x14a>
        flags |= FLAGS_LONG;
100015a6:	460d      	mov	r5, r1
100015a8:	e016      	b.n	100015d8 <_vsnprintf+0x178>
          flags |= FLAGS_LONG_LONG;
100015aa:	f445 7540 	orr.w	r5, r5, #768	; 0x300
          format++;
100015ae:	3301      	adds	r3, #1
100015b0:	930d      	str	r3, [sp, #52]	; 0x34
100015b2:	e011      	b.n	100015d8 <_vsnprintf+0x178>
        flags |= FLAGS_SHORT;
100015b4:	f045 0180 	orr.w	r1, r5, #128	; 0x80
        format++;
100015b8:	1c53      	adds	r3, r2, #1
100015ba:	930d      	str	r3, [sp, #52]	; 0x34
        if (*format == 'h') {
100015bc:	7852      	ldrb	r2, [r2, #1]
100015be:	2a68      	cmp	r2, #104	; 0x68
100015c0:	d001      	beq.n	100015c6 <_vsnprintf+0x166>
        flags |= FLAGS_SHORT;
100015c2:	460d      	mov	r5, r1
100015c4:	e008      	b.n	100015d8 <_vsnprintf+0x178>
          flags |= FLAGS_CHAR;
100015c6:	f045 05c0 	orr.w	r5, r5, #192	; 0xc0
          format++;
100015ca:	3301      	adds	r3, #1
100015cc:	930d      	str	r3, [sp, #52]	; 0x34
100015ce:	e003      	b.n	100015d8 <_vsnprintf+0x178>
        flags |= (sizeof(ptrdiff_t) == sizeof(long) ? FLAGS_LONG : FLAGS_LONG_LONG);
100015d0:	f445 7580 	orr.w	r5, r5, #256	; 0x100
        format++;
100015d4:	3201      	adds	r2, #1
100015d6:	920d      	str	r2, [sp, #52]	; 0x34
    switch (*format) {
100015d8:	9b0d      	ldr	r3, [sp, #52]	; 0x34
100015da:	7818      	ldrb	r0, [r3, #0]
100015dc:	f1a0 0325 	sub.w	r3, r0, #37	; 0x25
100015e0:	2b53      	cmp	r3, #83	; 0x53
100015e2:	f200 8261 	bhi.w	10001aa8 <_vsnprintf+0x648>
100015e6:	e8df f013 	tbh	[pc, r3, lsl #1]
100015ea:	025f0254 	subseq	r0, pc, #84, 4	; 0x40000005
100015ee:	025f025f 	subseq	r0, pc, #-268435451	; 0xf0000005
100015f2:	025f025f 	subseq	r0, pc, #-268435451	; 0xf0000005
100015f6:	025f025f 	subseq	r0, pc, #-268435451	; 0xf0000005
100015fa:	025f025f 	subseq	r0, pc, #-268435451	; 0xf0000005
100015fe:	025f025f 	subseq	r0, pc, #-268435451	; 0xf0000005
10001602:	025f025f 	subseq	r0, pc, #-268435451	; 0xf0000005
10001606:	025f025f 	subseq	r0, pc, #-268435451	; 0xf0000005
1000160a:	025f025f 	subseq	r0, pc, #-268435451	; 0xf0000005
1000160e:	025f025f 	subseq	r0, pc, #-268435451	; 0xf0000005
10001612:	025f025f 	subseq	r0, pc, #-268435451	; 0xf0000005
10001616:	025f025f 	subseq	r0, pc, #-268435451	; 0xf0000005
1000161a:	025f025f 	subseq	r0, pc, #-268435451	; 0xf0000005
1000161e:	025f025f 	subseq	r0, pc, #-268435451	; 0xf0000005
10001622:	025f025f 	subseq	r0, pc, #-268435451	; 0xf0000005
10001626:	025f025f 	subseq	r0, pc, #-268435451	; 0xf0000005
1000162a:	01540174 	cmpeq	r4, r4, ror r1
1000162e:	025f0174 	subseq	r0, pc, #116, 2
10001632:	025f025f 	subseq	r0, pc, #-268435451	; 0xf0000005
10001636:	025f025f 	subseq	r0, pc, #-268435451	; 0xf0000005
1000163a:	025f025f 	subseq	r0, pc, #-268435451	; 0xf0000005
1000163e:	025f025f 	subseq	r0, pc, #-268435451	; 0xf0000005
10001642:	025f025f 	subseq	r0, pc, #-268435451	; 0xf0000005
10001646:	025f025f 	subseq	r0, pc, #-268435451	; 0xf0000005
1000164a:	025f025f 	subseq	r0, pc, #-268435451	; 0xf0000005
1000164e:	005e025f 	subseq	r0, lr, pc, asr r2
10001652:	025f025f 	subseq	r0, pc, #-268435451	; 0xf0000005
10001656:	025f025f 	subseq	r0, pc, #-268435451	; 0xf0000005
1000165a:	025f025f 	subseq	r0, pc, #-268435451	; 0xf0000005
1000165e:	025f025f 	subseq	r0, pc, #-268435451	; 0xf0000005
10001662:	005e025f 	subseq	r0, lr, pc, asr r2
10001666:	005e019b 			; <UNDEFINED> instruction: 0x005e019b
1000166a:	01540174 	cmpeq	r4, r4, ror r1
1000166e:	025f0174 	subseq	r0, pc, #116, 2
10001672:	025f005e 	subseq	r0, pc, #94	; 0x5e
10001676:	025f025f 	subseq	r0, pc, #-268435451	; 0xf0000005
1000167a:	025f025f 	subseq	r0, pc, #-268435451	; 0xf0000005
1000167e:	0239005e 	eorseq	r0, r9, #94	; 0x5e
10001682:	025f025f 	subseq	r0, pc, #-268435451	; 0xf0000005
10001686:	025f01d4 	subseq	r0, pc, #212, 2	; 0x35
1000168a:	025f005e 	subseq	r0, pc, #94	; 0x5e
1000168e:	005e025f 	subseq	r0, lr, pc, asr r2
        flags |= (sizeof(intmax_t) == sizeof(long) ? FLAGS_LONG : FLAGS_LONG_LONG);
10001692:	f445 7500 	orr.w	r5, r5, #512	; 0x200
        format++;
10001696:	3201      	adds	r2, #1
10001698:	920d      	str	r2, [sp, #52]	; 0x34
        break;
1000169a:	e79d      	b.n	100015d8 <_vsnprintf+0x178>
        flags |= (sizeof(size_t) == sizeof(long) ? FLAGS_LONG : FLAGS_LONG_LONG);
1000169c:	f445 7580 	orr.w	r5, r5, #256	; 0x100
        format++;
100016a0:	3201      	adds	r2, #1
100016a2:	920d      	str	r2, [sp, #52]	; 0x34
        break;
100016a4:	e798      	b.n	100015d8 <_vsnprintf+0x178>
        if (*format == 'x' || *format == 'X') {
100016a6:	2878      	cmp	r0, #120	; 0x78
100016a8:	d009      	beq.n	100016be <_vsnprintf+0x25e>
100016aa:	2858      	cmp	r0, #88	; 0x58
100016ac:	d03a      	beq.n	10001724 <_vsnprintf+0x2c4>
        else if (*format == 'o') {
100016ae:	286f      	cmp	r0, #111	; 0x6f
100016b0:	d03a      	beq.n	10001728 <_vsnprintf+0x2c8>
        else if (*format == 'b') {
100016b2:	2862      	cmp	r0, #98	; 0x62
100016b4:	d03a      	beq.n	1000172c <_vsnprintf+0x2cc>
          flags &= ~FLAGS_HASH;   // no hash for dec format
100016b6:	f025 0510 	bic.w	r5, r5, #16
          base = 10U;
100016ba:	230a      	movs	r3, #10
100016bc:	e000      	b.n	100016c0 <_vsnprintf+0x260>
          base = 16U;
100016be:	2310      	movs	r3, #16
        if (*format == 'X') {
100016c0:	2858      	cmp	r0, #88	; 0x58
100016c2:	d035      	beq.n	10001730 <_vsnprintf+0x2d0>
        if ((*format != 'i') && (*format != 'd')) {
100016c4:	2869      	cmp	r0, #105	; 0x69
100016c6:	d003      	beq.n	100016d0 <_vsnprintf+0x270>
100016c8:	2864      	cmp	r0, #100	; 0x64
100016ca:	d001      	beq.n	100016d0 <_vsnprintf+0x270>
          flags &= ~(FLAGS_PLUS | FLAGS_SPACE);
100016cc:	f025 050c 	bic.w	r5, r5, #12
        if (flags & FLAGS_PRECISION) {
100016d0:	f415 6f80 	tst.w	r5, #1024	; 0x400
100016d4:	d001      	beq.n	100016da <_vsnprintf+0x27a>
          flags &= ~FLAGS_ZEROPAD;
100016d6:	f025 0501 	bic.w	r5, r5, #1
        if ((*format == 'i') || (*format == 'd')) {
100016da:	2869      	cmp	r0, #105	; 0x69
100016dc:	d02b      	beq.n	10001736 <_vsnprintf+0x2d6>
100016de:	2864      	cmp	r0, #100	; 0x64
100016e0:	d029      	beq.n	10001736 <_vsnprintf+0x2d6>
          if (flags & FLAGS_LONG_LONG) {
100016e2:	f415 7f00 	tst.w	r5, #512	; 0x200
100016e6:	f040 8096 	bne.w	10001816 <_vsnprintf+0x3b6>
          else if (flags & FLAGS_LONG) {
100016ea:	f415 7f80 	tst.w	r5, #256	; 0x100
100016ee:	f040 80ae 	bne.w	1000184e <_vsnprintf+0x3ee>
            const unsigned int value = (flags & FLAGS_CHAR) ? (unsigned char)va_arg(va, unsigned int) : (flags & FLAGS_SHORT) ? (unsigned short int)va_arg(va, unsigned int) : va_arg(va, unsigned int);
100016f2:	f015 0f40 	tst.w	r5, #64	; 0x40
100016f6:	f000 80bf 	beq.w	10001878 <_vsnprintf+0x418>
100016fa:	9a18      	ldr	r2, [sp, #96]	; 0x60
100016fc:	1d11      	adds	r1, r2, #4
100016fe:	9118      	str	r1, [sp, #96]	; 0x60
10001700:	7812      	ldrb	r2, [r2, #0]
            idx = _ntoa_long(out, buffer, idx, maxlen, value, false, base, precision, width, flags);
10001702:	9505      	str	r5, [sp, #20]
10001704:	990a      	ldr	r1, [sp, #40]	; 0x28
10001706:	9104      	str	r1, [sp, #16]
10001708:	f8cd b00c 	str.w	fp, [sp, #12]
1000170c:	9302      	str	r3, [sp, #8]
1000170e:	2300      	movs	r3, #0
10001710:	9301      	str	r3, [sp, #4]
10001712:	9200      	str	r2, [sp, #0]
10001714:	4633      	mov	r3, r6
10001716:	4622      	mov	r2, r4
10001718:	4641      	mov	r1, r8
1000171a:	4638      	mov	r0, r7
1000171c:	f7ff fa2e 	bl	10000b7c <_ntoa_long>
10001720:	4604      	mov	r4, r0
10001722:	e029      	b.n	10001778 <_vsnprintf+0x318>
          base = 16U;
10001724:	2310      	movs	r3, #16
10001726:	e7cb      	b.n	100016c0 <_vsnprintf+0x260>
          base =  8U;
10001728:	2308      	movs	r3, #8
1000172a:	e7c9      	b.n	100016c0 <_vsnprintf+0x260>
          base =  2U;
1000172c:	2302      	movs	r3, #2
1000172e:	e7c7      	b.n	100016c0 <_vsnprintf+0x260>
          flags |= FLAGS_UPPERCASE;
10001730:	f045 0520 	orr.w	r5, r5, #32
10001734:	e7c6      	b.n	100016c4 <_vsnprintf+0x264>
          if (flags & FLAGS_LONG_LONG) {
10001736:	f415 7f00 	tst.w	r5, #512	; 0x200
1000173a:	d121      	bne.n	10001780 <_vsnprintf+0x320>
          else if (flags & FLAGS_LONG) {
1000173c:	f415 7f80 	tst.w	r5, #256	; 0x100
10001740:	d142      	bne.n	100017c8 <_vsnprintf+0x368>
            const int value = (flags & FLAGS_CHAR) ? (char)va_arg(va, int) : (flags & FLAGS_SHORT) ? (short int)va_arg(va, int) : va_arg(va, int);
10001742:	f015 0f40 	tst.w	r5, #64	; 0x40
10001746:	d058      	beq.n	100017fa <_vsnprintf+0x39a>
10001748:	9a18      	ldr	r2, [sp, #96]	; 0x60
1000174a:	1d11      	adds	r1, r2, #4
1000174c:	9118      	str	r1, [sp, #96]	; 0x60
1000174e:	7812      	ldrb	r2, [r2, #0]
            idx = _ntoa_long(out, buffer, idx, maxlen, (unsigned int)(value > 0 ? value : 0 - value), value < 0, base, precision, width, flags);
10001750:	ea82 71e2 	eor.w	r1, r2, r2, asr #31
10001754:	eba1 71e2 	sub.w	r1, r1, r2, asr #31
10001758:	9505      	str	r5, [sp, #20]
1000175a:	980a      	ldr	r0, [sp, #40]	; 0x28
1000175c:	9004      	str	r0, [sp, #16]
1000175e:	f8cd b00c 	str.w	fp, [sp, #12]
10001762:	9302      	str	r3, [sp, #8]
10001764:	0fd2      	lsrs	r2, r2, #31
10001766:	9201      	str	r2, [sp, #4]
10001768:	9100      	str	r1, [sp, #0]
1000176a:	4633      	mov	r3, r6
1000176c:	4622      	mov	r2, r4
1000176e:	4641      	mov	r1, r8
10001770:	4638      	mov	r0, r7
10001772:	f7ff fa03 	bl	10000b7c <_ntoa_long>
10001776:	4604      	mov	r4, r0
        format++;
10001778:	9b0d      	ldr	r3, [sp, #52]	; 0x34
1000177a:	3301      	adds	r3, #1
1000177c:	930d      	str	r3, [sp, #52]	; 0x34
        break;
1000177e:	e67a      	b.n	10001476 <_vsnprintf+0x16>
            const long long value = va_arg(va, long long);
10001780:	9a18      	ldr	r2, [sp, #96]	; 0x60
10001782:	3207      	adds	r2, #7
10001784:	f022 0207 	bic.w	r2, r2, #7
10001788:	f102 0108 	add.w	r1, r2, #8
1000178c:	9118      	str	r1, [sp, #96]	; 0x60
1000178e:	6851      	ldr	r1, [r2, #4]
            idx = _ntoa_long_long(out, buffer, idx, maxlen, (unsigned long long)(value > 0 ? value : 0 - value), value < 0, base, precision, width, flags);
10001790:	6812      	ldr	r2, [r2, #0]
10001792:	4608      	mov	r0, r1
10001794:	2900      	cmp	r1, #0
10001796:	db13      	blt.n	100017c0 <_vsnprintf+0x360>
10001798:	9508      	str	r5, [sp, #32]
1000179a:	9d0a      	ldr	r5, [sp, #40]	; 0x28
1000179c:	9507      	str	r5, [sp, #28]
1000179e:	f8cd b018 	str.w	fp, [sp, #24]
100017a2:	9304      	str	r3, [sp, #16]
100017a4:	2300      	movs	r3, #0
100017a6:	9305      	str	r3, [sp, #20]
100017a8:	0fc9      	lsrs	r1, r1, #31
100017aa:	9102      	str	r1, [sp, #8]
100017ac:	9200      	str	r2, [sp, #0]
100017ae:	9001      	str	r0, [sp, #4]
100017b0:	4633      	mov	r3, r6
100017b2:	4622      	mov	r2, r4
100017b4:	4641      	mov	r1, r8
100017b6:	4638      	mov	r0, r7
100017b8:	f7ff fa2a 	bl	10000c10 <_ntoa_long_long>
100017bc:	4604      	mov	r4, r0
100017be:	e7db      	b.n	10001778 <_vsnprintf+0x318>
100017c0:	4252      	negs	r2, r2
100017c2:	eb61 0041 	sbc.w	r0, r1, r1, lsl #1
100017c6:	e7e7      	b.n	10001798 <_vsnprintf+0x338>
            const long value = va_arg(va, long);
100017c8:	9a18      	ldr	r2, [sp, #96]	; 0x60
100017ca:	1d11      	adds	r1, r2, #4
100017cc:	9118      	str	r1, [sp, #96]	; 0x60
100017ce:	6812      	ldr	r2, [r2, #0]
            idx = _ntoa_long(out, buffer, idx, maxlen, (unsigned long)(value > 0 ? value : 0 - value), value < 0, base, precision, width, flags);
100017d0:	ea82 71e2 	eor.w	r1, r2, r2, asr #31
100017d4:	eba1 71e2 	sub.w	r1, r1, r2, asr #31
100017d8:	9505      	str	r5, [sp, #20]
100017da:	980a      	ldr	r0, [sp, #40]	; 0x28
100017dc:	9004      	str	r0, [sp, #16]
100017de:	f8cd b00c 	str.w	fp, [sp, #12]
100017e2:	9302      	str	r3, [sp, #8]
100017e4:	0fd2      	lsrs	r2, r2, #31
100017e6:	9201      	str	r2, [sp, #4]
100017e8:	9100      	str	r1, [sp, #0]
100017ea:	4633      	mov	r3, r6
100017ec:	4622      	mov	r2, r4
100017ee:	4641      	mov	r1, r8
100017f0:	4638      	mov	r0, r7
100017f2:	f7ff f9c3 	bl	10000b7c <_ntoa_long>
100017f6:	4604      	mov	r4, r0
100017f8:	e7be      	b.n	10001778 <_vsnprintf+0x318>
            const int value = (flags & FLAGS_CHAR) ? (char)va_arg(va, int) : (flags & FLAGS_SHORT) ? (short int)va_arg(va, int) : va_arg(va, int);
100017fa:	f015 0f80 	tst.w	r5, #128	; 0x80
100017fe:	d005      	beq.n	1000180c <_vsnprintf+0x3ac>
10001800:	9a18      	ldr	r2, [sp, #96]	; 0x60
10001802:	1d11      	adds	r1, r2, #4
10001804:	9118      	str	r1, [sp, #96]	; 0x60
10001806:	f9b2 2000 	ldrsh.w	r2, [r2]
1000180a:	e7a1      	b.n	10001750 <_vsnprintf+0x2f0>
1000180c:	9a18      	ldr	r2, [sp, #96]	; 0x60
1000180e:	1d11      	adds	r1, r2, #4
10001810:	9118      	str	r1, [sp, #96]	; 0x60
10001812:	6812      	ldr	r2, [r2, #0]
10001814:	e79c      	b.n	10001750 <_vsnprintf+0x2f0>
            idx = _ntoa_long_long(out, buffer, idx, maxlen, va_arg(va, unsigned long long), false, base, precision, width, flags);
10001816:	9a18      	ldr	r2, [sp, #96]	; 0x60
10001818:	3207      	adds	r2, #7
1000181a:	f022 0207 	bic.w	r2, r2, #7
1000181e:	f102 0108 	add.w	r1, r2, #8
10001822:	9118      	str	r1, [sp, #96]	; 0x60
10001824:	9508      	str	r5, [sp, #32]
10001826:	990a      	ldr	r1, [sp, #40]	; 0x28
10001828:	9107      	str	r1, [sp, #28]
1000182a:	f8cd b018 	str.w	fp, [sp, #24]
1000182e:	2100      	movs	r1, #0
10001830:	9304      	str	r3, [sp, #16]
10001832:	9105      	str	r1, [sp, #20]
10001834:	9102      	str	r1, [sp, #8]
10001836:	e9d2 2300 	ldrd	r2, r3, [r2]
1000183a:	e9cd 2300 	strd	r2, r3, [sp]
1000183e:	4633      	mov	r3, r6
10001840:	4622      	mov	r2, r4
10001842:	4641      	mov	r1, r8
10001844:	4638      	mov	r0, r7
10001846:	f7ff f9e3 	bl	10000c10 <_ntoa_long_long>
1000184a:	4604      	mov	r4, r0
1000184c:	e794      	b.n	10001778 <_vsnprintf+0x318>
            idx = _ntoa_long(out, buffer, idx, maxlen, va_arg(va, unsigned long), false, base, precision, width, flags);
1000184e:	9a18      	ldr	r2, [sp, #96]	; 0x60
10001850:	1d11      	adds	r1, r2, #4
10001852:	9118      	str	r1, [sp, #96]	; 0x60
10001854:	9505      	str	r5, [sp, #20]
10001856:	990a      	ldr	r1, [sp, #40]	; 0x28
10001858:	9104      	str	r1, [sp, #16]
1000185a:	f8cd b00c 	str.w	fp, [sp, #12]
1000185e:	9302      	str	r3, [sp, #8]
10001860:	2300      	movs	r3, #0
10001862:	9301      	str	r3, [sp, #4]
10001864:	6813      	ldr	r3, [r2, #0]
10001866:	9300      	str	r3, [sp, #0]
10001868:	4633      	mov	r3, r6
1000186a:	4622      	mov	r2, r4
1000186c:	4641      	mov	r1, r8
1000186e:	4638      	mov	r0, r7
10001870:	f7ff f984 	bl	10000b7c <_ntoa_long>
10001874:	4604      	mov	r4, r0
10001876:	e77f      	b.n	10001778 <_vsnprintf+0x318>
            const unsigned int value = (flags & FLAGS_CHAR) ? (unsigned char)va_arg(va, unsigned int) : (flags & FLAGS_SHORT) ? (unsigned short int)va_arg(va, unsigned int) : va_arg(va, unsigned int);
10001878:	f015 0f80 	tst.w	r5, #128	; 0x80
1000187c:	d004      	beq.n	10001888 <_vsnprintf+0x428>
1000187e:	9a18      	ldr	r2, [sp, #96]	; 0x60
10001880:	1d11      	adds	r1, r2, #4
10001882:	9118      	str	r1, [sp, #96]	; 0x60
10001884:	8812      	ldrh	r2, [r2, #0]
10001886:	e73c      	b.n	10001702 <_vsnprintf+0x2a2>
10001888:	9a18      	ldr	r2, [sp, #96]	; 0x60
1000188a:	1d11      	adds	r1, r2, #4
1000188c:	9118      	str	r1, [sp, #96]	; 0x60
1000188e:	6812      	ldr	r2, [r2, #0]
10001890:	e737      	b.n	10001702 <_vsnprintf+0x2a2>
        if (*format == 'F') flags |= FLAGS_UPPERCASE;
10001892:	2846      	cmp	r0, #70	; 0x46
10001894:	d01a      	beq.n	100018cc <_vsnprintf+0x46c>
        idx = _ftoa(out, buffer, idx, maxlen, va_arg(va, double), precision, width, flags);
10001896:	9b18      	ldr	r3, [sp, #96]	; 0x60
10001898:	3307      	adds	r3, #7
1000189a:	f023 0307 	bic.w	r3, r3, #7
1000189e:	f103 0208 	add.w	r2, r3, #8
100018a2:	9218      	str	r2, [sp, #96]	; 0x60
100018a4:	9504      	str	r5, [sp, #16]
100018a6:	9a0a      	ldr	r2, [sp, #40]	; 0x28
100018a8:	9203      	str	r2, [sp, #12]
100018aa:	f8cd b008 	str.w	fp, [sp, #8]
100018ae:	e9d3 2300 	ldrd	r2, r3, [r3]
100018b2:	e9cd 2300 	strd	r2, r3, [sp]
100018b6:	4633      	mov	r3, r6
100018b8:	4622      	mov	r2, r4
100018ba:	4641      	mov	r1, r8
100018bc:	4638      	mov	r0, r7
100018be:	f7ff fc03 	bl	100010c8 <_ftoa>
100018c2:	4604      	mov	r4, r0
        format++;
100018c4:	9b0d      	ldr	r3, [sp, #52]	; 0x34
100018c6:	3301      	adds	r3, #1
100018c8:	930d      	str	r3, [sp, #52]	; 0x34
        break;
100018ca:	e5d4      	b.n	10001476 <_vsnprintf+0x16>
        if (*format == 'F') flags |= FLAGS_UPPERCASE;
100018cc:	f045 0520 	orr.w	r5, r5, #32
100018d0:	e7e1      	b.n	10001896 <_vsnprintf+0x436>
        if ((*format == 'g')||(*format == 'G')) flags |= FLAGS_ADAPT_EXP;
100018d2:	2867      	cmp	r0, #103	; 0x67
100018d4:	d001      	beq.n	100018da <_vsnprintf+0x47a>
100018d6:	2847      	cmp	r0, #71	; 0x47
100018d8:	d101      	bne.n	100018de <_vsnprintf+0x47e>
100018da:	f445 6500 	orr.w	r5, r5, #2048	; 0x800
        if ((*format == 'E')||(*format == 'G')) flags |= FLAGS_UPPERCASE;
100018de:	2845      	cmp	r0, #69	; 0x45
100018e0:	d001      	beq.n	100018e6 <_vsnprintf+0x486>
100018e2:	2847      	cmp	r0, #71	; 0x47
100018e4:	d101      	bne.n	100018ea <_vsnprintf+0x48a>
100018e6:	f045 0520 	orr.w	r5, r5, #32
        idx = _etoa(out, buffer, idx, maxlen, va_arg(va, double), precision, width, flags);
100018ea:	9b18      	ldr	r3, [sp, #96]	; 0x60
100018ec:	3307      	adds	r3, #7
100018ee:	f023 0307 	bic.w	r3, r3, #7
100018f2:	f103 0208 	add.w	r2, r3, #8
100018f6:	9218      	str	r2, [sp, #96]	; 0x60
100018f8:	9504      	str	r5, [sp, #16]
100018fa:	9a0a      	ldr	r2, [sp, #40]	; 0x28
100018fc:	9203      	str	r2, [sp, #12]
100018fe:	f8cd b008 	str.w	fp, [sp, #8]
10001902:	e9d3 2300 	ldrd	r2, r3, [r3]
10001906:	e9cd 2300 	strd	r2, r3, [sp]
1000190a:	4633      	mov	r3, r6
1000190c:	4622      	mov	r2, r4
1000190e:	4641      	mov	r1, r8
10001910:	4638      	mov	r0, r7
10001912:	f7ff f9e1 	bl	10000cd8 <_etoa>
10001916:	4604      	mov	r4, r0
        format++;
10001918:	9b0d      	ldr	r3, [sp, #52]	; 0x34
1000191a:	3301      	adds	r3, #1
1000191c:	930d      	str	r3, [sp, #52]	; 0x34
        break;
1000191e:	e5aa      	b.n	10001476 <_vsnprintf+0x16>
        if (!(flags & FLAGS_LEFT)) {
10001920:	f015 0502 	ands.w	r5, r5, #2
10001924:	d01f      	beq.n	10001966 <_vsnprintf+0x506>
        unsigned int l = 1U;
10001926:	f04f 0901 	mov.w	r9, #1
        out((char)va_arg(va, int), buffer, idx++, maxlen);
1000192a:	9818      	ldr	r0, [sp, #96]	; 0x60
1000192c:	1d03      	adds	r3, r0, #4
1000192e:	9318      	str	r3, [sp, #96]	; 0x60
10001930:	f104 0a01 	add.w	sl, r4, #1
10001934:	4633      	mov	r3, r6
10001936:	4622      	mov	r2, r4
10001938:	4641      	mov	r1, r8
1000193a:	7800      	ldrb	r0, [r0, #0]
1000193c:	47b8      	blx	r7
        if (flags & FLAGS_LEFT) {
1000193e:	b9bd      	cbnz	r5, 10001970 <_vsnprintf+0x510>
        format++;
10001940:	9b0d      	ldr	r3, [sp, #52]	; 0x34
10001942:	3301      	adds	r3, #1
10001944:	930d      	str	r3, [sp, #52]	; 0x34
        break;
10001946:	4654      	mov	r4, sl
10001948:	e595      	b.n	10001476 <_vsnprintf+0x16>
            out(' ', buffer, idx++, maxlen);
1000194a:	f102 0a01 	add.w	sl, r2, #1
1000194e:	4633      	mov	r3, r6
10001950:	4641      	mov	r1, r8
10001952:	2020      	movs	r0, #32
10001954:	47b8      	blx	r7
          while (l++ < width) {
10001956:	464b      	mov	r3, r9
            out(' ', buffer, idx++, maxlen);
10001958:	4652      	mov	r2, sl
          while (l++ < width) {
1000195a:	f103 0901 	add.w	r9, r3, #1
1000195e:	459b      	cmp	fp, r3
10001960:	d8f3      	bhi.n	1000194a <_vsnprintf+0x4ea>
10001962:	4614      	mov	r4, r2
10001964:	e7e1      	b.n	1000192a <_vsnprintf+0x4ca>
        unsigned int l = 1U;
10001966:	2301      	movs	r3, #1
10001968:	f8dd b028 	ldr.w	fp, [sp, #40]	; 0x28
1000196c:	4622      	mov	r2, r4
1000196e:	e7f4      	b.n	1000195a <_vsnprintf+0x4fa>
10001970:	4652      	mov	r2, sl
10001972:	f8dd a028 	ldr.w	sl, [sp, #40]	; 0x28
10001976:	e006      	b.n	10001986 <_vsnprintf+0x526>
            out(' ', buffer, idx++, maxlen);
10001978:	1c55      	adds	r5, r2, #1
1000197a:	4633      	mov	r3, r6
1000197c:	4641      	mov	r1, r8
1000197e:	2020      	movs	r0, #32
10001980:	47b8      	blx	r7
          while (l++ < width) {
10001982:	46a1      	mov	r9, r4
            out(' ', buffer, idx++, maxlen);
10001984:	462a      	mov	r2, r5
          while (l++ < width) {
10001986:	f109 0401 	add.w	r4, r9, #1
1000198a:	45ca      	cmp	sl, r9
1000198c:	d8f4      	bhi.n	10001978 <_vsnprintf+0x518>
1000198e:	4692      	mov	sl, r2
10001990:	e7d6      	b.n	10001940 <_vsnprintf+0x4e0>
      }

      case 's' : {
        const char* p = va_arg(va, char*);
10001992:	9b18      	ldr	r3, [sp, #96]	; 0x60
10001994:	1d1a      	adds	r2, r3, #4
10001996:	9218      	str	r2, [sp, #96]	; 0x60
10001998:	f8d3 a000 	ldr.w	sl, [r3]
        unsigned int l = _strnlen_s(p, precision ? precision : (size_t)-1);
1000199c:	f1bb 0f00 	cmp.w	fp, #0
100019a0:	d11e      	bne.n	100019e0 <_vsnprintf+0x580>
100019a2:	f04f 33ff 	mov.w	r3, #4294967295	; 0xffffffff
100019a6:	46d1      	mov	r9, sl
100019a8:	e002      	b.n	100019b0 <_vsnprintf+0x550>
  for (s = str; *s && maxsize--; ++s);
100019aa:	f109 0901 	add.w	r9, r9, #1
100019ae:	4613      	mov	r3, r2
100019b0:	f899 2000 	ldrb.w	r2, [r9]
100019b4:	b112      	cbz	r2, 100019bc <_vsnprintf+0x55c>
100019b6:	1e5a      	subs	r2, r3, #1
100019b8:	2b00      	cmp	r3, #0
100019ba:	d1f6      	bne.n	100019aa <_vsnprintf+0x54a>
  return (unsigned int)(s - str);
100019bc:	eba9 090a 	sub.w	r9, r9, sl
        // pre padding
        if (flags & FLAGS_PRECISION) {
100019c0:	f415 6380 	ands.w	r3, r5, #1024	; 0x400
100019c4:	930b      	str	r3, [sp, #44]	; 0x2c
100019c6:	d002      	beq.n	100019ce <_vsnprintf+0x56e>
          l = (l < precision ? l : precision);
100019c8:	45d9      	cmp	r9, fp
100019ca:	bf28      	it	cs
100019cc:	46d9      	movcs	r9, fp
        }
        if (!(flags & FLAGS_LEFT)) {
100019ce:	f015 0302 	ands.w	r3, r5, #2
100019d2:	930c      	str	r3, [sp, #48]	; 0x30
100019d4:	d006      	beq.n	100019e4 <_vsnprintf+0x584>
100019d6:	4622      	mov	r2, r4
100019d8:	465c      	mov	r4, fp
100019da:	46b3      	mov	fp, r6
100019dc:	9e0b      	ldr	r6, [sp, #44]	; 0x2c
100019de:	e01d      	b.n	10001a1c <_vsnprintf+0x5bc>
        unsigned int l = _strnlen_s(p, precision ? precision : (size_t)-1);
100019e0:	465b      	mov	r3, fp
100019e2:	e7e0      	b.n	100019a6 <_vsnprintf+0x546>
100019e4:	4622      	mov	r2, r4
100019e6:	9c0a      	ldr	r4, [sp, #40]	; 0x28
100019e8:	464b      	mov	r3, r9
100019ea:	e007      	b.n	100019fc <_vsnprintf+0x59c>
          while (l++ < width) {
            out(' ', buffer, idx++, maxlen);
100019ec:	f102 0901 	add.w	r9, r2, #1
100019f0:	4633      	mov	r3, r6
100019f2:	4641      	mov	r1, r8
100019f4:	2020      	movs	r0, #32
100019f6:	47b8      	blx	r7
          while (l++ < width) {
100019f8:	462b      	mov	r3, r5
            out(' ', buffer, idx++, maxlen);
100019fa:	464a      	mov	r2, r9
          while (l++ < width) {
100019fc:	1c5d      	adds	r5, r3, #1
100019fe:	429c      	cmp	r4, r3
10001a00:	d8f4      	bhi.n	100019ec <_vsnprintf+0x58c>
10001a02:	46a9      	mov	r9, r5
10001a04:	465c      	mov	r4, fp
10001a06:	46b3      	mov	fp, r6
10001a08:	9e0b      	ldr	r6, [sp, #44]	; 0x2c
10001a0a:	e007      	b.n	10001a1c <_vsnprintf+0x5bc>
          }
        }
        // string output
        while ((*p != 0) && (!(flags & FLAGS_PRECISION) || precision--)) {
10001a0c:	461c      	mov	r4, r3
          out(*(p++), buffer, idx++, maxlen);
10001a0e:	f10a 0a01 	add.w	sl, sl, #1
10001a12:	1c55      	adds	r5, r2, #1
10001a14:	465b      	mov	r3, fp
10001a16:	4641      	mov	r1, r8
10001a18:	47b8      	blx	r7
10001a1a:	462a      	mov	r2, r5
        while ((*p != 0) && (!(flags & FLAGS_PRECISION) || precision--)) {
10001a1c:	f89a 0000 	ldrb.w	r0, [sl]
10001a20:	b120      	cbz	r0, 10001a2c <_vsnprintf+0x5cc>
10001a22:	2e00      	cmp	r6, #0
10001a24:	d0f3      	beq.n	10001a0e <_vsnprintf+0x5ae>
10001a26:	1e63      	subs	r3, r4, #1
10001a28:	2c00      	cmp	r4, #0
10001a2a:	d1ef      	bne.n	10001a0c <_vsnprintf+0x5ac>
        }
        // post padding
        if (flags & FLAGS_LEFT) {
10001a2c:	4614      	mov	r4, r2
10001a2e:	465e      	mov	r6, fp
10001a30:	9b0c      	ldr	r3, [sp, #48]	; 0x30
10001a32:	b91b      	cbnz	r3, 10001a3c <_vsnprintf+0x5dc>
          while (l++ < width) {
            out(' ', buffer, idx++, maxlen);
          }
        }
        format++;
10001a34:	9b0d      	ldr	r3, [sp, #52]	; 0x34
10001a36:	3301      	adds	r3, #1
10001a38:	930d      	str	r3, [sp, #52]	; 0x34
        break;
10001a3a:	e51c      	b.n	10001476 <_vsnprintf+0x16>
10001a3c:	f8dd a028 	ldr.w	sl, [sp, #40]	; 0x28
10001a40:	e006      	b.n	10001a50 <_vsnprintf+0x5f0>
            out(' ', buffer, idx++, maxlen);
10001a42:	1c55      	adds	r5, r2, #1
10001a44:	4633      	mov	r3, r6
10001a46:	4641      	mov	r1, r8
10001a48:	2020      	movs	r0, #32
10001a4a:	47b8      	blx	r7
          while (l++ < width) {
10001a4c:	46a1      	mov	r9, r4
            out(' ', buffer, idx++, maxlen);
10001a4e:	462a      	mov	r2, r5
          while (l++ < width) {
10001a50:	f109 0401 	add.w	r4, r9, #1
10001a54:	45ca      	cmp	sl, r9
10001a56:	d8f4      	bhi.n	10001a42 <_vsnprintf+0x5e2>
10001a58:	4614      	mov	r4, r2
10001a5a:	e7eb      	b.n	10001a34 <_vsnprintf+0x5d4>
      }

      case 'p' : {
        width = sizeof(void*) * 2U;
        flags |= FLAGS_ZEROPAD | FLAGS_UPPERCASE;
10001a5c:	f045 0521 	orr.w	r5, r5, #33	; 0x21
        if (is_ll) {
          idx = _ntoa_long_long(out, buffer, idx, maxlen, (uintptr_t)va_arg(va, void*), false, 16U, precision, width, flags);
        }
        else {
#endif
          idx = _ntoa_long(out, buffer, idx, maxlen, (unsigned long)((uintptr_t)va_arg(va, void*)), false, 16U, precision, width, flags);
10001a60:	9b18      	ldr	r3, [sp, #96]	; 0x60
10001a62:	1d1a      	adds	r2, r3, #4
10001a64:	9218      	str	r2, [sp, #96]	; 0x60
10001a66:	681b      	ldr	r3, [r3, #0]
10001a68:	9505      	str	r5, [sp, #20]
10001a6a:	2208      	movs	r2, #8
10001a6c:	9204      	str	r2, [sp, #16]
10001a6e:	f8cd b00c 	str.w	fp, [sp, #12]
10001a72:	2210      	movs	r2, #16
10001a74:	9202      	str	r2, [sp, #8]
10001a76:	2200      	movs	r2, #0
10001a78:	9201      	str	r2, [sp, #4]
10001a7a:	9300      	str	r3, [sp, #0]
10001a7c:	4633      	mov	r3, r6
10001a7e:	4622      	mov	r2, r4
10001a80:	4641      	mov	r1, r8
10001a82:	4638      	mov	r0, r7
10001a84:	f7ff f87a 	bl	10000b7c <_ntoa_long>
10001a88:	4604      	mov	r4, r0
#if defined(PRINTF_SUPPORT_LONG_LONG)
        }
#endif
        format++;
10001a8a:	9b0d      	ldr	r3, [sp, #52]	; 0x34
10001a8c:	3301      	adds	r3, #1
10001a8e:	930d      	str	r3, [sp, #52]	; 0x34
        break;
10001a90:	e4f1      	b.n	10001476 <_vsnprintf+0x16>
      }

      case '%' :
        out('%', buffer, idx++, maxlen);
10001a92:	1c65      	adds	r5, r4, #1
10001a94:	4633      	mov	r3, r6
10001a96:	4622      	mov	r2, r4
10001a98:	4641      	mov	r1, r8
10001a9a:	2025      	movs	r0, #37	; 0x25
10001a9c:	47b8      	blx	r7
        format++;
10001a9e:	9b0d      	ldr	r3, [sp, #52]	; 0x34
10001aa0:	3301      	adds	r3, #1
10001aa2:	930d      	str	r3, [sp, #52]	; 0x34
        out('%', buffer, idx++, maxlen);
10001aa4:	462c      	mov	r4, r5
        break;
10001aa6:	e4e6      	b.n	10001476 <_vsnprintf+0x16>

      default :
        out(*format, buffer, idx++, maxlen);
10001aa8:	1c65      	adds	r5, r4, #1
10001aaa:	4633      	mov	r3, r6
10001aac:	4622      	mov	r2, r4
10001aae:	4641      	mov	r1, r8
10001ab0:	47b8      	blx	r7
        format++;
10001ab2:	9b0d      	ldr	r3, [sp, #52]	; 0x34
10001ab4:	3301      	adds	r3, #1
10001ab6:	930d      	str	r3, [sp, #52]	; 0x34
        out(*format, buffer, idx++, maxlen);
10001ab8:	462c      	mov	r4, r5
        break;
10001aba:	e4dc      	b.n	10001476 <_vsnprintf+0x16>
    out = _out_null;
10001abc:	4f07      	ldr	r7, [pc, #28]	; (10001adc <_vsnprintf+0x67c>)
10001abe:	e4d9      	b.n	10001474 <_vsnprintf+0x14>
    }
  }

  // termination
  out((char)0, buffer, idx < maxlen ? idx : maxlen - 1U, maxlen);
10001ac0:	42b4      	cmp	r4, r6
10001ac2:	d301      	bcc.n	10001ac8 <_vsnprintf+0x668>
10001ac4:	1e72      	subs	r2, r6, #1
10001ac6:	e000      	b.n	10001aca <_vsnprintf+0x66a>
10001ac8:	4622      	mov	r2, r4
10001aca:	4633      	mov	r3, r6
10001acc:	4641      	mov	r1, r8
10001ace:	2000      	movs	r0, #0
10001ad0:	47b8      	blx	r7

  // return written chars without terminating \0
  return (int)idx;
}
10001ad2:	4620      	mov	r0, r4
10001ad4:	b00f      	add	sp, #60	; 0x3c
10001ad6:	e8bd 8ff0 	ldmia.w	sp!, {r4, r5, r6, r7, r8, r9, sl, fp, pc}
10001ada:	bf00      	nop
10001adc:	100009a1 	andne	r0, r0, r1, lsr #19

10001ae0 <_out_char>:
  if (character) {
10001ae0:	b900      	cbnz	r0, 10001ae4 <_out_char+0x4>
10001ae2:	4770      	bx	lr
{
10001ae4:	b508      	push	{r3, lr}
    putchar(character);
10001ae6:	f000 f817 	bl	10001b18 <putchar>
}
10001aea:	bd08      	pop	{r3, pc}

10001aec <printf>:


///////////////////////////////////////////////////////////////////////////////

int printf(const char* format, ...)
{
10001aec:	b40f      	push	{r0, r1, r2, r3}
10001aee:	b500      	push	{lr}
10001af0:	b085      	sub	sp, #20
10001af2:	aa06      	add	r2, sp, #24
10001af4:	f852 3b04 	ldr.w	r3, [r2], #4
  va_list va;
  va_start(va, format);
10001af8:	9203      	str	r2, [sp, #12]
  char buffer[1];
  const int ret = _vsnprintf(_out_char, buffer, (size_t)-1, format, va);
10001afa:	9200      	str	r2, [sp, #0]
10001afc:	f04f 32ff 	mov.w	r2, #4294967295	; 0xffffffff
10001b00:	a902      	add	r1, sp, #8
10001b02:	4804      	ldr	r0, [pc, #16]	; (10001b14 <printf+0x28>)
10001b04:	f7ff fcac 	bl	10001460 <_vsnprintf>
  va_end(va);
  return ret;
}
10001b08:	b005      	add	sp, #20
10001b0a:	f85d eb04 	ldr.w	lr, [sp], #4
10001b0e:	b004      	add	sp, #16
10001b10:	4770      	bx	lr
10001b12:	bf00      	nop
10001b14:	10001ae1 	andne	r1, r0, r1, ror #21

10001b18 <putchar>:
#define PUTCHAR_PROTOTYPE       int fputc(int ch, FILE *f)
#define GETCHAR_PROTOTYPE       int fgetc(FILE *f)
#endif

PUTCHAR_PROTOTYPE {
    while (UART_FLAG(UART0) & 0x20);
10001b18:	4b03      	ldr	r3, [pc, #12]	; (10001b28 <putchar+0x10>)
10001b1a:	699b      	ldr	r3, [r3, #24]
10001b1c:	f013 0f20 	tst.w	r3, #32
10001b20:	d1fa      	bne.n	10001b18 <putchar>
    UART_DATA(UART0) = ch;
10001b22:	4b01      	ldr	r3, [pc, #4]	; (10001b28 <putchar+0x10>)
10001b24:	6018      	str	r0, [r3, #0]
    return ch;
}
10001b26:	4770      	bx	lr
10001b28:	40200000 	eormi	r0, r0, r0

10001b2c <puts>:
GETCHAR_PROTOTYPE {
    while ((UART_FLAG(UART0) & 0x40) == 0);
    return UART_DATA(UART0);
}

int puts(const char* string) {
10001b2c:	b538      	push	{r3, r4, r5, lr}
10001b2e:	4605      	mov	r5, r0
    int index = 0;
10001b30:	2400      	movs	r4, #0
    while (string[index] != '\0') {
10001b32:	e002      	b.n	10001b3a <puts+0xe>
        putchar(string[index]);
10001b34:	f7ff fff0 	bl	10001b18 <putchar>
        index++;
10001b38:	3401      	adds	r4, #1
    while (string[index] != '\0') {
10001b3a:	5d28      	ldrb	r0, [r5, r4]
10001b3c:	2800      	cmp	r0, #0
10001b3e:	d1f9      	bne.n	10001b34 <puts+0x8>
    }
    putchar('\n');
10001b40:	200a      	movs	r0, #10
10001b42:	f7ff ffe9 	bl	10001b18 <putchar>
    return index;
}
10001b46:	4620      	mov	r0, r4
10001b48:	bd38      	pop	{r3, r4, r5, pc}
	...

10001b4c <uart_init>:

void uart_init(void) {
    UART_IBRD(UART0) = 40;
10001b4c:	4b07      	ldr	r3, [pc, #28]	; (10001b6c <uart_init+0x20>)
10001b4e:	2228      	movs	r2, #40	; 0x28
10001b50:	625a      	str	r2, [r3, #36]	; 0x24
    UART_FBRD(UART0) = 11;
10001b52:	220b      	movs	r2, #11
10001b54:	629a      	str	r2, [r3, #40]	; 0x28
    UART_LCRH(UART0) = 0x60;
10001b56:	2260      	movs	r2, #96	; 0x60
10001b58:	62da      	str	r2, [r3, #44]	; 0x2c
    UART_CR(UART0)   = 0x301;
10001b5a:	f240 3201 	movw	r2, #769	; 0x301
10001b5e:	631a      	str	r2, [r3, #48]	; 0x30
    UART_RSR(UART0)  = 0x0A;
10001b60:	220a      	movs	r2, #10
10001b62:	605a      	str	r2, [r3, #4]
    UART_CTRL(UART0) = 0x01;
10001b64:	2201      	movs	r2, #1
10001b66:	609a      	str	r2, [r3, #8]
}
10001b68:	4770      	bx	lr
10001b6a:	bf00      	nop
10001b6c:	40200000 	eormi	r0, r0, r0

10001b70 <fault_dump_opcode>:
    FD_CODE_TEXT_BASE,  FD_CODE_TEXT_ENDS,  FD_CODE_TEXT_SIZE );
    printf("Code Stack Growth Downward:%d\r\n", 
    FD_STACK_GROWTH_DOWNWARD);
}

static unsigned int fault_dump_opcode(unsigned int pc) {
10001b70:	b082      	sub	sp, #8
    uint16_t value[2] = {0};
10001b72:	2300      	movs	r3, #0
10001b74:	9301      	str	r3, [sp, #4]
    unsigned int opcode = 0;
    for (int i = 0; i < (sizeof(value) / sizeof(uint16_t)); i++) {
10001b76:	e007      	b.n	10001b88 <fault_dump_opcode+0x18>
        value[i] = *(uint16_t*)(pc + i * sizeof(uint16_t));
10001b78:	f830 1013 	ldrh.w	r1, [r0, r3, lsl #1]
10001b7c:	aa02      	add	r2, sp, #8
10001b7e:	eb02 0243 	add.w	r2, r2, r3, lsl #1
10001b82:	f822 1c04 	strh.w	r1, [r2, #-4]
    for (int i = 0; i < (sizeof(value) / sizeof(uint16_t)); i++) {
10001b86:	3301      	adds	r3, #1
10001b88:	2b01      	cmp	r3, #1
10001b8a:	d9f5      	bls.n	10001b78 <fault_dump_opcode+0x8>
    }
    opcode = ((unsigned int)value[1] << 0x10) |
10001b8c:	f8bd 0006 	ldrh.w	r0, [sp, #6]
             ((unsigned int)value[0] << 0x00);
10001b90:	f8bd 3004 	ldrh.w	r3, [sp, #4]
    return opcode;
}
10001b94:	ea43 4000 	orr.w	r0, r3, r0, lsl #16
10001b98:	b002      	add	sp, #8
10001b9a:	4770      	bx	lr

10001b9c <opcode_is_bl_or_blx>:

static bool opcode_is_bl_or_blx(unsigned int ins) {
#define FD_BL_OPCODE_MASK   (0xF800)
#define FD_BL_OPCODE_BL     (0xF000)
#define FD_BL_OPCODE_BLX    (0xF800)
    uint16_t opcode1 = (((ins >> 0x00) & 0xFFFF) & FD_BL_OPCODE_MASK);
10001b9c:	f400 4378 	and.w	r3, r0, #63488	; 0xf800
    uint16_t opcode2 = (((ins >> 0x10) & 0xFFFF) & FD_BL_OPCODE_MASK);
10001ba0:	0c00      	lsrs	r0, r0, #16
10001ba2:	f400 4078 	and.w	r0, r0, #63488	; 0xf800
    if ((opcode1 == FD_BL_OPCODE_BL) || (opcode1 == FD_BL_OPCODE_BLX)) {
10001ba6:	f5b3 4f70 	cmp.w	r3, #61440	; 0xf000
10001baa:	d00a      	beq.n	10001bc2 <opcode_is_bl_or_blx+0x26>
10001bac:	f5b3 4f78 	cmp.w	r3, #63488	; 0xf800
10001bb0:	d009      	beq.n	10001bc6 <opcode_is_bl_or_blx+0x2a>
        return true;
    }
    if ((opcode2 == FD_BL_OPCODE_BL) || (opcode2 == FD_BL_OPCODE_BLX)) {
10001bb2:	f5b0 4f70 	cmp.w	r0, #61440	; 0xf000
10001bb6:	d008      	beq.n	10001bca <opcode_is_bl_or_blx+0x2e>
10001bb8:	f5b0 4f78 	cmp.w	r0, #63488	; 0xf800
10001bbc:	d007      	beq.n	10001bce <opcode_is_bl_or_blx+0x32>
        return true;
    }
    return false;
10001bbe:	2000      	movs	r0, #0
10001bc0:	4770      	bx	lr
        return true;
10001bc2:	2001      	movs	r0, #1
10001bc4:	4770      	bx	lr
10001bc6:	2001      	movs	r0, #1
10001bc8:	4770      	bx	lr
        return true;
10001bca:	2001      	movs	r0, #1
10001bcc:	4770      	bx	lr
10001bce:	2001      	movs	r0, #1
}
10001bd0:	4770      	bx	lr
	...

10001bd4 <dump_exc_return>:

static void dump_exc_return(unsigned int exc_return) {
10001bd4:	b510      	push	{r4, lr}
10001bd6:	4604      	mov	r4, r0
    printf(" EXE_RETURN: 0x%08X \r\n", exc_return);
10001bd8:	4601      	mov	r1, r0
10001bda:	4803      	ldr	r0, [pc, #12]	; (10001be8 <dump_exc_return+0x14>)
10001bdc:	f7ff ff86 	bl	10001aec <printf>
#if FD_DUMP_EXC_RETURN_VALUE
    extern void fault_dump_exc_return(unsigned int exc_return);
    fault_dump_exc_return(exc_return);
10001be0:	4620      	mov	r0, r4
10001be2:	f000 f933 	bl	10001e4c <fault_dump_exc_return>
#endif
}
10001be6:	bd10      	pop	{r4, pc}
10001be8:	10004030 	andne	r4, r0, r0, lsr r0

10001bec <fault_dump_init>:
void fault_dump_init(void) {
10001bec:	b508      	push	{r3, lr}
    fd_main_stack_base = FD_CODE_STACK_BASE;
10001bee:	490a      	ldr	r1, [pc, #40]	; (10001c18 <fault_dump_init+0x2c>)
10001bf0:	4b0a      	ldr	r3, [pc, #40]	; (10001c1c <fault_dump_init+0x30>)
10001bf2:	6019      	str	r1, [r3, #0]
    fd_main_stack_full = FD_CODE_STACK_FULL;
10001bf4:	4a0a      	ldr	r2, [pc, #40]	; (10001c20 <fault_dump_init+0x34>)
10001bf6:	4b0b      	ldr	r3, [pc, #44]	; (10001c24 <fault_dump_init+0x38>)
10001bf8:	601a      	str	r2, [r3, #0]
    printf("Code Stack:[%08X - %08X], size:%d\r\n",
10001bfa:	1a53      	subs	r3, r2, r1
10001bfc:	480a      	ldr	r0, [pc, #40]	; (10001c28 <fault_dump_init+0x3c>)
10001bfe:	f7ff ff75 	bl	10001aec <printf>
    printf("Code Text :[%08X - %08X], size:%d\r\n",
10001c02:	490a      	ldr	r1, [pc, #40]	; (10001c2c <fault_dump_init+0x40>)
10001c04:	4a0a      	ldr	r2, [pc, #40]	; (10001c30 <fault_dump_init+0x44>)
10001c06:	1a53      	subs	r3, r2, r1
10001c08:	480a      	ldr	r0, [pc, #40]	; (10001c34 <fault_dump_init+0x48>)
10001c0a:	f7ff ff6f 	bl	10001aec <printf>
    printf("Code Stack Growth Downward:%d\r\n", 
10001c0e:	2101      	movs	r1, #1
10001c10:	4809      	ldr	r0, [pc, #36]	; (10001c38 <fault_dump_init+0x4c>)
10001c12:	f7ff ff6b 	bl	10001aec <printf>
}
10001c16:	bd08      	pop	{r3, pc}
10001c18:	380ff000 	stmdacc	pc, {ip, sp, lr, pc}	; <UNPREDICTABLE>
10001c1c:	3800055c 	stmdacc	r0, {r2, r3, r4, r6, r8, sl}
10001c20:	38100000 	ldmdacc	r0, {}	; <UNPREDICTABLE>
10001c24:	38000560 	stmdacc	r0, {r5, r6, r8, sl}
10001c28:	10004048 	andne	r4, r0, r8, asr #32
10001c2c:	10000000 	andne	r0, r0, r0
10001c30:	10004450 	andne	r4, r0, r0, asr r4
10001c34:	1000406c 	andne	r4, r0, ip, rrx
10001c38:	10004090 	mulne	r0, r0, r0

10001c3c <fault_dump_callstack>:
    }
    printf("\r\n");
    while (1);
}

int fault_dump_callstack(unsigned int *buffer, size_t size, unsigned int *stack_point, unsigned int *stack_start) {
10001c3c:	e92d 43f8 	stmdb	sp!, {r3, r4, r5, r6, r7, r8, r9, lr}
    int count = 0;
    unsigned int pc = 0, op = 0, *sp = NULL;
    if ((buffer == NULL) || (size <= 0)) {
10001c40:	b348      	cbz	r0, 10001c96 <fault_dump_callstack+0x5a>
10001c42:	460f      	mov	r7, r1
10001c44:	4614      	mov	r4, r2
10001c46:	461d      	mov	r5, r3
10001c48:	4680      	mov	r8, r0
10001c4a:	b339      	cbz	r1, 10001c9c <fault_dump_callstack+0x60>
        return -FD_EEMPTY;
    }
    FD_STACK_CHECKIT(stack_point, stack_start) {
10001c4c:	b34a      	cbz	r2, 10001ca2 <fault_dump_callstack+0x66>
10001c4e:	429a      	cmp	r2, r3
10001c50:	d82a      	bhi.n	10001ca8 <fault_dump_callstack+0x6c>
    int count = 0;
10001c52:	2600      	movs	r6, #0
10001c54:	e000      	b.n	10001c58 <fault_dump_callstack+0x1c>
        return -FD_EINVAL;
    }
    FD_STACK_FOREACH(stack_point, stack_start) {
10001c56:	3404      	adds	r4, #4
10001c58:	b1d4      	cbz	r4, 10001c90 <fault_dump_callstack+0x54>
10001c5a:	42ac      	cmp	r4, r5
10001c5c:	d818      	bhi.n	10001c90 <fault_dump_callstack+0x54>
        // Read stack[x] value to pc.
        pc = *(unsigned int *)sp;
10001c5e:	6822      	ldr	r2, [r4, #0]
        // PC must be in the code segment.
        if ((pc < FD_CODE_TEXT_BASE) || (pc > FD_CODE_TEXT_ENDS)) {
10001c60:	4813      	ldr	r0, [pc, #76]	; (10001cb0 <fault_dump_callstack+0x74>)
10001c62:	4290      	cmp	r0, r2
10001c64:	d8f7      	bhi.n	10001c56 <fault_dump_callstack+0x1a>
10001c66:	4b13      	ldr	r3, [pc, #76]	; (10001cb4 <fault_dump_callstack+0x78>)
10001c68:	4293      	cmp	r3, r2
10001c6a:	d3f4      	bcc.n	10001c56 <fault_dump_callstack+0x1a>
            continue;
        }
        // The thumb instruction must be an odd number.
        if ((pc % 2) == 0) {
10001c6c:	f012 0f01 	tst.w	r2, #1
10001c70:	d0f1      	beq.n	10001c56 <fault_dump_callstack+0x1a>
            continue;
        }
        // Fix thumb instruction set.
        pc = pc - 1;
        // Calculate the address of the instruction being executed before pushing on the stack.
        pc = pc - sizeof(unsigned int);
10001c72:	f1a2 0905 	sub.w	r9, r2, #5
        // The thumb instruction is at least 2-byte aligned.
        if ((pc & 0x1) != 0) {
10001c76:	d0ee      	beq.n	10001c56 <fault_dump_callstack+0x1a>
            continue;
        }
        // Read the instruction at the PC address.
        op = fault_dump_opcode(pc);
10001c78:	4648      	mov	r0, r9
10001c7a:	f7ff ff79 	bl	10001b70 <fault_dump_opcode>
        // Only BL or BLX opcode need to be recorded.
        if (!opcode_is_bl_or_blx(op)) {
10001c7e:	f7ff ff8d 	bl	10001b9c <opcode_is_bl_or_blx>
10001c82:	2800      	cmp	r0, #0
10001c84:	d0e7      	beq.n	10001c56 <fault_dump_callstack+0x1a>
            continue;
        }
        // storage this address.
        buffer[count] = pc;
10001c86:	f848 9026 	str.w	r9, [r8, r6, lsl #2]
        count = count + 1;
10001c8a:	3601      	adds	r6, #1
        if (count >= size) {
10001c8c:	42be      	cmp	r6, r7
10001c8e:	d3e2      	bcc.n	10001c56 <fault_dump_callstack+0x1a>
            break;
        }
    }
    return count;
}
10001c90:	4630      	mov	r0, r6
10001c92:	e8bd 83f8 	ldmia.w	sp!, {r3, r4, r5, r6, r7, r8, r9, pc}
        return -FD_EEMPTY;
10001c96:	f06f 0601 	mvn.w	r6, #1
10001c9a:	e7f9      	b.n	10001c90 <fault_dump_callstack+0x54>
10001c9c:	f06f 0601 	mvn.w	r6, #1
10001ca0:	e7f6      	b.n	10001c90 <fault_dump_callstack+0x54>
        return -FD_EINVAL;
10001ca2:	f06f 0602 	mvn.w	r6, #2
10001ca6:	e7f3      	b.n	10001c90 <fault_dump_callstack+0x54>
10001ca8:	f06f 0602 	mvn.w	r6, #2
10001cac:	e7f0      	b.n	10001c90 <fault_dump_callstack+0x54>
10001cae:	bf00      	nop
10001cb0:	10000000 	andne	r0, r0, r0
10001cb4:	10004450 	andne	r4, r0, r0, asr r4

10001cb8 <fault_dump_handler>:
void fault_dump_handler(unsigned int *stack, unsigned int linker) {
10001cb8:	b5f8      	push	{r3, r4, r5, r6, r7, lr}
10001cba:	4605      	mov	r5, r0
10001cbc:	460e      	mov	r6, r1
    frame.manual.r4  = FD_STACK_READVAL(point);
10001cbe:	6803      	ldr	r3, [r0, #0]
10001cc0:	4c46      	ldr	r4, [pc, #280]	; (10001ddc <fault_dump_handler+0x124>)
10001cc2:	6023      	str	r3, [r4, #0]
    frame.manual.r5  = FD_STACK_READVAL(point);
10001cc4:	6843      	ldr	r3, [r0, #4]
10001cc6:	6063      	str	r3, [r4, #4]
    frame.manual.r6  = FD_STACK_READVAL(point);
10001cc8:	6883      	ldr	r3, [r0, #8]
10001cca:	60a3      	str	r3, [r4, #8]
    frame.manual.r7  = FD_STACK_READVAL(point);
10001ccc:	68c3      	ldr	r3, [r0, #12]
10001cce:	60e3      	str	r3, [r4, #12]
    frame.manual.r8  = FD_STACK_READVAL(point);
10001cd0:	6903      	ldr	r3, [r0, #16]
10001cd2:	6123      	str	r3, [r4, #16]
    frame.manual.r9  = FD_STACK_READVAL(point);
10001cd4:	6943      	ldr	r3, [r0, #20]
10001cd6:	6163      	str	r3, [r4, #20]
    frame.manual.r10 = FD_STACK_READVAL(point);
10001cd8:	6983      	ldr	r3, [r0, #24]
10001cda:	61a3      	str	r3, [r4, #24]
    frame.manual.r11 = FD_STACK_READVAL(point);
10001cdc:	69c3      	ldr	r3, [r0, #28]
10001cde:	61e3      	str	r3, [r4, #28]
    frame.except.r0  = FD_STACK_READVAL(point);
10001ce0:	6a03      	ldr	r3, [r0, #32]
10001ce2:	6223      	str	r3, [r4, #32]
    frame.except.r1  = FD_STACK_READVAL(point);
10001ce4:	6a43      	ldr	r3, [r0, #36]	; 0x24
10001ce6:	6263      	str	r3, [r4, #36]	; 0x24
    frame.except.r2  = FD_STACK_READVAL(point);
10001ce8:	6a83      	ldr	r3, [r0, #40]	; 0x28
10001cea:	62a3      	str	r3, [r4, #40]	; 0x28
    frame.except.r3  = FD_STACK_READVAL(point);
10001cec:	6ac3      	ldr	r3, [r0, #44]	; 0x2c
10001cee:	62e3      	str	r3, [r4, #44]	; 0x2c
    frame.except.r12 = FD_STACK_READVAL(point);
10001cf0:	6b03      	ldr	r3, [r0, #48]	; 0x30
10001cf2:	6323      	str	r3, [r4, #48]	; 0x30
    frame.except.lr  = FD_STACK_READVAL(point);
10001cf4:	6b43      	ldr	r3, [r0, #52]	; 0x34
10001cf6:	6363      	str	r3, [r4, #52]	; 0x34
    frame.except.pc  = FD_STACK_READVAL(point);
10001cf8:	6b83      	ldr	r3, [r0, #56]	; 0x38
10001cfa:	63a3      	str	r3, [r4, #56]	; 0x38
    frame.except.psr = FD_STACK_READVAL(point);
10001cfc:	6bc3      	ldr	r3, [r0, #60]	; 0x3c
10001cfe:	63e3      	str	r3, [r4, #60]	; 0x3c
    printf("\r\n");
10001d00:	4f37      	ldr	r7, [pc, #220]	; (10001de0 <fault_dump_handler+0x128>)
10001d02:	4638      	mov	r0, r7
10001d04:	f7ff ff12 	bl	10001b2c <puts>
    printf(" HardFault Information Dump \r\n");
10001d08:	4836      	ldr	r0, [pc, #216]	; (10001de4 <fault_dump_handler+0x12c>)
10001d0a:	f7ff ff0f 	bl	10001b2c <puts>
    printf(" Stack Frame   \r\n");
10001d0e:	4836      	ldr	r0, [pc, #216]	; (10001de8 <fault_dump_handler+0x130>)
10001d10:	f7ff ff0c 	bl	10001b2c <puts>
    printf(" R0   = 0x%08X \r\n", (unsigned int)frame.except.r0);
10001d14:	6a21      	ldr	r1, [r4, #32]
10001d16:	4835      	ldr	r0, [pc, #212]	; (10001dec <fault_dump_handler+0x134>)
10001d18:	f7ff fee8 	bl	10001aec <printf>
    printf(" R1   = 0x%08X \r\n", (unsigned int)frame.except.r1);
10001d1c:	6a61      	ldr	r1, [r4, #36]	; 0x24
10001d1e:	4834      	ldr	r0, [pc, #208]	; (10001df0 <fault_dump_handler+0x138>)
10001d20:	f7ff fee4 	bl	10001aec <printf>
    printf(" R2   = 0x%08X \r\n", (unsigned int)frame.except.r2);
10001d24:	6aa1      	ldr	r1, [r4, #40]	; 0x28
10001d26:	4833      	ldr	r0, [pc, #204]	; (10001df4 <fault_dump_handler+0x13c>)
10001d28:	f7ff fee0 	bl	10001aec <printf>
    printf(" R3   = 0x%08X \r\n", (unsigned int)frame.except.r3);
10001d2c:	6ae1      	ldr	r1, [r4, #44]	; 0x2c
10001d2e:	4832      	ldr	r0, [pc, #200]	; (10001df8 <fault_dump_handler+0x140>)
10001d30:	f7ff fedc 	bl	10001aec <printf>
    printf(" R4   = 0x%08X \r\n", (unsigned int)frame.manual.r4);
10001d34:	6821      	ldr	r1, [r4, #0]
10001d36:	4831      	ldr	r0, [pc, #196]	; (10001dfc <fault_dump_handler+0x144>)
10001d38:	f7ff fed8 	bl	10001aec <printf>
    printf(" R5   = 0x%08X \r\n", (unsigned int)frame.manual.r5);
10001d3c:	6861      	ldr	r1, [r4, #4]
10001d3e:	4830      	ldr	r0, [pc, #192]	; (10001e00 <fault_dump_handler+0x148>)
10001d40:	f7ff fed4 	bl	10001aec <printf>
    printf(" R6   = 0x%08X \r\n", (unsigned int)frame.manual.r6);
10001d44:	68a1      	ldr	r1, [r4, #8]
10001d46:	482f      	ldr	r0, [pc, #188]	; (10001e04 <fault_dump_handler+0x14c>)
10001d48:	f7ff fed0 	bl	10001aec <printf>
    printf(" R7   = 0x%08X \r\n", (unsigned int)frame.manual.r7);
10001d4c:	68e1      	ldr	r1, [r4, #12]
10001d4e:	482e      	ldr	r0, [pc, #184]	; (10001e08 <fault_dump_handler+0x150>)
10001d50:	f7ff fecc 	bl	10001aec <printf>
    printf(" R8   = 0x%08X \r\n", (unsigned int)frame.manual.r8);
10001d54:	6921      	ldr	r1, [r4, #16]
10001d56:	482d      	ldr	r0, [pc, #180]	; (10001e0c <fault_dump_handler+0x154>)
10001d58:	f7ff fec8 	bl	10001aec <printf>
    printf(" R9   = 0x%08X \r\n", (unsigned int)frame.manual.r9);
10001d5c:	6961      	ldr	r1, [r4, #20]
10001d5e:	482c      	ldr	r0, [pc, #176]	; (10001e10 <fault_dump_handler+0x158>)
10001d60:	f7ff fec4 	bl	10001aec <printf>
    printf(" R10  = 0x%08X \r\n", (unsigned int)frame.manual.r10);
10001d64:	69a1      	ldr	r1, [r4, #24]
10001d66:	482b      	ldr	r0, [pc, #172]	; (10001e14 <fault_dump_handler+0x15c>)
10001d68:	f7ff fec0 	bl	10001aec <printf>
    printf(" R11  = 0x%08X \r\n", (unsigned int)frame.manual.r11);
10001d6c:	69e1      	ldr	r1, [r4, #28]
10001d6e:	482a      	ldr	r0, [pc, #168]	; (10001e18 <fault_dump_handler+0x160>)
10001d70:	f7ff febc 	bl	10001aec <printf>
    printf(" R12  = 0x%08X \r\n", (unsigned int)frame.except.r12);
10001d74:	6b21      	ldr	r1, [r4, #48]	; 0x30
10001d76:	4829      	ldr	r0, [pc, #164]	; (10001e1c <fault_dump_handler+0x164>)
10001d78:	f7ff feb8 	bl	10001aec <printf>
    printf(" LR   = 0x%08X \r\n", (unsigned int)frame.except.lr);
10001d7c:	6b61      	ldr	r1, [r4, #52]	; 0x34
10001d7e:	4828      	ldr	r0, [pc, #160]	; (10001e20 <fault_dump_handler+0x168>)
10001d80:	f7ff feb4 	bl	10001aec <printf>
    printf(" PC   = 0x%08X \r\n", (unsigned int)frame.except.pc);
10001d84:	6ba1      	ldr	r1, [r4, #56]	; 0x38
10001d86:	4827      	ldr	r0, [pc, #156]	; (10001e24 <fault_dump_handler+0x16c>)
10001d88:	f7ff feb0 	bl	10001aec <printf>
    printf(" PSR  = 0x%08X \r\n", (unsigned int)frame.except.psr);
10001d8c:	6be1      	ldr	r1, [r4, #60]	; 0x3c
10001d8e:	4826      	ldr	r0, [pc, #152]	; (10001e28 <fault_dump_handler+0x170>)
10001d90:	f7ff feac 	bl	10001aec <printf>
    printf("\r\n");
10001d94:	4638      	mov	r0, r7
10001d96:	f7ff fec9 	bl	10001b2c <puts>
    dump_exc_return(linker);
10001d9a:	4630      	mov	r0, r6
10001d9c:	f7ff ff1a 	bl	10001bd4 <dump_exc_return>
    count = fault_dump_callstack(buffer, FD_STACK_DUMP_DEPTH_MAX, 
10001da0:	4b22      	ldr	r3, [pc, #136]	; (10001e2c <fault_dump_handler+0x174>)
10001da2:	f105 0240 	add.w	r2, r5, #64	; 0x40
10001da6:	2140      	movs	r1, #64	; 0x40
10001da8:	4821      	ldr	r0, [pc, #132]	; (10001e30 <fault_dump_handler+0x178>)
10001daa:	f7ff ff47 	bl	10001c3c <fault_dump_callstack>
10001dae:	4605      	mov	r5, r0
    printf(" Stack Call: ");
10001db0:	4820      	ldr	r0, [pc, #128]	; (10001e34 <fault_dump_handler+0x17c>)
10001db2:	f7ff fe9b 	bl	10001aec <printf>
    printf("%08X ", (unsigned int)frame.except.pc);
10001db6:	6ba1      	ldr	r1, [r4, #56]	; 0x38
10001db8:	481f      	ldr	r0, [pc, #124]	; (10001e38 <fault_dump_handler+0x180>)
10001dba:	f7ff fe97 	bl	10001aec <printf>
    for (index = 0; index < count; index++) {
10001dbe:	2400      	movs	r4, #0
10001dc0:	e006      	b.n	10001dd0 <fault_dump_handler+0x118>
        printf("%08X ", buffer[index]);
10001dc2:	4b1b      	ldr	r3, [pc, #108]	; (10001e30 <fault_dump_handler+0x178>)
10001dc4:	f853 1024 	ldr.w	r1, [r3, r4, lsl #2]
10001dc8:	481b      	ldr	r0, [pc, #108]	; (10001e38 <fault_dump_handler+0x180>)
10001dca:	f7ff fe8f 	bl	10001aec <printf>
    for (index = 0; index < count; index++) {
10001dce:	3401      	adds	r4, #1
10001dd0:	42ac      	cmp	r4, r5
10001dd2:	dbf6      	blt.n	10001dc2 <fault_dump_handler+0x10a>
    printf("\r\n");
10001dd4:	4802      	ldr	r0, [pc, #8]	; (10001de0 <fault_dump_handler+0x128>)
10001dd6:	f7ff fea9 	bl	10001b2c <puts>
    while (1);
10001dda:	e7fe      	b.n	10001dda <fault_dump_handler+0x122>
10001ddc:	38000564 	stmdacc	r0, {r2, r5, r6, r8, sl}
10001de0:	100040cc 	andne	r4, r0, ip, asr #1
10001de4:	100040b0 	strhne	r4, [r0], -r0
10001de8:	100040d0 	ldrdne	r4, [r0], -r0
10001dec:	100040e4 	andne	r4, r0, r4, ror #1
10001df0:	100040f8 	strdne	r4, [r0], -r8
10001df4:	1000410c 	andne	r4, r0, ip, lsl #2
10001df8:	10004120 	andne	r4, r0, r0, lsr #2
10001dfc:	10004134 	andne	r4, r0, r4, lsr r1
10001e00:	10004148 	andne	r4, r0, r8, asr #2
10001e04:	1000415c 	andne	r4, r0, ip, asr r1
10001e08:	10004170 	andne	r4, r0, r0, ror r1
10001e0c:	10004184 	andne	r4, r0, r4, lsl #3
10001e10:	10004198 	mulne	r0, r8, r1
10001e14:	100041ac 	andne	r4, r0, ip, lsr #3
10001e18:	100041c0 	andne	r4, r0, r0, asr #3
10001e1c:	100041d4 	ldrdne	r4, [r0], -r4	; <UNPREDICTABLE>
10001e20:	100041e8 	andne	r4, r0, r8, ror #3
10001e24:	100041fc 	strdne	r4, [r0], -ip
10001e28:	10004210 	andne	r4, r0, r0, lsl r2
10001e2c:	38100000 	ldmdacc	r0, {}	; <UNPREDICTABLE>
10001e30:	3800045c 	stmdacc	r0, {r2, r3, r4, r6, sl}
10001e34:	10004224 	andne	r4, r0, r4, lsr #4
10001e38:	10003f5c 	andne	r3, r0, ip, asr pc

10001e3c <fault_dump_bm_stack_point>:
 */
__STATIC_FORCEINLINE uint32_t __get_MSP(void)
{
  uint32_t result;

  __ASM volatile ("MRS %0, msp" : "=r" (result) );
10001e3c:	f3ef 8008 	mrs	r0, MSP

unsigned int fault_dump_bm_stack_point(void) {
    return __get_MSP();
}
10001e40:	4770      	bx	lr
	...

10001e44 <fault_dump_bm_stack_start>:

unsigned int fault_dump_bm_stack_start(void) {
    return FD_STACK_START;
}
10001e44:	4800      	ldr	r0, [pc, #0]	; (10001e48 <fault_dump_bm_stack_start+0x4>)
10001e46:	4770      	bx	lr
10001e48:	38100000 	ldmdacc	r0, {}	; <UNPREDICTABLE>

10001e4c <fault_dump_exc_return>:
  *
  ******************************************************************************
  */
#include "fault-dump.h"

void fault_dump_exc_return(unsigned int exc_return) {
10001e4c:	b510      	push	{r4, lr}
10001e4e:	4604      	mov	r4, r0
    printf(" \r\n");
10001e50:	482a      	ldr	r0, [pc, #168]	; (10001efc <fault_dump_exc_return+0xb0>)
10001e52:	f7ff fe6b 	bl	10001b2c <puts>
    printf(" Bit0 Except Security State: ");
10001e56:	482a      	ldr	r0, [pc, #168]	; (10001f00 <fault_dump_exc_return+0xb4>)
10001e58:	f7ff fe48 	bl	10001aec <printf>
    if (FD_CHECK_BIT(exc_return, 0)) {
10001e5c:	f014 0f01 	tst.w	r4, #1
10001e60:	d033      	beq.n	10001eca <fault_dump_exc_return+0x7e>
        printf("[Use Security State    ].\r\n");
10001e62:	4828      	ldr	r0, [pc, #160]	; (10001f04 <fault_dump_exc_return+0xb8>)
10001e64:	f7ff fe62 	bl	10001b2c <puts>
    } else {
        printf("[Use Not Security State].\r\n");
    }
    printf(" Bit2 Stack Point Select:    ");
10001e68:	4827      	ldr	r0, [pc, #156]	; (10001f08 <fault_dump_exc_return+0xbc>)
10001e6a:	f7ff fe3f 	bl	10001aec <printf>
    if (FD_CHECK_BIT(exc_return, 2)) {
10001e6e:	f014 0f04 	tst.w	r4, #4
10001e72:	d02e      	beq.n	10001ed2 <fault_dump_exc_return+0x86>
        printf("[Use PSP               ].\r\n");
10001e74:	4825      	ldr	r0, [pc, #148]	; (10001f0c <fault_dump_exc_return+0xc0>)
10001e76:	f7ff fe59 	bl	10001b2c <puts>
    } else {
        printf("[Use MSP               ].\r\n");
    }
    printf(" Bit3 Proc Mode Before IRQ:  ");
10001e7a:	4825      	ldr	r0, [pc, #148]	; (10001f10 <fault_dump_exc_return+0xc4>)
10001e7c:	f7ff fe36 	bl	10001aec <printf>
    if (FD_CHECK_BIT(exc_return, 3)) {
10001e80:	f014 0f08 	tst.w	r4, #8
10001e84:	d029      	beq.n	10001eda <fault_dump_exc_return+0x8e>
        printf("[Use Thread Mode       ].\r\n");
10001e86:	4823      	ldr	r0, [pc, #140]	; (10001f14 <fault_dump_exc_return+0xc8>)
10001e88:	f7ff fe50 	bl	10001b2c <puts>
    } else {
        printf("[Use Process Mode      ].\r\n");
    }
    printf(" Bit4 Stack Frame Type:      ");
10001e8c:	4822      	ldr	r0, [pc, #136]	; (10001f18 <fault_dump_exc_return+0xcc>)
10001e8e:	f7ff fe2d 	bl	10001aec <printf>
    if (FD_CHECK_BIT(exc_return, 4)) {
10001e92:	f014 0f10 	tst.w	r4, #16
10001e96:	d024      	beq.n	10001ee2 <fault_dump_exc_return+0x96>
        printf("[Use Standard Frame    ].\r\n");
10001e98:	4820      	ldr	r0, [pc, #128]	; (10001f1c <fault_dump_exc_return+0xd0>)
10001e9a:	f7ff fe47 	bl	10001b2c <puts>
    } else {
        printf("[Use Extended Frame    ].\r\n");
    }
    printf(" Bit5 Default Call Rule:     ");
10001e9e:	4820      	ldr	r0, [pc, #128]	; (10001f20 <fault_dump_exc_return+0xd4>)
10001ea0:	f7ff fe24 	bl	10001aec <printf>
    if (FD_CHECK_BIT(exc_return, 5)) {
10001ea4:	f014 0f20 	tst.w	r4, #32
10001ea8:	d01f      	beq.n	10001eea <fault_dump_exc_return+0x9e>
        printf("[Use Default Rule      ].\r\n");
10001eaa:	481e      	ldr	r0, [pc, #120]	; (10001f24 <fault_dump_exc_return+0xd8>)
10001eac:	f7ff fe3e 	bl	10001b2c <puts>
    } else {
        printf("[Use Not Default Rule  ].\r\n");
    }
    printf(" Bit6 Security Stack:        ");
10001eb0:	481d      	ldr	r0, [pc, #116]	; (10001f28 <fault_dump_exc_return+0xdc>)
10001eb2:	f7ff fe1b 	bl	10001aec <printf>
    if (FD_CHECK_BIT(exc_return, 6)) {
10001eb6:	f014 0f40 	tst.w	r4, #64	; 0x40
10001eba:	d01a      	beq.n	10001ef2 <fault_dump_exc_return+0xa6>
        printf("[Use Security Stack    ].\r\n");
10001ebc:	481b      	ldr	r0, [pc, #108]	; (10001f2c <fault_dump_exc_return+0xe0>)
10001ebe:	f7ff fe35 	bl	10001b2c <puts>
    } else {
        printf("[Use Not Security Stack].\r\n");
    }
    printf(" \r\n");
10001ec2:	480e      	ldr	r0, [pc, #56]	; (10001efc <fault_dump_exc_return+0xb0>)
10001ec4:	f7ff fe32 	bl	10001b2c <puts>
}
10001ec8:	bd10      	pop	{r4, pc}
        printf("[Use Not Security State].\r\n");
10001eca:	4819      	ldr	r0, [pc, #100]	; (10001f30 <fault_dump_exc_return+0xe4>)
10001ecc:	f7ff fe2e 	bl	10001b2c <puts>
10001ed0:	e7ca      	b.n	10001e68 <fault_dump_exc_return+0x1c>
        printf("[Use MSP               ].\r\n");
10001ed2:	4818      	ldr	r0, [pc, #96]	; (10001f34 <fault_dump_exc_return+0xe8>)
10001ed4:	f7ff fe2a 	bl	10001b2c <puts>
10001ed8:	e7cf      	b.n	10001e7a <fault_dump_exc_return+0x2e>
        printf("[Use Process Mode      ].\r\n");
10001eda:	4817      	ldr	r0, [pc, #92]	; (10001f38 <fault_dump_exc_return+0xec>)
10001edc:	f7ff fe26 	bl	10001b2c <puts>
10001ee0:	e7d4      	b.n	10001e8c <fault_dump_exc_return+0x40>
        printf("[Use Extended Frame    ].\r\n");
10001ee2:	4816      	ldr	r0, [pc, #88]	; (10001f3c <fault_dump_exc_return+0xf0>)
10001ee4:	f7ff fe22 	bl	10001b2c <puts>
10001ee8:	e7d9      	b.n	10001e9e <fault_dump_exc_return+0x52>
        printf("[Use Not Default Rule  ].\r\n");
10001eea:	4815      	ldr	r0, [pc, #84]	; (10001f40 <fault_dump_exc_return+0xf4>)
10001eec:	f7ff fe1e 	bl	10001b2c <puts>
10001ef0:	e7de      	b.n	10001eb0 <fault_dump_exc_return+0x64>
        printf("[Use Not Security Stack].\r\n");
10001ef2:	4814      	ldr	r0, [pc, #80]	; (10001f44 <fault_dump_exc_return+0xf8>)
10001ef4:	f7ff fe1a 	bl	10001b2c <puts>
10001ef8:	e7e3      	b.n	10001ec2 <fault_dump_exc_return+0x76>
10001efa:	bf00      	nop
10001efc:	10004234 	andne	r4, r0, r4, lsr r2
10001f00:	10004238 	andne	r4, r0, r8, lsr r2
10001f04:	10004258 	andne	r4, r0, r8, asr r2
10001f08:	10004290 	mulne	r0, r0, r2
10001f0c:	100042b0 			; <UNDEFINED> instruction: 0x100042b0
10001f10:	100042e8 	andne	r4, r0, r8, ror #5
10001f14:	10004308 	andne	r4, r0, r8, lsl #6
10001f18:	10004340 	andne	r4, r0, r0, asr #6
10001f1c:	10004360 	andne	r4, r0, r0, ror #6
10001f20:	10004398 	mulne	r0, r8, r3
10001f24:	100043b8 			; <UNDEFINED> instruction: 0x100043b8
10001f28:	100043f0 	strdne	r4, [r0], -r0
10001f2c:	10004410 	andne	r4, r0, r0, lsl r4
10001f30:	10004274 	andne	r4, r0, r4, ror r2
10001f34:	100042cc 	andne	r4, r0, ip, asr #5
10001f38:	10004324 	andne	r4, r0, r4, lsr #6
10001f3c:	1000437c 	andne	r4, r0, ip, ror r3
10001f40:	100043d4 	ldrdne	r4, [r0], -r4	; <UNPREDICTABLE>
10001f44:	1000442c 	andne	r4, r0, ip, lsr #8

10001f48 <_getpid>:
10001f48:	2001      	movs	r0, #1
10001f4a:	4770      	bx	lr

10001f4c <_kill>:
10001f4c:	b508      	push	{r3, lr}
10001f4e:	f000 f867 	bl	10002020 <__errno>
10001f52:	2316      	movs	r3, #22
10001f54:	6003      	str	r3, [r0, #0]
10001f56:	f04f 30ff 	mov.w	r0, #4294967295	; 0xffffffff
10001f5a:	bd08      	pop	{r3, pc}

10001f5c <_exit>:
10001f5c:	b508      	push	{r3, lr}
10001f5e:	f04f 31ff 	mov.w	r1, #4294967295	; 0xffffffff
10001f62:	f7ff fff3 	bl	10001f4c <_kill>
10001f66:	e7fe      	b.n	10001f66 <_exit+0xa>

10001f68 <Reset_Handler>:
                .thumb_func
                .type    Reset_Handler, %function
                .globl   Reset_Handler
                .fnstart
Reset_Handler:
                ldr      r0, =__INITIAL_SP
10001f68:	4815      	ldr	r0, [pc, #84]	; (10001fc0 <BusFault_Handler+0x4>)
                msr      psp, r0
10001f6a:	f380 8809 	msr	PSP, r0

                ldr      r0, =__STACK_LIMIT
10001f6e:	4815      	ldr	r0, [pc, #84]	; (10001fc4 <BusFault_Handler+0x8>)
                msr      msplim, r0
10001f70:	f380 880a 	msr	MSPLIM, r0
                msr      psplim, r0
10001f74:	f380 880b 	msr	PSPLIM, r0
                ldr      r0, =__STACK_SEAL
                ldr      r1, =0xFEF5EDA5U
                strd     r1,r1,[r0,#0]
                #endif

                bl       SystemInit
10001f78:	f7fe fcfc 	bl	10000974 <SystemInit>

                ldr      r4, =__copy_table_start__
10001f7c:	4c12      	ldr	r4, [pc, #72]	; (10001fc8 <BusFault_Handler+0xc>)
                ldr      r5, =__copy_table_end__
10001f7e:	4d13      	ldr	r5, [pc, #76]	; (10001fcc <BusFault_Handler+0x10>)

.L_loop0:
                cmp      r4, r5
10001f80:	42ac      	cmp	r4, r5
                bge      .L_loop0_done
10001f82:	da0a      	bge.n	10001f9a <Reset_Handler+0x32>
                ldr      r1, [r4]                /* source address */
10001f84:	6821      	ldr	r1, [r4, #0]
                ldr      r2, [r4, #4]            /* destination address */
10001f86:	6862      	ldr	r2, [r4, #4]
                ldr      r3, [r4, #8]            /* word count */
10001f88:	68a3      	ldr	r3, [r4, #8]
                lsls     r3, r3, #2              /* byte count */
10001f8a:	009b      	lsls	r3, r3, #2

.L_loop0_0:
                subs     r3, #4                  /* decrement byte count */
10001f8c:	3b04      	subs	r3, #4
                ittt     ge
10001f8e:	bfa2      	ittt	ge
                ldrge    r0, [r1, r3]
10001f90:	58c8      	ldrge	r0, [r1, r3]
                strge    r0, [r2, r3]
10001f92:	50d0      	strge	r0, [r2, r3]
                bge      .L_loop0_0
10001f94:	e7fa      	bge.n	10001f8c <Reset_Handler+0x24>

                adds     r4, #12
10001f96:	340c      	adds	r4, #12
                b        .L_loop0
10001f98:	e7f2      	b.n	10001f80 <Reset_Handler+0x18>
.L_loop0_done:

                ldr      r3, =__zero_table_start__
10001f9a:	4b0d      	ldr	r3, [pc, #52]	; (10001fd0 <BusFault_Handler+0x14>)
                ldr      r4, =__zero_table_end__
10001f9c:	4c0d      	ldr	r4, [pc, #52]	; (10001fd4 <BusFault_Handler+0x18>)

.L_loop2:
                cmp      r3, r4
10001f9e:	42a3      	cmp	r3, r4
                bge      .L_loop2_done
10001fa0:	da09      	bge.n	10001fb6 <Reset_Handler+0x4e>
                ldr      r1, [r3]                /* destination address */
10001fa2:	6819      	ldr	r1, [r3, #0]
                ldr      r2, [r3, #4]            /* word count */
10001fa4:	685a      	ldr	r2, [r3, #4]
                lsls     r2, r2, #2              /* byte count */
10001fa6:	0092      	lsls	r2, r2, #2
                movs     r0, 0
10001fa8:	2000      	movs	r0, #0

.L_loop2_0:
                subs     r2, #4                  /* decrement byte count */
10001faa:	3a04      	subs	r2, #4
                itt      ge
10001fac:	bfa4      	itt	ge
                strge    r0, [r1, r2]
10001fae:	5088      	strge	r0, [r1, r2]
                bge      .L_loop2_0
10001fb0:	e7fb      	bge.n	10001faa <Reset_Handler+0x42>

                adds     r3, #8
10001fb2:	3308      	adds	r3, #8
                b        .L_loop2
10001fb4:	e7f3      	b.n	10001f9e <Reset_Handler+0x36>
.L_loop2_done:

                bl       main
10001fb6:	f7fe fcc7 	bl	10000948 <main>
                .thumb_func
                .type    HardFault_Handler, %function
                .weak    HardFault_Handler
                .fnstart
HardFault_Handler:
                b        .
10001fba:	e7fe      	b.n	10001fba <Reset_Handler+0x52>

10001fbc <BusFault_Handler>:
                .thumb_func
                .type    Default_Handler, %function
                .weak    Default_Handler
                .fnstart
Default_Handler:
                b        .
10001fbc:	e7fe      	b.n	10001fbc <BusFault_Handler>
10001fbe:	00000000 	andeq	r0, r0, r0
                ldr      r0, =__INITIAL_SP
10001fc2:	f0003810 			; <UNDEFINED> instruction: 0xf0003810
                ldr      r0, =__STACK_LIMIT
10001fc6:	4528380f 	strmi	r3, [r8, #-2063]!	; 0xfffff7f1
                ldr      r4, =__copy_table_start__
10001fca:	45341000 	ldrmi	r1, [r4, #-0]!
                ldr      r5, =__copy_table_end__
10001fce:	45341000 	ldrmi	r1, [r4, #-0]!
                ldr      r3, =__zero_table_start__
10001fd2:	45341000 	ldrmi	r1, [r4, #-0]!
                ldr      r4, =__zero_table_end__
10001fd6:	 	ldrbtlt	r1, [r2], -r0

10001fd8 <HardFault_Handler>:
.global fault_dump_handler

.global HardFault_Handler
.type HardFault_Handler, % function
HardFault_Handler:
    cpsid   i                           /* disable interrupts */
10001fd8:	b672      	cpsid	i
    ldr     r3, =fd_main_stack_base     /* r3 = &fd_main_stack_base */
10001fda:	4b0e      	ldr	r3, [pc, #56]	; (10002014 <stack_invalid+0xe>)
    ldr     r1, [r3]                    /* r1 = fd_main_stack_base  */
10001fdc:	6819      	ldr	r1, [r3, #0]
    ldr     r3, =fd_main_stack_full     /* r3 = &fd_main_stack_full */
10001fde:	4b0e      	ldr	r3, [pc, #56]	; (10002018 <stack_invalid+0x12>)
    ldr     r2, [r3]                    /* r2 = fd_main_stack_full  */
10001fe0:	681a      	ldr	r2, [r3, #0]

    tst     lr, #4                      /* use exc_return value get sp value */
10001fe2:	f01e 0f04 	tst.w	lr, #4
    bne     stack_checked               /* if (sp != msp), jump to stack_checked */
10001fe6:	d105      	bne.n	10001ff4 <stack_checked>

    mrs     r0, msp                     /* else (sp == msp), r0 = sp = msp */
10001fe8:	f3ef 8008 	mrs	r0, MSP
    cmp     r0, r1                      /* compare msp and stack base addr */
10001fec:	4288      	cmp	r0, r1
    blt     stack_invalid               /* msp < stack_base_addr, msp is invalid */
10001fee:	db0a      	blt.n	10002006 <stack_invalid>
    cmp     r0, r2                      /* compare msp and stack full addr */
10001ff0:	4290      	cmp	r0, r2
    bgt     stack_invalid               /* msp > stack_base_addr, msp is invalid */
10001ff2:	dc08      	bgt.n	10002006 <stack_invalid>

10001ff4 <stack_checked>:
    
stack_checked:
    push    {r4 - r11}                  /* sp value is in stack range, push r4 - r11 to stack */
10001ff4:	e92d 0ff0 	stmdb	sp!, {r4, r5, r6, r7, r8, r9, sl, fp}

    tst     lr, #4                      /* update sp value to r0 */
10001ff8:	f01e 0f04 	tst.w	lr, #4
    ite     eq
10001ffc:	bf0c      	ite	eq
    mrseq   r0, msp                     /* lr & 0x04 == 1, r0 = sp = msp */
10001ffe:	f3ef 8008 	mrseq	r0, MSP
    mrsne   r0, psp                     /* lr & 0x04 == 0, r0 = sp = psp */
10002002:	f3ef 8009 	mrsne	r0, PSP

10002006 <stack_invalid>:

stack_invalid:
    mov     r1, lr                      /* now, r0 = sp, r1 = lr */
10002006:	4671      	mov	r1, lr
    ldr     r2, =fault_dump_handler     /* now, r2 = fault_dump_handler */
10002008:	4a04      	ldr	r2, [pc, #16]	; (1000201c <stack_invalid+0x16>)
    dsb                                 /* wait for memory access to complete */
1000200a:	f3bf 8f4f 	dsb	sy
    cpsie   i                           /* enable interrupts */
1000200e:	b662      	cpsie	i
    bx      r2                          /* jump to fault_dump_handler */
10002010:	4710      	bx	r2
10002012:	055c0000 	ldrbeq	r0, [ip, #-0]
    ldr     r3, =fd_main_stack_base     /* r3 = &fd_main_stack_base */
10002016:	05603800 	strbeq	r3, [r0, #-2048]!	; 0xfffff800
    ldr     r3, =fd_main_stack_full     /* r3 = &fd_main_stack_full */
1000201a:	1cb93800 	ldcne	8, cr3, [r9]
    ldr     r2, =fault_dump_handler     /* now, r2 = fault_dump_handler */
1000201e:	 	blmi	10046026 <__copy_table_end__+0x41af2>

10002020 <__errno>:
10002020:	4b01      	ldr	r3, [pc, #4]	; (10002028 <__errno+0x8>)
10002022:	6818      	ldr	r0, [r3, #0]
10002024:	4770      	bx	lr
10002026:	bf00      	nop
10002028:	38000004 	stmdacc	r0, {r2}

1000202c <memset>:
1000202c:	b570      	push	{r4, r5, r6, lr}
1000202e:	0786      	lsls	r6, r0, #30
10002030:	d048      	beq.n	100020c4 <memset+0x98>
10002032:	1e54      	subs	r4, r2, #1
10002034:	2a00      	cmp	r2, #0
10002036:	d03f      	beq.n	100020b8 <memset+0x8c>
10002038:	b2ca      	uxtb	r2, r1
1000203a:	4603      	mov	r3, r0
1000203c:	e001      	b.n	10002042 <memset+0x16>
1000203e:	3c01      	subs	r4, #1
10002040:	d33a      	bcc.n	100020b8 <memset+0x8c>
10002042:	f803 2b01 	strb.w	r2, [r3], #1
10002046:	079d      	lsls	r5, r3, #30
10002048:	d1f9      	bne.n	1000203e <memset+0x12>
1000204a:	2c03      	cmp	r4, #3
1000204c:	d92d      	bls.n	100020aa <memset+0x7e>
1000204e:	b2cd      	uxtb	r5, r1
10002050:	2c0f      	cmp	r4, #15
10002052:	ea45 2505 	orr.w	r5, r5, r5, lsl #8
10002056:	ea45 4505 	orr.w	r5, r5, r5, lsl #16
1000205a:	d936      	bls.n	100020ca <memset+0x9e>
1000205c:	f1a4 0c10 	sub.w	ip, r4, #16
10002060:	f103 0e20 	add.w	lr, r3, #32
10002064:	f103 0210 	add.w	r2, r3, #16
10002068:	f02c 060f 	bic.w	r6, ip, #15
1000206c:	ea4f 1c1c 	mov.w	ip, ip, lsr #4
10002070:	44b6      	add	lr, r6
10002072:	e942 5504 	strd	r5, r5, [r2, #-16]
10002076:	e942 5502 	strd	r5, r5, [r2, #-8]
1000207a:	3210      	adds	r2, #16
1000207c:	4572      	cmp	r2, lr
1000207e:	d1f8      	bne.n	10002072 <memset+0x46>
10002080:	f10c 0201 	add.w	r2, ip, #1
10002084:	f014 0f0c 	tst.w	r4, #12
10002088:	f004 0c0f 	and.w	ip, r4, #15
1000208c:	eb03 1202 	add.w	r2, r3, r2, lsl #4
10002090:	d013      	beq.n	100020ba <memset+0x8e>
10002092:	f1ac 0304 	sub.w	r3, ip, #4
10002096:	f023 0303 	bic.w	r3, r3, #3
1000209a:	3304      	adds	r3, #4
1000209c:	4413      	add	r3, r2
1000209e:	f842 5b04 	str.w	r5, [r2], #4
100020a2:	4293      	cmp	r3, r2
100020a4:	d1fb      	bne.n	1000209e <memset+0x72>
100020a6:	f00c 0403 	and.w	r4, ip, #3
100020aa:	b12c      	cbz	r4, 100020b8 <memset+0x8c>
100020ac:	b2ca      	uxtb	r2, r1
100020ae:	441c      	add	r4, r3
100020b0:	f803 2b01 	strb.w	r2, [r3], #1
100020b4:	429c      	cmp	r4, r3
100020b6:	d1fb      	bne.n	100020b0 <memset+0x84>
100020b8:	bd70      	pop	{r4, r5, r6, pc}
100020ba:	4664      	mov	r4, ip
100020bc:	4613      	mov	r3, r2
100020be:	2c00      	cmp	r4, #0
100020c0:	d1f4      	bne.n	100020ac <memset+0x80>
100020c2:	e7f9      	b.n	100020b8 <memset+0x8c>
100020c4:	4603      	mov	r3, r0
100020c6:	4614      	mov	r4, r2
100020c8:	e7bf      	b.n	1000204a <memset+0x1e>
100020ca:	461a      	mov	r2, r3
100020cc:	46a4      	mov	ip, r4
100020ce:	e7e0      	b.n	10002092 <memset+0x66>

100020d0 <register_fini>:
100020d0:	4b02      	ldr	r3, [pc, #8]	; (100020dc <register_fini+0xc>)
100020d2:	b113      	cbz	r3, 100020da <register_fini+0xa>
100020d4:	4802      	ldr	r0, [pc, #8]	; (100020e0 <register_fini+0x10>)
100020d6:	f000 b805 	b.w	100020e4 <atexit>
100020da:	4770      	bx	lr
100020dc:	00000000 	andeq	r0, r0, r0
100020e0:	100020f1 	strdne	r2, [r0], -r1

100020e4 <atexit>:
100020e4:	2300      	movs	r3, #0
100020e6:	4601      	mov	r1, r0
100020e8:	461a      	mov	r2, r3
100020ea:	4618      	mov	r0, r3
100020ec:	f000 b81a 	b.w	10002124 <__register_exitproc>

100020f0 <__libc_fini_array>:
100020f0:	b538      	push	{r3, r4, r5, lr}
100020f2:	4b08      	ldr	r3, [pc, #32]	; (10002114 <__libc_fini_array+0x24>)
100020f4:	4d08      	ldr	r5, [pc, #32]	; (10002118 <__libc_fini_array+0x28>)
100020f6:	1b5b      	subs	r3, r3, r5
100020f8:	109c      	asrs	r4, r3, #2
100020fa:	d007      	beq.n	1000210c <__libc_fini_array+0x1c>
100020fc:	3b04      	subs	r3, #4
100020fe:	441d      	add	r5, r3
10002100:	3c01      	subs	r4, #1
10002102:	f855 3904 	ldr.w	r3, [r5], #-4
10002106:	4798      	blx	r3
10002108:	2c00      	cmp	r4, #0
1000210a:	d1f9      	bne.n	10002100 <__libc_fini_array+0x10>
1000210c:	e8bd 4038 	ldmia.w	sp!, {r3, r4, r5, lr}
10002110:	f001 befa 	b.w	10003f08 <_fini>
10002114:	38000440 	stmdacc	r0, {r6, sl}
10002118:	3800043c 	stmdacc	r0, {r2, r3, r4, r5, sl}

1000211c <__retarget_lock_acquire_recursive>:
1000211c:	4770      	bx	lr
1000211e:	bf00      	nop

10002120 <__retarget_lock_release_recursive>:
10002120:	4770      	bx	lr
10002122:	bf00      	nop

10002124 <__register_exitproc>:
10002124:	e92d 47f0 	stmdb	sp!, {r4, r5, r6, r7, r8, r9, sl, lr}
10002128:	f8df a084 	ldr.w	sl, [pc, #132]	; 100021b0 <__register_exitproc+0x8c>
1000212c:	4606      	mov	r6, r0
1000212e:	4698      	mov	r8, r3
10002130:	460f      	mov	r7, r1
10002132:	f8da 0000 	ldr.w	r0, [sl]
10002136:	4691      	mov	r9, r2
10002138:	f7ff fff0 	bl	1000211c <__retarget_lock_acquire_recursive>
1000213c:	4b1b      	ldr	r3, [pc, #108]	; (100021ac <__register_exitproc+0x88>)
1000213e:	681b      	ldr	r3, [r3, #0]
10002140:	f8d3 4148 	ldr.w	r4, [r3, #328]	; 0x148
10002144:	b334      	cbz	r4, 10002194 <__register_exitproc+0x70>
10002146:	6865      	ldr	r5, [r4, #4]
10002148:	2d1f      	cmp	r5, #31
1000214a:	dc28      	bgt.n	1000219e <__register_exitproc+0x7a>
1000214c:	b95e      	cbnz	r6, 10002166 <__register_exitproc+0x42>
1000214e:	1c6b      	adds	r3, r5, #1
10002150:	3502      	adds	r5, #2
10002152:	f8da 0000 	ldr.w	r0, [sl]
10002156:	6063      	str	r3, [r4, #4]
10002158:	f844 7025 	str.w	r7, [r4, r5, lsl #2]
1000215c:	f7ff ffe0 	bl	10002120 <__retarget_lock_release_recursive>
10002160:	2000      	movs	r0, #0
10002162:	e8bd 87f0 	ldmia.w	sp!, {r4, r5, r6, r7, r8, r9, sl, pc}
10002166:	eb04 0185 	add.w	r1, r4, r5, lsl #2
1000216a:	2301      	movs	r3, #1
1000216c:	2e02      	cmp	r6, #2
1000216e:	f8c1 9088 	str.w	r9, [r1, #136]	; 0x88
10002172:	fa03 f305 	lsl.w	r3, r3, r5
10002176:	f8d4 2188 	ldr.w	r2, [r4, #392]	; 0x188
1000217a:	ea42 0203 	orr.w	r2, r2, r3
1000217e:	f8c4 2188 	str.w	r2, [r4, #392]	; 0x188
10002182:	f8c1 8108 	str.w	r8, [r1, #264]	; 0x108
10002186:	d1e2      	bne.n	1000214e <__register_exitproc+0x2a>
10002188:	f8d4 218c 	ldr.w	r2, [r4, #396]	; 0x18c
1000218c:	4313      	orrs	r3, r2
1000218e:	f8c4 318c 	str.w	r3, [r4, #396]	; 0x18c
10002192:	e7dc      	b.n	1000214e <__register_exitproc+0x2a>
10002194:	f503 74a6 	add.w	r4, r3, #332	; 0x14c
10002198:	f8c3 4148 	str.w	r4, [r3, #328]	; 0x148
1000219c:	e7d3      	b.n	10002146 <__register_exitproc+0x22>
1000219e:	f8da 0000 	ldr.w	r0, [sl]
100021a2:	f7ff ffbd 	bl	10002120 <__retarget_lock_release_recursive>
100021a6:	f04f 30ff 	mov.w	r0, #4294967295	; 0xffffffff
100021aa:	e7da      	b.n	10002162 <__register_exitproc+0x3e>
100021ac:	10004448 	andne	r4, r0, r8, asr #8
100021b0:	38000430 	stmdacc	r0, {r4, r5, sl}

100021b4 <__aeabi_drsub>:
100021b4:	f081 4100 	eor.w	r1, r1, #2147483648	; 0x80000000
100021b8:	e002      	b.n	100021c0 <__adddf3>
100021ba:	bf00      	nop

100021bc <__aeabi_dsub>:
100021bc:	f083 4300 	eor.w	r3, r3, #2147483648	; 0x80000000

100021c0 <__adddf3>:
100021c0:	b530      	push	{r4, r5, lr}
100021c2:	ea4f 0441 	mov.w	r4, r1, lsl #1
100021c6:	ea4f 0543 	mov.w	r5, r3, lsl #1
100021ca:	ea94 0f05 	teq	r4, r5
100021ce:	bf08      	it	eq
100021d0:	ea90 0f02 	teqeq	r0, r2
100021d4:	bf1f      	itttt	ne
100021d6:	ea54 0c00 	orrsne.w	ip, r4, r0
100021da:	ea55 0c02 	orrsne.w	ip, r5, r2
100021de:	ea7f 5c64 	mvnsne.w	ip, r4, asr #21
100021e2:	ea7f 5c65 	mvnsne.w	ip, r5, asr #21
100021e6:	f000 80e2 	beq.w	100023ae <__adddf3+0x1ee>
100021ea:	ea4f 5454 	mov.w	r4, r4, lsr #21
100021ee:	ebd4 5555 	rsbs	r5, r4, r5, lsr #21
100021f2:	bfb8      	it	lt
100021f4:	426d      	neglt	r5, r5
100021f6:	dd0c      	ble.n	10002212 <__adddf3+0x52>
100021f8:	442c      	add	r4, r5
100021fa:	ea80 0202 	eor.w	r2, r0, r2
100021fe:	ea81 0303 	eor.w	r3, r1, r3
10002202:	ea82 0000 	eor.w	r0, r2, r0
10002206:	ea83 0101 	eor.w	r1, r3, r1
1000220a:	ea80 0202 	eor.w	r2, r0, r2
1000220e:	ea81 0303 	eor.w	r3, r1, r3
10002212:	2d36      	cmp	r5, #54	; 0x36
10002214:	bf88      	it	hi
10002216:	bd30      	pophi	{r4, r5, pc}
10002218:	f011 4f00 	tst.w	r1, #2147483648	; 0x80000000
1000221c:	ea4f 3101 	mov.w	r1, r1, lsl #12
10002220:	f44f 1c80 	mov.w	ip, #1048576	; 0x100000
10002224:	ea4c 3111 	orr.w	r1, ip, r1, lsr #12
10002228:	d002      	beq.n	10002230 <__adddf3+0x70>
1000222a:	4240      	negs	r0, r0
1000222c:	eb61 0141 	sbc.w	r1, r1, r1, lsl #1
10002230:	f013 4f00 	tst.w	r3, #2147483648	; 0x80000000
10002234:	ea4f 3303 	mov.w	r3, r3, lsl #12
10002238:	ea4c 3313 	orr.w	r3, ip, r3, lsr #12
1000223c:	d002      	beq.n	10002244 <__adddf3+0x84>
1000223e:	4252      	negs	r2, r2
10002240:	eb63 0343 	sbc.w	r3, r3, r3, lsl #1
10002244:	ea94 0f05 	teq	r4, r5
10002248:	f000 80a7 	beq.w	1000239a <__adddf3+0x1da>
1000224c:	f1a4 0401 	sub.w	r4, r4, #1
10002250:	f1d5 0e20 	rsbs	lr, r5, #32
10002254:	db0d      	blt.n	10002272 <__adddf3+0xb2>
10002256:	fa02 fc0e 	lsl.w	ip, r2, lr
1000225a:	fa22 f205 	lsr.w	r2, r2, r5
1000225e:	1880      	adds	r0, r0, r2
10002260:	f141 0100 	adc.w	r1, r1, #0
10002264:	fa03 f20e 	lsl.w	r2, r3, lr
10002268:	1880      	adds	r0, r0, r2
1000226a:	fa43 f305 	asr.w	r3, r3, r5
1000226e:	4159      	adcs	r1, r3
10002270:	e00e      	b.n	10002290 <__adddf3+0xd0>
10002272:	f1a5 0520 	sub.w	r5, r5, #32
10002276:	f10e 0e20 	add.w	lr, lr, #32
1000227a:	2a01      	cmp	r2, #1
1000227c:	fa03 fc0e 	lsl.w	ip, r3, lr
10002280:	bf28      	it	cs
10002282:	f04c 0c02 	orrcs.w	ip, ip, #2
10002286:	fa43 f305 	asr.w	r3, r3, r5
1000228a:	18c0      	adds	r0, r0, r3
1000228c:	eb51 71e3 	adcs.w	r1, r1, r3, asr #31
10002290:	f001 4500 	and.w	r5, r1, #2147483648	; 0x80000000
10002294:	d507      	bpl.n	100022a6 <__adddf3+0xe6>
10002296:	f04f 0e00 	mov.w	lr, #0
1000229a:	f1dc 0c00 	rsbs	ip, ip, #0
1000229e:	eb7e 0000 	sbcs.w	r0, lr, r0
100022a2:	eb6e 0101 	sbc.w	r1, lr, r1
100022a6:	f5b1 1f80 	cmp.w	r1, #1048576	; 0x100000
100022aa:	d31b      	bcc.n	100022e4 <__adddf3+0x124>
100022ac:	f5b1 1f00 	cmp.w	r1, #2097152	; 0x200000
100022b0:	d30c      	bcc.n	100022cc <__adddf3+0x10c>
100022b2:	0849      	lsrs	r1, r1, #1
100022b4:	ea5f 0030 	movs.w	r0, r0, rrx
100022b8:	ea4f 0c3c 	mov.w	ip, ip, rrx
100022bc:	f104 0401 	add.w	r4, r4, #1
100022c0:	ea4f 5244 	mov.w	r2, r4, lsl #21
100022c4:	f512 0f80 	cmn.w	r2, #4194304	; 0x400000
100022c8:	f080 809a 	bcs.w	10002400 <__adddf3+0x240>
100022cc:	f1bc 4f00 	cmp.w	ip, #2147483648	; 0x80000000
100022d0:	bf08      	it	eq
100022d2:	ea5f 0c50 	movseq.w	ip, r0, lsr #1
100022d6:	f150 0000 	adcs.w	r0, r0, #0
100022da:	eb41 5104 	adc.w	r1, r1, r4, lsl #20
100022de:	ea41 0105 	orr.w	r1, r1, r5
100022e2:	bd30      	pop	{r4, r5, pc}
100022e4:	ea5f 0c4c 	movs.w	ip, ip, lsl #1
100022e8:	4140      	adcs	r0, r0
100022ea:	eb41 0101 	adc.w	r1, r1, r1
100022ee:	3c01      	subs	r4, #1
100022f0:	bf28      	it	cs
100022f2:	f5b1 1f80 	cmpcs.w	r1, #1048576	; 0x100000
100022f6:	d2e9      	bcs.n	100022cc <__adddf3+0x10c>
100022f8:	f091 0f00 	teq	r1, #0
100022fc:	bf04      	itt	eq
100022fe:	4601      	moveq	r1, r0
10002300:	2000      	moveq	r0, #0
10002302:	fab1 f381 	clz	r3, r1
10002306:	bf08      	it	eq
10002308:	3320      	addeq	r3, #32
1000230a:	f1a3 030b 	sub.w	r3, r3, #11
1000230e:	f1b3 0220 	subs.w	r2, r3, #32
10002312:	da0c      	bge.n	1000232e <__adddf3+0x16e>
10002314:	320c      	adds	r2, #12
10002316:	dd08      	ble.n	1000232a <__adddf3+0x16a>
10002318:	f102 0c14 	add.w	ip, r2, #20
1000231c:	f1c2 020c 	rsb	r2, r2, #12
10002320:	fa01 f00c 	lsl.w	r0, r1, ip
10002324:	fa21 f102 	lsr.w	r1, r1, r2
10002328:	e00c      	b.n	10002344 <__adddf3+0x184>
1000232a:	f102 0214 	add.w	r2, r2, #20
1000232e:	bfd8      	it	le
10002330:	f1c2 0c20 	rsble	ip, r2, #32
10002334:	fa01 f102 	lsl.w	r1, r1, r2
10002338:	fa20 fc0c 	lsr.w	ip, r0, ip
1000233c:	bfdc      	itt	le
1000233e:	ea41 010c 	orrle.w	r1, r1, ip
10002342:	4090      	lslle	r0, r2
10002344:	1ae4      	subs	r4, r4, r3
10002346:	bfa2      	ittt	ge
10002348:	eb01 5104 	addge.w	r1, r1, r4, lsl #20
1000234c:	4329      	orrge	r1, r5
1000234e:	bd30      	popge	{r4, r5, pc}
10002350:	ea6f 0404 	mvn.w	r4, r4
10002354:	3c1f      	subs	r4, #31
10002356:	da1c      	bge.n	10002392 <__adddf3+0x1d2>
10002358:	340c      	adds	r4, #12
1000235a:	dc0e      	bgt.n	1000237a <__adddf3+0x1ba>
1000235c:	f104 0414 	add.w	r4, r4, #20
10002360:	f1c4 0220 	rsb	r2, r4, #32
10002364:	fa20 f004 	lsr.w	r0, r0, r4
10002368:	fa01 f302 	lsl.w	r3, r1, r2
1000236c:	ea40 0003 	orr.w	r0, r0, r3
10002370:	fa21 f304 	lsr.w	r3, r1, r4
10002374:	ea45 0103 	orr.w	r1, r5, r3
10002378:	bd30      	pop	{r4, r5, pc}
1000237a:	f1c4 040c 	rsb	r4, r4, #12
1000237e:	f1c4 0220 	rsb	r2, r4, #32
10002382:	fa20 f002 	lsr.w	r0, r0, r2
10002386:	fa01 f304 	lsl.w	r3, r1, r4
1000238a:	ea40 0003 	orr.w	r0, r0, r3
1000238e:	4629      	mov	r1, r5
10002390:	bd30      	pop	{r4, r5, pc}
10002392:	fa21 f004 	lsr.w	r0, r1, r4
10002396:	4629      	mov	r1, r5
10002398:	bd30      	pop	{r4, r5, pc}
1000239a:	f094 0f00 	teq	r4, #0
1000239e:	f483 1380 	eor.w	r3, r3, #1048576	; 0x100000
100023a2:	bf06      	itte	eq
100023a4:	f481 1180 	eoreq.w	r1, r1, #1048576	; 0x100000
100023a8:	3401      	addeq	r4, #1
100023aa:	3d01      	subne	r5, #1
100023ac:	e74e      	b.n	1000224c <__adddf3+0x8c>
100023ae:	ea7f 5c64 	mvns.w	ip, r4, asr #21
100023b2:	bf18      	it	ne
100023b4:	ea7f 5c65 	mvnsne.w	ip, r5, asr #21
100023b8:	d029      	beq.n	1000240e <__adddf3+0x24e>
100023ba:	ea94 0f05 	teq	r4, r5
100023be:	bf08      	it	eq
100023c0:	ea90 0f02 	teqeq	r0, r2
100023c4:	d005      	beq.n	100023d2 <__adddf3+0x212>
100023c6:	ea54 0c00 	orrs.w	ip, r4, r0
100023ca:	bf04      	itt	eq
100023cc:	4619      	moveq	r1, r3
100023ce:	4610      	moveq	r0, r2
100023d0:	bd30      	pop	{r4, r5, pc}
100023d2:	ea91 0f03 	teq	r1, r3
100023d6:	bf1e      	ittt	ne
100023d8:	2100      	movne	r1, #0
100023da:	2000      	movne	r0, #0
100023dc:	bd30      	popne	{r4, r5, pc}
100023de:	ea5f 5c54 	movs.w	ip, r4, lsr #21
100023e2:	d105      	bne.n	100023f0 <__adddf3+0x230>
100023e4:	0040      	lsls	r0, r0, #1
100023e6:	4149      	adcs	r1, r1
100023e8:	bf28      	it	cs
100023ea:	f041 4100 	orrcs.w	r1, r1, #2147483648	; 0x80000000
100023ee:	bd30      	pop	{r4, r5, pc}
100023f0:	f514 0480 	adds.w	r4, r4, #4194304	; 0x400000
100023f4:	bf3c      	itt	cc
100023f6:	f501 1180 	addcc.w	r1, r1, #1048576	; 0x100000
100023fa:	bd30      	popcc	{r4, r5, pc}
100023fc:	f001 4500 	and.w	r5, r1, #2147483648	; 0x80000000
10002400:	f045 41fe 	orr.w	r1, r5, #2130706432	; 0x7f000000
10002404:	f441 0170 	orr.w	r1, r1, #15728640	; 0xf00000
10002408:	f04f 0000 	mov.w	r0, #0
1000240c:	bd30      	pop	{r4, r5, pc}
1000240e:	ea7f 5c64 	mvns.w	ip, r4, asr #21
10002412:	bf1a      	itte	ne
10002414:	4619      	movne	r1, r3
10002416:	4610      	movne	r0, r2
10002418:	ea7f 5c65 	mvnseq.w	ip, r5, asr #21
1000241c:	bf1c      	itt	ne
1000241e:	460b      	movne	r3, r1
10002420:	4602      	movne	r2, r0
10002422:	ea50 3401 	orrs.w	r4, r0, r1, lsl #12
10002426:	bf06      	itte	eq
10002428:	ea52 3503 	orrseq.w	r5, r2, r3, lsl #12
1000242c:	ea91 0f03 	teqeq	r1, r3
10002430:	f441 2100 	orrne.w	r1, r1, #524288	; 0x80000
10002434:	bd30      	pop	{r4, r5, pc}
10002436:	bf00      	nop

10002438 <__aeabi_ui2d>:
10002438:	f090 0f00 	teq	r0, #0
1000243c:	bf04      	itt	eq
1000243e:	2100      	moveq	r1, #0
10002440:	4770      	bxeq	lr
10002442:	b530      	push	{r4, r5, lr}
10002444:	f44f 6480 	mov.w	r4, #1024	; 0x400
10002448:	f104 0432 	add.w	r4, r4, #50	; 0x32
1000244c:	f04f 0500 	mov.w	r5, #0
10002450:	f04f 0100 	mov.w	r1, #0
10002454:	e750      	b.n	100022f8 <__adddf3+0x138>
10002456:	bf00      	nop

10002458 <__aeabi_i2d>:
10002458:	f090 0f00 	teq	r0, #0
1000245c:	bf04      	itt	eq
1000245e:	2100      	moveq	r1, #0
10002460:	4770      	bxeq	lr
10002462:	b530      	push	{r4, r5, lr}
10002464:	f44f 6480 	mov.w	r4, #1024	; 0x400
10002468:	f104 0432 	add.w	r4, r4, #50	; 0x32
1000246c:	f010 4500 	ands.w	r5, r0, #2147483648	; 0x80000000
10002470:	bf48      	it	mi
10002472:	4240      	negmi	r0, r0
10002474:	f04f 0100 	mov.w	r1, #0
10002478:	e73e      	b.n	100022f8 <__adddf3+0x138>
1000247a:	bf00      	nop

1000247c <__aeabi_f2d>:
1000247c:	0042      	lsls	r2, r0, #1
1000247e:	ea4f 01e2 	mov.w	r1, r2, asr #3
10002482:	ea4f 0131 	mov.w	r1, r1, rrx
10002486:	ea4f 7002 	mov.w	r0, r2, lsl #28
1000248a:	bf1f      	itttt	ne
1000248c:	f012 437f 	andsne.w	r3, r2, #4278190080	; 0xff000000
10002490:	f093 4f7f 	teqne	r3, #4278190080	; 0xff000000
10002494:	f081 5160 	eorne.w	r1, r1, #939524096	; 0x38000000
10002498:	4770      	bxne	lr
1000249a:	f032 427f 	bics.w	r2, r2, #4278190080	; 0xff000000
1000249e:	bf08      	it	eq
100024a0:	4770      	bxeq	lr
100024a2:	f093 4f7f 	teq	r3, #4278190080	; 0xff000000
100024a6:	bf04      	itt	eq
100024a8:	f441 2100 	orreq.w	r1, r1, #524288	; 0x80000
100024ac:	4770      	bxeq	lr
100024ae:	b530      	push	{r4, r5, lr}
100024b0:	f44f 7460 	mov.w	r4, #896	; 0x380
100024b4:	f001 4500 	and.w	r5, r1, #2147483648	; 0x80000000
100024b8:	f021 4100 	bic.w	r1, r1, #2147483648	; 0x80000000
100024bc:	e71c      	b.n	100022f8 <__adddf3+0x138>
100024be:	bf00      	nop

100024c0 <__aeabi_ul2d>:
100024c0:	ea50 0201 	orrs.w	r2, r0, r1
100024c4:	bf08      	it	eq
100024c6:	4770      	bxeq	lr
100024c8:	b530      	push	{r4, r5, lr}
100024ca:	f04f 0500 	mov.w	r5, #0
100024ce:	e00a      	b.n	100024e6 <__aeabi_l2d+0x16>

100024d0 <__aeabi_l2d>:
100024d0:	ea50 0201 	orrs.w	r2, r0, r1
100024d4:	bf08      	it	eq
100024d6:	4770      	bxeq	lr
100024d8:	b530      	push	{r4, r5, lr}
100024da:	f011 4500 	ands.w	r5, r1, #2147483648	; 0x80000000
100024de:	d502      	bpl.n	100024e6 <__aeabi_l2d+0x16>
100024e0:	4240      	negs	r0, r0
100024e2:	eb61 0141 	sbc.w	r1, r1, r1, lsl #1
100024e6:	f44f 6480 	mov.w	r4, #1024	; 0x400
100024ea:	f104 0432 	add.w	r4, r4, #50	; 0x32
100024ee:	ea5f 5c91 	movs.w	ip, r1, lsr #22
100024f2:	f43f aed8 	beq.w	100022a6 <__adddf3+0xe6>
100024f6:	f04f 0203 	mov.w	r2, #3
100024fa:	ea5f 0cdc 	movs.w	ip, ip, lsr #3
100024fe:	bf18      	it	ne
10002500:	3203      	addne	r2, #3
10002502:	ea5f 0cdc 	movs.w	ip, ip, lsr #3
10002506:	bf18      	it	ne
10002508:	3203      	addne	r2, #3
1000250a:	eb02 02dc 	add.w	r2, r2, ip, lsr #3
1000250e:	f1c2 0320 	rsb	r3, r2, #32
10002512:	fa00 fc03 	lsl.w	ip, r0, r3
10002516:	fa20 f002 	lsr.w	r0, r0, r2
1000251a:	fa01 fe03 	lsl.w	lr, r1, r3
1000251e:	ea40 000e 	orr.w	r0, r0, lr
10002522:	fa21 f102 	lsr.w	r1, r1, r2
10002526:	4414      	add	r4, r2
10002528:	e6bd      	b.n	100022a6 <__adddf3+0xe6>
1000252a:	bf00      	nop

1000252c <__aeabi_dmul>:
1000252c:	b570      	push	{r4, r5, r6, lr}
1000252e:	f04f 0cff 	mov.w	ip, #255	; 0xff
10002532:	f44c 6ce0 	orr.w	ip, ip, #1792	; 0x700
10002536:	ea1c 5411 	ands.w	r4, ip, r1, lsr #20
1000253a:	bf1d      	ittte	ne
1000253c:	ea1c 5513 	andsne.w	r5, ip, r3, lsr #20
10002540:	ea94 0f0c 	teqne	r4, ip
10002544:	ea95 0f0c 	teqne	r5, ip
10002548:	f000 f8de 	bleq	10002708 <__aeabi_dmul+0x1dc>
1000254c:	442c      	add	r4, r5
1000254e:	ea81 0603 	eor.w	r6, r1, r3
10002552:	ea21 514c 	bic.w	r1, r1, ip, lsl #21
10002556:	ea23 534c 	bic.w	r3, r3, ip, lsl #21
1000255a:	ea50 3501 	orrs.w	r5, r0, r1, lsl #12
1000255e:	bf18      	it	ne
10002560:	ea52 3503 	orrsne.w	r5, r2, r3, lsl #12
10002564:	f441 1180 	orr.w	r1, r1, #1048576	; 0x100000
10002568:	f443 1380 	orr.w	r3, r3, #1048576	; 0x100000
1000256c:	d038      	beq.n	100025e0 <__aeabi_dmul+0xb4>
1000256e:	fba0 ce02 	umull	ip, lr, r0, r2
10002572:	f04f 0500 	mov.w	r5, #0
10002576:	fbe1 e502 	umlal	lr, r5, r1, r2
1000257a:	f006 4200 	and.w	r2, r6, #2147483648	; 0x80000000
1000257e:	fbe0 e503 	umlal	lr, r5, r0, r3
10002582:	f04f 0600 	mov.w	r6, #0
10002586:	fbe1 5603 	umlal	r5, r6, r1, r3
1000258a:	f09c 0f00 	teq	ip, #0
1000258e:	bf18      	it	ne
10002590:	f04e 0e01 	orrne.w	lr, lr, #1
10002594:	f1a4 04ff 	sub.w	r4, r4, #255	; 0xff
10002598:	f5b6 7f00 	cmp.w	r6, #512	; 0x200
1000259c:	f564 7440 	sbc.w	r4, r4, #768	; 0x300
100025a0:	d204      	bcs.n	100025ac <__aeabi_dmul+0x80>
100025a2:	ea5f 0e4e 	movs.w	lr, lr, lsl #1
100025a6:	416d      	adcs	r5, r5
100025a8:	eb46 0606 	adc.w	r6, r6, r6
100025ac:	ea42 21c6 	orr.w	r1, r2, r6, lsl #11
100025b0:	ea41 5155 	orr.w	r1, r1, r5, lsr #21
100025b4:	ea4f 20c5 	mov.w	r0, r5, lsl #11
100025b8:	ea40 505e 	orr.w	r0, r0, lr, lsr #21
100025bc:	ea4f 2ece 	mov.w	lr, lr, lsl #11
100025c0:	f1b4 0cfd 	subs.w	ip, r4, #253	; 0xfd
100025c4:	bf88      	it	hi
100025c6:	f5bc 6fe0 	cmphi.w	ip, #1792	; 0x700
100025ca:	d81e      	bhi.n	1000260a <__aeabi_dmul+0xde>
100025cc:	f1be 4f00 	cmp.w	lr, #2147483648	; 0x80000000
100025d0:	bf08      	it	eq
100025d2:	ea5f 0e50 	movseq.w	lr, r0, lsr #1
100025d6:	f150 0000 	adcs.w	r0, r0, #0
100025da:	eb41 5104 	adc.w	r1, r1, r4, lsl #20
100025de:	bd70      	pop	{r4, r5, r6, pc}
100025e0:	f006 4600 	and.w	r6, r6, #2147483648	; 0x80000000
100025e4:	ea46 0101 	orr.w	r1, r6, r1
100025e8:	ea40 0002 	orr.w	r0, r0, r2
100025ec:	ea81 0103 	eor.w	r1, r1, r3
100025f0:	ebb4 045c 	subs.w	r4, r4, ip, lsr #1
100025f4:	bfc2      	ittt	gt
100025f6:	ebd4 050c 	rsbsgt	r5, r4, ip
100025fa:	ea41 5104 	orrgt.w	r1, r1, r4, lsl #20
100025fe:	bd70      	popgt	{r4, r5, r6, pc}
10002600:	f441 1180 	orr.w	r1, r1, #1048576	; 0x100000
10002604:	f04f 0e00 	mov.w	lr, #0
10002608:	3c01      	subs	r4, #1
1000260a:	f300 80ab 	bgt.w	10002764 <__aeabi_dmul+0x238>
1000260e:	f114 0f36 	cmn.w	r4, #54	; 0x36
10002612:	bfde      	ittt	le
10002614:	2000      	movle	r0, #0
10002616:	f001 4100 	andle.w	r1, r1, #2147483648	; 0x80000000
1000261a:	bd70      	pople	{r4, r5, r6, pc}
1000261c:	f1c4 0400 	rsb	r4, r4, #0
10002620:	3c20      	subs	r4, #32
10002622:	da35      	bge.n	10002690 <__aeabi_dmul+0x164>
10002624:	340c      	adds	r4, #12
10002626:	dc1b      	bgt.n	10002660 <__aeabi_dmul+0x134>
10002628:	f104 0414 	add.w	r4, r4, #20
1000262c:	f1c4 0520 	rsb	r5, r4, #32
10002630:	fa00 f305 	lsl.w	r3, r0, r5
10002634:	fa20 f004 	lsr.w	r0, r0, r4
10002638:	fa01 f205 	lsl.w	r2, r1, r5
1000263c:	ea40 0002 	orr.w	r0, r0, r2
10002640:	f001 4200 	and.w	r2, r1, #2147483648	; 0x80000000
10002644:	f021 4100 	bic.w	r1, r1, #2147483648	; 0x80000000
10002648:	eb10 70d3 	adds.w	r0, r0, r3, lsr #31
1000264c:	fa21 f604 	lsr.w	r6, r1, r4
10002650:	eb42 0106 	adc.w	r1, r2, r6
10002654:	ea5e 0e43 	orrs.w	lr, lr, r3, lsl #1
10002658:	bf08      	it	eq
1000265a:	ea20 70d3 	biceq.w	r0, r0, r3, lsr #31
1000265e:	bd70      	pop	{r4, r5, r6, pc}
10002660:	f1c4 040c 	rsb	r4, r4, #12
10002664:	f1c4 0520 	rsb	r5, r4, #32
10002668:	fa00 f304 	lsl.w	r3, r0, r4
1000266c:	fa20 f005 	lsr.w	r0, r0, r5
10002670:	fa01 f204 	lsl.w	r2, r1, r4
10002674:	ea40 0002 	orr.w	r0, r0, r2
10002678:	f001 4100 	and.w	r1, r1, #2147483648	; 0x80000000
1000267c:	eb10 70d3 	adds.w	r0, r0, r3, lsr #31
10002680:	f141 0100 	adc.w	r1, r1, #0
10002684:	ea5e 0e43 	orrs.w	lr, lr, r3, lsl #1
10002688:	bf08      	it	eq
1000268a:	ea20 70d3 	biceq.w	r0, r0, r3, lsr #31
1000268e:	bd70      	pop	{r4, r5, r6, pc}
10002690:	f1c4 0520 	rsb	r5, r4, #32
10002694:	fa00 f205 	lsl.w	r2, r0, r5
10002698:	ea4e 0e02 	orr.w	lr, lr, r2
1000269c:	fa20 f304 	lsr.w	r3, r0, r4
100026a0:	fa01 f205 	lsl.w	r2, r1, r5
100026a4:	ea43 0302 	orr.w	r3, r3, r2
100026a8:	fa21 f004 	lsr.w	r0, r1, r4
100026ac:	f001 4100 	and.w	r1, r1, #2147483648	; 0x80000000
100026b0:	fa21 f204 	lsr.w	r2, r1, r4
100026b4:	ea20 0002 	bic.w	r0, r0, r2
100026b8:	eb00 70d3 	add.w	r0, r0, r3, lsr #31
100026bc:	ea5e 0e43 	orrs.w	lr, lr, r3, lsl #1
100026c0:	bf08      	it	eq
100026c2:	ea20 70d3 	biceq.w	r0, r0, r3, lsr #31
100026c6:	bd70      	pop	{r4, r5, r6, pc}
100026c8:	f094 0f00 	teq	r4, #0
100026cc:	d10f      	bne.n	100026ee <__aeabi_dmul+0x1c2>
100026ce:	f001 4600 	and.w	r6, r1, #2147483648	; 0x80000000
100026d2:	0040      	lsls	r0, r0, #1
100026d4:	eb41 0101 	adc.w	r1, r1, r1
100026d8:	f411 1f80 	tst.w	r1, #1048576	; 0x100000
100026dc:	bf08      	it	eq
100026de:	3c01      	subeq	r4, #1
100026e0:	d0f7      	beq.n	100026d2 <__aeabi_dmul+0x1a6>
100026e2:	ea41 0106 	orr.w	r1, r1, r6
100026e6:	f095 0f00 	teq	r5, #0
100026ea:	bf18      	it	ne
100026ec:	4770      	bxne	lr
100026ee:	f003 4600 	and.w	r6, r3, #2147483648	; 0x80000000
100026f2:	0052      	lsls	r2, r2, #1
100026f4:	eb43 0303 	adc.w	r3, r3, r3
100026f8:	f413 1f80 	tst.w	r3, #1048576	; 0x100000
100026fc:	bf08      	it	eq
100026fe:	3d01      	subeq	r5, #1
10002700:	d0f7      	beq.n	100026f2 <__aeabi_dmul+0x1c6>
10002702:	ea43 0306 	orr.w	r3, r3, r6
10002706:	4770      	bx	lr
10002708:	ea94 0f0c 	teq	r4, ip
1000270c:	ea0c 5513 	and.w	r5, ip, r3, lsr #20
10002710:	bf18      	it	ne
10002712:	ea95 0f0c 	teqne	r5, ip
10002716:	d00c      	beq.n	10002732 <__aeabi_dmul+0x206>
10002718:	ea50 0641 	orrs.w	r6, r0, r1, lsl #1
1000271c:	bf18      	it	ne
1000271e:	ea52 0643 	orrsne.w	r6, r2, r3, lsl #1
10002722:	d1d1      	bne.n	100026c8 <__aeabi_dmul+0x19c>
10002724:	ea81 0103 	eor.w	r1, r1, r3
10002728:	f001 4100 	and.w	r1, r1, #2147483648	; 0x80000000
1000272c:	f04f 0000 	mov.w	r0, #0
10002730:	bd70      	pop	{r4, r5, r6, pc}
10002732:	ea50 0641 	orrs.w	r6, r0, r1, lsl #1
10002736:	bf06      	itte	eq
10002738:	4610      	moveq	r0, r2
1000273a:	4619      	moveq	r1, r3
1000273c:	ea52 0643 	orrsne.w	r6, r2, r3, lsl #1
10002740:	d019      	beq.n	10002776 <__aeabi_dmul+0x24a>
10002742:	ea94 0f0c 	teq	r4, ip
10002746:	d102      	bne.n	1000274e <__aeabi_dmul+0x222>
10002748:	ea50 3601 	orrs.w	r6, r0, r1, lsl #12
1000274c:	d113      	bne.n	10002776 <__aeabi_dmul+0x24a>
1000274e:	ea95 0f0c 	teq	r5, ip
10002752:	d105      	bne.n	10002760 <__aeabi_dmul+0x234>
10002754:	ea52 3603 	orrs.w	r6, r2, r3, lsl #12
10002758:	bf1c      	itt	ne
1000275a:	4610      	movne	r0, r2
1000275c:	4619      	movne	r1, r3
1000275e:	d10a      	bne.n	10002776 <__aeabi_dmul+0x24a>
10002760:	ea81 0103 	eor.w	r1, r1, r3
10002764:	f001 4100 	and.w	r1, r1, #2147483648	; 0x80000000
10002768:	f041 41fe 	orr.w	r1, r1, #2130706432	; 0x7f000000
1000276c:	f441 0170 	orr.w	r1, r1, #15728640	; 0xf00000
10002770:	f04f 0000 	mov.w	r0, #0
10002774:	bd70      	pop	{r4, r5, r6, pc}
10002776:	f041 41fe 	orr.w	r1, r1, #2130706432	; 0x7f000000
1000277a:	f441 0178 	orr.w	r1, r1, #16252928	; 0xf80000
1000277e:	bd70      	pop	{r4, r5, r6, pc}

10002780 <__aeabi_ddiv>:
10002780:	b570      	push	{r4, r5, r6, lr}
10002782:	f04f 0cff 	mov.w	ip, #255	; 0xff
10002786:	f44c 6ce0 	orr.w	ip, ip, #1792	; 0x700
1000278a:	ea1c 5411 	ands.w	r4, ip, r1, lsr #20
1000278e:	bf1d      	ittte	ne
10002790:	ea1c 5513 	andsne.w	r5, ip, r3, lsr #20
10002794:	ea94 0f0c 	teqne	r4, ip
10002798:	ea95 0f0c 	teqne	r5, ip
1000279c:	f000 f8a7 	bleq	100028ee <__aeabi_ddiv+0x16e>
100027a0:	eba4 0405 	sub.w	r4, r4, r5
100027a4:	ea81 0e03 	eor.w	lr, r1, r3
100027a8:	ea52 3503 	orrs.w	r5, r2, r3, lsl #12
100027ac:	ea4f 3101 	mov.w	r1, r1, lsl #12
100027b0:	f000 8088 	beq.w	100028c4 <__aeabi_ddiv+0x144>
100027b4:	ea4f 3303 	mov.w	r3, r3, lsl #12
100027b8:	f04f 5580 	mov.w	r5, #268435456	; 0x10000000
100027bc:	ea45 1313 	orr.w	r3, r5, r3, lsr #4
100027c0:	ea43 6312 	orr.w	r3, r3, r2, lsr #24
100027c4:	ea4f 2202 	mov.w	r2, r2, lsl #8
100027c8:	ea45 1511 	orr.w	r5, r5, r1, lsr #4
100027cc:	ea45 6510 	orr.w	r5, r5, r0, lsr #24
100027d0:	ea4f 2600 	mov.w	r6, r0, lsl #8
100027d4:	f00e 4100 	and.w	r1, lr, #2147483648	; 0x80000000
100027d8:	429d      	cmp	r5, r3
100027da:	bf08      	it	eq
100027dc:	4296      	cmpeq	r6, r2
100027de:	f144 04fd 	adc.w	r4, r4, #253	; 0xfd
100027e2:	f504 7440 	add.w	r4, r4, #768	; 0x300
100027e6:	d202      	bcs.n	100027ee <__aeabi_ddiv+0x6e>
100027e8:	085b      	lsrs	r3, r3, #1
100027ea:	ea4f 0232 	mov.w	r2, r2, rrx
100027ee:	1ab6      	subs	r6, r6, r2
100027f0:	eb65 0503 	sbc.w	r5, r5, r3
100027f4:	085b      	lsrs	r3, r3, #1
100027f6:	ea4f 0232 	mov.w	r2, r2, rrx
100027fa:	f44f 1080 	mov.w	r0, #1048576	; 0x100000
100027fe:	f44f 2c00 	mov.w	ip, #524288	; 0x80000
10002802:	ebb6 0e02 	subs.w	lr, r6, r2
10002806:	eb75 0e03 	sbcs.w	lr, r5, r3
1000280a:	bf22      	ittt	cs
1000280c:	1ab6      	subcs	r6, r6, r2
1000280e:	4675      	movcs	r5, lr
10002810:	ea40 000c 	orrcs.w	r0, r0, ip
10002814:	085b      	lsrs	r3, r3, #1
10002816:	ea4f 0232 	mov.w	r2, r2, rrx
1000281a:	ebb6 0e02 	subs.w	lr, r6, r2
1000281e:	eb75 0e03 	sbcs.w	lr, r5, r3
10002822:	bf22      	ittt	cs
10002824:	1ab6      	subcs	r6, r6, r2
10002826:	4675      	movcs	r5, lr
10002828:	ea40 005c 	orrcs.w	r0, r0, ip, lsr #1
1000282c:	085b      	lsrs	r3, r3, #1
1000282e:	ea4f 0232 	mov.w	r2, r2, rrx
10002832:	ebb6 0e02 	subs.w	lr, r6, r2
10002836:	eb75 0e03 	sbcs.w	lr, r5, r3
1000283a:	bf22      	ittt	cs
1000283c:	1ab6      	subcs	r6, r6, r2
1000283e:	4675      	movcs	r5, lr
10002840:	ea40 009c 	orrcs.w	r0, r0, ip, lsr #2
10002844:	085b      	lsrs	r3, r3, #1
10002846:	ea4f 0232 	mov.w	r2, r2, rrx
1000284a:	ebb6 0e02 	subs.w	lr, r6, r2
1000284e:	eb75 0e03 	sbcs.w	lr, r5, r3
10002852:	bf22      	ittt	cs
10002854:	1ab6      	subcs	r6, r6, r2
10002856:	4675      	movcs	r5, lr
10002858:	ea40 00dc 	orrcs.w	r0, r0, ip, lsr #3
1000285c:	ea55 0e06 	orrs.w	lr, r5, r6
10002860:	d018      	beq.n	10002894 <__aeabi_ddiv+0x114>
10002862:	ea4f 1505 	mov.w	r5, r5, lsl #4
10002866:	ea45 7516 	orr.w	r5, r5, r6, lsr #28
1000286a:	ea4f 1606 	mov.w	r6, r6, lsl #4
1000286e:	ea4f 03c3 	mov.w	r3, r3, lsl #3
10002872:	ea43 7352 	orr.w	r3, r3, r2, lsr #29
10002876:	ea4f 02c2 	mov.w	r2, r2, lsl #3
1000287a:	ea5f 1c1c 	movs.w	ip, ip, lsr #4
1000287e:	d1c0      	bne.n	10002802 <__aeabi_ddiv+0x82>
10002880:	f411 1f80 	tst.w	r1, #1048576	; 0x100000
10002884:	d10b      	bne.n	1000289e <__aeabi_ddiv+0x11e>
10002886:	ea41 0100 	orr.w	r1, r1, r0
1000288a:	f04f 0000 	mov.w	r0, #0
1000288e:	f04f 4c00 	mov.w	ip, #2147483648	; 0x80000000
10002892:	e7b6      	b.n	10002802 <__aeabi_ddiv+0x82>
10002894:	f411 1f80 	tst.w	r1, #1048576	; 0x100000
10002898:	bf04      	itt	eq
1000289a:	4301      	orreq	r1, r0
1000289c:	2000      	moveq	r0, #0
1000289e:	f1b4 0cfd 	subs.w	ip, r4, #253	; 0xfd
100028a2:	bf88      	it	hi
100028a4:	f5bc 6fe0 	cmphi.w	ip, #1792	; 0x700
100028a8:	f63f aeaf 	bhi.w	1000260a <__aeabi_dmul+0xde>
100028ac:	ebb5 0c03 	subs.w	ip, r5, r3
100028b0:	bf04      	itt	eq
100028b2:	ebb6 0c02 	subseq.w	ip, r6, r2
100028b6:	ea5f 0c50 	movseq.w	ip, r0, lsr #1
100028ba:	f150 0000 	adcs.w	r0, r0, #0
100028be:	eb41 5104 	adc.w	r1, r1, r4, lsl #20
100028c2:	bd70      	pop	{r4, r5, r6, pc}
100028c4:	f00e 4e00 	and.w	lr, lr, #2147483648	; 0x80000000
100028c8:	ea4e 3111 	orr.w	r1, lr, r1, lsr #12
100028cc:	eb14 045c 	adds.w	r4, r4, ip, lsr #1
100028d0:	bfc2      	ittt	gt
100028d2:	ebd4 050c 	rsbsgt	r5, r4, ip
100028d6:	ea41 5104 	orrgt.w	r1, r1, r4, lsl #20
100028da:	bd70      	popgt	{r4, r5, r6, pc}
100028dc:	f441 1180 	orr.w	r1, r1, #1048576	; 0x100000
100028e0:	f04f 0e00 	mov.w	lr, #0
100028e4:	3c01      	subs	r4, #1
100028e6:	e690      	b.n	1000260a <__aeabi_dmul+0xde>
100028e8:	ea45 0e06 	orr.w	lr, r5, r6
100028ec:	e68d      	b.n	1000260a <__aeabi_dmul+0xde>
100028ee:	ea0c 5513 	and.w	r5, ip, r3, lsr #20
100028f2:	ea94 0f0c 	teq	r4, ip
100028f6:	bf08      	it	eq
100028f8:	ea95 0f0c 	teqeq	r5, ip
100028fc:	f43f af3b 	beq.w	10002776 <__aeabi_dmul+0x24a>
10002900:	ea94 0f0c 	teq	r4, ip
10002904:	d10a      	bne.n	1000291c <__aeabi_ddiv+0x19c>
10002906:	ea50 3401 	orrs.w	r4, r0, r1, lsl #12
1000290a:	f47f af34 	bne.w	10002776 <__aeabi_dmul+0x24a>
1000290e:	ea95 0f0c 	teq	r5, ip
10002912:	f47f af25 	bne.w	10002760 <__aeabi_dmul+0x234>
10002916:	4610      	mov	r0, r2
10002918:	4619      	mov	r1, r3
1000291a:	e72c      	b.n	10002776 <__aeabi_dmul+0x24a>
1000291c:	ea95 0f0c 	teq	r5, ip
10002920:	d106      	bne.n	10002930 <__aeabi_ddiv+0x1b0>
10002922:	ea52 3503 	orrs.w	r5, r2, r3, lsl #12
10002926:	f43f aefd 	beq.w	10002724 <__aeabi_dmul+0x1f8>
1000292a:	4610      	mov	r0, r2
1000292c:	4619      	mov	r1, r3
1000292e:	e722      	b.n	10002776 <__aeabi_dmul+0x24a>
10002930:	ea50 0641 	orrs.w	r6, r0, r1, lsl #1
10002934:	bf18      	it	ne
10002936:	ea52 0643 	orrsne.w	r6, r2, r3, lsl #1
1000293a:	f47f aec5 	bne.w	100026c8 <__aeabi_dmul+0x19c>
1000293e:	ea50 0441 	orrs.w	r4, r0, r1, lsl #1
10002942:	f47f af0d 	bne.w	10002760 <__aeabi_dmul+0x234>
10002946:	ea52 0543 	orrs.w	r5, r2, r3, lsl #1
1000294a:	f47f aeeb 	bne.w	10002724 <__aeabi_dmul+0x1f8>
1000294e:	e712      	b.n	10002776 <__aeabi_dmul+0x24a>

10002950 <__gedf2>:
10002950:	f04f 3cff 	mov.w	ip, #4294967295	; 0xffffffff
10002954:	e006      	b.n	10002964 <__cmpdf2+0x4>
10002956:	bf00      	nop

10002958 <__ledf2>:
10002958:	f04f 0c01 	mov.w	ip, #1
1000295c:	e002      	b.n	10002964 <__cmpdf2+0x4>
1000295e:	bf00      	nop

10002960 <__cmpdf2>:
10002960:	f04f 0c01 	mov.w	ip, #1
10002964:	f84d cd04 	str.w	ip, [sp, #-4]!
10002968:	ea4f 0c41 	mov.w	ip, r1, lsl #1
1000296c:	ea7f 5c6c 	mvns.w	ip, ip, asr #21
10002970:	ea4f 0c43 	mov.w	ip, r3, lsl #1
10002974:	bf18      	it	ne
10002976:	ea7f 5c6c 	mvnsne.w	ip, ip, asr #21
1000297a:	d01b      	beq.n	100029b4 <__cmpdf2+0x54>
1000297c:	b001      	add	sp, #4
1000297e:	ea50 0c41 	orrs.w	ip, r0, r1, lsl #1
10002982:	bf0c      	ite	eq
10002984:	ea52 0c43 	orrseq.w	ip, r2, r3, lsl #1
10002988:	ea91 0f03 	teqne	r1, r3
1000298c:	bf02      	ittt	eq
1000298e:	ea90 0f02 	teqeq	r0, r2
10002992:	2000      	moveq	r0, #0
10002994:	4770      	bxeq	lr
10002996:	f110 0f00 	cmn.w	r0, #0
1000299a:	ea91 0f03 	teq	r1, r3
1000299e:	bf58      	it	pl
100029a0:	4299      	cmppl	r1, r3
100029a2:	bf08      	it	eq
100029a4:	4290      	cmpeq	r0, r2
100029a6:	bf2c      	ite	cs
100029a8:	17d8      	asrcs	r0, r3, #31
100029aa:	ea6f 70e3 	mvncc.w	r0, r3, asr #31
100029ae:	f040 0001 	orr.w	r0, r0, #1
100029b2:	4770      	bx	lr
100029b4:	ea4f 0c41 	mov.w	ip, r1, lsl #1
100029b8:	ea7f 5c6c 	mvns.w	ip, ip, asr #21
100029bc:	d102      	bne.n	100029c4 <__cmpdf2+0x64>
100029be:	ea50 3c01 	orrs.w	ip, r0, r1, lsl #12
100029c2:	d107      	bne.n	100029d4 <__cmpdf2+0x74>
100029c4:	ea4f 0c43 	mov.w	ip, r3, lsl #1
100029c8:	ea7f 5c6c 	mvns.w	ip, ip, asr #21
100029cc:	d1d6      	bne.n	1000297c <__cmpdf2+0x1c>
100029ce:	ea52 3c03 	orrs.w	ip, r2, r3, lsl #12
100029d2:	d0d3      	beq.n	1000297c <__cmpdf2+0x1c>
100029d4:	f85d 0b04 	ldr.w	r0, [sp], #4
100029d8:	4770      	bx	lr
100029da:	bf00      	nop

100029dc <__aeabi_cdrcmple>:
100029dc:	4684      	mov	ip, r0
100029de:	4610      	mov	r0, r2
100029e0:	4662      	mov	r2, ip
100029e2:	468c      	mov	ip, r1
100029e4:	4619      	mov	r1, r3
100029e6:	4663      	mov	r3, ip
100029e8:	e000      	b.n	100029ec <__aeabi_cdcmpeq>
100029ea:	bf00      	nop

100029ec <__aeabi_cdcmpeq>:
100029ec:	b501      	push	{r0, lr}
100029ee:	f7ff ffb7 	bl	10002960 <__cmpdf2>
100029f2:	2800      	cmp	r0, #0
100029f4:	bf48      	it	mi
100029f6:	f110 0f00 	cmnmi.w	r0, #0
100029fa:	bd01      	pop	{r0, pc}

100029fc <__aeabi_dcmpeq>:
100029fc:	f84d ed08 	str.w	lr, [sp, #-8]!
10002a00:	f7ff fff4 	bl	100029ec <__aeabi_cdcmpeq>
10002a04:	bf0c      	ite	eq
10002a06:	2001      	moveq	r0, #1
10002a08:	2000      	movne	r0, #0
10002a0a:	f85d fb08 	ldr.w	pc, [sp], #8
10002a0e:	bf00      	nop

10002a10 <__aeabi_dcmplt>:
10002a10:	f84d ed08 	str.w	lr, [sp, #-8]!
10002a14:	f7ff ffea 	bl	100029ec <__aeabi_cdcmpeq>
10002a18:	bf34      	ite	cc
10002a1a:	2001      	movcc	r0, #1
10002a1c:	2000      	movcs	r0, #0
10002a1e:	f85d fb08 	ldr.w	pc, [sp], #8
10002a22:	bf00      	nop

10002a24 <__aeabi_dcmple>:
10002a24:	f84d ed08 	str.w	lr, [sp, #-8]!
10002a28:	f7ff ffe0 	bl	100029ec <__aeabi_cdcmpeq>
10002a2c:	bf94      	ite	ls
10002a2e:	2001      	movls	r0, #1
10002a30:	2000      	movhi	r0, #0
10002a32:	f85d fb08 	ldr.w	pc, [sp], #8
10002a36:	bf00      	nop

10002a38 <__aeabi_dcmpge>:
10002a38:	f84d ed08 	str.w	lr, [sp, #-8]!
10002a3c:	f7ff ffce 	bl	100029dc <__aeabi_cdrcmple>
10002a40:	bf94      	ite	ls
10002a42:	2001      	movls	r0, #1
10002a44:	2000      	movhi	r0, #0
10002a46:	f85d fb08 	ldr.w	pc, [sp], #8
10002a4a:	bf00      	nop

10002a4c <__aeabi_dcmpgt>:
10002a4c:	f84d ed08 	str.w	lr, [sp, #-8]!
10002a50:	f7ff ffc4 	bl	100029dc <__aeabi_cdrcmple>
10002a54:	bf34      	ite	cc
10002a56:	2001      	movcc	r0, #1
10002a58:	2000      	movcs	r0, #0
10002a5a:	f85d fb08 	ldr.w	pc, [sp], #8
10002a5e:	bf00      	nop

10002a60 <__aeabi_d2iz>:
10002a60:	ea4f 0241 	mov.w	r2, r1, lsl #1
10002a64:	f512 1200 	adds.w	r2, r2, #2097152	; 0x200000
10002a68:	d215      	bcs.n	10002a96 <__aeabi_d2iz+0x36>
10002a6a:	d511      	bpl.n	10002a90 <__aeabi_d2iz+0x30>
10002a6c:	f46f 7378 	mvn.w	r3, #992	; 0x3e0
10002a70:	ebb3 5262 	subs.w	r2, r3, r2, asr #21
10002a74:	d912      	bls.n	10002a9c <__aeabi_d2iz+0x3c>
10002a76:	ea4f 23c1 	mov.w	r3, r1, lsl #11
10002a7a:	f043 4300 	orr.w	r3, r3, #2147483648	; 0x80000000
10002a7e:	ea43 5350 	orr.w	r3, r3, r0, lsr #21
10002a82:	f011 4f00 	tst.w	r1, #2147483648	; 0x80000000
10002a86:	fa23 f002 	lsr.w	r0, r3, r2
10002a8a:	bf18      	it	ne
10002a8c:	4240      	negne	r0, r0
10002a8e:	4770      	bx	lr
10002a90:	f04f 0000 	mov.w	r0, #0
10002a94:	4770      	bx	lr
10002a96:	ea50 3001 	orrs.w	r0, r0, r1, lsl #12
10002a9a:	d105      	bne.n	10002aa8 <__aeabi_d2iz+0x48>
10002a9c:	f011 4000 	ands.w	r0, r1, #2147483648	; 0x80000000
10002aa0:	bf08      	it	eq
10002aa2:	f06f 4000 	mvneq.w	r0, #2147483648	; 0x80000000
10002aa6:	4770      	bx	lr
10002aa8:	f04f 0000 	mov.w	r0, #0
10002aac:	4770      	bx	lr
10002aae:	bf00      	nop

10002ab0 <__aeabi_d2uiz>:
10002ab0:	004a      	lsls	r2, r1, #1
10002ab2:	d211      	bcs.n	10002ad8 <__aeabi_d2uiz+0x28>
10002ab4:	f512 1200 	adds.w	r2, r2, #2097152	; 0x200000
10002ab8:	d211      	bcs.n	10002ade <__aeabi_d2uiz+0x2e>
10002aba:	d50d      	bpl.n	10002ad8 <__aeabi_d2uiz+0x28>
10002abc:	f46f 7378 	mvn.w	r3, #992	; 0x3e0
10002ac0:	ebb3 5262 	subs.w	r2, r3, r2, asr #21
10002ac4:	d40e      	bmi.n	10002ae4 <__aeabi_d2uiz+0x34>
10002ac6:	ea4f 23c1 	mov.w	r3, r1, lsl #11
10002aca:	f043 4300 	orr.w	r3, r3, #2147483648	; 0x80000000
10002ace:	ea43 5350 	orr.w	r3, r3, r0, lsr #21
10002ad2:	fa23 f002 	lsr.w	r0, r3, r2
10002ad6:	4770      	bx	lr
10002ad8:	f04f 0000 	mov.w	r0, #0
10002adc:	4770      	bx	lr
10002ade:	ea50 3001 	orrs.w	r0, r0, r1, lsl #12
10002ae2:	d102      	bne.n	10002aea <__aeabi_d2uiz+0x3a>
10002ae4:	f04f 30ff 	mov.w	r0, #4294967295	; 0xffffffff
10002ae8:	4770      	bx	lr
10002aea:	f04f 0000 	mov.w	r0, #0
10002aee:	4770      	bx	lr

10002af0 <__aeabi_uldivmod>:
10002af0:	b953      	cbnz	r3, 10002b08 <__aeabi_uldivmod+0x18>
10002af2:	b94a      	cbnz	r2, 10002b08 <__aeabi_uldivmod+0x18>
10002af4:	2900      	cmp	r1, #0
10002af6:	bf08      	it	eq
10002af8:	2800      	cmpeq	r0, #0
10002afa:	bf1c      	itt	ne
10002afc:	f04f 31ff 	movne.w	r1, #4294967295	; 0xffffffff
10002b00:	f04f 30ff 	movne.w	r0, #4294967295	; 0xffffffff
10002b04:	f001 b934 	b.w	10003d70 <__aeabi_idiv0>
10002b08:	f1ad 0c08 	sub.w	ip, sp, #8
10002b0c:	e96d ce04 	strd	ip, lr, [sp, #-16]!
10002b10:	f000 f806 	bl	10002b20 <__udivmoddi4>
10002b14:	f8dd e004 	ldr.w	lr, [sp, #4]
10002b18:	e9dd 2302 	ldrd	r2, r3, [sp, #8]
10002b1c:	b004      	add	sp, #16
10002b1e:	4770      	bx	lr

10002b20 <__udivmoddi4>:
10002b20:	e92d 4ff0 	stmdb	sp!, {r4, r5, r6, r7, r8, r9, sl, fp, lr}
10002b24:	9d09      	ldr	r5, [sp, #36]	; 0x24
10002b26:	4604      	mov	r4, r0
10002b28:	460f      	mov	r7, r1
10002b2a:	2b00      	cmp	r3, #0
10002b2c:	d148      	bne.n	10002bc0 <__udivmoddi4+0xa0>
10002b2e:	428a      	cmp	r2, r1
10002b30:	4694      	mov	ip, r2
10002b32:	d961      	bls.n	10002bf8 <__udivmoddi4+0xd8>
10002b34:	fab2 f382 	clz	r3, r2
10002b38:	b143      	cbz	r3, 10002b4c <__udivmoddi4+0x2c>
10002b3a:	f1c3 0120 	rsb	r1, r3, #32
10002b3e:	409f      	lsls	r7, r3
10002b40:	fa02 fc03 	lsl.w	ip, r2, r3
10002b44:	409c      	lsls	r4, r3
10002b46:	fa20 f101 	lsr.w	r1, r0, r1
10002b4a:	430f      	orrs	r7, r1
10002b4c:	ea4f 411c 	mov.w	r1, ip, lsr #16
10002b50:	fa1f fe8c 	uxth.w	lr, ip
10002b54:	0c22      	lsrs	r2, r4, #16
10002b56:	fbb7 f6f1 	udiv	r6, r7, r1
10002b5a:	fb01 7716 	mls	r7, r1, r6, r7
10002b5e:	fb06 f00e 	mul.w	r0, r6, lr
10002b62:	ea42 4207 	orr.w	r2, r2, r7, lsl #16
10002b66:	4290      	cmp	r0, r2
10002b68:	d908      	bls.n	10002b7c <__udivmoddi4+0x5c>
10002b6a:	eb1c 0202 	adds.w	r2, ip, r2
10002b6e:	f106 37ff 	add.w	r7, r6, #4294967295	; 0xffffffff
10002b72:	d202      	bcs.n	10002b7a <__udivmoddi4+0x5a>
10002b74:	4290      	cmp	r0, r2
10002b76:	f200 8137 	bhi.w	10002de8 <__udivmoddi4+0x2c8>
10002b7a:	463e      	mov	r6, r7
10002b7c:	1a12      	subs	r2, r2, r0
10002b7e:	b2a4      	uxth	r4, r4
10002b80:	fbb2 f0f1 	udiv	r0, r2, r1
10002b84:	fb01 2210 	mls	r2, r1, r0, r2
10002b88:	fb00 fe0e 	mul.w	lr, r0, lr
10002b8c:	ea44 4402 	orr.w	r4, r4, r2, lsl #16
10002b90:	45a6      	cmp	lr, r4
10002b92:	d908      	bls.n	10002ba6 <__udivmoddi4+0x86>
10002b94:	eb1c 0404 	adds.w	r4, ip, r4
10002b98:	f100 32ff 	add.w	r2, r0, #4294967295	; 0xffffffff
10002b9c:	d202      	bcs.n	10002ba4 <__udivmoddi4+0x84>
10002b9e:	45a6      	cmp	lr, r4
10002ba0:	f200 811c 	bhi.w	10002ddc <__udivmoddi4+0x2bc>
10002ba4:	4610      	mov	r0, r2
10002ba6:	ea40 4006 	orr.w	r0, r0, r6, lsl #16
10002baa:	eba4 040e 	sub.w	r4, r4, lr
10002bae:	2600      	movs	r6, #0
10002bb0:	b11d      	cbz	r5, 10002bba <__udivmoddi4+0x9a>
10002bb2:	40dc      	lsrs	r4, r3
10002bb4:	2300      	movs	r3, #0
10002bb6:	e9c5 4300 	strd	r4, r3, [r5]
10002bba:	4631      	mov	r1, r6
10002bbc:	e8bd 8ff0 	ldmia.w	sp!, {r4, r5, r6, r7, r8, r9, sl, fp, pc}
10002bc0:	428b      	cmp	r3, r1
10002bc2:	d909      	bls.n	10002bd8 <__udivmoddi4+0xb8>
10002bc4:	2d00      	cmp	r5, #0
10002bc6:	f000 80fd 	beq.w	10002dc4 <__udivmoddi4+0x2a4>
10002bca:	2600      	movs	r6, #0
10002bcc:	e9c5 0100 	strd	r0, r1, [r5]
10002bd0:	4630      	mov	r0, r6
10002bd2:	4631      	mov	r1, r6
10002bd4:	e8bd 8ff0 	ldmia.w	sp!, {r4, r5, r6, r7, r8, r9, sl, fp, pc}
10002bd8:	fab3 f683 	clz	r6, r3
10002bdc:	2e00      	cmp	r6, #0
10002bde:	d14b      	bne.n	10002c78 <__udivmoddi4+0x158>
10002be0:	428b      	cmp	r3, r1
10002be2:	f0c0 80f2 	bcc.w	10002dca <__udivmoddi4+0x2aa>
10002be6:	4282      	cmp	r2, r0
10002be8:	f240 80ef 	bls.w	10002dca <__udivmoddi4+0x2aa>
10002bec:	4630      	mov	r0, r6
10002bee:	2d00      	cmp	r5, #0
10002bf0:	d0e3      	beq.n	10002bba <__udivmoddi4+0x9a>
10002bf2:	e9c5 4700 	strd	r4, r7, [r5]
10002bf6:	e7e0      	b.n	10002bba <__udivmoddi4+0x9a>
10002bf8:	b902      	cbnz	r2, 10002bfc <__udivmoddi4+0xdc>
10002bfa:	deff      	udf	#255	; 0xff
10002bfc:	fab2 f382 	clz	r3, r2
10002c00:	2b00      	cmp	r3, #0
10002c02:	f040 809d 	bne.w	10002d40 <__udivmoddi4+0x220>
10002c06:	1a89      	subs	r1, r1, r2
10002c08:	ea4f 4e12 	mov.w	lr, r2, lsr #16
10002c0c:	b297      	uxth	r7, r2
10002c0e:	2601      	movs	r6, #1
10002c10:	0c20      	lsrs	r0, r4, #16
10002c12:	fbb1 f2fe 	udiv	r2, r1, lr
10002c16:	fb0e 1112 	mls	r1, lr, r2, r1
10002c1a:	ea40 4101 	orr.w	r1, r0, r1, lsl #16
10002c1e:	fb07 f002 	mul.w	r0, r7, r2
10002c22:	4288      	cmp	r0, r1
10002c24:	d90f      	bls.n	10002c46 <__udivmoddi4+0x126>
10002c26:	eb1c 0101 	adds.w	r1, ip, r1
10002c2a:	f102 38ff 	add.w	r8, r2, #4294967295	; 0xffffffff
10002c2e:	bf2c      	ite	cs
10002c30:	f04f 0901 	movcs.w	r9, #1
10002c34:	f04f 0900 	movcc.w	r9, #0
10002c38:	4288      	cmp	r0, r1
10002c3a:	d903      	bls.n	10002c44 <__udivmoddi4+0x124>
10002c3c:	f1b9 0f00 	cmp.w	r9, #0
10002c40:	f000 80cf 	beq.w	10002de2 <__udivmoddi4+0x2c2>
10002c44:	4642      	mov	r2, r8
10002c46:	1a09      	subs	r1, r1, r0
10002c48:	b2a4      	uxth	r4, r4
10002c4a:	fbb1 f0fe 	udiv	r0, r1, lr
10002c4e:	fb0e 1110 	mls	r1, lr, r0, r1
10002c52:	fb00 f707 	mul.w	r7, r0, r7
10002c56:	ea44 4401 	orr.w	r4, r4, r1, lsl #16
10002c5a:	42a7      	cmp	r7, r4
10002c5c:	d908      	bls.n	10002c70 <__udivmoddi4+0x150>
10002c5e:	eb1c 0404 	adds.w	r4, ip, r4
10002c62:	f100 31ff 	add.w	r1, r0, #4294967295	; 0xffffffff
10002c66:	d202      	bcs.n	10002c6e <__udivmoddi4+0x14e>
10002c68:	42a7      	cmp	r7, r4
10002c6a:	f200 80b4 	bhi.w	10002dd6 <__udivmoddi4+0x2b6>
10002c6e:	4608      	mov	r0, r1
10002c70:	1be4      	subs	r4, r4, r7
10002c72:	ea40 4002 	orr.w	r0, r0, r2, lsl #16
10002c76:	e79b      	b.n	10002bb0 <__udivmoddi4+0x90>
10002c78:	f1c6 0720 	rsb	r7, r6, #32
10002c7c:	40b3      	lsls	r3, r6
10002c7e:	fa01 f406 	lsl.w	r4, r1, r6
10002c82:	fa22 fc07 	lsr.w	ip, r2, r7
10002c86:	40f9      	lsrs	r1, r7
10002c88:	40b2      	lsls	r2, r6
10002c8a:	ea4c 0c03 	orr.w	ip, ip, r3
10002c8e:	fa20 f307 	lsr.w	r3, r0, r7
10002c92:	ea4f 491c 	mov.w	r9, ip, lsr #16
10002c96:	431c      	orrs	r4, r3
10002c98:	fa1f fe8c 	uxth.w	lr, ip
10002c9c:	fa00 f306 	lsl.w	r3, r0, r6
10002ca0:	0c20      	lsrs	r0, r4, #16
10002ca2:	fbb1 f8f9 	udiv	r8, r1, r9
10002ca6:	fb09 1118 	mls	r1, r9, r8, r1
10002caa:	ea40 4101 	orr.w	r1, r0, r1, lsl #16
10002cae:	fb08 f00e 	mul.w	r0, r8, lr
10002cb2:	4288      	cmp	r0, r1
10002cb4:	d90f      	bls.n	10002cd6 <__udivmoddi4+0x1b6>
10002cb6:	eb1c 0101 	adds.w	r1, ip, r1
10002cba:	f108 3aff 	add.w	sl, r8, #4294967295	; 0xffffffff
10002cbe:	bf2c      	ite	cs
10002cc0:	f04f 0b01 	movcs.w	fp, #1
10002cc4:	f04f 0b00 	movcc.w	fp, #0
10002cc8:	4288      	cmp	r0, r1
10002cca:	d903      	bls.n	10002cd4 <__udivmoddi4+0x1b4>
10002ccc:	f1bb 0f00 	cmp.w	fp, #0
10002cd0:	f000 808d 	beq.w	10002dee <__udivmoddi4+0x2ce>
10002cd4:	46d0      	mov	r8, sl
10002cd6:	1a09      	subs	r1, r1, r0
10002cd8:	b2a4      	uxth	r4, r4
10002cda:	fbb1 f0f9 	udiv	r0, r1, r9
10002cde:	fb09 1110 	mls	r1, r9, r0, r1
10002ce2:	fb00 fe0e 	mul.w	lr, r0, lr
10002ce6:	ea44 4101 	orr.w	r1, r4, r1, lsl #16
10002cea:	458e      	cmp	lr, r1
10002cec:	d907      	bls.n	10002cfe <__udivmoddi4+0x1de>
10002cee:	eb1c 0101 	adds.w	r1, ip, r1
10002cf2:	f100 34ff 	add.w	r4, r0, #4294967295	; 0xffffffff
10002cf6:	d201      	bcs.n	10002cfc <__udivmoddi4+0x1dc>
10002cf8:	458e      	cmp	lr, r1
10002cfa:	d87f      	bhi.n	10002dfc <__udivmoddi4+0x2dc>
10002cfc:	4620      	mov	r0, r4
10002cfe:	ea40 4008 	orr.w	r0, r0, r8, lsl #16
10002d02:	eba1 010e 	sub.w	r1, r1, lr
10002d06:	fba0 9802 	umull	r9, r8, r0, r2
10002d0a:	4541      	cmp	r1, r8
10002d0c:	464c      	mov	r4, r9
10002d0e:	46c6      	mov	lr, r8
10002d10:	d302      	bcc.n	10002d18 <__udivmoddi4+0x1f8>
10002d12:	d106      	bne.n	10002d22 <__udivmoddi4+0x202>
10002d14:	454b      	cmp	r3, r9
10002d16:	d204      	bcs.n	10002d22 <__udivmoddi4+0x202>
10002d18:	3801      	subs	r0, #1
10002d1a:	ebb9 0402 	subs.w	r4, r9, r2
10002d1e:	eb68 0e0c 	sbc.w	lr, r8, ip
10002d22:	2d00      	cmp	r5, #0
10002d24:	d070      	beq.n	10002e08 <__udivmoddi4+0x2e8>
10002d26:	1b1a      	subs	r2, r3, r4
10002d28:	eb61 010e 	sbc.w	r1, r1, lr
10002d2c:	fa22 f306 	lsr.w	r3, r2, r6
10002d30:	fa01 f707 	lsl.w	r7, r1, r7
10002d34:	40f1      	lsrs	r1, r6
10002d36:	2600      	movs	r6, #0
10002d38:	431f      	orrs	r7, r3
10002d3a:	e9c5 7100 	strd	r7, r1, [r5]
10002d3e:	e73c      	b.n	10002bba <__udivmoddi4+0x9a>
10002d40:	fa02 fc03 	lsl.w	ip, r2, r3
10002d44:	f1c3 0020 	rsb	r0, r3, #32
10002d48:	fa01 f203 	lsl.w	r2, r1, r3
10002d4c:	fa21 f600 	lsr.w	r6, r1, r0
10002d50:	ea4f 4e1c 	mov.w	lr, ip, lsr #16
10002d54:	fa24 f100 	lsr.w	r1, r4, r0
10002d58:	fa1f f78c 	uxth.w	r7, ip
10002d5c:	409c      	lsls	r4, r3
10002d5e:	4311      	orrs	r1, r2
10002d60:	fbb6 f0fe 	udiv	r0, r6, lr
10002d64:	0c0a      	lsrs	r2, r1, #16
10002d66:	fb0e 6610 	mls	r6, lr, r0, r6
10002d6a:	ea42 4206 	orr.w	r2, r2, r6, lsl #16
10002d6e:	fb00 f607 	mul.w	r6, r0, r7
10002d72:	4296      	cmp	r6, r2
10002d74:	d90e      	bls.n	10002d94 <__udivmoddi4+0x274>
10002d76:	eb1c 0202 	adds.w	r2, ip, r2
10002d7a:	f100 38ff 	add.w	r8, r0, #4294967295	; 0xffffffff
10002d7e:	bf2c      	ite	cs
10002d80:	f04f 0901 	movcs.w	r9, #1
10002d84:	f04f 0900 	movcc.w	r9, #0
10002d88:	4296      	cmp	r6, r2
10002d8a:	d902      	bls.n	10002d92 <__udivmoddi4+0x272>
10002d8c:	f1b9 0f00 	cmp.w	r9, #0
10002d90:	d031      	beq.n	10002df6 <__udivmoddi4+0x2d6>
10002d92:	4640      	mov	r0, r8
10002d94:	1b92      	subs	r2, r2, r6
10002d96:	b289      	uxth	r1, r1
10002d98:	fbb2 f6fe 	udiv	r6, r2, lr
10002d9c:	fb0e 2216 	mls	r2, lr, r6, r2
10002da0:	ea41 4102 	orr.w	r1, r1, r2, lsl #16
10002da4:	fb06 f207 	mul.w	r2, r6, r7
10002da8:	428a      	cmp	r2, r1
10002daa:	d907      	bls.n	10002dbc <__udivmoddi4+0x29c>
10002dac:	eb1c 0101 	adds.w	r1, ip, r1
10002db0:	f106 38ff 	add.w	r8, r6, #4294967295	; 0xffffffff
10002db4:	d201      	bcs.n	10002dba <__udivmoddi4+0x29a>
10002db6:	428a      	cmp	r2, r1
10002db8:	d823      	bhi.n	10002e02 <__udivmoddi4+0x2e2>
10002dba:	4646      	mov	r6, r8
10002dbc:	1a89      	subs	r1, r1, r2
10002dbe:	ea46 4600 	orr.w	r6, r6, r0, lsl #16
10002dc2:	e725      	b.n	10002c10 <__udivmoddi4+0xf0>
10002dc4:	462e      	mov	r6, r5
10002dc6:	4628      	mov	r0, r5
10002dc8:	e6f7      	b.n	10002bba <__udivmoddi4+0x9a>
10002dca:	1a84      	subs	r4, r0, r2
10002dcc:	eb61 0303 	sbc.w	r3, r1, r3
10002dd0:	2001      	movs	r0, #1
10002dd2:	461f      	mov	r7, r3
10002dd4:	e70b      	b.n	10002bee <__udivmoddi4+0xce>
10002dd6:	4464      	add	r4, ip
10002dd8:	3802      	subs	r0, #2
10002dda:	e749      	b.n	10002c70 <__udivmoddi4+0x150>
10002ddc:	4464      	add	r4, ip
10002dde:	3802      	subs	r0, #2
10002de0:	e6e1      	b.n	10002ba6 <__udivmoddi4+0x86>
10002de2:	3a02      	subs	r2, #2
10002de4:	4461      	add	r1, ip
10002de6:	e72e      	b.n	10002c46 <__udivmoddi4+0x126>
10002de8:	3e02      	subs	r6, #2
10002dea:	4462      	add	r2, ip
10002dec:	e6c6      	b.n	10002b7c <__udivmoddi4+0x5c>
10002dee:	f1a8 0802 	sub.w	r8, r8, #2
10002df2:	4461      	add	r1, ip
10002df4:	e76f      	b.n	10002cd6 <__udivmoddi4+0x1b6>
10002df6:	3802      	subs	r0, #2
10002df8:	4462      	add	r2, ip
10002dfa:	e7cb      	b.n	10002d94 <__udivmoddi4+0x274>
10002dfc:	3802      	subs	r0, #2
10002dfe:	4461      	add	r1, ip
10002e00:	e77d      	b.n	10002cfe <__udivmoddi4+0x1de>
10002e02:	3e02      	subs	r6, #2
10002e04:	4461      	add	r1, ip
10002e06:	e7d9      	b.n	10002dbc <__udivmoddi4+0x29c>
10002e08:	462e      	mov	r6, r5
10002e0a:	e6d6      	b.n	10002bba <__udivmoddi4+0x9a>

10002e0c <selfrel_offset31>:
10002e0c:	6803      	ldr	r3, [r0, #0]
10002e0e:	005a      	lsls	r2, r3, #1
10002e10:	bf4c      	ite	mi
10002e12:	f043 4300 	orrmi.w	r3, r3, #2147483648	; 0x80000000
10002e16:	f023 4300 	bicpl.w	r3, r3, #2147483648	; 0x80000000
10002e1a:	4418      	add	r0, r3
10002e1c:	4770      	bx	lr
10002e1e:	bf00      	nop

10002e20 <search_EIT_table>:
10002e20:	e92d 47f0 	stmdb	sp!, {r4, r5, r6, r7, r8, r9, sl, lr}
10002e24:	b339      	cbz	r1, 10002e76 <search_EIT_table+0x56>
10002e26:	f101 38ff 	add.w	r8, r1, #4294967295	; 0xffffffff
10002e2a:	4606      	mov	r6, r0
10002e2c:	4617      	mov	r7, r2
10002e2e:	f04f 0900 	mov.w	r9, #0
10002e32:	4645      	mov	r5, r8
10002e34:	eb19 0105 	adds.w	r1, r9, r5
10002e38:	bf48      	it	mi
10002e3a:	3101      	addmi	r1, #1
10002e3c:	1049      	asrs	r1, r1, #1
10002e3e:	eb06 0ac1 	add.w	sl, r6, r1, lsl #3
10002e42:	00cc      	lsls	r4, r1, #3
10002e44:	4650      	mov	r0, sl
10002e46:	f7ff ffe1 	bl	10002e0c <selfrel_offset31>
10002e4a:	3408      	adds	r4, #8
10002e4c:	4588      	cmp	r8, r1
10002e4e:	4603      	mov	r3, r0
10002e50:	eb06 0004 	add.w	r0, r6, r4
10002e54:	d009      	beq.n	10002e6a <search_EIT_table+0x4a>
10002e56:	42bb      	cmp	r3, r7
10002e58:	d809      	bhi.n	10002e6e <search_EIT_table+0x4e>
10002e5a:	f7ff ffd7 	bl	10002e0c <selfrel_offset31>
10002e5e:	3801      	subs	r0, #1
10002e60:	f101 0901 	add.w	r9, r1, #1
10002e64:	42b8      	cmp	r0, r7
10002e66:	d3e5      	bcc.n	10002e34 <search_EIT_table+0x14>
10002e68:	e007      	b.n	10002e7a <search_EIT_table+0x5a>
10002e6a:	42bb      	cmp	r3, r7
10002e6c:	d905      	bls.n	10002e7a <search_EIT_table+0x5a>
10002e6e:	4589      	cmp	r9, r1
10002e70:	f101 35ff 	add.w	r5, r1, #4294967295	; 0xffffffff
10002e74:	d1de      	bne.n	10002e34 <search_EIT_table+0x14>
10002e76:	f04f 0a00 	mov.w	sl, #0
10002e7a:	4650      	mov	r0, sl
10002e7c:	e8bd 87f0 	ldmia.w	sp!, {r4, r5, r6, r7, r8, r9, sl, pc}

10002e80 <__gnu_unwind_get_pr_addr>:
10002e80:	2801      	cmp	r0, #1
10002e82:	d007      	beq.n	10002e94 <__gnu_unwind_get_pr_addr+0x14>
10002e84:	2802      	cmp	r0, #2
10002e86:	d007      	beq.n	10002e98 <__gnu_unwind_get_pr_addr+0x18>
10002e88:	2800      	cmp	r0, #0
10002e8a:	4b04      	ldr	r3, [pc, #16]	; (10002e9c <__gnu_unwind_get_pr_addr+0x1c>)
10002e8c:	bf14      	ite	ne
10002e8e:	2000      	movne	r0, #0
10002e90:	4618      	moveq	r0, r3
10002e92:	4770      	bx	lr
10002e94:	4802      	ldr	r0, [pc, #8]	; (10002ea0 <__gnu_unwind_get_pr_addr+0x20>)
10002e96:	4770      	bx	lr
10002e98:	4802      	ldr	r0, [pc, #8]	; (10002ea4 <__gnu_unwind_get_pr_addr+0x24>)
10002e9a:	4770      	bx	lr
10002e9c:	10003591 	mulne	r0, r1, r5
10002ea0:	10003595 	mulne	r0, r5, r5
10002ea4:	10003599 	mulne	r0, r9, r5

10002ea8 <get_eit_entry>:
10002ea8:	4b23      	ldr	r3, [pc, #140]	; (10002f38 <get_eit_entry+0x90>)
10002eaa:	b530      	push	{r4, r5, lr}
10002eac:	4604      	mov	r4, r0
10002eae:	b083      	sub	sp, #12
10002eb0:	1e8d      	subs	r5, r1, #2
10002eb2:	b343      	cbz	r3, 10002f06 <get_eit_entry+0x5e>
10002eb4:	a901      	add	r1, sp, #4
10002eb6:	4628      	mov	r0, r5
10002eb8:	e000      	b.n	10002ebc <get_eit_entry+0x14>
10002eba:	bf00      	nop
10002ebc:	b1f0      	cbz	r0, 10002efc <get_eit_entry+0x54>
10002ebe:	9901      	ldr	r1, [sp, #4]
10002ec0:	462a      	mov	r2, r5
10002ec2:	f7ff ffad 	bl	10002e20 <search_EIT_table>
10002ec6:	4601      	mov	r1, r0
10002ec8:	b1c0      	cbz	r0, 10002efc <get_eit_entry+0x54>
10002eca:	f7ff ff9f 	bl	10002e0c <selfrel_offset31>
10002ece:	684b      	ldr	r3, [r1, #4]
10002ed0:	64a0      	str	r0, [r4, #72]	; 0x48
10002ed2:	2b01      	cmp	r3, #1
10002ed4:	d02c      	beq.n	10002f30 <get_eit_entry+0x88>
10002ed6:	2b00      	cmp	r3, #0
10002ed8:	f101 0004 	add.w	r0, r1, #4
10002edc:	db24      	blt.n	10002f28 <get_eit_entry+0x80>
10002ede:	f7ff ff95 	bl	10002e0c <selfrel_offset31>
10002ee2:	2300      	movs	r3, #0
10002ee4:	e9c4 0313 	strd	r0, r3, [r4, #76]	; 0x4c
10002ee8:	6803      	ldr	r3, [r0, #0]
10002eea:	2b00      	cmp	r3, #0
10002eec:	db11      	blt.n	10002f12 <get_eit_entry+0x6a>
10002eee:	f7ff ff8d 	bl	10002e0c <selfrel_offset31>
10002ef2:	4603      	mov	r3, r0
10002ef4:	2000      	movs	r0, #0
10002ef6:	6123      	str	r3, [r4, #16]
10002ef8:	b003      	add	sp, #12
10002efa:	bd30      	pop	{r4, r5, pc}
10002efc:	2300      	movs	r3, #0
10002efe:	2009      	movs	r0, #9
10002f00:	6123      	str	r3, [r4, #16]
10002f02:	b003      	add	sp, #12
10002f04:	bd30      	pop	{r4, r5, pc}
10002f06:	480d      	ldr	r0, [pc, #52]	; (10002f3c <get_eit_entry+0x94>)
10002f08:	490d      	ldr	r1, [pc, #52]	; (10002f40 <get_eit_entry+0x98>)
10002f0a:	1a09      	subs	r1, r1, r0
10002f0c:	10c9      	asrs	r1, r1, #3
10002f0e:	9101      	str	r1, [sp, #4]
10002f10:	e7d6      	b.n	10002ec0 <get_eit_entry+0x18>
10002f12:	f3c3 6003 	ubfx	r0, r3, #24, #4
10002f16:	f7ff ffb3 	bl	10002e80 <__gnu_unwind_get_pr_addr>
10002f1a:	2800      	cmp	r0, #0
10002f1c:	6120      	str	r0, [r4, #16]
10002f1e:	bf14      	ite	ne
10002f20:	2000      	movne	r0, #0
10002f22:	2009      	moveq	r0, #9
10002f24:	b003      	add	sp, #12
10002f26:	bd30      	pop	{r4, r5, pc}
10002f28:	2301      	movs	r3, #1
10002f2a:	e9c4 0313 	strd	r0, r3, [r4, #76]	; 0x4c
10002f2e:	e7db      	b.n	10002ee8 <get_eit_entry+0x40>
10002f30:	2300      	movs	r3, #0
10002f32:	2005      	movs	r0, #5
10002f34:	6123      	str	r3, [r4, #16]
10002f36:	e7df      	b.n	10002ef8 <get_eit_entry+0x50>
10002f38:	00000000 	andeq	r0, r0, r0
10002f3c:	10004468 	andne	r4, r0, r8, ror #8
10002f40:	10004528 	andne	r4, r0, r8, lsr #10

10002f44 <restore_non_core_regs>:
10002f44:	6803      	ldr	r3, [r0, #0]
10002f46:	07da      	lsls	r2, r3, #31
10002f48:	b510      	push	{r4, lr}
10002f4a:	4604      	mov	r4, r0
10002f4c:	d406      	bmi.n	10002f5c <restore_non_core_regs+0x18>
10002f4e:	079b      	lsls	r3, r3, #30
10002f50:	f100 0048 	add.w	r0, r0, #72	; 0x48
10002f54:	d509      	bpl.n	10002f6a <restore_non_core_regs+0x26>
10002f56:	f000 fc8f 	bl	10003878 <__gnu_Unwind_Restore_VFP_D>
10002f5a:	6823      	ldr	r3, [r4, #0]
10002f5c:	0759      	lsls	r1, r3, #29
10002f5e:	d509      	bpl.n	10002f74 <restore_non_core_regs+0x30>
10002f60:	071a      	lsls	r2, r3, #28
10002f62:	d50e      	bpl.n	10002f82 <restore_non_core_regs+0x3e>
10002f64:	06db      	lsls	r3, r3, #27
10002f66:	d513      	bpl.n	10002f90 <restore_non_core_regs+0x4c>
10002f68:	bd10      	pop	{r4, pc}
10002f6a:	f000 fc7d 	bl	10003868 <__gnu_Unwind_Restore_VFP>
10002f6e:	6823      	ldr	r3, [r4, #0]
10002f70:	0759      	lsls	r1, r3, #29
10002f72:	d4f5      	bmi.n	10002f60 <restore_non_core_regs+0x1c>
10002f74:	f104 00d0 	add.w	r0, r4, #208	; 0xd0
10002f78:	f000 fc86 	bl	10003888 <__gnu_Unwind_Restore_VFP_D_16_to_31>
10002f7c:	6823      	ldr	r3, [r4, #0]
10002f7e:	071a      	lsls	r2, r3, #28
10002f80:	d4f0      	bmi.n	10002f64 <restore_non_core_regs+0x20>
10002f82:	f504 70a8 	add.w	r0, r4, #336	; 0x150
10002f86:	f000 fc87 	bl	10003898 <__gnu_Unwind_Restore_WMMXD>
10002f8a:	6823      	ldr	r3, [r4, #0]
10002f8c:	06db      	lsls	r3, r3, #27
10002f8e:	d4eb      	bmi.n	10002f68 <restore_non_core_regs+0x24>
10002f90:	f504 70e8 	add.w	r0, r4, #464	; 0x1d0
10002f94:	e8bd 4010 	ldmia.w	sp!, {r4, lr}
10002f98:	f000 bcc2 	b.w	10003920 <__gnu_Unwind_Restore_WMMXC>

10002f9c <__gnu_unwind_24bit.constprop.0>:
10002f9c:	2009      	movs	r0, #9
10002f9e:	4770      	bx	lr

10002fa0 <_Unwind_decode_typeinfo_ptr.constprop.0>:
10002fa0:	4603      	mov	r3, r0
10002fa2:	6800      	ldr	r0, [r0, #0]
10002fa4:	b100      	cbz	r0, 10002fa8 <_Unwind_decode_typeinfo_ptr.constprop.0+0x8>
10002fa6:	4418      	add	r0, r3
10002fa8:	4770      	bx	lr
10002faa:	bf00      	nop

10002fac <_Unwind_DebugHook>:
10002fac:	4770      	bx	lr
10002fae:	bf00      	nop

10002fb0 <unwind_phase2>:
10002fb0:	b570      	push	{r4, r5, r6, lr}
10002fb2:	4604      	mov	r4, r0
10002fb4:	460e      	mov	r6, r1
10002fb6:	6c31      	ldr	r1, [r6, #64]	; 0x40
10002fb8:	4620      	mov	r0, r4
10002fba:	f7ff ff75 	bl	10002ea8 <get_eit_entry>
10002fbe:	4605      	mov	r5, r0
10002fc0:	b998      	cbnz	r0, 10002fea <unwind_phase2+0x3a>
10002fc2:	f8d6 c040 	ldr.w	ip, [r6, #64]	; 0x40
10002fc6:	4632      	mov	r2, r6
10002fc8:	6923      	ldr	r3, [r4, #16]
10002fca:	4621      	mov	r1, r4
10002fcc:	2001      	movs	r0, #1
10002fce:	f8c4 c014 	str.w	ip, [r4, #20]
10002fd2:	4798      	blx	r3
10002fd4:	2808      	cmp	r0, #8
10002fd6:	d0ee      	beq.n	10002fb6 <unwind_phase2+0x6>
10002fd8:	2807      	cmp	r0, #7
10002fda:	d106      	bne.n	10002fea <unwind_phase2+0x3a>
10002fdc:	4628      	mov	r0, r5
10002fde:	6c31      	ldr	r1, [r6, #64]	; 0x40
10002fe0:	f7ff ffe4 	bl	10002fac <_Unwind_DebugHook>
10002fe4:	1d30      	adds	r0, r6, #4
10002fe6:	f000 fc33 	bl	10003850 <__restore_core_regs>
10002fea:	f000 fec3 	bl	10003d74 <abort>
10002fee:	bf00      	nop

10002ff0 <unwind_phase2_forced>:
10002ff0:	e92d 47f0 	stmdb	sp!, {r4, r5, r6, r7, r8, r9, sl, lr}
10002ff4:	f101 0c04 	add.w	ip, r1, #4
10002ff8:	f5ad 7d74 	sub.w	sp, sp, #976	; 0x3d0
10002ffc:	68c7      	ldr	r7, [r0, #12]
10002ffe:	4606      	mov	r6, r0
10003000:	f8d0 8018 	ldr.w	r8, [r0, #24]
10003004:	4614      	mov	r4, r2
10003006:	f10d 0e14 	add.w	lr, sp, #20
1000300a:	ad04      	add	r5, sp, #16
1000300c:	f04f 0900 	mov.w	r9, #0
10003010:	e8bc 000f 	ldmia.w	ip!, {r0, r1, r2, r3}
10003014:	e8ae 000f 	stmia.w	lr!, {r0, r1, r2, r3}
10003018:	e8bc 000f 	ldmia.w	ip!, {r0, r1, r2, r3}
1000301c:	e8ae 000f 	stmia.w	lr!, {r0, r1, r2, r3}
10003020:	e8bc 000f 	ldmia.w	ip!, {r0, r1, r2, r3}
10003024:	e8ae 000f 	stmia.w	lr!, {r0, r1, r2, r3}
10003028:	e89c 000f 	ldmia.w	ip, {r0, r1, r2, r3}
1000302c:	e88e 000f 	stmia.w	lr, {r0, r1, r2, r3}
10003030:	f8c5 9000 	str.w	r9, [r5]
10003034:	e023      	b.n	1000307e <unwind_phase2_forced+0x8e>
10003036:	6c2b      	ldr	r3, [r5, #64]	; 0x40
10003038:	f44f 72f0 	mov.w	r2, #480	; 0x1e0
1000303c:	4629      	mov	r1, r5
1000303e:	a87c      	add	r0, sp, #496	; 0x1f0
10003040:	6173      	str	r3, [r6, #20]
10003042:	f000 fe9f 	bl	10003d84 <memcpy>
10003046:	aa7c      	add	r2, sp, #496	; 0x1f0
10003048:	4631      	mov	r1, r6
1000304a:	6933      	ldr	r3, [r6, #16]
1000304c:	4650      	mov	r0, sl
1000304e:	4798      	blx	r3
10003050:	9b8a      	ldr	r3, [sp, #552]	; 0x228
10003052:	4621      	mov	r1, r4
10003054:	4681      	mov	r9, r0
10003056:	9303      	str	r3, [sp, #12]
10003058:	4632      	mov	r2, r6
1000305a:	9c03      	ldr	r4, [sp, #12]
1000305c:	4633      	mov	r3, r6
1000305e:	2001      	movs	r0, #1
10003060:	646c      	str	r4, [r5, #68]	; 0x44
10003062:	e9cd 5800 	strd	r5, r8, [sp]
10003066:	47b8      	blx	r7
10003068:	4604      	mov	r4, r0
1000306a:	b9e8      	cbnz	r0, 100030a8 <unwind_phase2_forced+0xb8>
1000306c:	f44f 72f0 	mov.w	r2, #480	; 0x1e0
10003070:	a97c      	add	r1, sp, #496	; 0x1f0
10003072:	4628      	mov	r0, r5
10003074:	f000 fe86 	bl	10003d84 <memcpy>
10003078:	f1b9 0f08 	cmp.w	r9, #8
1000307c:	d11b      	bne.n	100030b6 <unwind_phase2_forced+0xc6>
1000307e:	3409      	adds	r4, #9
10003080:	6c29      	ldr	r1, [r5, #64]	; 0x40
10003082:	4630      	mov	r0, r6
10003084:	f7ff ff10 	bl	10002ea8 <get_eit_entry>
10003088:	4681      	mov	r9, r0
1000308a:	fa5f fa84 	uxtb.w	sl, r4
1000308e:	2800      	cmp	r0, #0
10003090:	d0d1      	beq.n	10003036 <unwind_phase2_forced+0x46>
10003092:	6bac      	ldr	r4, [r5, #56]	; 0x38
10003094:	4633      	mov	r3, r6
10003096:	4632      	mov	r2, r6
10003098:	f04a 0110 	orr.w	r1, sl, #16
1000309c:	646c      	str	r4, [r5, #68]	; 0x44
1000309e:	2001      	movs	r0, #1
100030a0:	e9cd 5800 	strd	r5, r8, [sp]
100030a4:	47b8      	blx	r7
100030a6:	b108      	cbz	r0, 100030ac <unwind_phase2_forced+0xbc>
100030a8:	f04f 0909 	mov.w	r9, #9
100030ac:	4648      	mov	r0, r9
100030ae:	f50d 7d74 	add.w	sp, sp, #976	; 0x3d0
100030b2:	e8bd 87f0 	ldmia.w	sp!, {r4, r5, r6, r7, r8, r9, sl, pc}
100030b6:	f1b9 0f07 	cmp.w	r9, #7
100030ba:	d1f5      	bne.n	100030a8 <unwind_phase2_forced+0xb8>
100030bc:	4620      	mov	r0, r4
100030be:	6c29      	ldr	r1, [r5, #64]	; 0x40
100030c0:	f7ff ff74 	bl	10002fac <_Unwind_DebugHook>
100030c4:	a805      	add	r0, sp, #20
100030c6:	f000 fbc3 	bl	10003850 <__restore_core_regs>
100030ca:	bf00      	nop

100030cc <_Unwind_GetCFA>:
100030cc:	6c40      	ldr	r0, [r0, #68]	; 0x44
100030ce:	4770      	bx	lr

100030d0 <__gnu_Unwind_RaiseException>:
100030d0:	b5f0      	push	{r4, r5, r6, r7, lr}
100030d2:	6bcb      	ldr	r3, [r1, #60]	; 0x3c
100030d4:	b0f9      	sub	sp, #484	; 0x1e4
100030d6:	f101 0c04 	add.w	ip, r1, #4
100030da:	460e      	mov	r6, r1
100030dc:	640b      	str	r3, [r1, #64]	; 0x40
100030de:	ac01      	add	r4, sp, #4
100030e0:	4605      	mov	r5, r0
100030e2:	f04f 37ff 	mov.w	r7, #4294967295	; 0xffffffff
100030e6:	e8bc 000f 	ldmia.w	ip!, {r0, r1, r2, r3}
100030ea:	c40f      	stmia	r4!, {r0, r1, r2, r3}
100030ec:	e8bc 000f 	ldmia.w	ip!, {r0, r1, r2, r3}
100030f0:	c40f      	stmia	r4!, {r0, r1, r2, r3}
100030f2:	e8bc 000f 	ldmia.w	ip!, {r0, r1, r2, r3}
100030f6:	c40f      	stmia	r4!, {r0, r1, r2, r3}
100030f8:	e89c 000f 	ldmia.w	ip, {r0, r1, r2, r3}
100030fc:	e884 000f 	stmia.w	r4, {r0, r1, r2, r3}
10003100:	9700      	str	r7, [sp, #0]
10003102:	e006      	b.n	10003112 <__gnu_Unwind_RaiseException+0x42>
10003104:	692b      	ldr	r3, [r5, #16]
10003106:	466a      	mov	r2, sp
10003108:	4629      	mov	r1, r5
1000310a:	4798      	blx	r3
1000310c:	2808      	cmp	r0, #8
1000310e:	4604      	mov	r4, r0
10003110:	d108      	bne.n	10003124 <__gnu_Unwind_RaiseException+0x54>
10003112:	9910      	ldr	r1, [sp, #64]	; 0x40
10003114:	4628      	mov	r0, r5
10003116:	f7ff fec7 	bl	10002ea8 <get_eit_entry>
1000311a:	2800      	cmp	r0, #0
1000311c:	d0f2      	beq.n	10003104 <__gnu_Unwind_RaiseException+0x34>
1000311e:	2009      	movs	r0, #9
10003120:	b079      	add	sp, #484	; 0x1e4
10003122:	bdf0      	pop	{r4, r5, r6, r7, pc}
10003124:	4668      	mov	r0, sp
10003126:	f7ff ff0d 	bl	10002f44 <restore_non_core_regs>
1000312a:	2c06      	cmp	r4, #6
1000312c:	d1f7      	bne.n	1000311e <__gnu_Unwind_RaiseException+0x4e>
1000312e:	4631      	mov	r1, r6
10003130:	4628      	mov	r0, r5
10003132:	f7ff ff3d 	bl	10002fb0 <unwind_phase2>
10003136:	bf00      	nop

10003138 <__gnu_Unwind_ForcedUnwind>:
10003138:	b410      	push	{r4}
1000313a:	6bdc      	ldr	r4, [r3, #60]	; 0x3c
1000313c:	60c1      	str	r1, [r0, #12]
1000313e:	4619      	mov	r1, r3
10003140:	6182      	str	r2, [r0, #24]
10003142:	2200      	movs	r2, #0
10003144:	641c      	str	r4, [r3, #64]	; 0x40
10003146:	bc10      	pop	{r4}
10003148:	e752      	b.n	10002ff0 <unwind_phase2_forced>
1000314a:	bf00      	nop

1000314c <__gnu_Unwind_Resume>:
1000314c:	b570      	push	{r4, r5, r6, lr}
1000314e:	6943      	ldr	r3, [r0, #20]
10003150:	68c6      	ldr	r6, [r0, #12]
10003152:	640b      	str	r3, [r1, #64]	; 0x40
10003154:	b9ae      	cbnz	r6, 10003182 <__gnu_Unwind_Resume+0x36>
10003156:	6903      	ldr	r3, [r0, #16]
10003158:	460a      	mov	r2, r1
1000315a:	4604      	mov	r4, r0
1000315c:	460d      	mov	r5, r1
1000315e:	4601      	mov	r1, r0
10003160:	2002      	movs	r0, #2
10003162:	4798      	blx	r3
10003164:	2807      	cmp	r0, #7
10003166:	d005      	beq.n	10003174 <__gnu_Unwind_Resume+0x28>
10003168:	2808      	cmp	r0, #8
1000316a:	d10f      	bne.n	1000318c <__gnu_Unwind_Resume+0x40>
1000316c:	4629      	mov	r1, r5
1000316e:	4620      	mov	r0, r4
10003170:	f7ff ff1e 	bl	10002fb0 <unwind_phase2>
10003174:	4630      	mov	r0, r6
10003176:	6c29      	ldr	r1, [r5, #64]	; 0x40
10003178:	f7ff ff18 	bl	10002fac <_Unwind_DebugHook>
1000317c:	1d28      	adds	r0, r5, #4
1000317e:	f000 fb67 	bl	10003850 <__restore_core_regs>
10003182:	2201      	movs	r2, #1
10003184:	f7ff ff34 	bl	10002ff0 <unwind_phase2_forced>
10003188:	f000 fdf4 	bl	10003d74 <abort>
1000318c:	f000 fdf2 	bl	10003d74 <abort>

10003190 <__gnu_Unwind_Resume_or_Rethrow>:
10003190:	68c2      	ldr	r2, [r0, #12]
10003192:	b12a      	cbz	r2, 100031a0 <__gnu_Unwind_Resume_or_Rethrow+0x10>
10003194:	f8d1 c03c 	ldr.w	ip, [r1, #60]	; 0x3c
10003198:	2200      	movs	r2, #0
1000319a:	f8c1 c040 	str.w	ip, [r1, #64]	; 0x40
1000319e:	e727      	b.n	10002ff0 <unwind_phase2_forced>
100031a0:	e796      	b.n	100030d0 <__gnu_Unwind_RaiseException>
100031a2:	bf00      	nop

100031a4 <_Unwind_Complete>:
100031a4:	4770      	bx	lr
100031a6:	bf00      	nop

100031a8 <_Unwind_DeleteException>:
100031a8:	6883      	ldr	r3, [r0, #8]
100031aa:	4601      	mov	r1, r0
100031ac:	b10b      	cbz	r3, 100031b2 <_Unwind_DeleteException+0xa>
100031ae:	2001      	movs	r0, #1
100031b0:	4718      	bx	r3
100031b2:	4770      	bx	lr

100031b4 <_Unwind_VRS_Get>:
100031b4:	2901      	cmp	r1, #1
100031b6:	d015      	beq.n	100031e4 <_Unwind_VRS_Get+0x30>
100031b8:	d80c      	bhi.n	100031d4 <_Unwind_VRS_Get+0x20>
100031ba:	b98b      	cbnz	r3, 100031e0 <_Unwind_VRS_Get+0x2c>
100031bc:	2a0f      	cmp	r2, #15
100031be:	bf94      	ite	ls
100031c0:	2100      	movls	r1, #0
100031c2:	2101      	movhi	r1, #1
100031c4:	b961      	cbnz	r1, 100031e0 <_Unwind_VRS_Get+0x2c>
100031c6:	eb00 0282 	add.w	r2, r0, r2, lsl #2
100031ca:	4608      	mov	r0, r1
100031cc:	6853      	ldr	r3, [r2, #4]
100031ce:	9a00      	ldr	r2, [sp, #0]
100031d0:	6013      	str	r3, [r2, #0]
100031d2:	4770      	bx	lr
100031d4:	3903      	subs	r1, #3
100031d6:	2901      	cmp	r1, #1
100031d8:	bf94      	ite	ls
100031da:	2001      	movls	r0, #1
100031dc:	2002      	movhi	r0, #2
100031de:	4770      	bx	lr
100031e0:	2002      	movs	r0, #2
100031e2:	4770      	bx	lr
100031e4:	4608      	mov	r0, r1
100031e6:	4770      	bx	lr

100031e8 <_Unwind_GetGR>:
100031e8:	b510      	push	{r4, lr}
100031ea:	b084      	sub	sp, #16
100031ec:	2300      	movs	r3, #0
100031ee:	460a      	mov	r2, r1
100031f0:	ac03      	add	r4, sp, #12
100031f2:	4619      	mov	r1, r3
100031f4:	9400      	str	r4, [sp, #0]
100031f6:	f7ff ffdd 	bl	100031b4 <_Unwind_VRS_Get>
100031fa:	9803      	ldr	r0, [sp, #12]
100031fc:	b004      	add	sp, #16
100031fe:	bd10      	pop	{r4, pc}

10003200 <_Unwind_VRS_Set>:
10003200:	2901      	cmp	r1, #1
10003202:	d015      	beq.n	10003230 <_Unwind_VRS_Set+0x30>
10003204:	d80c      	bhi.n	10003220 <_Unwind_VRS_Set+0x20>
10003206:	b98b      	cbnz	r3, 1000322c <_Unwind_VRS_Set+0x2c>
10003208:	2a0f      	cmp	r2, #15
1000320a:	bf94      	ite	ls
1000320c:	2100      	movls	r1, #0
1000320e:	2101      	movhi	r1, #1
10003210:	b961      	cbnz	r1, 1000322c <_Unwind_VRS_Set+0x2c>
10003212:	9b00      	ldr	r3, [sp, #0]
10003214:	eb00 0282 	add.w	r2, r0, r2, lsl #2
10003218:	4608      	mov	r0, r1
1000321a:	681b      	ldr	r3, [r3, #0]
1000321c:	6053      	str	r3, [r2, #4]
1000321e:	4770      	bx	lr
10003220:	3903      	subs	r1, #3
10003222:	2901      	cmp	r1, #1
10003224:	bf94      	ite	ls
10003226:	2001      	movls	r0, #1
10003228:	2002      	movhi	r0, #2
1000322a:	4770      	bx	lr
1000322c:	2002      	movs	r0, #2
1000322e:	4770      	bx	lr
10003230:	4608      	mov	r0, r1
10003232:	4770      	bx	lr

10003234 <_Unwind_SetGR>:
10003234:	b510      	push	{r4, lr}
10003236:	b084      	sub	sp, #16
10003238:	2300      	movs	r3, #0
1000323a:	ac03      	add	r4, sp, #12
1000323c:	9203      	str	r2, [sp, #12]
1000323e:	460a      	mov	r2, r1
10003240:	4619      	mov	r1, r3
10003242:	9400      	str	r4, [sp, #0]
10003244:	f7ff ffdc 	bl	10003200 <_Unwind_VRS_Set>
10003248:	b004      	add	sp, #16
1000324a:	bd10      	pop	{r4, pc}

1000324c <__gnu_Unwind_Backtrace>:
1000324c:	b5f0      	push	{r4, r5, r6, r7, lr}
1000324e:	6bd3      	ldr	r3, [r2, #60]	; 0x3c
10003250:	f5ad 7d0f 	sub.w	sp, sp, #572	; 0x23c
10003254:	1d14      	adds	r4, r2, #4
10003256:	4606      	mov	r6, r0
10003258:	6413      	str	r3, [r2, #64]	; 0x40
1000325a:	f10d 0c5c 	add.w	ip, sp, #92	; 0x5c
1000325e:	460d      	mov	r5, r1
10003260:	f04f 37ff 	mov.w	r7, #4294967295	; 0xffffffff
10003264:	cc0f      	ldmia	r4!, {r0, r1, r2, r3}
10003266:	e8ac 000f 	stmia.w	ip!, {r0, r1, r2, r3}
1000326a:	cc0f      	ldmia	r4!, {r0, r1, r2, r3}
1000326c:	e8ac 000f 	stmia.w	ip!, {r0, r1, r2, r3}
10003270:	cc0f      	ldmia	r4!, {r0, r1, r2, r3}
10003272:	e8ac 000f 	stmia.w	ip!, {r0, r1, r2, r3}
10003276:	e894 000f 	ldmia.w	r4, {r0, r1, r2, r3}
1000327a:	e88c 000f 	stmia.w	ip, {r0, r1, r2, r3}
1000327e:	9716      	str	r7, [sp, #88]	; 0x58
10003280:	e010      	b.n	100032a4 <__gnu_Unwind_Backtrace+0x58>
10003282:	f7ff ffd7 	bl	10003234 <_Unwind_SetGR>
10003286:	4629      	mov	r1, r5
10003288:	a816      	add	r0, sp, #88	; 0x58
1000328a:	47b0      	blx	r6
1000328c:	4603      	mov	r3, r0
1000328e:	aa16      	add	r2, sp, #88	; 0x58
10003290:	4669      	mov	r1, sp
10003292:	2008      	movs	r0, #8
10003294:	b983      	cbnz	r3, 100032b8 <__gnu_Unwind_Backtrace+0x6c>
10003296:	9b04      	ldr	r3, [sp, #16]
10003298:	4798      	blx	r3
1000329a:	2805      	cmp	r0, #5
1000329c:	4604      	mov	r4, r0
1000329e:	d00c      	beq.n	100032ba <__gnu_Unwind_Backtrace+0x6e>
100032a0:	2809      	cmp	r0, #9
100032a2:	d00a      	beq.n	100032ba <__gnu_Unwind_Backtrace+0x6e>
100032a4:	9926      	ldr	r1, [sp, #152]	; 0x98
100032a6:	4668      	mov	r0, sp
100032a8:	f7ff fdfe 	bl	10002ea8 <get_eit_entry>
100032ac:	4603      	mov	r3, r0
100032ae:	466a      	mov	r2, sp
100032b0:	210c      	movs	r1, #12
100032b2:	a816      	add	r0, sp, #88	; 0x58
100032b4:	2b00      	cmp	r3, #0
100032b6:	d0e4      	beq.n	10003282 <__gnu_Unwind_Backtrace+0x36>
100032b8:	2409      	movs	r4, #9
100032ba:	a816      	add	r0, sp, #88	; 0x58
100032bc:	f7ff fe42 	bl	10002f44 <restore_non_core_regs>
100032c0:	4620      	mov	r0, r4
100032c2:	f50d 7d0f 	add.w	sp, sp, #572	; 0x23c
100032c6:	bdf0      	pop	{r4, r5, r6, r7, pc}

100032c8 <__gnu_unwind_pr_common>:
100032c8:	e92d 4ff0 	stmdb	sp!, {r4, r5, r6, r7, r8, r9, sl, fp, lr}
100032cc:	6ccc      	ldr	r4, [r1, #76]	; 0x4c
100032ce:	b089      	sub	sp, #36	; 0x24
100032d0:	461e      	mov	r6, r3
100032d2:	460d      	mov	r5, r1
100032d4:	f854 3b04 	ldr.w	r3, [r4], #4
100032d8:	4617      	mov	r7, r2
100032da:	f000 0803 	and.w	r8, r0, #3
100032de:	9406      	str	r4, [sp, #24]
100032e0:	2e00      	cmp	r6, #0
100032e2:	d07f      	beq.n	100033e4 <__gnu_unwind_pr_common+0x11c>
100032e4:	0c1a      	lsrs	r2, r3, #16
100032e6:	041b      	lsls	r3, r3, #16
100032e8:	f88d 201d 	strb.w	r2, [sp, #29]
100032ec:	b2d2      	uxtb	r2, r2
100032ee:	9305      	str	r3, [sp, #20]
100032f0:	2302      	movs	r3, #2
100032f2:	eb04 0482 	add.w	r4, r4, r2, lsl #2
100032f6:	f88d 301c 	strb.w	r3, [sp, #28]
100032fa:	f1b8 0f02 	cmp.w	r8, #2
100032fe:	6d2b      	ldr	r3, [r5, #80]	; 0x50
10003300:	bf08      	it	eq
10003302:	6bac      	ldreq	r4, [r5, #56]	; 0x38
10003304:	f013 0301 	ands.w	r3, r3, #1
10003308:	d008      	beq.n	1000331c <__gnu_unwind_pr_common+0x54>
1000330a:	a905      	add	r1, sp, #20
1000330c:	4638      	mov	r0, r7
1000330e:	f000 fba1 	bl	10003a54 <__gnu_unwind_execute>
10003312:	bb90      	cbnz	r0, 1000337a <__gnu_unwind_pr_common+0xb2>
10003314:	2008      	movs	r0, #8
10003316:	b009      	add	sp, #36	; 0x24
10003318:	e8bd 8ff0 	ldmia.w	sp!, {r4, r5, r6, r7, r8, r9, sl, fp, pc}
1000331c:	f8d4 a000 	ldr.w	sl, [r4]
10003320:	f1ba 0f00 	cmp.w	sl, #0
10003324:	d0f1      	beq.n	1000330a <__gnu_unwind_pr_common+0x42>
10003326:	9301      	str	r3, [sp, #4]
10003328:	f000 0308 	and.w	r3, r0, #8
1000332c:	9302      	str	r3, [sp, #8]
1000332e:	2e02      	cmp	r6, #2
10003330:	d054      	beq.n	100033dc <__gnu_unwind_pr_common+0x114>
10003332:	f8b4 a000 	ldrh.w	sl, [r4]
10003336:	3404      	adds	r4, #4
10003338:	f834 9c02 	ldrh.w	r9, [r4, #-2]
1000333c:	6cab      	ldr	r3, [r5, #72]	; 0x48
1000333e:	f029 0b01 	bic.w	fp, r9, #1
10003342:	210f      	movs	r1, #15
10003344:	4638      	mov	r0, r7
10003346:	449b      	add	fp, r3
10003348:	f7ff ff4e 	bl	100031e8 <_Unwind_GetGR>
1000334c:	4583      	cmp	fp, r0
1000334e:	d818      	bhi.n	10003382 <__gnu_unwind_pr_common+0xba>
10003350:	f02a 0301 	bic.w	r3, sl, #1
10003354:	449b      	add	fp, r3
10003356:	4583      	cmp	fp, r0
10003358:	d913      	bls.n	10003382 <__gnu_unwind_pr_common+0xba>
1000335a:	ea4f 0349 	mov.w	r3, r9, lsl #1
1000335e:	f00a 0a01 	and.w	sl, sl, #1
10003362:	f003 0302 	and.w	r3, r3, #2
10003366:	ea43 030a 	orr.w	r3, r3, sl
1000336a:	2b01      	cmp	r3, #1
1000336c:	f000 80bf 	beq.w	100034ee <__gnu_unwind_pr_common+0x226>
10003370:	2b02      	cmp	r3, #2
10003372:	f000 8089 	beq.w	10003488 <__gnu_unwind_pr_common+0x1c0>
10003376:	2b00      	cmp	r3, #0
10003378:	d04d      	beq.n	10003416 <__gnu_unwind_pr_common+0x14e>
1000337a:	2009      	movs	r0, #9
1000337c:	b009      	add	sp, #36	; 0x24
1000337e:	e8bd 8ff0 	ldmia.w	sp!, {r4, r5, r6, r7, r8, r9, sl, fp, pc}
10003382:	ea4f 0349 	mov.w	r3, r9, lsl #1
10003386:	f00a 0a01 	and.w	sl, sl, #1
1000338a:	f003 0302 	and.w	r3, r3, #2
1000338e:	ea43 030a 	orr.w	r3, r3, sl
10003392:	2b01      	cmp	r3, #1
10003394:	d03a      	beq.n	1000340c <__gnu_unwind_pr_common+0x144>
10003396:	2b02      	cmp	r3, #2
10003398:	d02a      	beq.n	100033f0 <__gnu_unwind_pr_common+0x128>
1000339a:	2b00      	cmp	r3, #0
1000339c:	d1ed      	bne.n	1000337a <__gnu_unwind_pr_common+0xb2>
1000339e:	3404      	adds	r4, #4
100033a0:	f8d4 a000 	ldr.w	sl, [r4]
100033a4:	f1ba 0f00 	cmp.w	sl, #0
100033a8:	d1c1      	bne.n	1000332e <__gnu_unwind_pr_common+0x66>
100033aa:	a905      	add	r1, sp, #20
100033ac:	4638      	mov	r0, r7
100033ae:	f000 fb51 	bl	10003a54 <__gnu_unwind_execute>
100033b2:	2800      	cmp	r0, #0
100033b4:	d1e1      	bne.n	1000337a <__gnu_unwind_pr_common+0xb2>
100033b6:	9b01      	ldr	r3, [sp, #4]
100033b8:	2b00      	cmp	r3, #0
100033ba:	d0ab      	beq.n	10003314 <__gnu_unwind_pr_common+0x4c>
100033bc:	210f      	movs	r1, #15
100033be:	4638      	mov	r0, r7
100033c0:	f7ff ff12 	bl	100031e8 <_Unwind_GetGR>
100033c4:	210e      	movs	r1, #14
100033c6:	4602      	mov	r2, r0
100033c8:	4638      	mov	r0, r7
100033ca:	f7ff ff33 	bl	10003234 <_Unwind_SetGR>
100033ce:	4638      	mov	r0, r7
100033d0:	4a6e      	ldr	r2, [pc, #440]	; (1000358c <__gnu_unwind_pr_common+0x2c4>)
100033d2:	210f      	movs	r1, #15
100033d4:	f7ff ff2e 	bl	10003234 <_Unwind_SetGR>
100033d8:	2007      	movs	r0, #7
100033da:	e7cf      	b.n	1000337c <__gnu_unwind_pr_common+0xb4>
100033dc:	f8d4 9004 	ldr.w	r9, [r4, #4]
100033e0:	3408      	adds	r4, #8
100033e2:	e7ab      	b.n	1000333c <__gnu_unwind_pr_common+0x74>
100033e4:	021b      	lsls	r3, r3, #8
100033e6:	9305      	str	r3, [sp, #20]
100033e8:	2303      	movs	r3, #3
100033ea:	f8ad 301c 	strh.w	r3, [sp, #28]
100033ee:	e784      	b.n	100032fa <__gnu_unwind_pr_common+0x32>
100033f0:	6823      	ldr	r3, [r4, #0]
100033f2:	f023 4b00 	bic.w	fp, r3, #2147483648	; 0x80000000
100033f6:	f1b8 0f00 	cmp.w	r8, #0
100033fa:	d121      	bne.n	10003440 <__gnu_unwind_pr_common+0x178>
100033fc:	2b00      	cmp	r3, #0
100033fe:	da00      	bge.n	10003402 <__gnu_unwind_pr_common+0x13a>
10003400:	3404      	adds	r4, #4
10003402:	f10b 0b01 	add.w	fp, fp, #1
10003406:	eb04 048b 	add.w	r4, r4, fp, lsl #2
1000340a:	e7c9      	b.n	100033a0 <__gnu_unwind_pr_common+0xd8>
1000340c:	f1b8 0f00 	cmp.w	r8, #0
10003410:	d120      	bne.n	10003454 <__gnu_unwind_pr_common+0x18c>
10003412:	3408      	adds	r4, #8
10003414:	e7c4      	b.n	100033a0 <__gnu_unwind_pr_common+0xd8>
10003416:	f1b8 0f00 	cmp.w	r8, #0
1000341a:	d0c0      	beq.n	1000339e <__gnu_unwind_pr_common+0xd6>
1000341c:	4620      	mov	r0, r4
1000341e:	3404      	adds	r4, #4
10003420:	f7ff fcf4 	bl	10002e0c <selfrel_offset31>
10003424:	4606      	mov	r6, r0
10003426:	63ac      	str	r4, [r5, #56]	; 0x38
10003428:	4628      	mov	r0, r5
1000342a:	e000      	b.n	1000342e <__gnu_unwind_pr_common+0x166>
1000342c:	bf00      	nop
1000342e:	2800      	cmp	r0, #0
10003430:	d0a3      	beq.n	1000337a <__gnu_unwind_pr_common+0xb2>
10003432:	4638      	mov	r0, r7
10003434:	4632      	mov	r2, r6
10003436:	210f      	movs	r1, #15
10003438:	f7ff fefc 	bl	10003234 <_Unwind_SetGR>
1000343c:	2007      	movs	r0, #7
1000343e:	e79d      	b.n	1000337c <__gnu_unwind_pr_common+0xb4>
10003440:	f8d5 9020 	ldr.w	r9, [r5, #32]
10003444:	210d      	movs	r1, #13
10003446:	4638      	mov	r0, r7
10003448:	f7ff fece 	bl	100031e8 <_Unwind_GetGR>
1000344c:	4581      	cmp	r9, r0
1000344e:	d079      	beq.n	10003544 <__gnu_unwind_pr_common+0x27c>
10003450:	6823      	ldr	r3, [r4, #0]
10003452:	e7d3      	b.n	100033fc <__gnu_unwind_pr_common+0x134>
10003454:	f8d5 9020 	ldr.w	r9, [r5, #32]
10003458:	210d      	movs	r1, #13
1000345a:	4638      	mov	r0, r7
1000345c:	f7ff fec4 	bl	100031e8 <_Unwind_GetGR>
10003460:	4581      	cmp	r9, r0
10003462:	d1d6      	bne.n	10003412 <__gnu_unwind_pr_common+0x14a>
10003464:	6aab      	ldr	r3, [r5, #40]	; 0x28
10003466:	429c      	cmp	r4, r3
10003468:	d1d3      	bne.n	10003412 <__gnu_unwind_pr_common+0x14a>
1000346a:	4620      	mov	r0, r4
1000346c:	210f      	movs	r1, #15
1000346e:	f7ff fccd 	bl	10002e0c <selfrel_offset31>
10003472:	4602      	mov	r2, r0
10003474:	4638      	mov	r0, r7
10003476:	f7ff fedd 	bl	10003234 <_Unwind_SetGR>
1000347a:	4638      	mov	r0, r7
1000347c:	462a      	mov	r2, r5
1000347e:	2100      	movs	r1, #0
10003480:	f7ff fed8 	bl	10003234 <_Unwind_SetGR>
10003484:	2007      	movs	r0, #7
10003486:	e779      	b.n	1000337c <__gnu_unwind_pr_common+0xb4>
10003488:	6823      	ldr	r3, [r4, #0]
1000348a:	f023 4b00 	bic.w	fp, r3, #2147483648	; 0x80000000
1000348e:	f1b8 0f00 	cmp.w	r8, #0
10003492:	d1d5      	bne.n	10003440 <__gnu_unwind_pr_common+0x178>
10003494:	9a02      	ldr	r2, [sp, #8]
10003496:	b112      	cbz	r2, 1000349e <__gnu_unwind_pr_common+0x1d6>
10003498:	f1bb 0f00 	cmp.w	fp, #0
1000349c:	d1ae      	bne.n	100033fc <__gnu_unwind_pr_common+0x134>
1000349e:	f105 0358 	add.w	r3, r5, #88	; 0x58
100034a2:	f8cd 800c 	str.w	r8, [sp, #12]
100034a6:	f104 0a04 	add.w	sl, r4, #4
100034aa:	46b0      	mov	r8, r6
100034ac:	f04f 0900 	mov.w	r9, #0
100034b0:	461e      	mov	r6, r3
100034b2:	e00d      	b.n	100034d0 <__gnu_unwind_pr_common+0x208>
100034b4:	4650      	mov	r0, sl
100034b6:	9604      	str	r6, [sp, #16]
100034b8:	2200      	movs	r2, #0
100034ba:	f7ff fd71 	bl	10002fa0 <_Unwind_decode_typeinfo_ptr.constprop.0>
100034be:	ab04      	add	r3, sp, #16
100034c0:	4601      	mov	r1, r0
100034c2:	4628      	mov	r0, r5
100034c4:	f10a 0a04 	add.w	sl, sl, #4
100034c8:	e000      	b.n	100034cc <__gnu_unwind_pr_common+0x204>
100034ca:	bf00      	nop
100034cc:	2800      	cmp	r0, #0
100034ce:	d14a      	bne.n	10003566 <__gnu_unwind_pr_common+0x29e>
100034d0:	45d9      	cmp	r9, fp
100034d2:	f109 0901 	add.w	r9, r9, #1
100034d6:	d1ed      	bne.n	100034b4 <__gnu_unwind_pr_common+0x1ec>
100034d8:	210d      	movs	r1, #13
100034da:	4638      	mov	r0, r7
100034dc:	f7ff fe84 	bl	100031e8 <_Unwind_GetGR>
100034e0:	9b04      	ldr	r3, [sp, #16]
100034e2:	4602      	mov	r2, r0
100034e4:	2006      	movs	r0, #6
100034e6:	622a      	str	r2, [r5, #32]
100034e8:	e9c5 3409 	strd	r3, r4, [r5, #36]	; 0x24
100034ec:	e746      	b.n	1000337c <__gnu_unwind_pr_common+0xb4>
100034ee:	f1b8 0f00 	cmp.w	r8, #0
100034f2:	d1af      	bne.n	10003454 <__gnu_unwind_pr_common+0x18c>
100034f4:	6863      	ldr	r3, [r4, #4]
100034f6:	6822      	ldr	r2, [r4, #0]
100034f8:	1c99      	adds	r1, r3, #2
100034fa:	ea4f 72d2 	mov.w	r2, r2, lsr #31
100034fe:	f43f af3c 	beq.w	1000337a <__gnu_unwind_pr_common+0xb2>
10003502:	f105 0158 	add.w	r1, r5, #88	; 0x58
10003506:	3301      	adds	r3, #1
10003508:	9104      	str	r1, [sp, #16]
1000350a:	d031      	beq.n	10003570 <__gnu_unwind_pr_common+0x2a8>
1000350c:	1d20      	adds	r0, r4, #4
1000350e:	f7ff fd47 	bl	10002fa0 <_Unwind_decode_typeinfo_ptr.constprop.0>
10003512:	ab04      	add	r3, sp, #16
10003514:	4601      	mov	r1, r0
10003516:	4628      	mov	r0, r5
10003518:	e000      	b.n	1000351c <__gnu_unwind_pr_common+0x254>
1000351a:	bf00      	nop
1000351c:	2800      	cmp	r0, #0
1000351e:	f43f af78 	beq.w	10003412 <__gnu_unwind_pr_common+0x14a>
10003522:	4681      	mov	r9, r0
10003524:	210d      	movs	r1, #13
10003526:	4638      	mov	r0, r7
10003528:	f7ff fe5e 	bl	100031e8 <_Unwind_GetGR>
1000352c:	f1b9 0f02 	cmp.w	r9, #2
10003530:	6228      	str	r0, [r5, #32]
10003532:	d122      	bne.n	1000357a <__gnu_unwind_pr_common+0x2b2>
10003534:	462b      	mov	r3, r5
10003536:	9a04      	ldr	r2, [sp, #16]
10003538:	f843 2f2c 	str.w	r2, [r3, #44]!
1000353c:	626b      	str	r3, [r5, #36]	; 0x24
1000353e:	2006      	movs	r0, #6
10003540:	62ac      	str	r4, [r5, #40]	; 0x28
10003542:	e71b      	b.n	1000337c <__gnu_unwind_pr_common+0xb4>
10003544:	6aab      	ldr	r3, [r5, #40]	; 0x28
10003546:	429c      	cmp	r4, r3
10003548:	d182      	bne.n	10003450 <__gnu_unwind_pr_common+0x188>
1000354a:	2304      	movs	r3, #4
1000354c:	2200      	movs	r2, #0
1000354e:	f8c5 b028 	str.w	fp, [r5, #40]	; 0x28
10003552:	e9c5 230b 	strd	r2, r3, [r5, #44]	; 0x2c
10003556:	18e3      	adds	r3, r4, r3
10003558:	636b      	str	r3, [r5, #52]	; 0x34
1000355a:	6823      	ldr	r3, [r4, #0]
1000355c:	2b00      	cmp	r3, #0
1000355e:	db0f      	blt.n	10003580 <__gnu_unwind_pr_common+0x2b8>
10003560:	2301      	movs	r3, #1
10003562:	9301      	str	r3, [sp, #4]
10003564:	e74d      	b.n	10003402 <__gnu_unwind_pr_common+0x13a>
10003566:	4646      	mov	r6, r8
10003568:	6823      	ldr	r3, [r4, #0]
1000356a:	f8dd 800c 	ldr.w	r8, [sp, #12]
1000356e:	e745      	b.n	100033fc <__gnu_unwind_pr_common+0x134>
10003570:	210d      	movs	r1, #13
10003572:	4638      	mov	r0, r7
10003574:	f7ff fe38 	bl	100031e8 <_Unwind_GetGR>
10003578:	6228      	str	r0, [r5, #32]
1000357a:	9b04      	ldr	r3, [sp, #16]
1000357c:	626b      	str	r3, [r5, #36]	; 0x24
1000357e:	e7de      	b.n	1000353e <__gnu_unwind_pr_common+0x276>
10003580:	f10b 0001 	add.w	r0, fp, #1
10003584:	210f      	movs	r1, #15
10003586:	eb04 0080 	add.w	r0, r4, r0, lsl #2
1000358a:	e770      	b.n	1000346e <__gnu_unwind_pr_common+0x1a6>
1000358c:	00000000 	andeq	r0, r0, r0

10003590 <__aeabi_unwind_cpp_pr0>:
10003590:	2300      	movs	r3, #0
10003592:	e699      	b.n	100032c8 <__gnu_unwind_pr_common>

10003594 <__aeabi_unwind_cpp_pr1>:
10003594:	2301      	movs	r3, #1
10003596:	e697      	b.n	100032c8 <__gnu_unwind_pr_common>

10003598 <__aeabi_unwind_cpp_pr2>:
10003598:	2302      	movs	r3, #2
1000359a:	e695      	b.n	100032c8 <__gnu_unwind_pr_common>

1000359c <_Unwind_VRS_Pop>:
1000359c:	e92d 43f0 	stmdb	sp!, {r4, r5, r6, r7, r8, r9, lr}
100035a0:	4606      	mov	r6, r0
100035a2:	b0c3      	sub	sp, #268	; 0x10c
100035a4:	4615      	mov	r5, r2
100035a6:	461c      	mov	r4, r3
100035a8:	2904      	cmp	r1, #4
100035aa:	f200 80c2 	bhi.w	10003732 <_Unwind_VRS_Pop+0x196>
100035ae:	e8df f001 	tbb	[pc, r1]
100035b2:	2cc059a3 			; <UNDEFINED> instruction: 0x2cc059a3
100035b6:	2c000003 	stccs	0, cr0, [r0], {3}
100035ba:	f040 80ba 	bne.w	10003732 <_Unwind_VRS_Pop+0x196>
100035be:	2a10      	cmp	r2, #16
100035c0:	f200 80b7 	bhi.w	10003732 <_Unwind_VRS_Pop+0x196>
100035c4:	6803      	ldr	r3, [r0, #0]
100035c6:	06df      	lsls	r7, r3, #27
100035c8:	f100 80b7 	bmi.w	1000373a <_Unwind_VRS_Pop+0x19e>
100035cc:	af20      	add	r7, sp, #128	; 0x80
100035ce:	4638      	mov	r0, r7
100035d0:	f000 f9b0 	bl	10003934 <__gnu_Unwind_Save_WMMXC>
100035d4:	6bb4      	ldr	r4, [r6, #56]	; 0x38
100035d6:	4639      	mov	r1, r7
100035d8:	2300      	movs	r3, #0
100035da:	f04f 0c01 	mov.w	ip, #1
100035de:	fa0c f203 	lsl.w	r2, ip, r3
100035e2:	4620      	mov	r0, r4
100035e4:	3301      	adds	r3, #1
100035e6:	422a      	tst	r2, r5
100035e8:	d003      	beq.n	100035f2 <_Unwind_VRS_Pop+0x56>
100035ea:	f850 2b04 	ldr.w	r2, [r0], #4
100035ee:	4604      	mov	r4, r0
100035f0:	600a      	str	r2, [r1, #0]
100035f2:	2b04      	cmp	r3, #4
100035f4:	f101 0104 	add.w	r1, r1, #4
100035f8:	d1f1      	bne.n	100035de <_Unwind_VRS_Pop+0x42>
100035fa:	4638      	mov	r0, r7
100035fc:	63b4      	str	r4, [r6, #56]	; 0x38
100035fe:	f000 f98f 	bl	10003920 <__gnu_Unwind_Restore_WMMXC>
10003602:	2000      	movs	r0, #0
10003604:	b043      	add	sp, #268	; 0x10c
10003606:	e8bd 83f0 	ldmia.w	sp!, {r4, r5, r6, r7, r8, r9, pc}
1000360a:	2c03      	cmp	r4, #3
1000360c:	f040 8091 	bne.w	10003732 <_Unwind_VRS_Pop+0x196>
10003610:	fa1f f882 	uxth.w	r8, r2
10003614:	0c14      	lsrs	r4, r2, #16
10003616:	eb08 4512 	add.w	r5, r8, r2, lsr #16
1000361a:	2d10      	cmp	r5, #16
1000361c:	f200 8089 	bhi.w	10003732 <_Unwind_VRS_Pop+0x196>
10003620:	6803      	ldr	r3, [r0, #0]
10003622:	071a      	lsls	r2, r3, #28
10003624:	f100 80cd 	bmi.w	100037c2 <_Unwind_VRS_Pop+0x226>
10003628:	af20      	add	r7, sp, #128	; 0x80
1000362a:	4638      	mov	r0, r7
1000362c:	f000 f956 	bl	100038dc <__gnu_Unwind_Save_WMMXD>
10003630:	6bb5      	ldr	r5, [r6, #56]	; 0x38
10003632:	eb07 01c4 	add.w	r1, r7, r4, lsl #3
10003636:	f1b8 0f00 	cmp.w	r8, #0
1000363a:	d00b      	beq.n	10003654 <_Unwind_VRS_Pop+0xb8>
1000363c:	460b      	mov	r3, r1
1000363e:	eb01 01c8 	add.w	r1, r1, r8, lsl #3
10003642:	ea4f 08c8 	mov.w	r8, r8, lsl #3
10003646:	1ae8      	subs	r0, r5, r3
10003648:	581a      	ldr	r2, [r3, r0]
1000364a:	f843 2b04 	str.w	r2, [r3], #4
1000364e:	428b      	cmp	r3, r1
10003650:	d1fa      	bne.n	10003648 <_Unwind_VRS_Pop+0xac>
10003652:	4445      	add	r5, r8
10003654:	4638      	mov	r0, r7
10003656:	63b5      	str	r5, [r6, #56]	; 0x38
10003658:	f000 f91e 	bl	10003898 <__gnu_Unwind_Restore_WMMXD>
1000365c:	2000      	movs	r0, #0
1000365e:	b043      	add	sp, #268	; 0x10c
10003660:	e8bd 83f0 	ldmia.w	sp!, {r4, r5, r6, r7, r8, r9, pc}
10003664:	f004 03fb 	and.w	r3, r4, #251	; 0xfb
10003668:	ea4f 4812 	mov.w	r8, r2, lsr #16
1000366c:	b295      	uxth	r5, r2
1000366e:	2b01      	cmp	r3, #1
10003670:	d15f      	bne.n	10003732 <_Unwind_VRS_Pop+0x196>
10003672:	2c01      	cmp	r4, #1
10003674:	eb08 0905 	add.w	r9, r8, r5
10003678:	d058      	beq.n	1000372c <_Unwind_VRS_Pop+0x190>
1000367a:	f1b9 0f20 	cmp.w	r9, #32
1000367e:	d858      	bhi.n	10003732 <_Unwind_VRS_Pop+0x196>
10003680:	f1b8 0f0f 	cmp.w	r8, #15
10003684:	d975      	bls.n	10003772 <_Unwind_VRS_Pop+0x1d6>
10003686:	2c05      	cmp	r4, #5
10003688:	46a9      	mov	r9, r5
1000368a:	f000 80a4 	beq.w	100037d6 <_Unwind_VRS_Pop+0x23a>
1000368e:	2d00      	cmp	r5, #0
10003690:	d14f      	bne.n	10003732 <_Unwind_VRS_Pop+0x196>
10003692:	6bb3      	ldr	r3, [r6, #56]	; 0x38
10003694:	b365      	cbz	r5, 100036f0 <_Unwind_VRS_Pop+0x154>
10003696:	af20      	add	r7, sp, #128	; 0x80
10003698:	f04f 0900 	mov.w	r9, #0
1000369c:	eb07 07c8 	add.w	r7, r7, r8, lsl #3
100036a0:	eb03 05c5 	add.w	r5, r3, r5, lsl #3
100036a4:	3f04      	subs	r7, #4
100036a6:	f853 1b04 	ldr.w	r1, [r3], #4
100036aa:	429d      	cmp	r5, r3
100036ac:	f847 1f04 	str.w	r1, [r7, #4]!
100036b0:	d1f9      	bne.n	100036a6 <_Unwind_VRS_Pop+0x10a>
100036b2:	f1b9 0f00 	cmp.w	r9, #0
100036b6:	d00f      	beq.n	100036d8 <_Unwind_VRS_Pop+0x13c>
100036b8:	466f      	mov	r7, sp
100036ba:	4641      	mov	r1, r8
100036bc:	eb03 05c9 	add.w	r5, r3, r9, lsl #3
100036c0:	2910      	cmp	r1, #16
100036c2:	bf38      	it	cc
100036c4:	2110      	movcc	r1, #16
100036c6:	eb07 01c1 	add.w	r1, r7, r1, lsl #3
100036ca:	3984      	subs	r1, #132	; 0x84
100036cc:	f853 0b04 	ldr.w	r0, [r3], #4
100036d0:	429d      	cmp	r5, r3
100036d2:	f841 0f04 	str.w	r0, [r1, #4]!
100036d6:	d1f9      	bne.n	100036cc <_Unwind_VRS_Pop+0x130>
100036d8:	2c01      	cmp	r4, #1
100036da:	d07a      	beq.n	100037d2 <_Unwind_VRS_Pop+0x236>
100036dc:	f1b8 0f0f 	cmp.w	r8, #15
100036e0:	63b5      	str	r5, [r6, #56]	; 0x38
100036e2:	d96a      	bls.n	100037ba <_Unwind_VRS_Pop+0x21e>
100036e4:	f1b9 0f00 	cmp.w	r9, #0
100036e8:	d002      	beq.n	100036f0 <_Unwind_VRS_Pop+0x154>
100036ea:	4668      	mov	r0, sp
100036ec:	f000 f8cc 	bl	10003888 <__gnu_Unwind_Restore_VFP_D_16_to_31>
100036f0:	2000      	movs	r0, #0
100036f2:	b043      	add	sp, #268	; 0x10c
100036f4:	e8bd 83f0 	ldmia.w	sp!, {r4, r5, r6, r7, r8, r9, pc}
100036f8:	b9dc      	cbnz	r4, 10003732 <_Unwind_VRS_Pop+0x196>
100036fa:	6b87      	ldr	r7, [r0, #56]	; 0x38
100036fc:	4623      	mov	r3, r4
100036fe:	fa1f fc82 	uxth.w	ip, r2
10003702:	2001      	movs	r0, #1
10003704:	1d34      	adds	r4, r6, #4
10003706:	fa00 f103 	lsl.w	r1, r0, r3
1000370a:	463a      	mov	r2, r7
1000370c:	ea11 0f0c 	tst.w	r1, ip
10003710:	d004      	beq.n	1000371c <_Unwind_VRS_Pop+0x180>
10003712:	f852 1b04 	ldr.w	r1, [r2], #4
10003716:	4617      	mov	r7, r2
10003718:	f844 1023 	str.w	r1, [r4, r3, lsl #2]
1000371c:	3301      	adds	r3, #1
1000371e:	2b10      	cmp	r3, #16
10003720:	d1f1      	bne.n	10003706 <_Unwind_VRS_Pop+0x16a>
10003722:	f415 5000 	ands.w	r0, r5, #8192	; 0x2000
10003726:	d1e3      	bne.n	100036f0 <_Unwind_VRS_Pop+0x154>
10003728:	63b7      	str	r7, [r6, #56]	; 0x38
1000372a:	e003      	b.n	10003734 <_Unwind_VRS_Pop+0x198>
1000372c:	f1b9 0f10 	cmp.w	r9, #16
10003730:	d90b      	bls.n	1000374a <_Unwind_VRS_Pop+0x1ae>
10003732:	2002      	movs	r0, #2
10003734:	b043      	add	sp, #268	; 0x10c
10003736:	e8bd 83f0 	ldmia.w	sp!, {r4, r5, r6, r7, r8, r9, pc}
1000373a:	f023 0310 	bic.w	r3, r3, #16
1000373e:	f500 70e8 	add.w	r0, r0, #464	; 0x1d0
10003742:	6033      	str	r3, [r6, #0]
10003744:	f000 f8f6 	bl	10003934 <__gnu_Unwind_Save_WMMXC>
10003748:	e740      	b.n	100035cc <_Unwind_VRS_Pop+0x30>
1000374a:	f1b8 0f0f 	cmp.w	r8, #15
1000374e:	d8f0      	bhi.n	10003732 <_Unwind_VRS_Pop+0x196>
10003750:	6803      	ldr	r3, [r0, #0]
10003752:	07d8      	lsls	r0, r3, #31
10003754:	d450      	bmi.n	100037f8 <_Unwind_VRS_Pop+0x25c>
10003756:	af20      	add	r7, sp, #128	; 0x80
10003758:	4638      	mov	r0, r7
1000375a:	f000 f889 	bl	10003870 <__gnu_Unwind_Save_VFP>
1000375e:	6bb3      	ldr	r3, [r6, #56]	; 0x38
10003760:	2d00      	cmp	r5, #0
10003762:	d199      	bne.n	10003698 <_Unwind_VRS_Pop+0xfc>
10003764:	461d      	mov	r5, r3
10003766:	3504      	adds	r5, #4
10003768:	4638      	mov	r0, r7
1000376a:	63b5      	str	r5, [r6, #56]	; 0x38
1000376c:	f000 f87c 	bl	10003868 <__gnu_Unwind_Restore_VFP>
10003770:	e7be      	b.n	100036f0 <_Unwind_VRS_Pop+0x154>
10003772:	f1b9 0f10 	cmp.w	r9, #16
10003776:	d958      	bls.n	1000382a <_Unwind_VRS_Pop+0x28e>
10003778:	2c05      	cmp	r4, #5
1000377a:	d1da      	bne.n	10003732 <_Unwind_VRS_Pop+0x196>
1000377c:	6833      	ldr	r3, [r6, #0]
1000377e:	f1a9 0910 	sub.w	r9, r9, #16
10003782:	07dd      	lsls	r5, r3, #31
10003784:	d509      	bpl.n	1000379a <_Unwind_VRS_Pop+0x1fe>
10003786:	f023 0301 	bic.w	r3, r3, #1
1000378a:	4630      	mov	r0, r6
1000378c:	f043 0302 	orr.w	r3, r3, #2
10003790:	f840 3b48 	str.w	r3, [r0], #72
10003794:	f000 f874 	bl	10003880 <__gnu_Unwind_Save_VFP_D>
10003798:	6833      	ldr	r3, [r6, #0]
1000379a:	0759      	lsls	r1, r3, #29
1000379c:	d421      	bmi.n	100037e2 <_Unwind_VRS_Pop+0x246>
1000379e:	a820      	add	r0, sp, #128	; 0x80
100037a0:	f000 f86e 	bl	10003880 <__gnu_Unwind_Save_VFP_D>
100037a4:	466f      	mov	r7, sp
100037a6:	f1c8 0510 	rsb	r5, r8, #16
100037aa:	4638      	mov	r0, r7
100037ac:	f000 f870 	bl	10003890 <__gnu_Unwind_Save_VFP_D_16_to_31>
100037b0:	2d00      	cmp	r5, #0
100037b2:	6bb3      	ldr	r3, [r6, #56]	; 0x38
100037b4:	dd81      	ble.n	100036ba <_Unwind_VRS_Pop+0x11e>
100037b6:	af20      	add	r7, sp, #128	; 0x80
100037b8:	e770      	b.n	1000369c <_Unwind_VRS_Pop+0x100>
100037ba:	a820      	add	r0, sp, #128	; 0x80
100037bc:	f000 f85c 	bl	10003878 <__gnu_Unwind_Restore_VFP_D>
100037c0:	e790      	b.n	100036e4 <_Unwind_VRS_Pop+0x148>
100037c2:	f023 0308 	bic.w	r3, r3, #8
100037c6:	f500 70a8 	add.w	r0, r0, #336	; 0x150
100037ca:	6033      	str	r3, [r6, #0]
100037cc:	f000 f886 	bl	100038dc <__gnu_Unwind_Save_WMMXD>
100037d0:	e72a      	b.n	10003628 <_Unwind_VRS_Pop+0x8c>
100037d2:	af20      	add	r7, sp, #128	; 0x80
100037d4:	e7c7      	b.n	10003766 <_Unwind_VRS_Pop+0x1ca>
100037d6:	2d00      	cmp	r5, #0
100037d8:	f43f af5b 	beq.w	10003692 <_Unwind_VRS_Pop+0xf6>
100037dc:	6833      	ldr	r3, [r6, #0]
100037de:	075a      	lsls	r2, r3, #29
100037e0:	d5e0      	bpl.n	100037a4 <_Unwind_VRS_Pop+0x208>
100037e2:	f023 0304 	bic.w	r3, r3, #4
100037e6:	4630      	mov	r0, r6
100037e8:	f840 3bd0 	str.w	r3, [r0], #208
100037ec:	f000 f850 	bl	10003890 <__gnu_Unwind_Save_VFP_D_16_to_31>
100037f0:	f1b8 0f0f 	cmp.w	r8, #15
100037f4:	d8d6      	bhi.n	100037a4 <_Unwind_VRS_Pop+0x208>
100037f6:	e7d2      	b.n	1000379e <_Unwind_VRS_Pop+0x202>
100037f8:	f023 0303 	bic.w	r3, r3, #3
100037fc:	4630      	mov	r0, r6
100037fe:	f840 3b48 	str.w	r3, [r0], #72
10003802:	f000 f835 	bl	10003870 <__gnu_Unwind_Save_VFP>
10003806:	2c01      	cmp	r4, #1
10003808:	d0a5      	beq.n	10003756 <_Unwind_VRS_Pop+0x1ba>
1000380a:	f1b8 0f0f 	cmp.w	r8, #15
1000380e:	f63f af40 	bhi.w	10003692 <_Unwind_VRS_Pop+0xf6>
10003812:	af20      	add	r7, sp, #128	; 0x80
10003814:	4638      	mov	r0, r7
10003816:	f000 f833 	bl	10003880 <__gnu_Unwind_Save_VFP_D>
1000381a:	6bb3      	ldr	r3, [r6, #56]	; 0x38
1000381c:	2d00      	cmp	r5, #0
1000381e:	f47f af3b 	bne.w	10003698 <_Unwind_VRS_Pop+0xfc>
10003822:	4638      	mov	r0, r7
10003824:	f000 f828 	bl	10003878 <__gnu_Unwind_Restore_VFP_D>
10003828:	e762      	b.n	100036f0 <_Unwind_VRS_Pop+0x154>
1000382a:	6833      	ldr	r3, [r6, #0]
1000382c:	07d9      	lsls	r1, r3, #31
1000382e:	d5ea      	bpl.n	10003806 <_Unwind_VRS_Pop+0x26a>
10003830:	2c05      	cmp	r4, #5
10003832:	d1e1      	bne.n	100037f8 <_Unwind_VRS_Pop+0x25c>
10003834:	f023 0301 	bic.w	r3, r3, #1
10003838:	4630      	mov	r0, r6
1000383a:	af20      	add	r7, sp, #128	; 0x80
1000383c:	f043 0302 	orr.w	r3, r3, #2
10003840:	f840 3b48 	str.w	r3, [r0], #72
10003844:	f000 f81c 	bl	10003880 <__gnu_Unwind_Save_VFP_D>
10003848:	4638      	mov	r0, r7
1000384a:	f000 f819 	bl	10003880 <__gnu_Unwind_Save_VFP_D>
1000384e:	e7e4      	b.n	1000381a <_Unwind_VRS_Pop+0x27e>

10003850 <__restore_core_regs>:
10003850:	f100 0134 	add.w	r1, r0, #52	; 0x34
10003854:	e891 0038 	ldmia.w	r1, {r3, r4, r5}
10003858:	469c      	mov	ip, r3
1000385a:	46a6      	mov	lr, r4
1000385c:	f84c 5d04 	str.w	r5, [ip, #-4]!
10003860:	e890 0fff 	ldmia.w	r0, {r0, r1, r2, r3, r4, r5, r6, r7, r8, r9, sl, fp}
10003864:	46e5      	mov	sp, ip
10003866:	bd00      	pop	{pc}

10003868 <__gnu_Unwind_Restore_VFP>:
10003868:	ec90 0b21 	fldmiax	r0, {d0-d15}	;@ Deprecated
1000386c:	4770      	bx	lr
1000386e:	bf00      	nop

10003870 <__gnu_Unwind_Save_VFP>:
10003870:	ec80 0b21 	fstmiax	r0, {d0-d15}	;@ Deprecated
10003874:	4770      	bx	lr
10003876:	bf00      	nop

10003878 <__gnu_Unwind_Restore_VFP_D>:
10003878:	ec90 0b20 	vldmia	r0, {d0-d15}
1000387c:	4770      	bx	lr
1000387e:	bf00      	nop

10003880 <__gnu_Unwind_Save_VFP_D>:
10003880:	ec80 0b20 	vstmia	r0, {d0-d15}
10003884:	4770      	bx	lr
10003886:	bf00      	nop

10003888 <__gnu_Unwind_Restore_VFP_D_16_to_31>:
10003888:	ecd0 0b20 	vldmia	r0, {d16-d31}
1000388c:	4770      	bx	lr
1000388e:	bf00      	nop

10003890 <__gnu_Unwind_Save_VFP_D_16_to_31>:
10003890:	ecc0 0b20 	vstmia	r0, {d16-d31}
10003894:	4770      	bx	lr
10003896:	bf00      	nop

10003898 <__gnu_Unwind_Restore_WMMXD>:
10003898:	ecf0 0102 	ldfe	f0, [r0], #8
1000389c:	ecf0 1102 	ldfe	f1, [r0], #8
100038a0:	ecf0 2102 	ldfe	f2, [r0], #8
100038a4:	ecf0 3102 	ldfe	f3, [r0], #8
100038a8:	ecf0 4102 	ldfe	f4, [r0], #8
100038ac:	ecf0 5102 	ldfe	f5, [r0], #8
100038b0:	ecf0 6102 	ldfe	f6, [r0], #8
100038b4:	ecf0 7102 	ldfe	f7, [r0], #8
100038b8:	ecf0 8102 	ldfp	f0, [r0], #8
100038bc:	ecf0 9102 	ldfp	f1, [r0], #8
100038c0:	ecf0 a102 	ldfp	f2, [r0], #8
100038c4:	ecf0 b102 	ldfp	f3, [r0], #8
100038c8:	ecf0 c102 	ldfp	f4, [r0], #8
100038cc:	ecf0 d102 	ldfp	f5, [r0], #8
100038d0:	ecf0 e102 	ldfp	f6, [r0], #8
100038d4:	ecf0 f102 	ldfp	f7, [r0], #8
100038d8:	4770      	bx	lr
100038da:	bf00      	nop

100038dc <__gnu_Unwind_Save_WMMXD>:
100038dc:	ece0 0102 	stfe	f0, [r0], #8
100038e0:	ece0 1102 	stfe	f1, [r0], #8
100038e4:	ece0 2102 	stfe	f2, [r0], #8
100038e8:	ece0 3102 	stfe	f3, [r0], #8
100038ec:	ece0 4102 	stfe	f4, [r0], #8
100038f0:	ece0 5102 	stfe	f5, [r0], #8
100038f4:	ece0 6102 	stfe	f6, [r0], #8
100038f8:	ece0 7102 	stfe	f7, [r0], #8
100038fc:	ece0 8102 	stfp	f0, [r0], #8
10003900:	ece0 9102 	stfp	f1, [r0], #8
10003904:	ece0 a102 	stfp	f2, [r0], #8
10003908:	ece0 b102 	stfp	f3, [r0], #8
1000390c:	ece0 c102 	stfp	f4, [r0], #8
10003910:	ece0 d102 	stfp	f5, [r0], #8
10003914:	ece0 e102 	stfp	f6, [r0], #8
10003918:	ece0 f102 	stfp	f7, [r0], #8
1000391c:	4770      	bx	lr
1000391e:	bf00      	nop

10003920 <__gnu_Unwind_Restore_WMMXC>:
10003920:	fcb0 8101 	ldc2	1, cr8, [r0], #4
10003924:	fcb0 9101 	ldc2	1, cr9, [r0], #4
10003928:	fcb0 a101 	ldc2	1, cr10, [r0], #4
1000392c:	fcb0 b101 	ldc2	1, cr11, [r0], #4
10003930:	4770      	bx	lr
10003932:	bf00      	nop

10003934 <__gnu_Unwind_Save_WMMXC>:
10003934:	fca0 8101 	stc2	1, cr8, [r0], #4
10003938:	fca0 9101 	stc2	1, cr9, [r0], #4
1000393c:	fca0 a101 	stc2	1, cr10, [r0], #4
10003940:	fca0 b101 	stc2	1, cr11, [r0], #4
10003944:	4770      	bx	lr
10003946:	bf00      	nop

10003948 <_Unwind_RaiseException>:
10003948:	46ec      	mov	ip, sp
1000394a:	b500      	push	{lr}
1000394c:	e92d 5000 	stmdb	sp!, {ip, lr}
10003950:	e92d 1fff 	stmdb	sp!, {r0, r1, r2, r3, r4, r5, r6, r7, r8, r9, sl, fp, ip}
10003954:	f04f 0300 	mov.w	r3, #0
10003958:	e92d 000c 	stmdb	sp!, {r2, r3}
1000395c:	a901      	add	r1, sp, #4
1000395e:	f7ff fbb7 	bl	100030d0 <__gnu_Unwind_RaiseException>
10003962:	f8dd e040 	ldr.w	lr, [sp, #64]	; 0x40
10003966:	b012      	add	sp, #72	; 0x48
10003968:	4770      	bx	lr
1000396a:	bf00      	nop

1000396c <_Unwind_Resume>:
1000396c:	46ec      	mov	ip, sp
1000396e:	b500      	push	{lr}
10003970:	e92d 5000 	stmdb	sp!, {ip, lr}
10003974:	e92d 1fff 	stmdb	sp!, {r0, r1, r2, r3, r4, r5, r6, r7, r8, r9, sl, fp, ip}
10003978:	f04f 0300 	mov.w	r3, #0
1000397c:	e92d 000c 	stmdb	sp!, {r2, r3}
10003980:	a901      	add	r1, sp, #4
10003982:	f7ff fbe3 	bl	1000314c <__gnu_Unwind_Resume>
10003986:	f8dd e040 	ldr.w	lr, [sp, #64]	; 0x40
1000398a:	b012      	add	sp, #72	; 0x48
1000398c:	4770      	bx	lr
1000398e:	bf00      	nop

10003990 <_Unwind_Resume_or_Rethrow>:
10003990:	46ec      	mov	ip, sp
10003992:	b500      	push	{lr}
10003994:	e92d 5000 	stmdb	sp!, {ip, lr}
10003998:	e92d 1fff 	stmdb	sp!, {r0, r1, r2, r3, r4, r5, r6, r7, r8, r9, sl, fp, ip}
1000399c:	f04f 0300 	mov.w	r3, #0
100039a0:	e92d 000c 	stmdb	sp!, {r2, r3}
100039a4:	a901      	add	r1, sp, #4
100039a6:	f7ff fbf3 	bl	10003190 <__gnu_Unwind_Resume_or_Rethrow>
100039aa:	f8dd e040 	ldr.w	lr, [sp, #64]	; 0x40
100039ae:	b012      	add	sp, #72	; 0x48
100039b0:	4770      	bx	lr
100039b2:	bf00      	nop

100039b4 <_Unwind_ForcedUnwind>:
100039b4:	46ec      	mov	ip, sp
100039b6:	b500      	push	{lr}
100039b8:	e92d 5000 	stmdb	sp!, {ip, lr}
100039bc:	e92d 1fff 	stmdb	sp!, {r0, r1, r2, r3, r4, r5, r6, r7, r8, r9, sl, fp, ip}
100039c0:	f04f 0300 	mov.w	r3, #0
100039c4:	e92d 000c 	stmdb	sp!, {r2, r3}
100039c8:	ab01      	add	r3, sp, #4
100039ca:	f7ff fbb5 	bl	10003138 <__gnu_Unwind_ForcedUnwind>
100039ce:	f8dd e040 	ldr.w	lr, [sp, #64]	; 0x40
100039d2:	b012      	add	sp, #72	; 0x48
100039d4:	4770      	bx	lr
100039d6:	bf00      	nop

100039d8 <_Unwind_Backtrace>:
100039d8:	46ec      	mov	ip, sp
100039da:	b500      	push	{lr}
100039dc:	e92d 5000 	stmdb	sp!, {ip, lr}
100039e0:	e92d 1fff 	stmdb	sp!, {r0, r1, r2, r3, r4, r5, r6, r7, r8, r9, sl, fp, ip}
100039e4:	f04f 0300 	mov.w	r3, #0
100039e8:	e92d 000c 	stmdb	sp!, {r2, r3}
100039ec:	aa01      	add	r2, sp, #4
100039ee:	f7ff fc2d 	bl	1000324c <__gnu_Unwind_Backtrace>
100039f2:	f8dd e040 	ldr.w	lr, [sp, #64]	; 0x40
100039f6:	b012      	add	sp, #72	; 0x48
100039f8:	4770      	bx	lr
100039fa:	bf00      	nop

100039fc <next_unwind_byte>:
100039fc:	7a02      	ldrb	r2, [r0, #8]
100039fe:	4603      	mov	r3, r0
10003a00:	b98a      	cbnz	r2, 10003a26 <next_unwind_byte+0x2a>
10003a02:	7a42      	ldrb	r2, [r0, #9]
10003a04:	b1b2      	cbz	r2, 10003a34 <next_unwind_byte+0x38>
10003a06:	6841      	ldr	r1, [r0, #4]
10003a08:	3a01      	subs	r2, #1
10003a0a:	f04f 0c03 	mov.w	ip, #3
10003a0e:	b410      	push	{r4}
10003a10:	7242      	strb	r2, [r0, #9]
10003a12:	1d0c      	adds	r4, r1, #4
10003a14:	6808      	ldr	r0, [r1, #0]
10003a16:	f883 c008 	strb.w	ip, [r3, #8]
10003a1a:	0202      	lsls	r2, r0, #8
10003a1c:	605c      	str	r4, [r3, #4]
10003a1e:	0e00      	lsrs	r0, r0, #24
10003a20:	bc10      	pop	{r4}
10003a22:	601a      	str	r2, [r3, #0]
10003a24:	4770      	bx	lr
10003a26:	6800      	ldr	r0, [r0, #0]
10003a28:	3a01      	subs	r2, #1
10003a2a:	721a      	strb	r2, [r3, #8]
10003a2c:	0202      	lsls	r2, r0, #8
10003a2e:	0e00      	lsrs	r0, r0, #24
10003a30:	601a      	str	r2, [r3, #0]
10003a32:	4770      	bx	lr
10003a34:	20b0      	movs	r0, #176	; 0xb0
10003a36:	4770      	bx	lr

10003a38 <_Unwind_GetGR.constprop.0>:
10003a38:	b510      	push	{r4, lr}
10003a3a:	b084      	sub	sp, #16
10003a3c:	2300      	movs	r3, #0
10003a3e:	220c      	movs	r2, #12
10003a40:	ac03      	add	r4, sp, #12
10003a42:	4619      	mov	r1, r3
10003a44:	9400      	str	r4, [sp, #0]
10003a46:	f7ff fbb5 	bl	100031b4 <_Unwind_VRS_Get>
10003a4a:	9803      	ldr	r0, [sp, #12]
10003a4c:	b004      	add	sp, #16
10003a4e:	bd10      	pop	{r4, pc}

10003a50 <unwind_UCB_from_context>:
10003a50:	e7f2      	b.n	10003a38 <_Unwind_GetGR.constprop.0>
10003a52:	bf00      	nop

10003a54 <__gnu_unwind_execute>:
10003a54:	e92d 43f0 	stmdb	sp!, {r4, r5, r6, r7, r8, r9, lr}
10003a58:	f04f 0800 	mov.w	r8, #0
10003a5c:	b085      	sub	sp, #20
10003a5e:	4606      	mov	r6, r0
10003a60:	460d      	mov	r5, r1
10003a62:	4628      	mov	r0, r5
10003a64:	f7ff ffca 	bl	100039fc <next_unwind_byte>
10003a68:	28b0      	cmp	r0, #176	; 0xb0
10003a6a:	4604      	mov	r4, r0
10003a6c:	f000 80bc 	beq.w	10003be8 <__gnu_unwind_execute+0x194>
10003a70:	0607      	lsls	r7, r0, #24
10003a72:	d520      	bpl.n	10003ab6 <__gnu_unwind_execute+0x62>
10003a74:	f000 03f0 	and.w	r3, r0, #240	; 0xf0
10003a78:	2b80      	cmp	r3, #128	; 0x80
10003a7a:	d04e      	beq.n	10003b1a <__gnu_unwind_execute+0xc6>
10003a7c:	2b90      	cmp	r3, #144	; 0x90
10003a7e:	d037      	beq.n	10003af0 <__gnu_unwind_execute+0x9c>
10003a80:	2ba0      	cmp	r3, #160	; 0xa0
10003a82:	d061      	beq.n	10003b48 <__gnu_unwind_execute+0xf4>
10003a84:	2bb0      	cmp	r3, #176	; 0xb0
10003a86:	d076      	beq.n	10003b76 <__gnu_unwind_execute+0x122>
10003a88:	2bc0      	cmp	r3, #192	; 0xc0
10003a8a:	f000 808d 	beq.w	10003ba8 <__gnu_unwind_execute+0x154>
10003a8e:	f000 03f8 	and.w	r3, r0, #248	; 0xf8
10003a92:	2bd0      	cmp	r3, #208	; 0xd0
10003a94:	d10b      	bne.n	10003aae <__gnu_unwind_execute+0x5a>
10003a96:	f000 0207 	and.w	r2, r0, #7
10003a9a:	2305      	movs	r3, #5
10003a9c:	2101      	movs	r1, #1
10003a9e:	4630      	mov	r0, r6
10003aa0:	3201      	adds	r2, #1
10003aa2:	f442 2200 	orr.w	r2, r2, #524288	; 0x80000
10003aa6:	f7ff fd79 	bl	1000359c <_Unwind_VRS_Pop>
10003aaa:	2800      	cmp	r0, #0
10003aac:	d0d9      	beq.n	10003a62 <__gnu_unwind_execute+0xe>
10003aae:	2009      	movs	r0, #9
10003ab0:	b005      	add	sp, #20
10003ab2:	e8bd 83f0 	ldmia.w	sp!, {r4, r5, r6, r7, r8, r9, pc}
10003ab6:	0083      	lsls	r3, r0, #2
10003ab8:	f10d 090c 	add.w	r9, sp, #12
10003abc:	220d      	movs	r2, #13
10003abe:	4630      	mov	r0, r6
10003ac0:	b2db      	uxtb	r3, r3
10003ac2:	f8cd 9000 	str.w	r9, [sp]
10003ac6:	1d1f      	adds	r7, r3, #4
10003ac8:	2300      	movs	r3, #0
10003aca:	4619      	mov	r1, r3
10003acc:	f7ff fb72 	bl	100031b4 <_Unwind_VRS_Get>
10003ad0:	9b03      	ldr	r3, [sp, #12]
10003ad2:	0660      	lsls	r0, r4, #25
10003ad4:	f04f 020d 	mov.w	r2, #13
10003ad8:	4630      	mov	r0, r6
10003ada:	f8cd 9000 	str.w	r9, [sp]
10003ade:	bf4c      	ite	mi
10003ae0:	1bdf      	submi	r7, r3, r7
10003ae2:	18ff      	addpl	r7, r7, r3
10003ae4:	2300      	movs	r3, #0
10003ae6:	9703      	str	r7, [sp, #12]
10003ae8:	4619      	mov	r1, r3
10003aea:	f7ff fb89 	bl	10003200 <_Unwind_VRS_Set>
10003aee:	e7b8      	b.n	10003a62 <__gnu_unwind_execute+0xe>
10003af0:	f000 030d 	and.w	r3, r0, #13
10003af4:	2b0d      	cmp	r3, #13
10003af6:	d0da      	beq.n	10003aae <__gnu_unwind_execute+0x5a>
10003af8:	af03      	add	r7, sp, #12
10003afa:	2300      	movs	r3, #0
10003afc:	f000 020f 	and.w	r2, r0, #15
10003b00:	4630      	mov	r0, r6
10003b02:	4619      	mov	r1, r3
10003b04:	9700      	str	r7, [sp, #0]
10003b06:	f7ff fb55 	bl	100031b4 <_Unwind_VRS_Get>
10003b0a:	2300      	movs	r3, #0
10003b0c:	220d      	movs	r2, #13
10003b0e:	4630      	mov	r0, r6
10003b10:	4619      	mov	r1, r3
10003b12:	9700      	str	r7, [sp, #0]
10003b14:	f7ff fb74 	bl	10003200 <_Unwind_VRS_Set>
10003b18:	e7a3      	b.n	10003a62 <__gnu_unwind_execute+0xe>
10003b1a:	0224      	lsls	r4, r4, #8
10003b1c:	4628      	mov	r0, r5
10003b1e:	f7ff ff6d 	bl	100039fc <next_unwind_byte>
10003b22:	4320      	orrs	r0, r4
10003b24:	f5b0 4f00 	cmp.w	r0, #32768	; 0x8000
10003b28:	d0c1      	beq.n	10003aae <__gnu_unwind_execute+0x5a>
10003b2a:	0104      	lsls	r4, r0, #4
10003b2c:	2300      	movs	r3, #0
10003b2e:	4630      	mov	r0, r6
10003b30:	b2a2      	uxth	r2, r4
10003b32:	4619      	mov	r1, r3
10003b34:	f7ff fd32 	bl	1000359c <_Unwind_VRS_Pop>
10003b38:	2800      	cmp	r0, #0
10003b3a:	d1b8      	bne.n	10003aae <__gnu_unwind_execute+0x5a>
10003b3c:	f414 4f00 	tst.w	r4, #32768	; 0x8000
10003b40:	bf18      	it	ne
10003b42:	f04f 0801 	movne.w	r8, #1
10003b46:	e78c      	b.n	10003a62 <__gnu_unwind_execute+0xe>
10003b48:	43c2      	mvns	r2, r0
10003b4a:	0701      	lsls	r1, r0, #28
10003b4c:	4630      	mov	r0, r6
10003b4e:	f002 0307 	and.w	r3, r2, #7
10003b52:	f44f 627f 	mov.w	r2, #4080	; 0xff0
10003b56:	fa42 f203 	asr.w	r2, r2, r3
10003b5a:	f04f 0300 	mov.w	r3, #0
10003b5e:	f402 627f 	and.w	r2, r2, #4080	; 0xff0
10003b62:	4619      	mov	r1, r3
10003b64:	bf48      	it	mi
10003b66:	f442 4280 	orrmi.w	r2, r2, #16384	; 0x4000
10003b6a:	f7ff fd17 	bl	1000359c <_Unwind_VRS_Pop>
10003b6e:	2800      	cmp	r0, #0
10003b70:	f43f af77 	beq.w	10003a62 <__gnu_unwind_execute+0xe>
10003b74:	e79b      	b.n	10003aae <__gnu_unwind_execute+0x5a>
10003b76:	28b1      	cmp	r0, #177	; 0xb1
10003b78:	d03b      	beq.n	10003bf2 <__gnu_unwind_execute+0x19e>
10003b7a:	28b2      	cmp	r0, #178	; 0xb2
10003b7c:	f000 80a1 	beq.w	10003cc2 <__gnu_unwind_execute+0x26e>
10003b80:	28b3      	cmp	r0, #179	; 0xb3
10003b82:	d041      	beq.n	10003c08 <__gnu_unwind_execute+0x1b4>
10003b84:	f000 03fc 	and.w	r3, r0, #252	; 0xfc
10003b88:	2bb4      	cmp	r3, #180	; 0xb4
10003b8a:	d090      	beq.n	10003aae <__gnu_unwind_execute+0x5a>
10003b8c:	f000 0207 	and.w	r2, r0, #7
10003b90:	2301      	movs	r3, #1
10003b92:	441a      	add	r2, r3
10003b94:	f442 2200 	orr.w	r2, r2, #524288	; 0x80000
10003b98:	4619      	mov	r1, r3
10003b9a:	4630      	mov	r0, r6
10003b9c:	f7ff fcfe 	bl	1000359c <_Unwind_VRS_Pop>
10003ba0:	2800      	cmp	r0, #0
10003ba2:	f43f af5e 	beq.w	10003a62 <__gnu_unwind_execute+0xe>
10003ba6:	e782      	b.n	10003aae <__gnu_unwind_execute+0x5a>
10003ba8:	28c6      	cmp	r0, #198	; 0xc6
10003baa:	d051      	beq.n	10003c50 <__gnu_unwind_execute+0x1fc>
10003bac:	28c7      	cmp	r0, #199	; 0xc7
10003bae:	d062      	beq.n	10003c76 <__gnu_unwind_execute+0x222>
10003bb0:	f000 03f8 	and.w	r3, r0, #248	; 0xf8
10003bb4:	2bc0      	cmp	r3, #192	; 0xc0
10003bb6:	d071      	beq.n	10003c9c <__gnu_unwind_execute+0x248>
10003bb8:	28c8      	cmp	r0, #200	; 0xc8
10003bba:	d076      	beq.n	10003caa <__gnu_unwind_execute+0x256>
10003bbc:	28c9      	cmp	r0, #201	; 0xc9
10003bbe:	f47f af76 	bne.w	10003aae <__gnu_unwind_execute+0x5a>
10003bc2:	4628      	mov	r0, r5
10003bc4:	f7ff ff1a 	bl	100039fc <next_unwind_byte>
10003bc8:	0302      	lsls	r2, r0, #12
10003bca:	f000 000f 	and.w	r0, r0, #15
10003bce:	f402 2270 	and.w	r2, r2, #983040	; 0xf0000
10003bd2:	3001      	adds	r0, #1
10003bd4:	4302      	orrs	r2, r0
10003bd6:	2101      	movs	r1, #1
10003bd8:	2305      	movs	r3, #5
10003bda:	4630      	mov	r0, r6
10003bdc:	f7ff fcde 	bl	1000359c <_Unwind_VRS_Pop>
10003be0:	2800      	cmp	r0, #0
10003be2:	f43f af3e 	beq.w	10003a62 <__gnu_unwind_execute+0xe>
10003be6:	e762      	b.n	10003aae <__gnu_unwind_execute+0x5a>
10003be8:	f1b8 0f00 	cmp.w	r8, #0
10003bec:	d01f      	beq.n	10003c2e <__gnu_unwind_execute+0x1da>
10003bee:	2000      	movs	r0, #0
10003bf0:	e75e      	b.n	10003ab0 <__gnu_unwind_execute+0x5c>
10003bf2:	4628      	mov	r0, r5
10003bf4:	f7ff ff02 	bl	100039fc <next_unwind_byte>
10003bf8:	4602      	mov	r2, r0
10003bfa:	2800      	cmp	r0, #0
10003bfc:	f43f af57 	beq.w	10003aae <__gnu_unwind_execute+0x5a>
10003c00:	f010 03f0 	ands.w	r3, r0, #240	; 0xf0
10003c04:	d0c8      	beq.n	10003b98 <__gnu_unwind_execute+0x144>
10003c06:	e752      	b.n	10003aae <__gnu_unwind_execute+0x5a>
10003c08:	4628      	mov	r0, r5
10003c0a:	f7ff fef7 	bl	100039fc <next_unwind_byte>
10003c0e:	f000 030f 	and.w	r3, r0, #15
10003c12:	0302      	lsls	r2, r0, #12
10003c14:	4630      	mov	r0, r6
10003c16:	3301      	adds	r3, #1
10003c18:	f402 2270 	and.w	r2, r2, #983040	; 0xf0000
10003c1c:	431a      	orrs	r2, r3
10003c1e:	2301      	movs	r3, #1
10003c20:	4619      	mov	r1, r3
10003c22:	f7ff fcbb 	bl	1000359c <_Unwind_VRS_Pop>
10003c26:	2800      	cmp	r0, #0
10003c28:	f43f af1b 	beq.w	10003a62 <__gnu_unwind_execute+0xe>
10003c2c:	e73f      	b.n	10003aae <__gnu_unwind_execute+0x5a>
10003c2e:	ac03      	add	r4, sp, #12
10003c30:	4643      	mov	r3, r8
10003c32:	220e      	movs	r2, #14
10003c34:	4641      	mov	r1, r8
10003c36:	4630      	mov	r0, r6
10003c38:	9400      	str	r4, [sp, #0]
10003c3a:	f7ff fabb 	bl	100031b4 <_Unwind_VRS_Get>
10003c3e:	4643      	mov	r3, r8
10003c40:	220f      	movs	r2, #15
10003c42:	4630      	mov	r0, r6
10003c44:	4641      	mov	r1, r8
10003c46:	9400      	str	r4, [sp, #0]
10003c48:	f7ff fada 	bl	10003200 <_Unwind_VRS_Set>
10003c4c:	4640      	mov	r0, r8
10003c4e:	e72f      	b.n	10003ab0 <__gnu_unwind_execute+0x5c>
10003c50:	4628      	mov	r0, r5
10003c52:	f7ff fed3 	bl	100039fc <next_unwind_byte>
10003c56:	f000 030f 	and.w	r3, r0, #15
10003c5a:	0302      	lsls	r2, r0, #12
10003c5c:	4630      	mov	r0, r6
10003c5e:	3301      	adds	r3, #1
10003c60:	f402 2270 	and.w	r2, r2, #983040	; 0xf0000
10003c64:	431a      	orrs	r2, r3
10003c66:	2303      	movs	r3, #3
10003c68:	4619      	mov	r1, r3
10003c6a:	f7ff fc97 	bl	1000359c <_Unwind_VRS_Pop>
10003c6e:	2800      	cmp	r0, #0
10003c70:	f43f aef7 	beq.w	10003a62 <__gnu_unwind_execute+0xe>
10003c74:	e71b      	b.n	10003aae <__gnu_unwind_execute+0x5a>
10003c76:	4628      	mov	r0, r5
10003c78:	f7ff fec0 	bl	100039fc <next_unwind_byte>
10003c7c:	4602      	mov	r2, r0
10003c7e:	2800      	cmp	r0, #0
10003c80:	f43f af15 	beq.w	10003aae <__gnu_unwind_execute+0x5a>
10003c84:	f010 03f0 	ands.w	r3, r0, #240	; 0xf0
10003c88:	f47f af11 	bne.w	10003aae <__gnu_unwind_execute+0x5a>
10003c8c:	2104      	movs	r1, #4
10003c8e:	4630      	mov	r0, r6
10003c90:	f7ff fc84 	bl	1000359c <_Unwind_VRS_Pop>
10003c94:	2800      	cmp	r0, #0
10003c96:	f43f aee4 	beq.w	10003a62 <__gnu_unwind_execute+0xe>
10003c9a:	e708      	b.n	10003aae <__gnu_unwind_execute+0x5a>
10003c9c:	f000 020f 	and.w	r2, r0, #15
10003ca0:	2303      	movs	r3, #3
10003ca2:	3201      	adds	r2, #1
10003ca4:	f442 2220 	orr.w	r2, r2, #655360	; 0xa0000
10003ca8:	e776      	b.n	10003b98 <__gnu_unwind_execute+0x144>
10003caa:	4628      	mov	r0, r5
10003cac:	f7ff fea6 	bl	100039fc <next_unwind_byte>
10003cb0:	f000 02f0 	and.w	r2, r0, #240	; 0xf0
10003cb4:	f000 030f 	and.w	r3, r0, #15
10003cb8:	3210      	adds	r2, #16
10003cba:	3301      	adds	r3, #1
10003cbc:	ea43 3202 	orr.w	r2, r3, r2, lsl #12
10003cc0:	e789      	b.n	10003bd6 <__gnu_unwind_execute+0x182>
10003cc2:	2300      	movs	r3, #0
10003cc4:	f10d 090c 	add.w	r9, sp, #12
10003cc8:	220d      	movs	r2, #13
10003cca:	4630      	mov	r0, r6
10003ccc:	4619      	mov	r1, r3
10003cce:	f8cd 9000 	str.w	r9, [sp]
10003cd2:	f7ff fa6f 	bl	100031b4 <_Unwind_VRS_Get>
10003cd6:	4628      	mov	r0, r5
10003cd8:	f7ff fe90 	bl	100039fc <next_unwind_byte>
10003cdc:	0602      	lsls	r2, r0, #24
10003cde:	f04f 0402 	mov.w	r4, #2
10003ce2:	d50b      	bpl.n	10003cfc <__gnu_unwind_execute+0x2a8>
10003ce4:	f000 007f 	and.w	r0, r0, #127	; 0x7f
10003ce8:	9b03      	ldr	r3, [sp, #12]
10003cea:	40a0      	lsls	r0, r4
10003cec:	3407      	adds	r4, #7
10003cee:	4418      	add	r0, r3
10003cf0:	9003      	str	r0, [sp, #12]
10003cf2:	4628      	mov	r0, r5
10003cf4:	f7ff fe82 	bl	100039fc <next_unwind_byte>
10003cf8:	0603      	lsls	r3, r0, #24
10003cfa:	d4f3      	bmi.n	10003ce4 <__gnu_unwind_execute+0x290>
10003cfc:	9b03      	ldr	r3, [sp, #12]
10003cfe:	f000 027f 	and.w	r2, r0, #127	; 0x7f
10003d02:	f8cd 9000 	str.w	r9, [sp]
10003d06:	4630      	mov	r0, r6
10003d08:	40a2      	lsls	r2, r4
10003d0a:	f503 7301 	add.w	r3, r3, #516	; 0x204
10003d0e:	441a      	add	r2, r3
10003d10:	2300      	movs	r3, #0
10003d12:	9203      	str	r2, [sp, #12]
10003d14:	4619      	mov	r1, r3
10003d16:	220d      	movs	r2, #13
10003d18:	f7ff fa72 	bl	10003200 <_Unwind_VRS_Set>
10003d1c:	e6a1      	b.n	10003a62 <__gnu_unwind_execute+0xe>
10003d1e:	bf00      	nop

10003d20 <__gnu_unwind_frame>:
10003d20:	6cc2      	ldr	r2, [r0, #76]	; 0x4c
10003d22:	460b      	mov	r3, r1
10003d24:	f04f 0c03 	mov.w	ip, #3
10003d28:	4618      	mov	r0, r3
10003d2a:	3208      	adds	r2, #8
10003d2c:	f852 3c04 	ldr.w	r3, [r2, #-4]
10003d30:	b500      	push	{lr}
10003d32:	b085      	sub	sp, #20
10003d34:	9202      	str	r2, [sp, #8]
10003d36:	a901      	add	r1, sp, #4
10003d38:	0e1a      	lsrs	r2, r3, #24
10003d3a:	f88d c00c 	strb.w	ip, [sp, #12]
10003d3e:	021b      	lsls	r3, r3, #8
10003d40:	f88d 200d 	strb.w	r2, [sp, #13]
10003d44:	9301      	str	r3, [sp, #4]
10003d46:	f7ff fe85 	bl	10003a54 <__gnu_unwind_execute>
10003d4a:	b005      	add	sp, #20
10003d4c:	f85d fb04 	ldr.w	pc, [sp], #4

10003d50 <_Unwind_GetRegionStart>:
10003d50:	b508      	push	{r3, lr}
10003d52:	f7ff fe7d 	bl	10003a50 <unwind_UCB_from_context>
10003d56:	6c80      	ldr	r0, [r0, #72]	; 0x48
10003d58:	bd08      	pop	{r3, pc}
10003d5a:	bf00      	nop

10003d5c <_Unwind_GetLanguageSpecificData>:
10003d5c:	b508      	push	{r3, lr}
10003d5e:	f7ff fe77 	bl	10003a50 <unwind_UCB_from_context>
10003d62:	6cc0      	ldr	r0, [r0, #76]	; 0x4c
10003d64:	79c3      	ldrb	r3, [r0, #7]
10003d66:	3302      	adds	r3, #2
10003d68:	eb00 0083 	add.w	r0, r0, r3, lsl #2
10003d6c:	bd08      	pop	{r3, pc}
10003d6e:	bf00      	nop

10003d70 <__aeabi_idiv0>:
10003d70:	4770      	bx	lr
10003d72:	bf00      	nop

10003d74 <abort>:
10003d74:	2006      	movs	r0, #6
10003d76:	b508      	push	{r3, lr}
10003d78:	f000 f87a 	bl	10003e70 <raise>
10003d7c:	2001      	movs	r0, #1
10003d7e:	f7fe f8ed 	bl	10001f5c <_exit>
10003d82:	bf00      	nop

10003d84 <memcpy>:
10003d84:	4684      	mov	ip, r0
10003d86:	ea41 0300 	orr.w	r3, r1, r0
10003d8a:	f013 0303 	ands.w	r3, r3, #3
10003d8e:	d149      	bne.n	10003e24 <memcpy+0xa0>
10003d90:	3a40      	subs	r2, #64	; 0x40
10003d92:	d323      	bcc.n	10003ddc <memcpy+0x58>
10003d94:	680b      	ldr	r3, [r1, #0]
10003d96:	6003      	str	r3, [r0, #0]
10003d98:	684b      	ldr	r3, [r1, #4]
10003d9a:	6043      	str	r3, [r0, #4]
10003d9c:	688b      	ldr	r3, [r1, #8]
10003d9e:	6083      	str	r3, [r0, #8]
10003da0:	68cb      	ldr	r3, [r1, #12]
10003da2:	60c3      	str	r3, [r0, #12]
10003da4:	690b      	ldr	r3, [r1, #16]
10003da6:	6103      	str	r3, [r0, #16]
10003da8:	694b      	ldr	r3, [r1, #20]
10003daa:	6143      	str	r3, [r0, #20]
10003dac:	698b      	ldr	r3, [r1, #24]
10003dae:	6183      	str	r3, [r0, #24]
10003db0:	69cb      	ldr	r3, [r1, #28]
10003db2:	61c3      	str	r3, [r0, #28]
10003db4:	6a0b      	ldr	r3, [r1, #32]
10003db6:	6203      	str	r3, [r0, #32]
10003db8:	6a4b      	ldr	r3, [r1, #36]	; 0x24
10003dba:	6243      	str	r3, [r0, #36]	; 0x24
10003dbc:	6a8b      	ldr	r3, [r1, #40]	; 0x28
10003dbe:	6283      	str	r3, [r0, #40]	; 0x28
10003dc0:	6acb      	ldr	r3, [r1, #44]	; 0x2c
10003dc2:	62c3      	str	r3, [r0, #44]	; 0x2c
10003dc4:	6b0b      	ldr	r3, [r1, #48]	; 0x30
10003dc6:	6303      	str	r3, [r0, #48]	; 0x30
10003dc8:	6b4b      	ldr	r3, [r1, #52]	; 0x34
10003dca:	6343      	str	r3, [r0, #52]	; 0x34
10003dcc:	6b8b      	ldr	r3, [r1, #56]	; 0x38
10003dce:	6383      	str	r3, [r0, #56]	; 0x38
10003dd0:	6bcb      	ldr	r3, [r1, #60]	; 0x3c
10003dd2:	63c3      	str	r3, [r0, #60]	; 0x3c
10003dd4:	3040      	adds	r0, #64	; 0x40
10003dd6:	3140      	adds	r1, #64	; 0x40
10003dd8:	3a40      	subs	r2, #64	; 0x40
10003dda:	d2db      	bcs.n	10003d94 <memcpy+0x10>
10003ddc:	3230      	adds	r2, #48	; 0x30
10003dde:	d30b      	bcc.n	10003df8 <memcpy+0x74>
10003de0:	680b      	ldr	r3, [r1, #0]
10003de2:	6003      	str	r3, [r0, #0]
10003de4:	684b      	ldr	r3, [r1, #4]
10003de6:	6043      	str	r3, [r0, #4]
10003de8:	688b      	ldr	r3, [r1, #8]
10003dea:	6083      	str	r3, [r0, #8]
10003dec:	68cb      	ldr	r3, [r1, #12]
10003dee:	60c3      	str	r3, [r0, #12]
10003df0:	3010      	adds	r0, #16
10003df2:	3110      	adds	r1, #16
10003df4:	3a10      	subs	r2, #16
10003df6:	d2f3      	bcs.n	10003de0 <memcpy+0x5c>
10003df8:	320c      	adds	r2, #12
10003dfa:	d305      	bcc.n	10003e08 <memcpy+0x84>
10003dfc:	f851 3b04 	ldr.w	r3, [r1], #4
10003e00:	f840 3b04 	str.w	r3, [r0], #4
10003e04:	3a04      	subs	r2, #4
10003e06:	d2f9      	bcs.n	10003dfc <memcpy+0x78>
10003e08:	3204      	adds	r2, #4
10003e0a:	d008      	beq.n	10003e1e <memcpy+0x9a>
10003e0c:	07d2      	lsls	r2, r2, #31
10003e0e:	bf1c      	itt	ne
10003e10:	f811 3b01 	ldrbne.w	r3, [r1], #1
10003e14:	f800 3b01 	strbne.w	r3, [r0], #1
10003e18:	d301      	bcc.n	10003e1e <memcpy+0x9a>
10003e1a:	880b      	ldrh	r3, [r1, #0]
10003e1c:	8003      	strh	r3, [r0, #0]
10003e1e:	4660      	mov	r0, ip
10003e20:	4770      	bx	lr
10003e22:	bf00      	nop
10003e24:	2a08      	cmp	r2, #8
10003e26:	d313      	bcc.n	10003e50 <memcpy+0xcc>
10003e28:	078b      	lsls	r3, r1, #30
10003e2a:	d0b1      	beq.n	10003d90 <memcpy+0xc>
10003e2c:	f010 0303 	ands.w	r3, r0, #3
10003e30:	d0ae      	beq.n	10003d90 <memcpy+0xc>
10003e32:	f1c3 0304 	rsb	r3, r3, #4
10003e36:	1ad2      	subs	r2, r2, r3
10003e38:	07db      	lsls	r3, r3, #31
10003e3a:	bf1c      	itt	ne
10003e3c:	f811 3b01 	ldrbne.w	r3, [r1], #1
10003e40:	f800 3b01 	strbne.w	r3, [r0], #1
10003e44:	d3a4      	bcc.n	10003d90 <memcpy+0xc>
10003e46:	f831 3b02 	ldrh.w	r3, [r1], #2
10003e4a:	f820 3b02 	strh.w	r3, [r0], #2
10003e4e:	e79f      	b.n	10003d90 <memcpy+0xc>
10003e50:	3a04      	subs	r2, #4
10003e52:	d3d9      	bcc.n	10003e08 <memcpy+0x84>
10003e54:	3a01      	subs	r2, #1
10003e56:	f811 3b01 	ldrb.w	r3, [r1], #1
10003e5a:	f800 3b01 	strb.w	r3, [r0], #1
10003e5e:	d2f9      	bcs.n	10003e54 <memcpy+0xd0>
10003e60:	780b      	ldrb	r3, [r1, #0]
10003e62:	7003      	strb	r3, [r0, #0]
10003e64:	784b      	ldrb	r3, [r1, #1]
10003e66:	7043      	strb	r3, [r0, #1]
10003e68:	788b      	ldrb	r3, [r1, #2]
10003e6a:	7083      	strb	r3, [r0, #2]
10003e6c:	4660      	mov	r0, ip
10003e6e:	4770      	bx	lr

10003e70 <raise>:
10003e70:	b538      	push	{r3, r4, r5, lr}
10003e72:	281f      	cmp	r0, #31
10003e74:	4b14      	ldr	r3, [pc, #80]	; (10003ec8 <raise+0x58>)
10003e76:	681d      	ldr	r5, [r3, #0]
10003e78:	d820      	bhi.n	10003ebc <raise+0x4c>
10003e7a:	f8d5 22dc 	ldr.w	r2, [r5, #732]	; 0x2dc
10003e7e:	4604      	mov	r4, r0
10003e80:	b162      	cbz	r2, 10003e9c <raise+0x2c>
10003e82:	f852 3020 	ldr.w	r3, [r2, r0, lsl #2]
10003e86:	b14b      	cbz	r3, 10003e9c <raise+0x2c>
10003e88:	2b01      	cmp	r3, #1
10003e8a:	d015      	beq.n	10003eb8 <raise+0x48>
10003e8c:	1c59      	adds	r1, r3, #1
10003e8e:	d00f      	beq.n	10003eb0 <raise+0x40>
10003e90:	2500      	movs	r5, #0
10003e92:	f842 5020 	str.w	r5, [r2, r0, lsl #2]
10003e96:	4798      	blx	r3
10003e98:	4628      	mov	r0, r5
10003e9a:	bd38      	pop	{r3, r4, r5, pc}
10003e9c:	4628      	mov	r0, r5
10003e9e:	f000 f82b 	bl	10003ef8 <_getpid_r>
10003ea2:	4622      	mov	r2, r4
10003ea4:	4601      	mov	r1, r0
10003ea6:	4628      	mov	r0, r5
10003ea8:	e8bd 4038 	ldmia.w	sp!, {r3, r4, r5, lr}
10003eac:	f000 b80e 	b.w	10003ecc <_kill_r>
10003eb0:	2316      	movs	r3, #22
10003eb2:	2001      	movs	r0, #1
10003eb4:	602b      	str	r3, [r5, #0]
10003eb6:	bd38      	pop	{r3, r4, r5, pc}
10003eb8:	2000      	movs	r0, #0
10003eba:	bd38      	pop	{r3, r4, r5, pc}
10003ebc:	2316      	movs	r3, #22
10003ebe:	f04f 30ff 	mov.w	r0, #4294967295	; 0xffffffff
10003ec2:	602b      	str	r3, [r5, #0]
10003ec4:	bd38      	pop	{r3, r4, r5, pc}
10003ec6:	bf00      	nop
10003ec8:	38000004 	stmdacc	r0, {r2}

10003ecc <_kill_r>:
10003ecc:	b570      	push	{r4, r5, r6, lr}
10003ece:	460c      	mov	r4, r1
10003ed0:	4603      	mov	r3, r0
10003ed2:	4d08      	ldr	r5, [pc, #32]	; (10003ef4 <_kill_r+0x28>)
10003ed4:	2600      	movs	r6, #0
10003ed6:	4620      	mov	r0, r4
10003ed8:	4611      	mov	r1, r2
10003eda:	461c      	mov	r4, r3
10003edc:	602e      	str	r6, [r5, #0]
10003ede:	f7fe f835 	bl	10001f4c <_kill>
10003ee2:	1c43      	adds	r3, r0, #1
10003ee4:	d000      	beq.n	10003ee8 <_kill_r+0x1c>
10003ee6:	bd70      	pop	{r4, r5, r6, pc}
10003ee8:	682b      	ldr	r3, [r5, #0]
10003eea:	2b00      	cmp	r3, #0
10003eec:	d0fb      	beq.n	10003ee6 <_kill_r+0x1a>
10003eee:	6023      	str	r3, [r4, #0]
10003ef0:	bd70      	pop	{r4, r5, r6, pc}
10003ef2:	bf00      	nop
10003ef4:	380005a8 	stmdacc	r0, {r3, r5, r7, r8, sl}

10003ef8 <_getpid_r>:
10003ef8:	f7fe b826 	b.w	10001f48 <_getpid>

10003efc <_init>:
10003efc:	b5f8      	push	{r3, r4, r5, r6, r7, lr}
10003efe:	bf00      	nop
10003f00:	bcf8      	pop	{r3, r4, r5, r6, r7}
10003f02:	bc08      	pop	{r3}
10003f04:	469e      	mov	lr, r3
10003f06:	4770      	bx	lr

10003f08 <_fini>:
10003f08:	b5f8      	push	{r3, r4, r5, r6, r7, lr}
10003f0a:	bf00      	nop
10003f0c:	bcf8      	pop	{r3, r4, r5, r6, r7}
10003f0e:	bc08      	pop	{r3}
10003f10:	469e      	mov	lr, r3
10003f12:	4770      	bx	lr
10003f14:	72646461 	rsbvc	r6, r4, #1627389952	; 0x61000000
10003f18:	2578303a 	ldrbcs	r3, [r8, #-58]!	; 0xffffffc6
10003f1c:	2d583230 	lfmcs	f3, 2, [r8, #-192]	; 0xffffff40
10003f20:	756c6176 	strbvc	r6, [ip, #-374]!	; 0xfffffe8a
10003f24:	78303a65 	ldmdavc	r0!, {r0, r2, r5, r6, r9, fp, ip, sp}
10003f28:	58383025 	ldmdapl	r8!, {r0, r2, r5, ip, sp}
10003f2c:	00000a0d 	andeq	r0, r0, sp, lsl #20
10003f30:	6c6c6143 	stfvse	f6, [ip], #-268	; 0xfffffef4
10003f34:	63617453 	cmnvs	r1, #1392508928	; 0x53000000
10003f38:	7564206b 	strbvc	r2, [r4, #-107]!	; 0xffffff95
10003f3c:	6520706d 	strvs	r7, [r0, #-109]!	; 0xffffff93
10003f40:	726f7272 	rsbvc	r7, pc, #536870919	; 0x20000007
10003f44:	6425203a 	strtvs	r2, [r5], #-58	; 0xffffffc6
10003f48:	00000a0d 	andeq	r0, r0, sp, lsl #20
10003f4c:	6c6c6143 	stfvse	f6, [ip], #-268	; 0xfffffef4
10003f50:	63617453 	cmnvs	r1, #1392508928	; 0x53000000
10003f54:	205b3a6b 	subscs	r3, fp, fp, ror #20
10003f58:	00000000 	andeq	r0, r0, r0
10003f5c:	58383025 	ldmdapl	r8!, {r0, r2, r5, ip, sp}
10003f60:	00000020 	andeq	r0, r0, r0, lsr #32
10003f64:	000d205d 	andeq	r2, sp, sp, asr r0
10003f68:	73696874 	cmnvc	r9, #116, 16	; 0x740000
10003f6c:	20736920 	rsbscs	r6, r3, r0, lsr #18
10003f70:	0d2e7325 	stceq	3, cr7, [lr, #-148]!	; 0xffffff6c
10003f74:	0000000a 	andeq	r0, r0, sl
10003f78:	72617453 	rsbvc	r7, r1, #1392508928	; 0x53000000
10003f7c:	00000d74 	andeq	r0, r0, r4, ror sp
10003f80:	6c6c6568 	cfstr64vs	mvdx6, [ip], #-416	; 0xfffffe60
10003f84:	6f77206f 	svcvs	0x0077206f
10003f88:	20646c72 	rsbcs	r6, r4, r2, ror ip
10003f8c:	6425202d 	strtvs	r2, [r5], #-45	; 0xffffffd3
10003f90:	000a0d2e 	andeq	r0, sl, lr, lsr #26

10003f94 <__func__.0>:
10003f94:	74736574 	ldrbtvc	r6, [r3], #-1396	; 0xfffffa8c
10003f98:	00000035 	andeq	r0, r0, r5, lsr r0

10003f9c <__func__.1>:
10003f9c:	74736574 	ldrbtvc	r6, [r3], #-1396	; 0xfffffa8c
10003fa0:	00000034 	andeq	r0, r0, r4, lsr r0

10003fa4 <__func__.2>:
10003fa4:	74736574 	ldrbtvc	r6, [r3], #-1396	; 0xfffffa8c
10003fa8:	00000033 	andeq	r0, r0, r3, lsr r0

10003fac <__func__.3>:
10003fac:	74736574 	ldrbtvc	r6, [r3], #-1396	; 0xfffffa8c
10003fb0:	00000032 	andeq	r0, r0, r2, lsr r0

10003fb4 <__func__.4>:
10003fb4:	74736574 	ldrbtvc	r6, [r3], #-1396	; 0xfffffa8c
10003fb8:	00000031 	andeq	r0, r0, r1, lsr r0

10003fbc <__func__.5>:
10003fbc:	74736574 	ldrbtvc	r6, [r3], #-1396	; 0xfffffa8c
10003fc0:	00000030 	andeq	r0, r0, r0, lsr r0
10003fc4:	00696e66 	rsbeq	r6, r9, r6, ror #28
10003fc8:	2b696e66 	blcs	11a5f968 <__copy_table_end__+0x1a5b434>
10003fcc:	00000000 	andeq	r0, r0, r0
10003fd0:	006e616e 	rsbeq	r6, lr, lr, ror #2
10003fd4:	2d696e66 	stclcs	14, cr6, [r9, #-408]!	; 0xfffffe68
	...

10003fe0 <pow10.0>:
10003fe0:	00000000 	andeq	r0, r0, r0
10003fe4:	3ff00000 	svccc	0x00f00000	; IMB
10003fe8:	00000000 	andeq	r0, r0, r0
10003fec:	40240000 	eormi	r0, r4, r0
10003ff0:	00000000 	andeq	r0, r0, r0
10003ff4:	40590000 	subsmi	r0, r9, r0
10003ff8:	00000000 	andeq	r0, r0, r0
10003ffc:	408f4000 	addmi	r4, pc, r0
10004000:	00000000 	andeq	r0, r0, r0
10004004:	40c38800 	sbcmi	r8, r3, r0, lsl #16
10004008:	00000000 	andeq	r0, r0, r0
1000400c:	40f86a00 	rscsmi	r6, r8, r0, lsl #20
10004010:	00000000 	andeq	r0, r0, r0
10004014:	412e8480 	smlawbmi	lr, r0, r4, r8
10004018:	00000000 	andeq	r0, r0, r0
1000401c:	416312d0 	ldrdmi	r1, [r3, #-32]!	; 0xffffffe0
10004020:	00000000 	andeq	r0, r0, r0
10004024:	4197d784 	orrsmi	sp, r7, r4, lsl #15
10004028:	00000000 	andeq	r0, r0, r0
1000402c:	41cdcd65 	bicmi	ip, sp, r5, ror #26
10004030:	45584520 	ldrbmi	r4, [r8, #-1312]	; 0xfffffae0
10004034:	5445525f 	strbpl	r5, [r5], #-607	; 0xfffffda1
10004038:	3a4e5255 	bcc	11398994 <__copy_table_end__+0x1394460>
1000403c:	25783020 	ldrbcs	r3, [r8, #-32]!	; 0xffffffe0
10004040:	20583830 	subscs	r3, r8, r0, lsr r8
10004044:	00000a0d 	andeq	r0, r0, sp, lsl #20
10004048:	65646f43 	strbvs	r6, [r4, #-3907]!	; 0xfffff0bd
1000404c:	61745320 	cmnvs	r4, r0, lsr #6
10004050:	5b3a6b63 	blpl	10e9ede4 <__copy_table_end__+0xe9a8b0>
10004054:	58383025 	ldmdapl	r8!, {r0, r2, r5, ip, sp}
10004058:	25202d20 	strcs	r2, [r0, #-3360]!	; 0xfffff2e0
1000405c:	5d583830 	ldclpl	8, cr3, [r8, #-192]	; 0xffffff40
10004060:	6973202c 	ldmdbvs	r3!, {r2, r3, r5, sp}^
10004064:	253a657a 	ldrcs	r6, [sl, #-1402]!	; 0xfffffa86
10004068:	000a0d64 	andeq	r0, sl, r4, ror #26
1000406c:	65646f43 	strbvs	r6, [r4, #-3907]!	; 0xfffff0bd
10004070:	78655420 	stmdavc	r5!, {r5, sl, ip, lr}^
10004074:	5b3a2074 	blpl	10e8c24c <__copy_table_end__+0xe87d18>
10004078:	58383025 	ldmdapl	r8!, {r0, r2, r5, ip, sp}
1000407c:	25202d20 	strcs	r2, [r0, #-3360]!	; 0xfffff2e0
10004080:	5d583830 	ldclpl	8, cr3, [r8, #-192]	; 0xffffff40
10004084:	6973202c 	ldmdbvs	r3!, {r2, r3, r5, sp}^
10004088:	253a657a 	ldrcs	r6, [sl, #-1402]!	; 0xfffffa86
1000408c:	000a0d64 	andeq	r0, sl, r4, ror #26
10004090:	65646f43 	strbvs	r6, [r4, #-3907]!	; 0xfffff0bd
10004094:	61745320 	cmnvs	r4, r0, lsr #6
10004098:	47206b63 	strmi	r6, [r0, -r3, ror #22]!
1000409c:	74776f72 	ldrbtvc	r6, [r7], #-3954	; 0xfffff08e
100040a0:	6f442068 	svcvs	0x00442068
100040a4:	61776e77 	cmnvs	r7, r7, ror lr
100040a8:	253a6472 	ldrcs	r6, [sl, #-1138]!	; 0xfffffb8e
100040ac:	000a0d64 	andeq	r0, sl, r4, ror #26
100040b0:	72614820 	rsbvc	r4, r1, #32, 16	; 0x200000
100040b4:	75614664 	strbvc	r4, [r1, #-1636]!	; 0xfffff99c
100040b8:	4920746c 	stmdbmi	r0!, {r2, r3, r5, r6, sl, ip, sp, lr}
100040bc:	726f666e 	rsbvc	r6, pc, #115343360	; 0x6e00000
100040c0:	6974616d 	ldmdbvs	r4!, {r0, r2, r3, r5, r6, r8, sp, lr}^
100040c4:	44206e6f 	strtmi	r6, [r0], #-3695	; 0xfffff191
100040c8:	20706d75 	rsbscs	r6, r0, r5, ror sp
100040cc:	0000000d 	andeq	r0, r0, sp
100040d0:	61745320 	cmnvs	r4, r0, lsr #6
100040d4:	46206b63 	strtmi	r6, [r0], -r3, ror #22
100040d8:	656d6172 	strbvs	r6, [sp, #-370]!	; 0xfffffe8e
100040dc:	0d202020 	stceq	0, cr2, [r0, #-128]!	; 0xffffff80
100040e0:	00000000 	andeq	r0, r0, r0
100040e4:	20305220 	eorscs	r5, r0, r0, lsr #4
100040e8:	203d2020 	eorscs	r2, sp, r0, lsr #32
100040ec:	30257830 	eorcc	r7, r5, r0, lsr r8
100040f0:	0d205838 	stceq	8, cr5, [r0, #-224]!	; 0xffffff20
100040f4:	0000000a 	andeq	r0, r0, sl
100040f8:	20315220 	eorscs	r5, r1, r0, lsr #4
100040fc:	203d2020 	eorscs	r2, sp, r0, lsr #32
10004100:	30257830 	eorcc	r7, r5, r0, lsr r8
10004104:	0d205838 	stceq	8, cr5, [r0, #-224]!	; 0xffffff20
10004108:	0000000a 	andeq	r0, r0, sl
1000410c:	20325220 	eorscs	r5, r2, r0, lsr #4
10004110:	203d2020 	eorscs	r2, sp, r0, lsr #32
10004114:	30257830 	eorcc	r7, r5, r0, lsr r8
10004118:	0d205838 	stceq	8, cr5, [r0, #-224]!	; 0xffffff20
1000411c:	0000000a 	andeq	r0, r0, sl
10004120:	20335220 	eorscs	r5, r3, r0, lsr #4
10004124:	203d2020 	eorscs	r2, sp, r0, lsr #32
10004128:	30257830 	eorcc	r7, r5, r0, lsr r8
1000412c:	0d205838 	stceq	8, cr5, [r0, #-224]!	; 0xffffff20
10004130:	0000000a 	andeq	r0, r0, sl
10004134:	20345220 	eorscs	r5, r4, r0, lsr #4
10004138:	203d2020 	eorscs	r2, sp, r0, lsr #32
1000413c:	30257830 	eorcc	r7, r5, r0, lsr r8
10004140:	0d205838 	stceq	8, cr5, [r0, #-224]!	; 0xffffff20
10004144:	0000000a 	andeq	r0, r0, sl
10004148:	20355220 	eorscs	r5, r5, r0, lsr #4
1000414c:	203d2020 	eorscs	r2, sp, r0, lsr #32
10004150:	30257830 	eorcc	r7, r5, r0, lsr r8
10004154:	0d205838 	stceq	8, cr5, [r0, #-224]!	; 0xffffff20
10004158:	0000000a 	andeq	r0, r0, sl
1000415c:	20365220 	eorscs	r5, r6, r0, lsr #4
10004160:	203d2020 	eorscs	r2, sp, r0, lsr #32
10004164:	30257830 	eorcc	r7, r5, r0, lsr r8
10004168:	0d205838 	stceq	8, cr5, [r0, #-224]!	; 0xffffff20
1000416c:	0000000a 	andeq	r0, r0, sl
10004170:	20375220 	eorscs	r5, r7, r0, lsr #4
10004174:	203d2020 	eorscs	r2, sp, r0, lsr #32
10004178:	30257830 	eorcc	r7, r5, r0, lsr r8
1000417c:	0d205838 	stceq	8, cr5, [r0, #-224]!	; 0xffffff20
10004180:	0000000a 	andeq	r0, r0, sl
10004184:	20385220 	eorscs	r5, r8, r0, lsr #4
10004188:	203d2020 	eorscs	r2, sp, r0, lsr #32
1000418c:	30257830 	eorcc	r7, r5, r0, lsr r8
10004190:	0d205838 	stceq	8, cr5, [r0, #-224]!	; 0xffffff20
10004194:	0000000a 	andeq	r0, r0, sl
10004198:	20395220 	eorscs	r5, r9, r0, lsr #4
1000419c:	203d2020 	eorscs	r2, sp, r0, lsr #32
100041a0:	30257830 	eorcc	r7, r5, r0, lsr r8
100041a4:	0d205838 	stceq	8, cr5, [r0, #-224]!	; 0xffffff20
100041a8:	0000000a 	andeq	r0, r0, sl
100041ac:	30315220 	eorscc	r5, r1, r0, lsr #4
100041b0:	203d2020 	eorscs	r2, sp, r0, lsr #32
100041b4:	30257830 	eorcc	r7, r5, r0, lsr r8
100041b8:	0d205838 	stceq	8, cr5, [r0, #-224]!	; 0xffffff20
100041bc:	0000000a 	andeq	r0, r0, sl
100041c0:	31315220 	teqcc	r1, r0, lsr #4
100041c4:	203d2020 	eorscs	r2, sp, r0, lsr #32
100041c8:	30257830 	eorcc	r7, r5, r0, lsr r8
100041cc:	0d205838 	stceq	8, cr5, [r0, #-224]!	; 0xffffff20
100041d0:	0000000a 	andeq	r0, r0, sl
100041d4:	32315220 	eorscc	r5, r1, #32, 4
100041d8:	203d2020 	eorscs	r2, sp, r0, lsr #32
100041dc:	30257830 	eorcc	r7, r5, r0, lsr r8
100041e0:	0d205838 	stceq	8, cr5, [r0, #-224]!	; 0xffffff20
100041e4:	0000000a 	andeq	r0, r0, sl
100041e8:	20524c20 	subscs	r4, r2, r0, lsr #24
100041ec:	203d2020 	eorscs	r2, sp, r0, lsr #32
100041f0:	30257830 	eorcc	r7, r5, r0, lsr r8
100041f4:	0d205838 	stceq	8, cr5, [r0, #-224]!	; 0xffffff20
100041f8:	0000000a 	andeq	r0, r0, sl
100041fc:	20435020 	subcs	r5, r3, r0, lsr #32
10004200:	203d2020 	eorscs	r2, sp, r0, lsr #32
10004204:	30257830 	eorcc	r7, r5, r0, lsr r8
10004208:	0d205838 	stceq	8, cr5, [r0, #-224]!	; 0xffffff20
1000420c:	0000000a 	andeq	r0, r0, sl
10004210:	52535020 	subspl	r5, r3, #32
10004214:	203d2020 	eorscs	r2, sp, r0, lsr #32
10004218:	30257830 	eorcc	r7, r5, r0, lsr r8
1000421c:	0d205838 	stceq	8, cr5, [r0, #-224]!	; 0xffffff20
10004220:	0000000a 	andeq	r0, r0, sl
10004224:	61745320 	cmnvs	r4, r0, lsr #6
10004228:	43206b63 			; <UNDEFINED> instruction: 0x43206b63
1000422c:	3a6c6c61 	bcc	11b1f3b8 <__copy_table_end__+0x1b1ae84>
10004230:	00000020 	andeq	r0, r0, r0, lsr #32
10004234:	00000d20 	andeq	r0, r0, r0, lsr #26
10004238:	74694220 	strbtvc	r4, [r9], #-544	; 0xfffffde0
1000423c:	78452030 	stmdavc	r5, {r4, r5, sp}^
10004240:	74706563 	ldrbtvc	r6, [r0], #-1379	; 0xfffffa9d
10004244:	63655320 	cmnvs	r5, #32, 6	; 0x80000000
10004248:	74697275 	strbtvc	r7, [r9], #-629	; 0xfffffd8b
1000424c:	74532079 	ldrbvc	r2, [r3], #-121	; 0xffffff87
10004250:	3a657461 	bcc	119613dc <__copy_table_end__+0x195cea8>
10004254:	00000020 	andeq	r0, r0, r0, lsr #32
10004258:	6573555b 	ldrbvs	r5, [r3, #-1371]!	; 0xfffffaa5
1000425c:	63655320 	cmnvs	r5, #32, 6	; 0x80000000
10004260:	74697275 	strbtvc	r7, [r9], #-629	; 0xfffffd8b
10004264:	74532079 	ldrbvc	r2, [r3], #-121	; 0xffffff87
10004268:	20657461 	rsbcs	r7, r5, r1, ror #8
1000426c:	5d202020 	stcpl	0, cr2, [r0, #-128]!	; 0xffffff80
10004270:	00000d2e 	andeq	r0, r0, lr, lsr #26
10004274:	6573555b 	ldrbvs	r5, [r3, #-1371]!	; 0xfffffaa5
10004278:	746f4e20 	strbtvc	r4, [pc], #-3616	; 10004280 <pow10.0+0x2a0>
1000427c:	63655320 	cmnvs	r5, #32, 6	; 0x80000000
10004280:	74697275 	strbtvc	r7, [r9], #-629	; 0xfffffd8b
10004284:	74532079 	ldrbvc	r2, [r3], #-121	; 0xffffff87
10004288:	5d657461 	cfstrdpl	mvd7, [r5, #-388]!	; 0xfffffe7c
1000428c:	00000d2e 	andeq	r0, r0, lr, lsr #26
10004290:	74694220 	strbtvc	r4, [r9], #-544	; 0xfffffde0
10004294:	74532032 	ldrbvc	r2, [r3], #-50	; 0xffffffce
10004298:	206b6361 	rsbcs	r6, fp, r1, ror #6
1000429c:	6e696f50 	mcrvs	15, 3, r6, cr9, cr0, {2}
100042a0:	65532074 	ldrbvs	r2, [r3, #-116]	; 0xffffff8c
100042a4:	7463656c 	strbtvc	r6, [r3], #-1388	; 0xfffffa94
100042a8:	2020203a 	eorcs	r2, r0, sl, lsr r0
100042ac:	00000020 	andeq	r0, r0, r0, lsr #32
100042b0:	6573555b 	ldrbvs	r5, [r3, #-1371]!	; 0xfffffaa5
100042b4:	50535020 	subspl	r5, r3, r0, lsr #32
100042b8:	20202020 	eorcs	r2, r0, r0, lsr #32
100042bc:	20202020 	eorcs	r2, r0, r0, lsr #32
100042c0:	20202020 	eorcs	r2, r0, r0, lsr #32
100042c4:	5d202020 	stcpl	0, cr2, [r0, #-128]!	; 0xffffff80
100042c8:	00000d2e 	andeq	r0, r0, lr, lsr #26
100042cc:	6573555b 	ldrbvs	r5, [r3, #-1371]!	; 0xfffffaa5
100042d0:	50534d20 	subspl	r4, r3, r0, lsr #26
100042d4:	20202020 	eorcs	r2, r0, r0, lsr #32
100042d8:	20202020 	eorcs	r2, r0, r0, lsr #32
100042dc:	20202020 	eorcs	r2, r0, r0, lsr #32
100042e0:	5d202020 	stcpl	0, cr2, [r0, #-128]!	; 0xffffff80
100042e4:	00000d2e 	andeq	r0, r0, lr, lsr #26
100042e8:	74694220 	strbtvc	r4, [r9], #-544	; 0xfffffde0
100042ec:	72502033 	subsvc	r2, r0, #51	; 0x33
100042f0:	4d20636f 	stcmi	3, cr6, [r0, #-444]!	; 0xfffffe44
100042f4:	2065646f 	rsbcs	r6, r5, pc, ror #8
100042f8:	6f666542 	svcvs	0x00666542
100042fc:	49206572 	stmdbmi	r0!, {r1, r4, r5, r6, r8, sl, sp, lr}
10004300:	203a5152 	eorscs	r5, sl, r2, asr r1
10004304:	00000020 	andeq	r0, r0, r0, lsr #32
10004308:	6573555b 	ldrbvs	r5, [r3, #-1371]!	; 0xfffffaa5
1000430c:	72685420 	rsbvc	r5, r8, #32, 8	; 0x20000000
10004310:	20646165 	rsbcs	r6, r4, r5, ror #2
10004314:	65646f4d 	strbvs	r6, [r4, #-3917]!	; 0xfffff0b3
10004318:	20202020 	eorcs	r2, r0, r0, lsr #32
1000431c:	5d202020 	stcpl	0, cr2, [r0, #-128]!	; 0xffffff80
10004320:	00000d2e 	andeq	r0, r0, lr, lsr #26
10004324:	6573555b 	ldrbvs	r5, [r3, #-1371]!	; 0xfffffaa5
10004328:	6f725020 	svcvs	0x00725020
1000432c:	73736563 	cmnvc	r3, #415236096	; 0x18c00000
10004330:	646f4d20 	strbtvs	r4, [pc], #-3360	; 10004338 <pow10.0+0x358>
10004334:	20202065 	eorcs	r2, r0, r5, rrx
10004338:	5d202020 	stcpl	0, cr2, [r0, #-128]!	; 0xffffff80
1000433c:	00000d2e 	andeq	r0, r0, lr, lsr #26
10004340:	74694220 	strbtvc	r4, [r9], #-544	; 0xfffffde0
10004344:	74532034 	ldrbvc	r2, [r3], #-52	; 0xffffffcc
10004348:	206b6361 	rsbcs	r6, fp, r1, ror #6
1000434c:	6d617246 	sfmvs	f7, 2, [r1, #-280]!	; 0xfffffee8
10004350:	79542065 	ldmdbvc	r4, {r0, r2, r5, r6, sp}^
10004354:	203a6570 	eorscs	r6, sl, r0, ror r5
10004358:	20202020 	eorcs	r2, r0, r0, lsr #32
1000435c:	00000020 	andeq	r0, r0, r0, lsr #32
10004360:	6573555b 	ldrbvs	r5, [r3, #-1371]!	; 0xfffffaa5
10004364:	61745320 	cmnvs	r4, r0, lsr #6
10004368:	7261646e 	rsbvc	r6, r1, #1845493760	; 0x6e000000
1000436c:	72462064 	subvc	r2, r6, #100	; 0x64
10004370:	20656d61 	rsbcs	r6, r5, r1, ror #26
10004374:	5d202020 	stcpl	0, cr2, [r0, #-128]!	; 0xffffff80
10004378:	00000d2e 	andeq	r0, r0, lr, lsr #26
1000437c:	6573555b 	ldrbvs	r5, [r3, #-1371]!	; 0xfffffaa5
10004380:	74784520 	ldrbtvc	r4, [r8], #-1312	; 0xfffffae0
10004384:	65646e65 	strbvs	r6, [r4, #-3685]!	; 0xfffff19b
10004388:	72462064 	subvc	r2, r6, #100	; 0x64
1000438c:	20656d61 	rsbcs	r6, r5, r1, ror #26
10004390:	5d202020 	stcpl	0, cr2, [r0, #-128]!	; 0xffffff80
10004394:	00000d2e 	andeq	r0, r0, lr, lsr #26
10004398:	74694220 	strbtvc	r4, [r9], #-544	; 0xfffffde0
1000439c:	65442035 	strbvs	r2, [r4, #-53]	; 0xffffffcb
100043a0:	6c756166 	ldfvse	f6, [r5], #-408	; 0xfffffe68
100043a4:	61432074 	hvcvs	12804	; 0x3204
100043a8:	52206c6c 	eorpl	r6, r0, #108, 24	; 0x6c00
100043ac:	3a656c75 	bcc	1195f588 <__copy_table_end__+0x195b054>
100043b0:	20202020 	eorcs	r2, r0, r0, lsr #32
100043b4:	00000020 	andeq	r0, r0, r0, lsr #32
100043b8:	6573555b 	ldrbvs	r5, [r3, #-1371]!	; 0xfffffaa5
100043bc:	66654420 	strbtvs	r4, [r5], -r0, lsr #8
100043c0:	746c7561 	strbtvc	r7, [ip], #-1377	; 0xfffffa9f
100043c4:	6c755220 	lfmvs	f5, 2, [r5], #-128	; 0xffffff80
100043c8:	20202065 	eorcs	r2, r0, r5, rrx
100043cc:	5d202020 	stcpl	0, cr2, [r0, #-128]!	; 0xffffff80
100043d0:	00000d2e 	andeq	r0, r0, lr, lsr #26
100043d4:	6573555b 	ldrbvs	r5, [r3, #-1371]!	; 0xfffffaa5
100043d8:	746f4e20 	strbtvc	r4, [pc], #-3616	; 100043e0 <pow10.0+0x400>
100043dc:	66654420 	strbtvs	r4, [r5], -r0, lsr #8
100043e0:	746c7561 	strbtvc	r7, [ip], #-1377	; 0xfffffa9f
100043e4:	6c755220 	lfmvs	f5, 2, [r5], #-128	; 0xffffff80
100043e8:	5d202065 	stcpl	0, cr2, [r0, #-404]!	; 0xfffffe6c
100043ec:	00000d2e 	andeq	r0, r0, lr, lsr #26
100043f0:	74694220 	strbtvc	r4, [r9], #-544	; 0xfffffde0
100043f4:	65532036 	ldrbvs	r2, [r3, #-54]	; 0xffffffca
100043f8:	69727563 	ldmdbvs	r2!, {r0, r1, r5, r6, r8, sl, ip, sp, lr}^
100043fc:	53207974 			; <UNDEFINED> instruction: 0x53207974
10004400:	6b636174 	blvs	118dc9d8 <__copy_table_end__+0x18d84a4>
10004404:	2020203a 	eorcs	r2, r0, sl, lsr r0
10004408:	20202020 	eorcs	r2, r0, r0, lsr #32
1000440c:	00000020 	andeq	r0, r0, r0, lsr #32
10004410:	6573555b 	ldrbvs	r5, [r3, #-1371]!	; 0xfffffaa5
10004414:	63655320 	cmnvs	r5, #32, 6	; 0x80000000
10004418:	74697275 	strbtvc	r7, [r9], #-629	; 0xfffffd8b
1000441c:	74532079 	ldrbvc	r2, [r3], #-121	; 0xffffff87
10004420:	206b6361 	rsbcs	r6, fp, r1, ror #6
10004424:	5d202020 	stcpl	0, cr2, [r0, #-128]!	; 0xffffff80
10004428:	00000d2e 	andeq	r0, r0, lr, lsr #26
1000442c:	6573555b 	ldrbvs	r5, [r3, #-1371]!	; 0xfffffaa5
10004430:	746f4e20 	strbtvc	r4, [pc], #-3616	; 10004438 <pow10.0+0x458>
10004434:	63655320 	cmnvs	r5, #32, 6	; 0x80000000
10004438:	74697275 	strbtvc	r7, [r9], #-629	; 0xfffffd8b
1000443c:	74532079 	ldrbvc	r2, [r3], #-121	; 0xffffff87
10004440:	5d6b6361 	stclpl	3, cr6, [fp, #-388]!	; 0xfffffe7c
10004444:	00000d2e 	andeq	r0, r0, lr, lsr #26

10004448 <_global_impure_ptr>:
10004448:	38000008 	stmdacc	r0, {r3}

1000444c <__EH_FRAME_BEGIN__>:
1000444c:	00000000 	andeq	r0, r0, r0

Disassembly of section .ARM.extab:

10004450 <__exidx_start-0x18>:
10004450:	8101b108 	tsthi	r1, r8, lsl #2
10004454:	8400b0b0 	strhi	fp, [r0], #-176	; 0xffffff50
10004458:	00000000 	andeq	r0, r0, r0
1000445c:	8101b108 	tsthi	r1, r8, lsl #2
10004460:	8400b0b0 	strhi	fp, [r0], #-176	; 0xffffff50
10004464:	00000000 	andeq	r0, r0, r0

Disassembly of section .ARM.exidx:

10004468 <__exidx_end-0xc0>:
10004468:	7fffdb00 	svcvc	0x00ffdb00
1000446c:	80b0b0b0 	ldrhthi	fp, [r0], r0
10004470:	7fffdb68 	svcvc	0x00ffdb68
10004474:	00000001 	andeq	r0, r0, r1
10004478:	7fffea30 	svcvc	0x00ffea30
1000447c:	8002a9b0 			; <UNDEFINED> instruction: 0x8002a9b0
10004480:	7fffeac4 	svcvc	0x00ffeac4
10004484:	80a8b0b0 	strhthi	fp, [r8], r0
10004488:	7fffeb14 	svcvc	0x00ffeb14
1000448c:	00000001 	andeq	r0, r0, r1
10004490:	7fffeb20 	svcvc	0x00ffeb20
10004494:	80aab0b0 	strhthi	fp, [sl], r0
10004498:	7fffeb58 	svcvc	0x00ffeb58
1000449c:	80b273ae 	adcshi	r7, r2, lr, lsr #7
100044a0:	7fffec2c 	svcvc	0x00ffec2c
100044a4:	00000001 	andeq	r0, r0, r1
100044a8:	7fffec28 	svcvc	0x00ffec28
100044ac:	80383fab 	eorshi	r3, r8, fp, lsr #31
100044b0:	7fffec88 	svcvc	0x00ffec88
100044b4:	00000001 	andeq	r0, r0, r1
100044b8:	7fffec94 	svcvc	0x00ffec94
100044bc:	80aab0b0 	strhthi	fp, [sl], r0
100044c0:	7fffecd0 	svcvc	0x00ffecd0
100044c4:	00000001 	andeq	r0, r0, r1
100044c8:	7fffed84 	svcvc	0x00ffed84
100044cc:	80b20eab 	adcshi	r0, r2, fp, lsr #29
100044d0:	7fffedf8 	svcvc	0x00ffedf8
100044d4:	8008afb0 			; <UNDEFINED> instruction: 0x8008afb0
100044d8:	7ffff0b8 	svcvc	0x00fff0b8
100044dc:	00000001 	andeq	r0, r0, r1
100044e0:	7ffff0bc 	svcvc	0x00fff0bc
100044e4:	80023fad 	andhi	r3, r2, sp, lsr #31
100044e8:	7ffff368 	svcvc	0x00fff368
100044ec:	00000001 	andeq	r0, r0, r1
100044f0:	7ffff548 	svcvc	0x00fff548
100044f4:	8003a8b0 			; <UNDEFINED> instruction: 0x8003a8b0
100044f8:	7ffff558 	svcvc	0x00fff558
100044fc:	00000001 	andeq	r0, r0, r1
10004500:	7ffff554 	svcvc	0x00fff554
10004504:	8004adb0 			; <UNDEFINED> instruction: 0x8004adb0
10004508:	7ffff818 	svcvc	0x00fff818
1000450c:	80048400 	andhi	r8, r4, r0, lsl #8
10004510:	7ffff840 	svcvc	0x00fff840
10004514:	7fffff3c 	svcvc	0x00ffff3c
10004518:	7ffff844 	svcvc	0x00fff844
1000451c:	7fffff40 	svcvc	0x00ffff40
10004520:	7ffff850 	svcvc	0x00fff850
10004524:	00000001 	andeq	r0, r0, r1

Disassembly of section .copy.table:

10004528 <__copy_table_start__>:
10004528:	10004534 	andne	r4, r0, r4, lsr r5
1000452c:	38000000 	stmdacc	r0, {}	; <UNPREDICTABLE>
10004530:	00000110 	andeq	r0, r0, r0, lsl r1

Disassembly of section .data:

38000000 <SystemCoreClock>:
38000000:	017d7840 	cmneq	sp, r0, asr #16

38000004 <_impure_ptr>:
38000004:	38000008 	stmdacc	r0, {r3}

38000008 <impure_data>:
38000008:	00000000 	andeq	r0, r0, r0
3800000c:	380002f4 	stmdacc	r0, {r2, r4, r5, r6, r7, r9}
38000010:	3800035c 	stmdacc	r0, {r2, r3, r4, r6, r8, r9}
38000014:	380003c4 	stmdacc	r0, {r2, r6, r7, r8, r9}
	...
380000b0:	00000001 	andeq	r0, r0, r1
380000b4:	00000000 	andeq	r0, r0, r0
380000b8:	abcd330e 	blge	3734ccf8 <__copy_table_end__+0x273487c4>
380000bc:	e66d1234 			; <UNDEFINED> instruction: 0xe66d1234
380000c0:	0005deec 	andeq	sp, r5, ip, ror #29
380000c4:	0000000b 	andeq	r0, r0, fp
	...

38000430 <__atexit_recursive_mutex>:
38000430:	380005a4 	stmdacc	r0, {r2, r5, r7, r8, sl}

38000434 <__init_array_start>:
38000434:	100020d1 	ldrdne	r2, [r0], -r1

38000438 <__frame_dummy_init_array_entry>:
38000438:	100007e5 	andne	r0, r0, r5, ror #15

3800043c <__do_global_dtors_aux_fini_array_entry>:
3800043c:	100007c1 	andne	r0, r0, r1, asr #15

Disassembly of section .bss:

38000440 <__bss_start__>:
38000440:	00000000 	andeq	r0, r0, r0

38000444 <object.0>:
	...

3800045c <buffer.0>:
	...

3800055c <fd_main_stack_base>:
volatile unsigned int fd_main_stack_base = 0;
3800055c:	00000000 	andeq	r0, r0, r0

38000560 <fd_main_stack_full>:
volatile unsigned int fd_main_stack_full = 0;
38000560:	00000000 	andeq	r0, r0, r0

38000564 <frame.1>:
	...

380005a4 <__lock___atexit_recursive_mutex>:
380005a4:	00000000 	andeq	r0, r0, r0

380005a8 <errno>:
380005a8:	00000000 	andeq	r0, r0, r0

Disassembly of section .heap:

380005ac <__end__-0x4>:
380005ac:	00000000 	andeq	r0, r0, r0

380005b0 <__end__>:
	...

Disassembly of section .stack:

380ff000 <__StackLimit>:
	...

Disassembly of section .ARM.attributes:

00000000 <.ARM.attributes>:
  SystemCoreClock = SYSTEM_CLOCK;
   0:	00003541 	andeq	r3, r0, r1, asr #10
   4:	61656100 	cmnvs	r5, r0, lsl #2
}
   8:	01006962 	tsteq	r0, r2, ror #18
   c:	0000002b 	andeq	r0, r0, fp, lsr #32
    printf("c = %d\r\n", c);
  10:	4d2d3805 	stcmi	8, cr3, [sp, #-20]!	; 0xffffffec
}
  14:	49414d2e 	stmdbmi	r1, {r1, r2, r3, r5, r8, sl, fp, lr}^
  18:	1106004e 	tstne	r6, lr, asr #32
  1c:	03094d07 	movweq	r4, #40199	; 0x9d07
  va_start(va, format);
  const out_fct_wrap_type out_fct_wrap = { out, arg };
  const int ret = _vsnprintf(_out_fct, (char*)(uintptr_t)&out_fct_wrap, (size_t)-1, format, va);
  va_end(va);
  return ret;
}
  20:	0412080a 	ldreq	r0, [r2], #-2058	; 0xfffff7f6
  24:	01150114 	tsteq	r5, r4, lsl r1
  28:	01180317 	tsteq	r8, r7, lsl r3
  2c:	011b011a 	tsteq	fp, sl, lsl r1
  30:	0122011c 			; <UNDEFINED> instruction: 0x0122011c
  34:	Address 0x0000000000000034 is out of bounds.


Disassembly of section .comment:

00000000 <.comment>:
  SystemCoreClock = SYSTEM_CLOCK;
   0:	3a434347 	bcc	10d0d24 <__RAM_SIZE+0xfd0d24>
   4:	4e472820 	cdpmi	8, 4, cr2, cr7, cr0, {1}
}
   8:	72412055 	subvc	r2, r1, #85	; 0x55
   c:	6d45206d 	stclvs	0, cr2, [r5, #-436]	; 0xfffffe4c
    printf("c = %d\r\n", c);
  10:	64646562 	strbtvs	r6, [r4], #-1378	; 0xfffffa9e
}
  14:	54206465 	strtpl	r6, [r0], #-1125	; 0xfffffb9b
  18:	636c6f6f 	cmnvs	ip, #444	; 0x1bc
  1c:	6e696168 	powvsez	f6, f1, #0.0
  20:	2e303120 	rsfcssp	f3, f0, f0
  24:	30322d33 	eorscc	r2, r2, r3, lsr sp
  28:	312e3132 			; <UNDEFINED> instruction: 0x312e3132
  2c:	31202930 			; <UNDEFINED> instruction: 0x31202930
  30:	2e332e30 	mrccs	14, 1, r2, cr3, cr0, {1}
  34:	30322031 	eorscc	r2, r2, r1, lsr r0
  38:	38303132 	ldmdacc	r0!, {r1, r4, r5, r8, ip, sp}
  3c:	28203432 	stmdacs	r0!, {r1, r4, r5, sl, ip, sp}
  40:	656c6572 	strbvs	r6, [ip, #-1394]!	; 0xfffffa8e
  44:	29657361 	stmdbcs	r5!, {r0, r5, r6, r8, r9, ip, sp, lr}^
	...

Disassembly of section .debug_info:

00000000 <.debug_info>:
  SystemCoreClock = SYSTEM_CLOCK;
       0:	00000a4b 	andeq	r0, r0, fp, asr #20
       4:	00000002 	andeq	r0, r0, r2
}
       8:	01040000 	mrseq	r0, (UNDEF: 4)
       c:	0000014c 	andeq	r0, r0, ip, asr #2
    printf("c = %d\r\n", c);
      10:	0001260c 	andeq	r2, r1, ip, lsl #12
}
      14:	00034100 	andeq	r4, r3, r0, lsl #2
      18:	00001800 	andeq	r1, r0, r0, lsl #16
	...
      28:	06010200 	streq	r0, [r1], -r0, lsl #4
      2c:	00000236 	andeq	r0, r0, r6, lsr r2
      30:	00014203 	andeq	r4, r1, r3, lsl #4
      34:	182b0200 	stmdane	fp!, {r9}
      38:	0000003c 	andeq	r0, r0, ip, lsr r0
      3c:	34080102 	strcc	r0, [r8], #-258	; 0xfffffefe
      40:	02000002 	andeq	r0, r0, #2
      44:	00200502 	eoreq	r0, r0, r2, lsl #10
      48:	02020000 	andeq	r0, r2, #0
      4c:	0002c607 	andeq	ip, r2, r7, lsl #12
      50:	05040200 	streq	r0, [r4, #-512]	; 0xfffffe00
      54:	00000118 	andeq	r0, r0, r8, lsl r1
      58:	00005203 	andeq	r5, r0, r3, lsl #4
      5c:	194f0200 	stmdbne	pc, {r9}^	; <UNPREDICTABLE>
      60:	00000064 	andeq	r0, r0, r4, rrx
      64:	75070402 	strvc	r0, [r7, #-1026]	; 0xfffffbfe
      68:	02000002 	andeq	r0, r0, #2
      6c:	01130508 	tsteq	r3, r8, lsl #10
      70:	08020000 	stmdaeq	r2, {}	; <UNPREDICTABLE>
      74:	00027007 	andeq	r7, r2, r7
      78:	05040400 	streq	r0, [r4, #-1024]	; 0xfffffc00
      7c:	00746e69 	rsbseq	r6, r4, r9, ror #28
      80:	00007905 	andeq	r7, r0, r5, lsl #18
      84:	07040200 	streq	r0, [r4, -r0, lsl #4]
      88:	0000027a 	andeq	r0, r0, sl, ror r2
      8c:	00014403 	andeq	r4, r1, r3, lsl #8
      90:	13180300 	tstne	r8, #0, 6
      94:	00000030 	andeq	r0, r0, r0, lsr r0
      98:	00008c05 	andeq	r8, r0, r5, lsl #24
      9c:	00540300 	subseq	r0, r4, r0, lsl #6
      a0:	30030000 	andcc	r0, r3, r0
      a4:	00005814 	andeq	r5, r0, r4, lsl r8
      a8:	009d0500 	addseq	r0, sp, r0, lsl #10
      ac:	a9060000 	stmdbge	r6, {}	; <UNPREDICTABLE>
      b0:	02000000 	andeq	r0, r0, #0
      b4:	00460408 	subeq	r0, r6, r8, lsl #8
      b8:	01020000 	mrseq	r0, (UNDEF: 2)
      bc:	00023d08 	andeq	r3, r2, r8, lsl #26
      c0:	00ba0600 	adcseq	r0, sl, r0, lsl #12
      c4:	7c070000 	stcvc	0, cr0, [r7], {-0}
      c8:	01f80402 	mvnseq	r0, r2, lsl #8
      cc:	0003cb09 	andeq	ip, r3, r9, lsl #22
      d0:	006e0800 	rsbeq	r0, lr, r0, lsl #16
      d4:	fa040000 	blx	1000dc <__RAM_SIZE+0xdc>
      d8:	00ae1201 	adceq	r1, lr, r1, lsl #4
      dc:	23020000 	movwcs	r0, #8192	; 0x2000
      e0:	03b60800 			; <UNDEFINED> instruction: 0x03b60800
      e4:	fb040000 	blx	1000ee <__RAM_SIZE+0xee>
      e8:	00a91201 	adceq	r1, r9, r1, lsl #4
      ec:	23020000 	movwcs	r0, #8192	; 0x2000
      f0:	02f10804 	rscseq	r0, r1, #4, 16	; 0x40000
      f4:	fc040000 	stc2	0, cr0, [r4], {-0}
      f8:	00a91201 	adceq	r1, r9, r1, lsl #4
      fc:	23020000 	movwcs	r0, #8192	; 0x2000
     100:	03c10808 	biceq	r0, r1, #8, 16	; 0x80000
     104:	fd040000 	stc2	0, cr0, [r4, #-0]
     108:	00a91201 	adceq	r1, r9, r1, lsl #4
     10c:	23020000 	movwcs	r0, #8192	; 0x2000
     110:	4353090c 	cmpmi	r3, #12, 18	; 0x30000
     114:	fe040052 	mcr2	0, 0, r0, cr4, cr2, {2}
     118:	00a91201 	adceq	r1, r9, r1, lsl #4
     11c:	23020000 	movwcs	r0, #8192	; 0x2000
     120:	43430910 	movtmi	r0, #14608	; 0x3910
     124:	ff040052 			; <UNDEFINED> instruction: 0xff040052
     128:	00a91201 	adceq	r1, r9, r1, lsl #4
     12c:	23020000 	movwcs	r0, #8192	; 0x2000
     130:	026b0814 	rsbeq	r0, fp, #20, 16	; 0x140000
     134:	00040000 	andeq	r0, r4, r0
     138:	03db1202 	bicseq	r1, fp, #536870912	; 0x20000000
     13c:	23020000 	movwcs	r0, #8192	; 0x2000
     140:	02a20818 	adceq	r0, r2, #24, 16	; 0x180000
     144:	01040000 	mrseq	r0, (UNDEF: 4)
     148:	00a91202 	adceq	r1, r9, r2, lsl #4
     14c:	23020000 	movwcs	r0, #8192	; 0x2000
     150:	021f0824 	andseq	r0, pc, #36, 16	; 0x240000
     154:	02040000 	andeq	r0, r4, #0
     158:	00a91202 	adceq	r1, r9, r2, lsl #4
     15c:	23020000 	movwcs	r0, #8192	; 0x2000
     160:	02fb0828 	rscseq	r0, fp, #40, 16	; 0x280000
     164:	03040000 	movweq	r0, #16384	; 0x4000
     168:	00a91202 	adceq	r1, r9, r2, lsl #4
     16c:	23020000 	movwcs	r0, #8192	; 0x2000
     170:	02f6082c 	rscseq	r0, r6, #44, 16	; 0x2c0000
     174:	04040000 	streq	r0, [r4], #-0
     178:	00a91202 	adceq	r1, r9, r2, lsl #4
     17c:	23020000 	movwcs	r0, #8192	; 0x2000
     180:	001a0830 	andseq	r0, sl, r0, lsr r8
     184:	05040000 	streq	r0, [r4, #-0]
     188:	00a91202 	adceq	r1, r9, r2, lsl #4
     18c:	23020000 	movwcs	r0, #8192	; 0x2000
     190:	01210834 			; <UNDEFINED> instruction: 0x01210834
     194:	06040000 	streq	r0, [r4], -r0
     198:	00a91202 	adceq	r1, r9, r2, lsl #4
     19c:	23020000 	movwcs	r0, #8192	; 0x2000
     1a0:	03a30838 			; <UNDEFINED> instruction: 0x03a30838
     1a4:	07040000 	streq	r0, [r4, -r0]
     1a8:	00a91202 	adceq	r1, r9, r2, lsl #4
     1ac:	23020000 	movwcs	r0, #8192	; 0x2000
     1b0:	0030083c 	eorseq	r0, r0, ip, lsr r8
     1b4:	08040000 	stmdaeq	r4, {}	; <UNPREDICTABLE>
     1b8:	03f51202 	mvnseq	r1, #536870912	; 0x20000000
     1bc:	23020000 	movwcs	r0, #8192	; 0x2000
     1c0:	03af0840 			; <UNDEFINED> instruction: 0x03af0840
     1c4:	09040000 	stmdbeq	r4, {}	; <UNPREDICTABLE>
     1c8:	00ae1202 	adceq	r1, lr, r2, lsl #4
     1cc:	23020000 	movwcs	r0, #8192	; 0x2000
     1d0:	00cc0848 	sbceq	r0, ip, r8, asr #16
     1d4:	0a040000 	beq	1001dc <__RAM_SIZE+0x1dc>
     1d8:	00ae1202 	adceq	r1, lr, r2, lsl #4
     1dc:	23020000 	movwcs	r0, #8192	; 0x2000
     1e0:	0066084c 	rsbeq	r0, r6, ip, asr #16
     1e4:	0b040000 	bleq	1001ec <__RAM_SIZE+0x1ec>
     1e8:	040f1202 	streq	r1, [pc], #-514	; 1f0 <__STACKSEAL_SIZE+0x1f0>
     1ec:	23020000 	movwcs	r0, #8192	; 0x2000
     1f0:	024a0850 	subeq	r0, sl, #80, 16	; 0x500000
     1f4:	0c040000 	stceq	0, cr0, [r4], {-0}
     1f8:	04291202 	strteq	r1, [r9], #-514	; 0xfffffdfe
     1fc:	23020000 	movwcs	r0, #8192	; 0x2000
     200:	03850860 	orreq	r0, r5, #96, 16	; 0x600000
     204:	0d040000 	stceq	0, cr0, [r4, #-0]
     208:	00ae1202 	adceq	r1, lr, r2, lsl #4
     20c:	23020000 	movwcs	r0, #8192	; 0x2000
     210:	54430978 	strbpl	r0, [r3], #-2424	; 0xfffff688
     214:	0e040052 	mcreq	0, 0, r0, cr4, cr2, {2}
     218:	00ae1202 	adceq	r1, lr, r2, lsl #4
     21c:	23020000 	movwcs	r0, #8192	; 0x2000
     220:	013b087c 	teqeq	fp, ip, ror r8
     224:	0f040000 	svceq	0x00040000
     228:	00ae1202 	adceq	r1, lr, r2, lsl #4
     22c:	23030000 	movwcs	r0, #12288	; 0x3000
     230:	bf080180 	svclt	0x00080180
     234:	04000002 	streq	r0, [r0], #-2
     238:	a9120210 	ldmdbge	r2, {r4, r9}
     23c:	03000000 	movweq	r0, #0
     240:	08018423 	stmdaeq	r1, {r0, r1, r5, sl, pc}
     244:	000003bb 			; <UNDEFINED> instruction: 0x000003bb
     248:	12021104 	andne	r1, r2, #4, 2
     24c:	000000a9 	andeq	r0, r0, r9, lsr #1
     250:	01882303 	orreq	r2, r8, r3, lsl #6
     254:	0002b008 	andeq	fp, r2, r8
     258:	02120400 	andseq	r0, r2, #0, 8
     25c:	0000a912 	andeq	sl, r0, r2, lsl r9
     260:	8c230300 	stchi	3, cr0, [r3], #-0
     264:	037b0801 	cmneq	fp, #65536	; 0x10000
     268:	13040000 	movwne	r0, #16384	; 0x4000
     26c:	042e1202 	strteq	r1, [lr], #-514	; 0xfffffdfe
     270:	23030000 	movwcs	r0, #12288	; 0x3000
     274:	9d080190 	stflss	f0, [r8, #-576]	; 0xfffffdc0
     278:	04000002 	streq	r0, [r0], #-2
     27c:	a9120214 	ldmdbge	r2, {r2, r4, r9}
     280:	03000000 	movweq	r0, #0
     284:	0801e423 	stmdaeq	r1, {r0, r1, r5, sl, sp, lr, pc}
     288:	0000031e 	andeq	r0, r0, lr, lsl r3
     28c:	12021504 	andne	r1, r2, #4, 10	; 0x1000000
     290:	000000a9 	andeq	r0, r0, r9, lsr #1
     294:	01e82303 	mvneq	r2, r3, lsl #6
     298:	00030008 	andeq	r0, r3, r8
     29c:	02160400 	andseq	r0, r6, #0, 8
     2a0:	00043e12 	andeq	r3, r4, r2, lsl lr
     2a4:	ec230300 	stc	3, cr0, [r3], #-0
     2a8:	00c70801 	sbceq	r0, r7, r1, lsl #16
     2ac:	17040000 	strne	r0, [r4, -r0]
     2b0:	00a91202 	adceq	r1, r9, r2, lsl #4
     2b4:	23030000 	movwcs	r0, #12288	; 0x3000
     2b8:	0a080480 	beq	2014c0 <__RAM_SIZE+0x1014c0>
     2bc:	04000003 	streq	r0, [r0], #-3
     2c0:	4e120218 	mrcmi	2, 0, r0, cr2, cr8, {0}
     2c4:	03000004 	movweq	r0, #4
     2c8:	08048423 	stmdaeq	r4, {r0, r1, r5, sl, pc}
     2cc:	00000074 	andeq	r0, r0, r4, ror r0
     2d0:	12021904 	andne	r1, r2, #4, 18	; 0x10000
     2d4:	000000ae 	andeq	r0, r0, lr, lsr #1
     2d8:	04c02303 	strbeq	r2, [r0], #771	; 0x303
     2dc:	00002a08 	andeq	r2, r0, r8, lsl #20
     2e0:	021a0400 	andseq	r0, sl, #0, 8
     2e4:	0000ae12 	andeq	sl, r0, r2, lsl lr
     2e8:	c4230300 	strtgt	r0, [r3], #-768	; 0xfffffd00
     2ec:	010d0804 	tsteq	sp, r4, lsl #16
     2f0:	1b040000 	blne	1002f8 <__RAM_SIZE+0x2f8>
     2f4:	00ae1202 	adceq	r1, lr, r2, lsl #4
     2f8:	23030000 	movwcs	r0, #12288	; 0x3000
     2fc:	140804c8 	strne	r0, [r8], #-1224	; 0xfffffb38
     300:	04000003 	streq	r0, [r0], #-3
     304:	5e12021c 	mrcpl	2, 0, r0, cr2, cr12, {0}
     308:	03000004 	movweq	r0, #4
     30c:	0804cc23 	stmdaeq	r4, {r0, r1, r5, sl, fp, lr, pc}
     310:	00000224 	andeq	r0, r0, r4, lsr #4
     314:	12021d04 	andne	r1, r2, #4, 26	; 0x100
     318:	000000a9 	andeq	r0, r0, r9, lsr #1
     31c:	04d02303 	ldrbeq	r2, [r0], #771	; 0x303
     320:	0000ab08 	andeq	sl, r0, r8, lsl #22
     324:	021e0400 	andseq	r0, lr, #0, 8
     328:	00045e12 	andeq	r5, r4, r2, lsl lr
     32c:	d4230300 	strtle	r0, [r3], #-768	; 0xfffffd00
     330:	02420804 	subeq	r0, r2, #4, 16	; 0x40000
     334:	1f040000 	svcne	0x00040000
     338:	00a91202 	adceq	r1, r9, r2, lsl #4
     33c:	23030000 	movwcs	r0, #12288	; 0x3000
     340:	2c0804d8 	cfstrscs	mvf0, [r8], {216}	; 0xd8
     344:	04000002 	streq	r0, [r0], #-2
     348:	a9120220 	ldmdbge	r2, {r5, r9}
     34c:	03000000 	movweq	r0, #0
     350:	0804dc23 	stmdaeq	r4, {r0, r1, r5, sl, fp, ip, lr, pc}
     354:	000000ed 	andeq	r0, r0, sp, ror #1
     358:	12022104 	andne	r2, r2, #4, 2
     35c:	000000a9 	andeq	r0, r0, r9, lsr #1
     360:	04e02303 	strbteq	r2, [r0], #771	; 0x303
     364:	0002d908 	andeq	sp, r2, r8, lsl #18
     368:	02220400 	eoreq	r0, r2, #0, 8
     36c:	0000a912 	andeq	sl, r0, r2, lsl r9
     370:	e4230300 	strt	r0, [r3], #-768	; 0xfffffd00
     374:	02a80804 	adceq	r0, r8, #4, 16	; 0x40000
     378:	23040000 	movwcs	r0, #16384	; 0x4000
     37c:	00a91202 	adceq	r1, r9, r2, lsl #4
     380:	23030000 	movwcs	r0, #12288	; 0x3000
     384:	000804e8 	andeq	r0, r8, r8, ror #9
     388:	04000000 	streq	r0, [r0], #-0
     38c:	a9120224 	ldmdbge	r2, {r2, r5, r9}
     390:	03000000 	movweq	r0, #0
     394:	0804ec23 	stmdaeq	r4, {r0, r1, r5, sl, fp, sp, lr, pc}
     398:	0000005d 	andeq	r0, r0, sp, asr r0
     39c:	12022504 	andne	r2, r2, #4, 10	; 0x1000000
     3a0:	000000a9 	andeq	r0, r0, r9, lsr #1
     3a4:	04f02303 	ldrbteq	r2, [r0], #771	; 0x303
     3a8:	00033a08 	andeq	r3, r3, r8, lsl #20
     3ac:	02260400 	eoreq	r0, r6, #0, 8
     3b0:	0000a912 	andeq	sl, r0, r2, lsl r9
     3b4:	f4230300 	vld2.8	{d0-d3}, [r3], r0
     3b8:	03a80804 			; <UNDEFINED> instruction: 0x03a80804
     3bc:	27040000 	strcs	r0, [r4, -r0]
     3c0:	00a91202 	adceq	r1, r9, r2, lsl #4
     3c4:	23030000 	movwcs	r0, #12288	; 0x3000
     3c8:	0a0004f8 	beq	17b0 <__HEAP_SIZE+0x7b0>
     3cc:	00000098 	muleq	r0, r8, r0
     3d0:	000003db 	ldrdeq	r0, [r0], -fp
     3d4:	0000850b 	andeq	r8, r0, fp, lsl #10
     3d8:	05000b00 	streq	r0, [r0, #-2816]	; 0xfffff500
     3dc:	000003cb 	andeq	r0, r0, fp, asr #7
     3e0:	0000ae0a 	andeq	sl, r0, sl, lsl #28
     3e4:	0003f000 	andeq	pc, r3, r0
     3e8:	00850b00 	addeq	r0, r5, r0, lsl #22
     3ec:	00010000 	andeq	r0, r1, r0
     3f0:	0003e006 	andeq	lr, r3, r6
     3f4:	03f00500 	mvnseq	r0, #0, 10
     3f8:	ae0a0000 	cdpge	0, 0, cr0, cr10, cr0, {0}
     3fc:	0a000000 	beq	404 <__STACKSEAL_SIZE+0x404>
     400:	0b000004 	bleq	418 <__STACKSEAL_SIZE+0x418>
     404:	00000085 	andeq	r0, r0, r5, lsl #1
     408:	fa060003 	blx	18041c <__RAM_SIZE+0x8041c>
     40c:	05000003 	streq	r0, [r0, #-3]
     410:	0000040a 	andeq	r0, r0, sl, lsl #8
     414:	0000ae0a 	andeq	sl, r0, sl, lsl #28
     418:	00042400 	andeq	r2, r4, r0, lsl #8
     41c:	00850b00 	addeq	r0, r5, r0, lsl #22
     420:	00050000 	andeq	r0, r5, r0
     424:	00041406 	andeq	r1, r4, r6, lsl #8
     428:	04240500 	strteq	r0, [r4], #-1280	; 0xfffffb00
     42c:	9d0a0000 	stcls	0, cr0, [sl, #-0]
     430:	3e000000 	cdpcc	0, 0, cr0, cr0, cr0, {0}
     434:	0b000004 	bleq	44c <__STACKSEAL_SIZE+0x44c>
     438:	00000085 	andeq	r0, r0, r5, lsl #1
     43c:	9d0a0014 	stcls	0, cr0, [sl, #-80]	; 0xffffffb0
     440:	4e000000 	cdpmi	0, 0, cr0, cr0, cr0, {0}
     444:	0b000004 	bleq	45c <__STACKSEAL_SIZE+0x45c>
     448:	00000085 	andeq	r0, r0, r5, lsl #1
     44c:	9d0a0044 	stcls	0, cr0, [sl, #-272]	; 0xfffffef0
     450:	5e000000 	cdppl	0, 0, cr0, cr0, cr0, {0}
     454:	0b000004 	bleq	46c <__STACKSEAL_SIZE+0x46c>
     458:	00000085 	andeq	r0, r0, r5, lsl #1
     45c:	9d0a000e 	stcls	0, cr0, [sl, #-56]	; 0xffffffc8
     460:	6e000000 	cdpvs	0, 0, cr0, cr0, cr0, {0}
     464:	0b000004 	bleq	47c <__STACKSEAL_SIZE+0x47c>
     468:	00000085 	andeq	r0, r0, r5, lsl #1
     46c:	620c0000 	andvs	r0, ip, #0
     470:	04000002 	streq	r0, [r0], #-2
     474:	c6030228 	strgt	r0, [r3], -r8, lsr #4
     478:	0d000000 	stceq	0, cr0, [r0, #-0]
     47c:	00004101 	andeq	r4, r0, r1, lsl #2
     480:	05580100 	ldrbeq	r0, [r8, #-256]	; 0xffffff00
     484:	00007901 	andeq	r7, r0, r1, lsl #18
     488:	00094800 	andeq	r4, r9, r0, lsl #16
     48c:	00097410 	andeq	r7, r9, r0, lsl r4
     490:	00000010 	andeq	r0, r0, r0, lsl r0
     494:	04fa0100 	ldrbteq	r0, [sl], #256	; 0x100
     498:	8b0e0000 	blhi	3804a0 <__RAM_SIZE+0x2804a0>
     49c:	01000003 	tsteq	r0, r3
     4a0:	00790959 	rsbseq	r0, r9, r9, asr r9
     4a4:	00260000 	eoreq	r0, r6, r0
     4a8:	00200000 	eoreq	r0, r0, r0
     4ac:	4e0f0000 	cdpmi	0, 0, cr0, cr15, cr0, {0}
     4b0:	e0100009 	ands	r0, r0, r9
     4b4:	10000009 	andne	r0, r0, r9
     4b8:	10000954 	andne	r0, r0, r4, asr r9
     4bc:	000009ee 	andeq	r0, r0, lr, ror #19
     4c0:	000004ce 	andeq	r0, r0, lr, asr #9
     4c4:	05500111 	ldrbeq	r0, [r0, #-273]	; 0xfffffeef
     4c8:	003f7803 	eorseq	r7, pc, r3, lsl #16
     4cc:	580f0010 	stmdapl	pc, {r4}	; <UNPREDICTABLE>
     4d0:	fb100009 	blx	4004fe <__RAM_SIZE+0x3004fe>
     4d4:	0f000009 	svceq	0x00000009
     4d8:	1000095c 	andne	r0, r0, ip, asr r9
     4dc:	000004fa 	strdeq	r0, [r0], -sl
     4e0:	00096812 	andeq	r6, r9, r2, lsl r8
     4e4:	000a0910 	andeq	r0, sl, r0, lsl r9
     4e8:	50011100 	andpl	r1, r1, r0, lsl #2
     4ec:	3f800305 	svccc	0x00800305
     4f0:	01111000 	tsteq	r1, r0
     4f4:	7f740251 	svcvc	0x00740251
     4f8:	01130000 	tsteq	r3, r0
     4fc:	0000039d 	muleq	r0, sp, r3
     500:	01065301 	tsteq	r6, r1, lsl #6
     504:	10000930 	andne	r0, r0, r0, lsr r9
     508:	10000948 	andne	r0, r0, r8, asr #18
     50c:	00000050 	andeq	r0, r0, r0, asr r0
     510:	00054f01 	andeq	r4, r5, r1, lsl #30
     514:	02b61400 	adcseq	r1, r6, #0, 8
     518:	055f0000 	ldrbeq	r0, [pc, #-0]	; 520 <__STACKSEAL_SIZE+0x520>
     51c:	05010000 	streq	r0, [r1, #-0]
     520:	003f9403 	eorseq	r9, pc, r3, lsl #8
     524:	093a1010 	ldmdbeq	sl!, {r4, ip}
     528:	0a091000 	beq	244530 <__RAM_SIZE+0x144530>
     52c:	05450000 	strbeq	r0, [r5, #-0]
     530:	01110000 	tsteq	r1, r0
     534:	68030550 	stmdavs	r3, {r4, r6, r8, sl}
     538:	1110003f 	tstne	r0, pc, lsr r0
     53c:	03055101 	movweq	r5, #20737	; 0x5101
     540:	10003f94 	mulne	r0, r4, pc	; <UNPREDICTABLE>
     544:	093e0f00 	ldmdbeq	lr!, {r8, r9, sl, fp}
     548:	05641000 	strbeq	r1, [r4, #-0]!
     54c:	0a000000 	beq	554 <__STACKSEAL_SIZE+0x554>
     550:	000000c1 	andeq	r0, r0, r1, asr #1
     554:	0000055f 	andeq	r0, r0, pc, asr r5
     558:	0000850b 	andeq	r8, r0, fp, lsl #10
     55c:	06000500 	streq	r0, [r0], -r0, lsl #10
     560:	0000054f 	andeq	r0, r0, pc, asr #10
     564:	03970113 	orrseq	r0, r7, #-1073741820	; 0xc0000004
     568:	4e010000 	cdpmi	0, 0, cr0, cr1, cr0, {0}
     56c:	09180106 	ldmdbeq	r8, {r1, r2, r8}
     570:	09301000 	ldmdbeq	r0!, {ip}
     574:	00701000 	rsbseq	r1, r0, r0
     578:	b9010000 	stmdblt	r1, {}	; <UNPREDICTABLE>
     57c:	14000005 	strne	r0, [r0], #-5
     580:	000002b6 			; <UNDEFINED> instruction: 0x000002b6
     584:	0000055f 	andeq	r0, r0, pc, asr r5
     588:	9c030501 	cfstr32ls	mvfx0, [r3], {1}
     58c:	1010003f 	andsne	r0, r0, pc, lsr r0
     590:	10000922 	andne	r0, r0, r2, lsr #18
     594:	00000a09 	andeq	r0, r0, r9, lsl #20
     598:	000005af 	andeq	r0, r0, pc, lsr #11
     59c:	05500111 	ldrbeq	r0, [r0, #-273]	; 0xfffffeef
     5a0:	003f6803 	eorseq	r6, pc, r3, lsl #16
     5a4:	51011110 	tstpl	r1, r0, lsl r1
     5a8:	3f9c0305 	svccc	0x009c0305
     5ac:	0f001000 	svceq	0x00001000
     5b0:	10000926 	andne	r0, r0, r6, lsr #18
     5b4:	000005b9 			; <UNDEFINED> instruction: 0x000005b9
     5b8:	c1011300 	mrsgt	r1, SP_irq
     5bc:	01000000 	mrseq	r0, (UNDEF: 0)
     5c0:	00010649 	andeq	r0, r1, r9, asr #12
     5c4:	18100009 	ldmdane	r0, {r0, r3}
     5c8:	90100009 	andsls	r0, r0, r9
     5cc:	01000000 	mrseq	r0, (UNDEF: 0)
     5d0:	0000060e 	andeq	r0, r0, lr, lsl #12
     5d4:	0002b614 	andeq	fp, r2, r4, lsl r6
     5d8:	00055f00 	andeq	r5, r5, r0, lsl #30
     5dc:	03050100 	movweq	r0, #20736	; 0x5100
     5e0:	10003fa4 	andne	r3, r0, r4, lsr #31
     5e4:	00090a10 	andeq	r0, r9, r0, lsl sl
     5e8:	000a0910 	andeq	r0, sl, r0, lsl r9
     5ec:	00060400 	andeq	r0, r6, r0, lsl #8
     5f0:	50011100 	andpl	r1, r1, r0, lsl #2
     5f4:	3f680305 	svccc	0x00680305
     5f8:	01111000 	tsteq	r1, r0
     5fc:	a4030551 	strge	r0, [r3], #-1361	; 0xfffffaaf
     600:	0010003f 	andseq	r0, r0, pc, lsr r0
     604:	00090e0f 	andeq	r0, r9, pc, lsl #28
     608:	00060e10 	andeq	r0, r6, r0, lsl lr
     60c:	01130000 	tsteq	r3, r0
     610:	000000bb 	strheq	r0, [r0], -fp
     614:	01064401 	tsteq	r6, r1, lsl #8
     618:	100008e8 	andne	r0, r0, r8, ror #17
     61c:	10000900 	andne	r0, r0, r0, lsl #18
     620:	000000b0 	strheq	r0, [r0], -r0	; <UNPREDICTABLE>
     624:	00066301 	andeq	r6, r6, r1, lsl #6
     628:	02b61400 	adcseq	r1, r6, #0, 8
     62c:	055f0000 	ldrbeq	r0, [pc, #-0]	; 634 <__STACKSEAL_SIZE+0x634>
     630:	05010000 	streq	r0, [r1, #-0]
     634:	003fac03 	eorseq	sl, pc, r3, lsl #24
     638:	08f21010 	ldmeq	r2!, {r4, ip}^
     63c:	0a091000 	beq	244644 <__RAM_SIZE+0x144644>
     640:	06590000 	ldrbeq	r0, [r9], -r0
     644:	01110000 	tsteq	r1, r0
     648:	68030550 	stmdavs	r3, {r4, r6, r8, sl}
     64c:	1110003f 	tstne	r0, pc, lsr r0
     650:	03055101 	movweq	r5, #20737	; 0x5101
     654:	10003fac 	andne	r3, r0, ip, lsr #31
     658:	08f60f00 	ldmeq	r6!, {r8, r9, sl, fp}^
     65c:	06631000 	strbteq	r1, [r3], -r0
     660:	13000000 	movwne	r0, #0
     664:	0000b501 	andeq	fp, r0, r1, lsl #10
     668:	063f0100 	ldrteq	r0, [pc], -r0, lsl #2
     66c:	0008d001 	andeq	sp, r8, r1
     670:	0008e810 	andeq	lr, r8, r0, lsl r8
     674:	0000d010 	andeq	sp, r0, r0, lsl r0
     678:	06b80100 	ldrteq	r0, [r8], r0, lsl #2
     67c:	b6140000 	ldrlt	r0, [r4], -r0
     680:	5f000002 	svcpl	0x00000002
     684:	01000005 	tsteq	r0, r5
     688:	3fb40305 	svccc	0x00b40305
     68c:	da101000 	ble	404694 <__RAM_SIZE+0x304694>
     690:	09100008 	ldmdbeq	r0, {r3}
     694:	ae00000a 	cdpge	0, 0, cr0, cr0, cr10, {0}
     698:	11000006 	tstne	r0, r6
     69c:	03055001 	movweq	r5, #20481	; 0x5001
     6a0:	10003f68 	andne	r3, r0, r8, ror #30
     6a4:	05510111 	ldrbeq	r0, [r1, #-273]	; 0xfffffeef
     6a8:	003fb403 	eorseq	fp, pc, r3, lsl #8
     6ac:	de0f0010 	mcrle	0, 0, r0, cr15, cr0, {0}
     6b0:	b8100008 	ldmdalt	r0, {r3}
     6b4:	00000006 	andeq	r0, r0, r6
     6b8:	03910113 	orrseq	r0, r1, #-1073741820	; 0xc0000004
     6bc:	38010000 	stmdacc	r1, {}	; <UNPREDICTABLE>
     6c0:	08b40106 	ldmeq	r4!, {r1, r2, r8}
     6c4:	08d01000 	ldmeq	r0, {ip}^
     6c8:	00f01000 	rscseq	r1, r0, r0
     6cc:	16010000 	strne	r0, [r1], -r0
     6d0:	14000007 	strne	r0, [r0], #-7
     6d4:	000002b6 			; <UNDEFINED> instruction: 0x000002b6
     6d8:	0000055f 	andeq	r0, r0, pc, asr r5
     6dc:	bc030501 	cfstr32lt	mvfx0, [r3], {1}
     6e0:	1010003f 	andsne	r0, r0, pc, lsr r0
     6e4:	100008be 			; <UNDEFINED> instruction: 0x100008be
     6e8:	00000a09 	andeq	r0, r0, r9, lsl #20
     6ec:	00000703 	andeq	r0, r0, r3, lsl #14
     6f0:	05500111 	ldrbeq	r0, [r0, #-273]	; 0xfffffeef
     6f4:	003f6803 	eorseq	r6, pc, r3, lsl #16
     6f8:	51011110 	tstpl	r1, r0, lsl r1
     6fc:	3fbc0305 	svccc	0x00bc0305
     700:	0f001000 	svceq	0x00001000
     704:	100008c2 	andne	r0, r0, r2, asr #17
     708:	00000716 	andeq	r0, r0, r6, lsl r7
     70c:	0008c60f 	andeq	ip, r8, pc, lsl #12
     710:	00085610 	andeq	r5, r8, r0, lsl r6
     714:	01130000 	tsteq	r3, r0
     718:	00000210 	andeq	r0, r0, r0, lsl r2
     71c:	01062801 	tsteq	r6, r1, lsl #16
     720:	1000084c 	andne	r0, r0, ip, asr #16
     724:	100008b4 			; <UNDEFINED> instruction: 0x100008b4
     728:	00000110 	andeq	r0, r0, r0, lsl r1
     72c:	00084601 	andeq	r4, r8, r1, lsl #12
     730:	046b1500 	strbteq	r1, [fp], #-1280	; 0xfffffb00
     734:	29010000 	stmdbcs	r1, {}	; <UNPREDICTABLE>
     738:	00084612 	andeq	r4, r8, r2, lsl r6
     73c:	f0910300 			; <UNDEFINED> instruction: 0xf0910300
     740:	00e70e7d 	rsceq	r0, r7, sp, ror lr
     744:	2a010000 	bcs	4074c <__HEAP_SIZE+0x3f74c>
     748:	00008512 	andeq	r8, r0, r2, lsl r5
     74c:	00014f00 	andeq	r4, r1, r0, lsl #30
     750:	00014900 	andeq	r4, r1, r0, lsl #18
     754:	00a50e00 	adceq	r0, r5, r0, lsl #28
     758:	2b010000 	blcs	40760 <__HEAP_SIZE+0x3f760>
     75c:	00008512 	andeq	r8, r0, r2, lsl r5
     760:	00017c00 	andeq	r7, r1, r0, lsl #24
     764:	00017800 	andeq	r7, r1, r0, lsl #16
     768:	038b0e00 	orreq	r0, fp, #0, 28
     76c:	2c010000 	stccs	0, cr0, [r1], {-0}
     770:	00007909 	andeq	r7, r0, r9, lsl #18
     774:	0001a200 	andeq	sl, r1, r0, lsl #4
     778:	00019a00 	andeq	r9, r1, r0, lsl #20
     77c:	00001600 	andeq	r1, r0, r0, lsl #12
     780:	07ac0000 	streq	r0, [ip, r0]!
     784:	69170000 	ldmdbvs	r7, {}	; <UNPREDICTABLE>
     788:	12310100 	eorsne	r0, r1, #0, 2
     78c:	00000079 	andeq	r0, r0, r9, ror r0
     790:	000001da 	ldrdeq	r0, [r0], -sl
     794:	000001d6 	ldrdeq	r0, [r0], -r6
     798:	00089412 	andeq	r9, r8, r2, lsl r4
     79c:	000a0910 	andeq	r0, sl, r0, lsl r9
     7a0:	50011100 	andpl	r1, r1, r0, lsl #2
     7a4:	3f5c0305 	svccc	0x005c0305
     7a8:	00001000 	andeq	r1, r0, r0
     7ac:	00085c10 	andeq	r5, r8, r0, lsl ip
     7b0:	000a1710 	andeq	r1, sl, r0, lsl r7
     7b4:	0007cc00 	andeq	ip, r7, r0, lsl #24
     7b8:	50011100 	andpl	r1, r1, r0, lsl #2
     7bc:	11007d02 	tstne	r0, r2, lsl #26
     7c0:	30015101 	andcc	r5, r1, r1, lsl #2
     7c4:	03520111 	cmpeq	r2, #1073741828	; 0x40000004
     7c8:	0001000a 	andeq	r0, r1, sl
     7cc:	0008600f 	andeq	r6, r8, pc
     7d0:	000a2410 	andeq	r2, sl, r0, lsl r4
     7d4:	08660f00 	stmdaeq	r6!, {r8, r9, sl, fp}^
     7d8:	0a321000 	beq	c847e0 <__RAM_SIZE+0xb847e0>
     7dc:	72100000 	andsvc	r0, r0, #0
     7e0:	40100008 	andsmi	r0, r0, r8
     7e4:	fe00000a 	cdp2	0, 0, cr0, cr0, cr10, {0}
     7e8:	11000007 	tstne	r0, r7
     7ec:	7d025001 	stcvc	0, cr5, [r2, #-4]
     7f0:	51011100 	mrspl	r1, (UNDEF: 17)
     7f4:	11400802 	cmpne	r0, r2, lsl #16
     7f8:	74025201 	strvc	r5, [r2], #-513	; 0xfffffdff
     7fc:	7c100000 	ldcvc	0, cr0, [r0], {-0}
     800:	09100008 	ldmdbeq	r0, {r3}
     804:	1500000a 	strne	r0, [r0, #-10]
     808:	11000008 	tstne	r0, r8
     80c:	03055001 	movweq	r5, #20481	; 0x5001
     810:	10003f4c 	andne	r3, r0, ip, asr #30
     814:	08881000 	stmeq	r8, {ip}
     818:	0a091000 	beq	244820 <__RAM_SIZE+0x144820>
     81c:	08320000 	ldmdaeq	r2!, {}	; <UNPREDICTABLE>
     820:	01110000 	tsteq	r1, r0
     824:	30030550 	andcc	r0, r3, r0, asr r5
     828:	1110003f 	tstne	r0, pc, lsr r0
     82c:	75025101 	strvc	r5, [r2, #-257]	; 0xfffffeff
     830:	a0120000 	andsge	r0, r2, r0
     834:	ee100008 	cdp	0, 1, cr0, cr0, cr8, {0}
     838:	11000009 	tstne	r0, r9
     83c:	03055001 	movweq	r5, #20481	; 0x5001
     840:	10003f64 	andne	r3, r0, r4, ror #30
     844:	850a0000 	strhi	r0, [sl, #-0]
     848:	56000000 	strpl	r0, [r0], -r0
     84c:	0b000008 	bleq	874 <__Vectors_Size+0xb4>
     850:	00000085 	andeq	r0, r0, r5, lsl #1
     854:	0113003f 	tsteq	r3, pc, lsr r0
     858:	00000287 	andeq	r0, r0, r7, lsl #5
     85c:	01061801 	tsteq	r6, r1, lsl #16
     860:	10000800 	andne	r0, r0, r0, lsl #16
     864:	1000084c 	andne	r0, r0, ip, asr #16
     868:	000001f9 	strdeq	r0, [r0], -r9
     86c:	0008dd01 	andeq	sp, r8, r1, lsl #26
     870:	00150e00 	andseq	r0, r5, r0, lsl #28
     874:	19010000 	stmdbne	r1, {}	; <UNPREDICTABLE>
     878:	0008dd13 	andeq	sp, r8, r3, lsl sp
     87c:	00023700 	andeq	r3, r2, r0, lsl #14
     880:	00023100 	andeq	r3, r2, r0, lsl #2
     884:	007a1500 	rsbseq	r1, sl, r0, lsl #10
     888:	1a010000 	bne	40890 <__HEAP_SIZE+0x3f890>
     88c:	00008012 	andeq	r8, r0, r2, lsl r0
     890:	6c910200 	lfmvs	f0, 4, [r1], {0}
     894:	00082210 	andeq	r2, r8, r0, lsl r2
     898:	000a0910 	andeq	r0, sl, r0, lsl r9
     89c:	0008ae00 	andeq	sl, r8, r0, lsl #28
     8a0:	50011100 	andpl	r1, r1, r0, lsl #2
     8a4:	11007502 	tstne	r0, r2, lsl #10
     8a8:	74025101 	strvc	r5, [r2], #-257	; 0xfffffeff
     8ac:	30100000 	andscc	r0, r0, r0
     8b0:	09100008 	ldmdbeq	r0, {r3}
     8b4:	c700000a 	strgt	r0, [r0, -sl]
     8b8:	11000008 	tstne	r0, r8
     8bc:	75025001 	strvc	r5, [r2, #-1]
     8c0:	51011100 	mrspl	r1, (UNDEF: 17)
     8c4:	12003401 	andne	r3, r0, #16777216	; 0x1000000
     8c8:	10000840 	andne	r0, r0, r0, asr #16
     8cc:	00000a09 	andeq	r0, r0, r9, lsl #20
     8d0:	02500111 	subseq	r0, r0, #1073741828	; 0x40000004
     8d4:	01110075 	tsteq	r1, r5, ror r0
     8d8:	00330151 	eorseq	r0, r3, r1, asr r1
     8dc:	80041800 	andhi	r1, r4, r0, lsl #16
     8e0:	13000000 	movwne	r0, #0
     8e4:	00032301 	andeq	r2, r3, r1, lsl #6
     8e8:	06100100 	ldreq	r0, [r0], -r0, lsl #2
     8ec:	00000001 	andeq	r0, r0, r1
     8f0:	00000000 	andeq	r0, r0, r0
     8f4:	00026300 	andeq	r6, r2, r0, lsl #6
     8f8:	09380100 	ldmdbeq	r8!, {r8}
     8fc:	61190000 	tstvs	r9, r0
     900:	09110100 	ldmdbeq	r1, {r8}
     904:	00000079 	andeq	r0, r0, r9, ror r0
     908:	00621900 	rsbeq	r1, r2, r0, lsl #18
     90c:	79101101 	ldmdbvc	r0, {r0, r8, ip}
     910:	00000000 	andeq	r0, r0, r0
     914:	01006319 	tsteq	r0, r9, lsl r3
     918:	00791711 	rsbseq	r1, r9, r1, lsl r7
     91c:	12000000 	andne	r0, r0, #0
     920:	00000000 	andeq	r0, r0, r0
     924:	00000a09 	andeq	r0, r0, r9, lsl #20
     928:	05500111 	ldrbeq	r0, [r0, #-273]	; 0xfffffeef
     92c:	00000003 	andeq	r0, r0, r3
     930:	51011100 	mrspl	r1, (UNDEF: 17)
     934:	00003001 	andeq	r3, r0, r1
     938:	02e10113 	rsceq	r0, r1, #-1073741820	; 0xc0000004
     93c:	0c010000 	stceq	0, cr0, [r1], {-0}
     940:	00000106 	andeq	r0, r0, r6, lsl #2
     944:	00000000 	andeq	r0, r0, r0
     948:	02830000 	addeq	r0, r3, #0
     94c:	77010000 	strvc	r0, [r1, -r0]
     950:	14000009 	strne	r0, [r0], #-9
     954:	000002b6 			; <UNDEFINED> instruction: 0x000002b6
     958:	00000987 	andeq	r0, r0, r7, lsl #19
     95c:	00030501 	andeq	r0, r3, r1, lsl #10
     960:	12000000 	andne	r0, r0, #0
     964:	00000000 	andeq	r0, r0, r0
     968:	000009ee 	andeq	r0, r0, lr, ror #19
     96c:	05500111 	ldrbeq	r0, [r0, #-273]	; 0xfffffeef
     970:	00000003 	andeq	r0, r0, r3
     974:	0a000000 	beq	97c <__Vectors_Size+0x1bc>
     978:	000000c1 	andeq	r0, r0, r1, asr #1
     97c:	00000987 	andeq	r0, r0, r7, lsl #19
     980:	0000850b 	andeq	r8, r0, fp, lsl #10
     984:	06000f00 	streq	r0, [r0], -r0, lsl #30
     988:	00000977 	andeq	r0, r0, r7, ror r9
     98c:	00f30113 	rscseq	r0, r3, r3, lsl r1
     990:	08010000 	stmdaeq	r1, {}	; <UNPREDICTABLE>
     994:	00000106 	andeq	r0, r0, r6, lsl #2
     998:	00000000 	andeq	r0, r0, r0
     99c:	02a30000 	adceq	r0, r3, #0
     9a0:	cb010000 	blgt	409a8 <__HEAP_SIZE+0x3f9a8>
     9a4:	14000009 	strne	r0, [r0], #-9
     9a8:	000002b6 			; <UNDEFINED> instruction: 0x000002b6
     9ac:	000009db 	ldrdeq	r0, [r0], -fp
     9b0:	00030501 	andeq	r0, r3, r1, lsl #10
     9b4:	12000000 	andne	r0, r0, #0
     9b8:	00000000 	andeq	r0, r0, r0
     9bc:	000009ee 	andeq	r0, r0, lr, ror #19
     9c0:	05500111 	ldrbeq	r0, [r0, #-273]	; 0xfffffeef
     9c4:	00000003 	andeq	r0, r0, r3
     9c8:	0a000000 	beq	9d0 <__Vectors_Size+0x210>
     9cc:	000000c1 	andeq	r0, r0, r1, asr #1
     9d0:	000009db 	ldrdeq	r0, [r0], -fp
     9d4:	0000850b 	andeq	r8, r0, fp, lsl #10
     9d8:	06001900 	streq	r1, [r0], -r0, lsl #18
     9dc:	000009cb 	andeq	r0, r0, fp, asr #19
     9e0:	3701011a 	smladcc	r1, sl, r1, r0
     9e4:	37000000 	strcc	r0, [r0, -r0]
     9e8:	05000000 	streq	r0, [r0, #-0]
     9ec:	011b0606 	tsteq	fp, r6, lsl #12
     9f0:	00001001 	andeq	r1, r0, r1
     9f4:	00000600 	andeq	r0, r0, r0, lsl #12
     9f8:	1a000800 	bne	2a00 <__HEAP_SIZE+0x1a00>
     9fc:	02520101 	subseq	r0, r2, #1073741824	; 0x40000000
     a00:	02520000 	subseq	r0, r2, #0
     a04:	46060000 	strmi	r0, [r6], -r0
     a08:	01011a06 	tsteq	r1, r6, lsl #20
     a0c:	0000053e 	andeq	r0, r0, lr, lsr r5
     a10:	0000053e 	andeq	r0, r0, lr, lsr r5
     a14:	1b05c807 	blne	172a38 <__RAM_SIZE+0x72a38>
     a18:	008a0101 	addeq	r0, sl, r1, lsl #2
     a1c:	00800000 	addeq	r0, r0, r0
     a20:	00080000 	andeq	r0, r8, r0
     a24:	d301011a 	movwle	r0, #4378	; 0x111a
     a28:	d3000000 	movwle	r0, #0
     a2c:	06000000 	streq	r0, [r0], -r0
     a30:	011a0e4a 	tsteq	sl, sl, asr #28
     a34:	00009101 	andeq	r9, r0, r1, lsl #2
     a38:	00009100 	andeq	r9, r0, r0, lsl #2
     a3c:	0e4b0600 	cdpeq	6, 4, cr0, cr11, cr0, {0}
     a40:	0a01011a 	beq	40eb0 <__HEAP_SIZE+0x3feb0>
     a44:	0a000002 	beq	a54 <__Vectors_Size+0x294>
     a48:	06000002 	streq	r0, [r0], -r2
     a4c:	e5000648 	str	r0, [r0, #-1608]	; 0xfffff9b8
     a50:	02000004 	andeq	r0, r0, #4
     a54:	00019300 	andeq	r9, r1, r0, lsl #6
     a58:	4c010400 	cfstrsmi	mvf0, [r1], {-0}
     a5c:	0c000001 	stceq	0, cr0, [r0], {1}
     a60:	000003f7 	strdeq	r0, [r0], -r7
     a64:	00000341 	andeq	r0, r0, r1, asr #6
     a68:	00000080 	andeq	r0, r0, r0, lsl #1
	...
     a74:	000003a5 	andeq	r0, r0, r5, lsr #7
     a78:	36060102 	strcc	r0, [r6], -r2, lsl #2
     a7c:	03000002 	movweq	r0, #2
     a80:	00000142 	andeq	r0, r0, r2, asr #2
     a84:	3c182b02 			; <UNDEFINED> instruction: 0x3c182b02
     a88:	02000000 	andeq	r0, r0, #0
     a8c:	02340801 	eorseq	r0, r4, #65536	; 0x10000
     a90:	02020000 	andeq	r0, r2, #0
     a94:	00002005 	andeq	r2, r0, r5
     a98:	07020200 	streq	r0, [r2, -r0, lsl #4]
     a9c:	000002c6 	andeq	r0, r0, r6, asr #5
     aa0:	18050402 	stmdane	r5, {r1, sl}
     aa4:	03000001 	movweq	r0, #1
     aa8:	00000052 	andeq	r0, r0, r2, asr r0
     aac:	64194f02 	ldrvs	r4, [r9], #-3842	; 0xfffff0fe
     ab0:	02000000 	andeq	r0, r0, #0
     ab4:	02750704 	rsbseq	r0, r5, #4, 14	; 0x100000
     ab8:	08020000 	stmdaeq	r2, {}	; <UNPREDICTABLE>
     abc:	00011305 	andeq	r1, r1, r5, lsl #6
     ac0:	07080200 	streq	r0, [r8, -r0, lsl #4]
     ac4:	00000270 	andeq	r0, r0, r0, ror r2
     ac8:	69050404 	stmdbvs	r5, {r2, sl}
     acc:	0200746e 	andeq	r7, r0, #1845493760	; 0x6e000000
     ad0:	027a0704 	rsbseq	r0, sl, #4, 14	; 0x100000
     ad4:	44030000 	strmi	r0, [r3], #-0
     ad8:	03000001 	movweq	r0, #1
     adc:	00301318 	eorseq	r1, r0, r8, lsl r3
     ae0:	87050000 	strhi	r0, [r5, -r0]
     ae4:	03000000 	movweq	r0, #0
     ae8:	00000054 	andeq	r0, r0, r4, asr r0
     aec:	58143003 	ldmdapl	r4, {r0, r1, ip, sp}
     af0:	05000000 	streq	r0, [r0, #-0]
     af4:	00000098 	muleq	r0, r8, r0
     af8:	0000a406 	andeq	sl, r0, r6, lsl #8
     afc:	027c0700 	rsbseq	r0, ip, #0, 14
     b00:	0901f804 	stmdbeq	r1, {r2, fp, ip, sp, lr, pc}
     b04:	000003b3 			; <UNDEFINED> instruction: 0x000003b3
     b08:	00006e08 	andeq	r6, r0, r8, lsl #28
     b0c:	01fa0400 	mvnseq	r0, r0, lsl #8
     b10:	0000a912 	andeq	sl, r0, r2, lsl r9
     b14:	00230200 	eoreq	r0, r3, r0, lsl #4
     b18:	0003b608 	andeq	fp, r3, r8, lsl #12
     b1c:	01fb0400 	mvnseq	r0, r0, lsl #8
     b20:	0000a412 	andeq	sl, r0, r2, lsl r4
     b24:	04230200 	strteq	r0, [r3], #-512	; 0xfffffe00
     b28:	0002f108 	andeq	pc, r2, r8, lsl #2
     b2c:	01fc0400 	mvnseq	r0, r0, lsl #8
     b30:	0000a412 	andeq	sl, r0, r2, lsl r4
     b34:	08230200 	stmdaeq	r3!, {r9}
     b38:	0003c108 	andeq	ip, r3, r8, lsl #2
     b3c:	01fd0400 	mvnseq	r0, r0, lsl #8
     b40:	0000a412 	andeq	sl, r0, r2, lsl r4
     b44:	0c230200 	sfmeq	f0, 4, [r3], #-0
     b48:	52435309 	subpl	r5, r3, #603979776	; 0x24000000
     b4c:	01fe0400 	mvnseq	r0, r0, lsl #8
     b50:	0000a412 	andeq	sl, r0, r2, lsl r4
     b54:	10230200 	eorne	r0, r3, r0, lsl #4
     b58:	52434309 	subpl	r4, r3, #603979776	; 0x24000000
     b5c:	01ff0400 	mvnseq	r0, r0, lsl #8
     b60:	0000a412 	andeq	sl, r0, r2, lsl r4
     b64:	14230200 	strtne	r0, [r3], #-512	; 0xfffffe00
     b68:	00026b08 	andeq	r6, r2, r8, lsl #22
     b6c:	02000400 	andeq	r0, r0, #0, 8
     b70:	0003c312 	andeq	ip, r3, r2, lsl r3
     b74:	18230200 	stmdane	r3!, {r9}
     b78:	0002a208 	andeq	sl, r2, r8, lsl #4
     b7c:	02010400 	andeq	r0, r1, #0, 8
     b80:	0000a412 	andeq	sl, r0, r2, lsl r4
     b84:	24230200 	strtcs	r0, [r3], #-512	; 0xfffffe00
     b88:	00021f08 	andeq	r1, r2, r8, lsl #30
     b8c:	02020400 	andeq	r0, r2, #0, 8
     b90:	0000a412 	andeq	sl, r0, r2, lsl r4
     b94:	28230200 	stmdacs	r3!, {r9}
     b98:	0002fb08 	andeq	pc, r2, r8, lsl #22
     b9c:	02030400 	andeq	r0, r3, #0, 8
     ba0:	0000a412 	andeq	sl, r0, r2, lsl r4
     ba4:	2c230200 	sfmcs	f0, 4, [r3], #-0
     ba8:	0002f608 	andeq	pc, r2, r8, lsl #12
     bac:	02040400 	andeq	r0, r4, #0, 8
     bb0:	0000a412 	andeq	sl, r0, r2, lsl r4
     bb4:	30230200 	eorcc	r0, r3, r0, lsl #4
     bb8:	00001a08 	andeq	r1, r0, r8, lsl #20
     bbc:	02050400 	andeq	r0, r5, #0, 8
     bc0:	0000a412 	andeq	sl, r0, r2, lsl r4
     bc4:	34230200 	strtcc	r0, [r3], #-512	; 0xfffffe00
     bc8:	00012108 	andeq	r2, r1, r8, lsl #2
     bcc:	02060400 	andeq	r0, r6, #0, 8
     bd0:	0000a412 	andeq	sl, r0, r2, lsl r4
     bd4:	38230200 	stmdacc	r3!, {r9}
     bd8:	0003a308 	andeq	sl, r3, r8, lsl #6
     bdc:	02070400 	andeq	r0, r7, #0, 8
     be0:	0000a412 	andeq	sl, r0, r2, lsl r4
     be4:	3c230200 	sfmcc	f0, 4, [r3], #-0
     be8:	00003008 	andeq	r3, r0, r8
     bec:	02080400 	andeq	r0, r8, #0, 8
     bf0:	0003dd12 	andeq	sp, r3, r2, lsl sp
     bf4:	40230200 	eormi	r0, r3, r0, lsl #4
     bf8:	0003af08 	andeq	sl, r3, r8, lsl #30
     bfc:	02090400 	andeq	r0, r9, #0, 8
     c00:	0000a912 	andeq	sl, r0, r2, lsl r9
     c04:	48230200 	stmdami	r3!, {r9}
     c08:	0000cc08 	andeq	ip, r0, r8, lsl #24
     c0c:	020a0400 	andeq	r0, sl, #0, 8
     c10:	0000a912 	andeq	sl, r0, r2, lsl r9
     c14:	4c230200 	sfmmi	f0, 4, [r3], #-0
     c18:	00006608 	andeq	r6, r0, r8, lsl #12
     c1c:	020b0400 	andeq	r0, fp, #0, 8
     c20:	0003f712 	andeq	pc, r3, r2, lsl r7	; <UNPREDICTABLE>
     c24:	50230200 	eorpl	r0, r3, r0, lsl #4
     c28:	00024a08 	andeq	r4, r2, r8, lsl #20
     c2c:	020c0400 	andeq	r0, ip, #0, 8
     c30:	00041112 	andeq	r1, r4, r2, lsl r1
     c34:	60230200 	eorvs	r0, r3, r0, lsl #4
     c38:	00038508 	andeq	r8, r3, r8, lsl #10
     c3c:	020d0400 	andeq	r0, sp, #0, 8
     c40:	0000a912 	andeq	sl, r0, r2, lsl r9
     c44:	78230200 	stmdavc	r3!, {r9}
     c48:	52544309 	subspl	r4, r4, #603979776	; 0x24000000
     c4c:	020e0400 	andeq	r0, lr, #0, 8
     c50:	0000a912 	andeq	sl, r0, r2, lsl r9
     c54:	7c230200 	sfmvc	f0, 4, [r3], #-0
     c58:	00013b08 	andeq	r3, r1, r8, lsl #22
     c5c:	020f0400 	andeq	r0, pc, #0, 8
     c60:	0000a912 	andeq	sl, r0, r2, lsl r9
     c64:	80230300 	eorhi	r0, r3, r0, lsl #6
     c68:	02bf0801 	adcseq	r0, pc, #65536	; 0x10000
     c6c:	10040000 	andne	r0, r4, r0
     c70:	00a41202 	adceq	r1, r4, r2, lsl #4
     c74:	23030000 	movwcs	r0, #12288	; 0x3000
     c78:	bb080184 	bllt	201290 <__RAM_SIZE+0x101290>
     c7c:	04000003 	streq	r0, [r0], #-3
     c80:	a4120211 	ldrge	r0, [r2], #-529	; 0xfffffdef
     c84:	03000000 	movweq	r0, #0
     c88:	08018823 	stmdaeq	r1, {r0, r1, r5, fp, pc}
     c8c:	000002b0 			; <UNDEFINED> instruction: 0x000002b0
     c90:	12021204 	andne	r1, r2, #4, 4	; 0x40000000
     c94:	000000a4 	andeq	r0, r0, r4, lsr #1
     c98:	018c2303 	orreq	r2, ip, r3, lsl #6
     c9c:	00037b08 	andeq	r7, r3, r8, lsl #22
     ca0:	02130400 	andseq	r0, r3, #0, 8
     ca4:	00041612 	andeq	r1, r4, r2, lsl r6
     ca8:	90230300 	eorls	r0, r3, r0, lsl #6
     cac:	029d0801 	addseq	r0, sp, #65536	; 0x10000
     cb0:	14040000 	strne	r0, [r4], #-0
     cb4:	00a41202 	adceq	r1, r4, r2, lsl #4
     cb8:	23030000 	movwcs	r0, #12288	; 0x3000
     cbc:	1e0801e4 	adfne<illegal precision>z	f0, f0, f4
     cc0:	04000003 	streq	r0, [r0], #-3
     cc4:	a4120215 	ldrge	r0, [r2], #-533	; 0xfffffdeb
     cc8:	03000000 	movweq	r0, #0
     ccc:	0801e823 	stmdaeq	r1, {r0, r1, r5, fp, sp, lr, pc}
     cd0:	00000300 	andeq	r0, r0, r0, lsl #6
     cd4:	12021604 	andne	r1, r2, #4, 12	; 0x400000
     cd8:	00000426 	andeq	r0, r0, r6, lsr #8
     cdc:	01ec2303 	mvneq	r2, r3, lsl #6
     ce0:	0000c708 	andeq	ip, r0, r8, lsl #14
     ce4:	02170400 	andseq	r0, r7, #0, 8
     ce8:	0000a412 	andeq	sl, r0, r2, lsl r4
     cec:	80230300 	eorhi	r0, r3, r0, lsl #6
     cf0:	030a0804 	movweq	r0, #43012	; 0xa804
     cf4:	18040000 	stmdane	r4, {}	; <UNPREDICTABLE>
     cf8:	04361202 	ldrteq	r1, [r6], #-514	; 0xfffffdfe
     cfc:	23030000 	movwcs	r0, #12288	; 0x3000
     d00:	74080484 	strvc	r0, [r8], #-1156	; 0xfffffb7c
     d04:	04000000 	streq	r0, [r0], #-0
     d08:	a9120219 	ldmdbge	r2, {r0, r3, r4, r9}
     d0c:	03000000 	movweq	r0, #0
     d10:	0804c023 	stmdaeq	r4, {r0, r1, r5, lr, pc}
     d14:	0000002a 	andeq	r0, r0, sl, lsr #32
     d18:	12021a04 	andne	r1, r2, #4, 20	; 0x4000
     d1c:	000000a9 	andeq	r0, r0, r9, lsr #1
     d20:	04c42303 	strbeq	r2, [r4], #771	; 0x303
     d24:	00010d08 	andeq	r0, r1, r8, lsl #26
     d28:	021b0400 	andseq	r0, fp, #0, 8
     d2c:	0000a912 	andeq	sl, r0, r2, lsl r9
     d30:	c8230300 	stmdagt	r3!, {r8, r9}
     d34:	03140804 	tsteq	r4, #4, 16	; 0x40000
     d38:	1c040000 	stcne	0, cr0, [r4], {-0}
     d3c:	04461202 	strbeq	r1, [r6], #-514	; 0xfffffdfe
     d40:	23030000 	movwcs	r0, #12288	; 0x3000
     d44:	240804cc 	strcs	r0, [r8], #-1228	; 0xfffffb34
     d48:	04000002 	streq	r0, [r0], #-2
     d4c:	a412021d 	ldrge	r0, [r2], #-541	; 0xfffffde3
     d50:	03000000 	movweq	r0, #0
     d54:	0804d023 	stmdaeq	r4, {r0, r1, r5, ip, lr, pc}
     d58:	000000ab 	andeq	r0, r0, fp, lsr #1
     d5c:	12021e04 	andne	r1, r2, #4, 28	; 0x40
     d60:	00000446 	andeq	r0, r0, r6, asr #8
     d64:	04d42303 	ldrbeq	r2, [r4], #771	; 0x303
     d68:	00024208 	andeq	r4, r2, r8, lsl #4
     d6c:	021f0400 	andseq	r0, pc, #0, 8
     d70:	0000a412 	andeq	sl, r0, r2, lsl r4
     d74:	d8230300 	stmdale	r3!, {r8, r9}
     d78:	022c0804 	eoreq	r0, ip, #4, 16	; 0x40000
     d7c:	20040000 	andcs	r0, r4, r0
     d80:	00a41202 	adceq	r1, r4, r2, lsl #4
     d84:	23030000 	movwcs	r0, #12288	; 0x3000
     d88:	ed0804dc 	cfstrs	mvf0, [r8, #-880]	; 0xfffffc90
     d8c:	04000000 	streq	r0, [r0], #-0
     d90:	a4120221 	ldrge	r0, [r2], #-545	; 0xfffffddf
     d94:	03000000 	movweq	r0, #0
     d98:	0804e023 	stmdaeq	r4, {r0, r1, r5, sp, lr, pc}
     d9c:	000002d9 	ldrdeq	r0, [r0], -r9
     da0:	12022204 	andne	r2, r2, #4, 4	; 0x40000000
     da4:	000000a4 	andeq	r0, r0, r4, lsr #1
     da8:	04e42303 	strbteq	r2, [r4], #771	; 0x303
     dac:	0002a808 	andeq	sl, r2, r8, lsl #16
     db0:	02230400 	eoreq	r0, r3, #0, 8
     db4:	0000a412 	andeq	sl, r0, r2, lsl r4
     db8:	e8230300 	stmda	r3!, {r8, r9}
     dbc:	00000804 	andeq	r0, r0, r4, lsl #16
     dc0:	24040000 	strcs	r0, [r4], #-0
     dc4:	00a41202 	adceq	r1, r4, r2, lsl #4
     dc8:	23030000 	movwcs	r0, #12288	; 0x3000
     dcc:	5d0804ec 	cfstrspl	mvf0, [r8, #-944]	; 0xfffffc50
     dd0:	04000000 	streq	r0, [r0], #-0
     dd4:	a4120225 	ldrge	r0, [r2], #-549	; 0xfffffddb
     dd8:	03000000 	movweq	r0, #0
     ddc:	0804f023 	stmdaeq	r4, {r0, r1, r5, ip, sp, lr, pc}
     de0:	0000033a 	andeq	r0, r0, sl, lsr r3
     de4:	12022604 	andne	r2, r2, #4, 12	; 0x400000
     de8:	000000a4 	andeq	r0, r0, r4, lsr #1
     dec:	04f42303 	ldrbteq	r2, [r4], #771	; 0x303
     df0:	0003a808 	andeq	sl, r3, r8, lsl #16
     df4:	02270400 	eoreq	r0, r7, #0, 8
     df8:	0000a412 	andeq	sl, r0, r2, lsl r4
     dfc:	f8230300 			; <UNDEFINED> instruction: 0xf8230300
     e00:	930a0004 	movwls	r0, #40964	; 0xa004
     e04:	c3000000 	movwgt	r0, #0
     e08:	0b000003 	bleq	e1c <__Vectors_Size+0x65c>
     e0c:	00000080 	andeq	r0, r0, r0, lsl #1
     e10:	b305000b 	movwlt	r0, #20491	; 0x500b
     e14:	0a000003 	beq	e28 <__Vectors_Size+0x668>
     e18:	000000a9 	andeq	r0, r0, r9, lsr #1
     e1c:	000003d8 	ldrdeq	r0, [r0], -r8
     e20:	0000800b 	andeq	r8, r0, fp
     e24:	06000100 	streq	r0, [r0], -r0, lsl #2
     e28:	000003c8 	andeq	r0, r0, r8, asr #7
     e2c:	0003d805 	andeq	sp, r3, r5, lsl #16
     e30:	00a90a00 	adceq	r0, r9, r0, lsl #20
     e34:	03f20000 	mvnseq	r0, #0
     e38:	800b0000 	andhi	r0, fp, r0
     e3c:	03000000 	movweq	r0, #0
     e40:	03e20600 	mvneq	r0, #0, 12
     e44:	f2050000 	vhadd.s8	d0, d5, d0
     e48:	0a000003 	beq	e5c <__Vectors_Size+0x69c>
     e4c:	000000a9 	andeq	r0, r0, r9, lsr #1
     e50:	0000040c 	andeq	r0, r0, ip, lsl #8
     e54:	0000800b 	andeq	r8, r0, fp
     e58:	06000500 	streq	r0, [r0], -r0, lsl #10
     e5c:	000003fc 	strdeq	r0, [r0], -ip
     e60:	00040c05 	andeq	r0, r4, r5, lsl #24
     e64:	00980a00 	addseq	r0, r8, r0, lsl #20
     e68:	04260000 	strteq	r0, [r6], #-0
     e6c:	800b0000 	andhi	r0, fp, r0
     e70:	14000000 	strne	r0, [r0], #-0
     e74:	00980a00 	addseq	r0, r8, r0, lsl #20
     e78:	04360000 	ldrteq	r0, [r6], #-0
     e7c:	800b0000 	andhi	r0, fp, r0
     e80:	44000000 	strmi	r0, [r0], #-0
     e84:	00980a00 	addseq	r0, r8, r0, lsl #20
     e88:	04460000 	strbeq	r0, [r6], #-0
     e8c:	800b0000 	andhi	r0, fp, r0
     e90:	0e000000 	cdpeq	0, 0, cr0, cr0, cr0, {0}
     e94:	00980a00 	addseq	r0, r8, r0, lsl #20
     e98:	04560000 	ldrbeq	r0, [r6], #-0
     e9c:	800b0000 	andhi	r0, fp, r0
     ea0:	00000000 	andeq	r0, r0, r0
     ea4:	02620c00 	rsbeq	r0, r2, #0, 24
     ea8:	28040000 	stmdacs	r4, {}	; <UNPREDICTABLE>
     eac:	00ae0302 	adceq	r0, lr, r2, lsl #6
     eb0:	21030000 	mrscs	r0, (UNDEF: 3)
     eb4:	05000004 	streq	r0, [r0, #-4]
     eb8:	04740f24 	ldrbteq	r0, [r4], #-3876	; 0xfffff0dc
     ebc:	63060000 	movwvs	r0, #24576	; 0x6000
     ec0:	0d000004 	stceq	0, cr0, [r0, #-16]
     ec4:	00047a04 	andeq	r7, r4, r4, lsl #20
     ec8:	0f010e00 	svceq	0x00010e00
     ecc:	000003dd 	ldrdeq	r0, [r0], -sp
     ed0:	98112905 	ldmdals	r1, {r0, r2, r8, fp, sp}
     ed4:	01000000 	mrseq	r0, (UNDEF: 0)
     ed8:	046f0a01 	strbteq	r0, [pc], #-2561	; ee0 <__Vectors_Size+0x720>
     edc:	049b0000 	ldreq	r0, [fp], #0
     ee0:	80100000 	andshi	r0, r0, r0
     ee4:	ef000000 	svc	0x00000000
     ee8:	8a060001 	bhi	180ef4 <__RAM_SIZE+0x80ef4>
     eec:	0f000004 	svceq	0x00000004
     ef0:	000003ed 	andeq	r0, r0, sp, ror #7
     ef4:	9b203801 	blls	80ef00 <__RAM_SIZE+0x70ef00>
     ef8:	01000004 	tsteq	r0, r4
     efc:	047c1101 	ldrbteq	r1, [ip], #-257	; 0xfffffeff
     f00:	3e010000 	cdpcc	0, 0, cr0, cr1, cr0, {0}
     f04:	0003050a 	andeq	r0, r3, sl, lsl #10
     f08:	12380000 	eorsne	r0, r8, #0
     f0c:	00041601 	andeq	r1, r4, r1, lsl #12
     f10:	064c0100 	strbeq	r0, [ip], -r0, lsl #2
     f14:	00097401 	andeq	r7, r9, r1, lsl #8
     f18:	0009a010 	andeq	sl, r9, r0, lsl r0
     f1c:	007d0210 	rsbseq	r0, sp, r0, lsl r2
     f20:	c7011201 	strgt	r1, [r1, -r1, lsl #4]
     f24:	01000003 	tsteq	r0, r3
     f28:	00010644 	andeq	r0, r1, r4, asr #12
     f2c:	00000000 	andeq	r0, r0, r0
     f30:	02000000 	andeq	r0, r0, #0
     f34:	0001007d 	andeq	r0, r1, sp, ror r0
     f38:	00001bc1 	andeq	r1, r0, r1, asr #23
     f3c:	02830002 	addeq	r0, r3, #2
     f40:	01040000 	mrseq	r0, (UNDEF: 4)
     f44:	0000014c 	andeq	r0, r0, ip, asr #2
     f48:	0005120c 	andeq	r1, r5, ip, lsl #4
     f4c:	00034100 	andeq	r4, r3, r0, lsl #2
     f50:	00015000 	andeq	r5, r1, r0
	...
     f5c:	00054600 	andeq	r4, r5, r0, lsl #12
     f60:	04080200 	streq	r0, [r8], #-512	; 0xfffffe00
     f64:	0000004b 	andeq	r0, r0, fp, asr #32
     f68:	7a070402 	bvc	1c1f78 <__RAM_SIZE+0xc1f78>
     f6c:	02000002 	andeq	r0, r0, #2
     f70:	02360601 	eorseq	r0, r6, #1048576	; 0x100000
     f74:	01020000 	mrseq	r0, (UNDEF: 2)
     f78:	00023408 	andeq	r3, r2, r8, lsl #8
     f7c:	05020200 	streq	r0, [r2, #-512]	; 0xfffffe00
     f80:	00000020 	andeq	r0, r0, r0, lsr #32
     f84:	c6070202 	strgt	r0, [r7], -r2, lsl #4
     f88:	02000002 	andeq	r0, r0, #2
     f8c:	01180504 	tsteq	r8, r4, lsl #10
     f90:	53030000 	movwpl	r0, #12288	; 0x3000
     f94:	02000000 	andeq	r0, r0, #0
     f98:	02750704 	rsbseq	r0, r5, #4, 14	; 0x100000
     f9c:	08020000 	stmdaeq	r2, {}	; <UNPREDICTABLE>
     fa0:	00011305 	andeq	r1, r1, r5, lsl #6
     fa4:	00660300 	rsbeq	r0, r6, r0, lsl #6
     fa8:	d0040000 	andle	r0, r4, r0
     fac:	02000005 	andeq	r0, r0, #5
     fb0:	007e1969 	rsbseq	r1, lr, r9, ror #18
     fb4:	08020000 	stmdaeq	r2, {}	; <UNPREDICTABLE>
     fb8:	00027007 	andeq	r7, r2, r7
     fbc:	05040500 	streq	r0, [r4, #-1280]	; 0xfffffb00
     fc0:	00746e69 	rsbseq	r6, r4, r9, ror #28
     fc4:	00008503 	andeq	r8, r0, r3, lsl #10
     fc8:	05f90400 	ldrbeq	r0, [r9, #1024]!	; 0x400
     fcc:	e8020000 	stmda	r2, {}	; <UNPREDICTABLE>
     fd0:	0000301a 	andeq	r3, r0, sl, lsl r0
     fd4:	00300300 	eorseq	r0, r0, r0, lsl #6
     fd8:	d2040000 	andle	r0, r4, #0
     fdc:	03000005 	movweq	r0, #5
     fe0:	0072143c 	rsbseq	r1, r2, ip, lsr r4
     fe4:	fb040000 	blx	100fee <__RAM_SIZE+0xfee>
     fe8:	03000005 	movweq	r0, #5
     fec:	00911552 	addseq	r1, r1, r2, asr r5
     ff0:	63040000 	movwvs	r0, #16384	; 0x4000
     ff4:	04000006 	streq	r0, [r0], #-6
     ff8:	00c61b28 	sbceq	r1, r6, r8, lsr #22
     ffc:	08060000 	stmdaeq	r6, {}	; <UNPREDICTABLE>
    1000:	04000005 	streq	r0, [r0], #-5
    1004:	00e00006 	rsceq	r0, r0, r6
    1008:	b8070000 	stmdalt	r7, {}	; <UNPREDICTABLE>
    100c:	e0000005 	and	r0, r0, r5
    1010:	02000000 	andeq	r0, r0, #0
    1014:	00010023 	andeq	r0, r1, r3, lsr #32
    1018:	0a040408 	beq	102040 <__RAM_SIZE+0x2040>
    101c:	04000005 	streq	r0, [r0], #-5
    1020:	00ba1863 	adcseq	r1, sl, r3, ror #16
    1024:	7a040000 	bvc	10102c <__RAM_SIZE+0x102c>
    1028:	05000004 	streq	r0, [r0, #-4]
    102c:	003017d1 	ldrsbteq	r1, [r0], -r1
    1030:	ee030000 	cdp	0, 0, cr0, cr3, cr0, {0}
    1034:	02000000 	andeq	r0, r0, #0
    1038:	00460408 	subeq	r0, r6, r8, lsl #8
    103c:	4f040000 	svcmi	0x00040000
    1040:	01000005 	tsteq	r0, r5
    1044:	0112107a 	tsteq	r2, sl, ror r0
    1048:	04090000 	streq	r0, [r9], #-0
    104c:	00000118 	andeq	r0, r0, r8, lsl r1
    1050:	0133010a 	teqeq	r3, sl, lsl #2
    1054:	330b0000 	movwcc	r0, #45056	; 0xb000
    1058:	0b000001 	bleq	1064 <__HEAP_SIZE+0x64>
    105c:	000000e0 	andeq	r0, r0, r0, ror #1
    1060:	0000ee0b 	andeq	lr, r0, fp, lsl #28
    1064:	00ee0b00 	rsceq	r0, lr, r0, lsl #22
    1068:	02000000 	andeq	r0, r0, #0
    106c:	023d0801 	eorseq	r0, sp, #65536	; 0x10000
    1070:	33030000 	movwcc	r0, #12288	; 0x3000
    1074:	0c000001 	stceq	0, cr0, [r0], {1}
    1078:	097e0108 	ldmdbeq	lr!, {r3, r8}^
    107c:	00000167 	andeq	r0, r0, r7, ror #2
    1080:	7463660d 	strbtvc	r6, [r3], #-1549	; 0xfffff9f3
    1084:	0b7f0100 	bleq	1fc148c <__RAM_SIZE+0x1ec148c>
    1088:	00000178 	andeq	r0, r0, r8, ror r1
    108c:	0d002302 	stceq	3, cr2, [r0, #-8]
    1090:	00677261 	rsbeq	r7, r7, r1, ror #4
    1094:	e0098001 	and	r8, r9, r1
    1098:	02000000 	andeq	r0, r0, #0
    109c:	0a000423 	beq	2130 <__HEAP_SIZE+0x1130>
    10a0:	00017801 	andeq	r7, r1, r1, lsl #16
    10a4:	01330b00 	teqeq	r3, r0, lsl #22
    10a8:	e00b0000 	and	r0, fp, r0
    10ac:	00000000 	andeq	r0, r0, r0
    10b0:	01670409 	cmneq	r7, r9, lsl #8
    10b4:	45040000 	strmi	r0, [r4, #-0]
    10b8:	01000006 	tsteq	r0, r6
    10bc:	013f0381 	teqeq	pc, r1, lsl #7
    10c0:	7e030000 	cdpvc	0, 0, cr0, cr3, cr0, {0}
    10c4:	0e000001 	cdpeq	0, 0, cr0, cr0, cr1, {0}
    10c8:	0004e801 	andeq	lr, r4, r1, lsl #16
    10cc:	038a0100 	orreq	r0, sl, #0, 2
    10d0:	00850105 	addeq	r0, r5, r5, lsl #2
	...
    10dc:	02c30000 	sbceq	r0, r3, #0
    10e0:	4c010000 	stcmi	0, cr0, [r1], {-0}
    10e4:	0f000002 	svceq	0x00000002
    10e8:	0074756f 	rsbseq	r7, r4, pc, ror #10
    10ec:	16038a01 	strne	r8, [r3], -r1, lsl #20
    10f0:	00000178 	andeq	r0, r0, r8, ror r1
    10f4:	00000325 	andeq	r0, r0, r5, lsr #6
    10f8:	0000031f 	andeq	r0, r0, pc, lsl r3
    10fc:	6772610f 	ldrbvs	r6, [r2, -pc, lsl #2]!
    1100:	038a0100 	orreq	r0, sl, #0, 2
    1104:	0000e03d 	andeq	lr, r0, sp, lsr r0
    1108:	00035600 	andeq	r5, r3, r0, lsl #12
    110c:	00035200 	andeq	r5, r3, r0, lsl #4
    1110:	052d1000 	streq	r1, [sp, #-0]!
    1114:	8a010000 	bhi	4111c <__HEAP_SIZE+0x4011c>
    1118:	024c4e03 	subeq	r4, ip, #3, 28	; 0x30
    111c:	91020000 	mrsls	r0, (UNDEF: 2)
    1120:	76121178 			; <UNDEFINED> instruction: 0x76121178
    1124:	8c010061 	stchi	0, cr0, [r1], {97}	; 0x61
    1128:	00e20b03 	rsceq	r0, r2, r3, lsl #22
    112c:	91020000 	mrsls	r0, (UNDEF: 2)
    1130:	0452136c 	ldrbeq	r1, [r2], #-876	; 0xfffffc94
    1134:	8e010000 	cdphi	0, 0, cr0, cr1, cr0, {0}
    1138:	018a1b03 	orreq	r1, sl, r3, lsl #22
    113c:	91020000 	mrsls	r0, (UNDEF: 2)
    1140:	65721464 	ldrbvs	r1, [r2, #-1124]!	; 0xfffffb9c
    1144:	8f010074 	svchi	0x00010074
    1148:	008c0d03 	addeq	r0, ip, r3, lsl #26
    114c:	03790000 	cmneq	r9, #0
    1150:	03770000 	cmneq	r7, #0
    1154:	00150000 	andseq	r0, r5, r0
    1158:	5f000000 	svcpl	0x00000000
    115c:	16000005 	strne	r0, [r0], -r5
    1160:	03055001 	movweq	r5, #20481	; 0x5001
    1164:	00000000 	andeq	r0, r0, r0
    1168:	02510116 	subseq	r0, r1, #-2147483643	; 0x80000005
    116c:	01165491 			; <UNDEFINED> instruction: 0x01165491
    1170:	ff090252 			; <UNDEFINED> instruction: 0xff090252
    1174:	03530116 	cmpeq	r3, #-2147483643	; 0x80000005
    1178:	16066891 			; <UNDEFINED> instruction: 0x16066891
    117c:	02007d02 	andeq	r7, r0, #2, 26	; 0x80
    1180:	00006c91 	muleq	r0, r1, ip
    1184:	013a0409 	teqeq	sl, r9, lsl #8
    1188:	010e0000 	mrseq	r0, (UNDEF: 14)
    118c:	0000053b 	andeq	r0, r0, fp, lsr r5
    1190:	05038401 	streq	r8, [r3, #-1025]	; 0xfffffbff
    1194:	00008501 	andeq	r8, r0, r1, lsl #10
	...
    11a0:	00038c00 	andeq	r8, r3, r0, lsl #24
    11a4:	02ee0100 	rsceq	r0, lr, #0, 2
    11a8:	6b170000 	blvs	5c11b0 <__RAM_SIZE+0x4c11b0>
    11ac:	01000004 	tsteq	r0, r4
    11b0:	ee150384 	cdp	3, 1, cr0, cr5, cr4, {4}
    11b4:	ca000002 	bgt	11c4 <__HEAP_SIZE+0x1c4>
    11b8:	c4000003 	strgt	r0, [r0], #-3
    11bc:	17000003 	strne	r0, [r0, -r3]
    11c0:	0000038b 	andeq	r0, r0, fp, lsl #7
    11c4:	24038401 	strcs	r8, [r3], #-1025	; 0xfffffbff
    11c8:	000000ee 	andeq	r0, r0, lr, ror #1
    11cc:	000003fc 	strdeq	r0, [r0], -ip
    11d0:	000003f6 	strdeq	r0, [r0], -r6
    11d4:	00052d17 	andeq	r2, r5, r7, lsl sp
    11d8:	03840100 	orreq	r0, r4, #0, 2
    11dc:	00024c37 	andeq	r4, r2, r7, lsr ip
    11e0:	00042e00 	andeq	r2, r4, r0, lsl #28
    11e4:	00042800 	andeq	r2, r4, r0, lsl #16
    11e8:	61760f00 	cmnvs	r6, r0, lsl #30
    11ec:	03840100 	orreq	r0, r4, #0, 2
    11f0:	0000e247 	andeq	lr, r0, r7, asr #4
    11f4:	00045c00 	andeq	r5, r4, r0, lsl #24
    11f8:	00045a00 	andeq	r5, r4, r0, lsl #20
    11fc:	00001500 	andeq	r1, r0, r0, lsl #10
    1200:	055f0000 	ldrbeq	r0, [pc, #-0]	; 1208 <__HEAP_SIZE+0x208>
    1204:	01160000 	tsteq	r6, r0
    1208:	00030550 	andeq	r0, r3, r0, asr r5
    120c:	16000000 	strne	r0, [r0], -r0
    1210:	f3035101 	vrhadd.u8	d5, d3, d1
    1214:	01165001 	tsteq	r6, r1
    1218:	01f30352 	mvnseq	r0, r2, asr r3
    121c:	53011651 	movwpl	r1, #5713	; 0x1651
    1220:	5201f303 	andpl	pc, r1, #201326592	; 0xc000000
    1224:	04090000 	streq	r0, [r9], #-0
    1228:	00000133 	andeq	r0, r0, r3, lsr r1
    122c:	0472010e 	ldrbteq	r0, [r2], #-270	; 0xfffffef2
    1230:	7d010000 	stcvc	0, cr0, [r1, #-0]
    1234:	85010503 	strhi	r0, [r1, #-1283]	; 0xfffffafd
	...
    1240:	6f000000 	svcvs	0x00000000
    1244:	01000004 	tsteq	r0, r4
    1248:	00000374 	andeq	r0, r0, r4, ror r3
    124c:	00052d17 	andeq	r2, r5, r7, lsl sp
    1250:	037d0100 	cmneq	sp, #0, 2
    1254:	00024c19 	andeq	r4, r2, r9, lsl ip
    1258:	0004ad00 	andeq	sl, r4, r0, lsl #26
    125c:	0004a700 	andeq	sl, r4, r0, lsl #14
    1260:	61760f00 	cmnvs	r6, r0, lsl #30
    1264:	037d0100 	cmneq	sp, #0, 2
    1268:	0000e229 	andeq	lr, r0, r9, lsr #4
    126c:	0004db00 	andeq	sp, r4, r0, lsl #22
    1270:	0004d900 	andeq	sp, r4, r0, lsl #18
    1274:	046b1300 	strbteq	r1, [fp], #-768	; 0xfffffd00
    1278:	7f010000 	svcvc	0x00010000
    127c:	03740803 	cmneq	r4, #196608	; 0x30000
    1280:	91020000 	mrsls	r0, (UNDEF: 2)
    1284:	00001574 	andeq	r1, r0, r4, ror r5
    1288:	055f0000 	ldrbeq	r0, [pc, #-0]	; 1290 <__HEAP_SIZE+0x290>
    128c:	01160000 	tsteq	r6, r0
    1290:	e1030550 	tst	r3, r0, asr r5
    1294:	1610001a 			; <UNDEFINED> instruction: 0x1610001a
    1298:	91025101 	tstls	r2, r1, lsl #2
    129c:	52011674 	andpl	r1, r1, #116, 12	; 0x7400000
    12a0:	16ff0902 	ldrbtne	r0, [pc], r2, lsl #18
    12a4:	f3035301 	vcgt.u8	d5, d3, d1
    12a8:	00005001 	andeq	r5, r0, r1
    12ac:	00013318 	andeq	r3, r1, r8, lsl r3
    12b0:	00038400 	andeq	r8, r3, r0, lsl #8
    12b4:	00301900 	eorseq	r1, r0, r0, lsl #18
    12b8:	00000000 	andeq	r0, r0, r0
    12bc:	053c010e 	ldreq	r0, [ip, #-270]!	; 0xfffffef2
    12c0:	73010000 	movwvc	r0, #4096	; 0x1000
    12c4:	85010503 	strhi	r0, [r1, #-1283]	; 0xfffffafd
	...
    12d0:	ee000000 	cdp	0, 0, cr0, cr0, cr0, {0}
    12d4:	01000004 	tsteq	r0, r4
    12d8:	00000433 	andeq	r0, r0, r3, lsr r4
    12dc:	00046b17 	andeq	r6, r4, r7, lsl fp
    12e0:	03730100 	cmneq	r3, #0, 2
    12e4:	0002ee14 	andeq	lr, r2, r4, lsl lr
    12e8:	00055000 	andeq	r5, r5, r0
    12ec:	00054a00 	andeq	r4, r5, r0, lsl #20
    12f0:	038b1700 	orreq	r1, fp, #0, 14
    12f4:	73010000 	movwvc	r0, #4096	; 0x1000
    12f8:	00ee2303 	rsceq	r2, lr, r3, lsl #6
    12fc:	05820000 	streq	r0, [r2]
    1300:	057c0000 	ldrbeq	r0, [ip, #-0]!
    1304:	2d100000 	ldccs	0, cr0, [r0, #-0]
    1308:	01000005 	tsteq	r0, r5
    130c:	4c360373 	ldcmi	3, cr0, [r6], #-460	; 0xfffffe34
    1310:	02000002 	andeq	r0, r0, #2
    1314:	12117891 	andsne	r7, r1, #9502720	; 0x910000
    1318:	01006176 	tsteq	r0, r6, ror r1
    131c:	e20b0375 	and	r0, fp, #-738197503	; 0xd4000001
    1320:	02000000 	andeq	r0, r0, #0
    1324:	72146c91 	andsvc	r6, r4, #37120	; 0x9100
    1328:	01007465 	tsteq	r0, r5, ror #8
    132c:	8c0d0377 	stchi	3, cr0, [sp], {119}	; 0x77
    1330:	b0000000 	andlt	r0, r0, r0
    1334:	ae000005 	cdpge	0, 0, cr0, cr0, cr5, {0}
    1338:	15000005 	strne	r0, [r0, #-5]
    133c:	00000000 	andeq	r0, r0, r0
    1340:	0000055f 	andeq	r0, r0, pc, asr r5
    1344:	05500116 	ldrbeq	r0, [r0, #-278]	; 0xfffffeea
    1348:	00000003 	andeq	r0, r0, r3
    134c:	51011600 	tstpl	r1, r0, lsl #12
    1350:	5001f303 	andpl	pc, r1, r3, lsl #6
    1354:	03520116 	cmpeq	r2, #-2147483643	; 0x80000005
    1358:	165101f3 			; <UNDEFINED> instruction: 0x165101f3
    135c:	91035301 	tstls	r3, r1, lsl #6
    1360:	02160668 	andseq	r0, r6, #104, 12	; 0x6800000
    1364:	9102007d 	tstls	r2, sp, ror r0
    1368:	0e00006c 	cdpeq	0, 0, cr0, cr0, cr12, {3}
    136c:	00057601 	andeq	r7, r5, r1, lsl #12
    1370:	03690100 	cmneq	r9, #0, 2
    1374:	00850105 	addeq	r0, r5, r5, lsl #2
	...
    1380:	05c30000 	strbeq	r0, [r3]
    1384:	cc010000 	stcgt	0, cr0, [r1], {-0}
    1388:	17000004 	strne	r0, [r0, -r4]
    138c:	0000046b 	andeq	r0, r0, fp, ror #8
    1390:	13036901 	movwne	r6, #14593	; 0x3901
    1394:	000002ee 	andeq	r0, r0, lr, ror #5
    1398:	00000625 	andeq	r0, r0, r5, lsr #12
    139c:	0000061f 	andeq	r0, r0, pc, lsl r6
    13a0:	00052d10 	andeq	r2, r5, r0, lsl sp
    13a4:	03690100 	cmneq	r9, #0, 2
    13a8:	00024c27 	andeq	r4, r2, r7, lsr #24
    13ac:	74910200 	ldrvc	r0, [r1], #512	; 0x200
    13b0:	61761211 	cmnvs	r6, r1, lsl r2
    13b4:	036b0100 	cmneq	fp, #0, 2
    13b8:	0000e20b 	andeq	lr, r0, fp, lsl #4
    13bc:	6c910200 	lfmvs	f0, 4, [r1], {0}
    13c0:	74657214 	strbtvc	r7, [r5], #-532	; 0xfffffdec
    13c4:	036d0100 	cmneq	sp, #0, 2
    13c8:	00008c0d 	andeq	r8, r0, sp, lsl #24
    13cc:	00065300 	andeq	r5, r6, r0, lsl #6
    13d0:	00065100 	andeq	r5, r6, r0, lsl #2
    13d4:	00001500 	andeq	r1, r0, r0, lsl #10
    13d8:	055f0000 	ldrbeq	r0, [pc, #-0]	; 13e0 <__HEAP_SIZE+0x3e0>
    13dc:	01160000 	tsteq	r6, r0
    13e0:	00030550 	andeq	r0, r3, r0, asr r5
    13e4:	16000000 	strne	r0, [r0], -r0
    13e8:	f3035101 	vrhadd.u8	d5, d3, d1
    13ec:	01165001 	tsteq	r6, r1
    13f0:	ff090252 			; <UNDEFINED> instruction: 0xff090252
    13f4:	03530116 	cmpeq	r3, #-2147483643	; 0x80000005
    13f8:	16065c91 			; <UNDEFINED> instruction: 0x16065c91
    13fc:	02007d02 	andeq	r7, r0, #2, 26	; 0x80
    1400:	00006091 	muleq	r0, r1, r0
    1404:	053e010e 	ldreq	r0, [lr, #-270]!	; 0xfffffef2
    1408:	5e010000 	cdppl	0, 0, cr0, cr1, cr0, {0}
    140c:	85010503 	strhi	r0, [r1, #-1283]	; 0xfffffafd
    1410:	ec000000 	stc	0, cr0, [r0], {-0}
    1414:	1810001a 	ldmdane	r0, {r1, r3, r4}
    1418:	6610001b 			; <UNDEFINED> instruction: 0x6610001b
    141c:	01000006 	tsteq	r0, r6
    1420:	0000055f 	andeq	r0, r0, pc, asr r5
    1424:	00052d10 	andeq	r2, r5, r0, lsl sp
    1428:	035e0100 	cmpeq	lr, #0, 2
    142c:	00024c18 	andeq	r4, r2, r8, lsl ip
    1430:	70910200 	addsvc	r0, r1, r0, lsl #4
    1434:	61761211 	cmnvs	r6, r1, lsl r2
    1438:	03600100 	cmneq	r0, #0, 2
    143c:	0000e20b 	andeq	lr, r0, fp, lsl #4
    1440:	64910200 	ldrvs	r0, [r1], #512	; 0x200
    1444:	00046b13 	andeq	r6, r4, r3, lsl fp
    1448:	03620100 	cmneq	r2, #0, 2
    144c:	00037408 	andeq	r7, r3, r8, lsl #8
    1450:	60910200 	addsvs	r0, r1, r0, lsl #4
    1454:	74657214 	strbtvc	r7, [r5], #-532	; 0xfffffdec
    1458:	03630100 	cmneq	r3, #0, 2
    145c:	00008c0d 	andeq	r8, r0, sp, lsl #24
    1460:	0006c400 	andeq	ip, r6, r0, lsl #8
    1464:	0006c200 	andeq	ip, r6, r0, lsl #4
    1468:	1b081500 	blne	206870 <__RAM_SIZE+0x106870>
    146c:	055f1000 	ldrbeq	r1, [pc, #-0]	; 1474 <__HEAP_SIZE+0x474>
    1470:	01160000 	tsteq	r6, r0
    1474:	e1030550 	tst	r3, r0, asr r5
    1478:	1610001a 			; <UNDEFINED> instruction: 0x1610001a
    147c:	91025101 	tstls	r2, r1, lsl #2
    1480:	52011640 	andpl	r1, r1, #64, 12	; 0x4000000
    1484:	16ff0902 	ldrbtne	r0, [pc], r2, lsl #18
    1488:	91035301 	tstls	r3, r1, lsl #6
    148c:	02160650 	andseq	r0, r6, #80, 12	; 0x5000000
    1490:	9102007d 	tstls	r2, sp, ror r0
    1494:	1a000054 	bne	15ec <__HEAP_SIZE+0x5ec>
    1498:	0000053a 	andeq	r0, r0, sl, lsr r5
    149c:	0c024101 	stfeqs	f4, [r2], {1}
    14a0:	00008501 	andeq	r8, r0, r1, lsl #10
    14a4:	00146000 	andseq	r6, r4, r0
    14a8:	001ae010 	andseq	lr, sl, r0, lsl r0
    14ac:	0006d710 	andeq	sp, r6, r0, lsl r7
    14b0:	0b7d0100 	bleq	1f418b8 <__RAM_SIZE+0x1e418b8>
    14b4:	6f0f0000 	svcvs	0x000f0000
    14b8:	01007475 	tsteq	r0, r5, ror r4
    14bc:	06240241 	strteq	r0, [r4], -r1, asr #4
    14c0:	18000001 	stmdane	r0, {r0}
    14c4:	10000007 	andne	r0, r0, r7
    14c8:	17000007 	strne	r0, [r0, -r7]
    14cc:	0000046b 	andeq	r0, r0, fp, ror #8
    14d0:	2f024101 	svccs	0x00024101
    14d4:	000002ee 	andeq	r0, r0, lr, ror #5
    14d8:	00000756 	andeq	r0, r0, r6, asr r7
    14dc:	0000074c 	andeq	r0, r0, ip, asr #14
    14e0:	0005a017 	andeq	sl, r5, r7, lsl r0
    14e4:	02410100 	subeq	r0, r1, #0, 2
    14e8:	0000fa44 	andeq	pc, r0, r4, asr #20
    14ec:	0007aa00 	andeq	sl, r7, r0, lsl #20
    14f0:	00079800 	andeq	r9, r7, r0, lsl #16
    14f4:	052d1700 	streq	r1, [sp, #-1792]!	; 0xfffff900
    14f8:	41010000 	mrsmi	r0, (UNDEF: 1)
    14fc:	024c5802 	subeq	r5, ip, #131072	; 0x20000
    1500:	081c0000 	ldmdaeq	ip, {}	; <UNPREDICTABLE>
    1504:	08180000 	ldmdaeq	r8, {}	; <UNPREDICTABLE>
    1508:	761b0000 	ldrvc	r0, [fp], -r0
    150c:	41010061 	tstmi	r1, r1, rrx
    1510:	00e26802 	rsceq	r6, r2, r2, lsl #16
    1514:	91020000 	mrsls	r0, (UNDEF: 2)
    1518:	058b1c00 	streq	r1, [fp, #3072]	; 0xc00
    151c:	43010000 	movwmi	r0, #4096	; 0x1000
    1520:	00301002 	eorseq	r1, r0, r2
    1524:	08520000 	ldmdaeq	r2, {}^	; <UNPREDICTABLE>
    1528:	083a0000 	ldmdaeq	sl!, {}	; <UNPREDICTABLE>
    152c:	5d1c0000 	ldcpl	0, cr0, [ip, #-0]
    1530:	01000006 	tsteq	r0, r6
    1534:	30170243 	andscc	r0, r7, r3, asr #4
    1538:	f6000000 			; <UNDEFINED> instruction: 0xf6000000
    153c:	e0000008 	and	r0, r0, r8
    1540:	1c000008 	stcne	0, cr0, [r0], {8}
    1544:	00000697 	muleq	r0, r7, r6
    1548:	1e024301 	cdpne	3, 0, cr4, cr2, cr1, {0}
    154c:	00000030 	andeq	r0, r0, r0, lsr r0
    1550:	0000099e 	muleq	r0, lr, r9
    1554:	00000980 	andeq	r0, r0, r0, lsl #19
    1558:	01006e14 	tsteq	r0, r4, lsl lr
    155c:	30290243 	eorcc	r0, r9, r3, asr #4
    1560:	5c000000 	stcpl	0, cr0, [r0], {-0}
    1564:	4e00000a 	cdpmi	0, 0, cr0, cr0, cr10, {0}
    1568:	1400000a 	strne	r0, [r0], #-10
    156c:	00786469 	rsbseq	r6, r8, r9, ror #8
    1570:	0a024401 	beq	9257c <__HEAP_SIZE+0x9157c>
    1574:	000000ee 	andeq	r0, r0, lr, ror #1
    1578:	00000b18 	andeq	r0, r0, r8, lsl fp
    157c:	00000ab8 			; <UNDEFINED> instruction: 0x00000ab8
    1580:	00153c1d 	andseq	r3, r5, sp, lsl ip
    1584:	00155c10 	andseq	r5, r5, r0, lsl ip
    1588:	00066310 	andeq	r6, r6, r0, lsl r3
    158c:	00771200 	rsbseq	r1, r7, r0, lsl #4
    1590:	11026c01 	tstne	r2, r1, lsl #24
    1594:	0000008c 	andeq	r0, r0, ip, lsl #1
    1598:	1d005001 	stcne	0, cr5, [r0, #-4]
    159c:	10001584 	andne	r1, r0, r4, lsl #11
    15a0:	10001598 	mulne	r0, r8, r5
    15a4:	00000680 	andeq	r0, r0, r0, lsl #13
    15a8:	00065713 	andeq	r5, r6, r3, lsl r7
    15ac:	02800100 	addeq	r0, r0, #0, 2
    15b0:	00008c13 	andeq	r8, r0, r3, lsl ip
    15b4:	00530100 	subseq	r0, r3, r0, lsl #2
    15b8:	0016a61d 	andseq	sl, r6, sp, lsl r6
    15bc:	00189210 	andseq	r9, r8, r0, lsl r2
    15c0:	00087310 	andeq	r7, r8, r0, lsl r3
    15c4:	07b91c00 	ldreq	r1, [r9, r0, lsl #24]!
    15c8:	b4010000 	strlt	r0, [r1], #-0
    15cc:	00301602 	eorseq	r1, r0, r2, lsl #12
    15d0:	0d4e0000 	stcleq	0, cr0, [lr, #-0]
    15d4:	0d320000 	ldceq	0, cr0, [r2, #-0]
    15d8:	381e0000 	ldmdacc	lr, {}	; <UNPREDICTABLE>
    15dc:	e9000001 	stmdb	r0, {r0}
    15e0:	1f000006 	svcne	0x00000006
    15e4:	0000007a 	andeq	r0, r0, sl, ror r0
    15e8:	1d02d601 	stcne	6, cr13, [r2, #-4]
    15ec:	0000006d 	andeq	r0, r0, sp, rrx
    15f0:	0017bc15 	andseq	fp, r7, r5, lsl ip
    15f4:	00137c10 	andseq	r7, r3, r0, lsl ip
    15f8:	50011600 	andpl	r1, r1, r0, lsl #12
    15fc:	16007702 	strne	r7, [r0], -r2, lsl #14
    1600:	78025101 	stmdavc	r2, {r0, r8, ip, lr}
    1604:	52011600 	andpl	r1, r1, #0, 12
    1608:	16007402 	strne	r7, [r0], -r2, lsl #8
    160c:	76025301 	strvc	r5, [r2], -r1, lsl #6
    1610:	7d021600 	stcvc	6, cr1, [r2, #-0]
    1614:	007b0218 	rsbseq	r0, fp, r8, lsl r2
    1618:	1c7d0216 	lfmne	f0, 2, [sp], #-88	; 0xffffffa8
    161c:	00007502 	andeq	r7, r0, r2, lsl #10
    1620:	17c81d00 	strbne	r1, [r8, r0, lsl #26]
    1624:	17f81000 	ldrbne	r1, [r8, r0]!
    1628:	073e1000 	ldreq	r1, [lr, -r0]!
    162c:	7a130000 	bvc	4c1634 <__RAM_SIZE+0x3c1634>
    1630:	01000000 	mrseq	r0, (UNDEF: 0)
    1634:	5a1802db 	bpl	6021a8 <__RAM_SIZE+0x5021a8>
    1638:	01000000 	mrseq	r0, (UNDEF: 0)
    163c:	17f61552 	ubfxne	r1, r2, #10, #23
    1640:	150f1000 	strne	r1, [pc, #-0]	; 1648 <__HEAP_SIZE+0x648>
    1644:	01160000 	tsteq	r6, r0
    1648:	00770250 	rsbseq	r0, r7, r0, asr r2
    164c:	02510116 	subseq	r0, r1, #-2147483643	; 0x80000005
    1650:	01160078 	tsteq	r6, r8, ror r0
    1654:	00740252 	rsbseq	r0, r4, r2, asr r2
    1658:	02530116 	subseq	r0, r3, #-2147483643	; 0x80000005
    165c:	02160076 	andseq	r0, r6, #118	; 0x76
    1660:	7b020c7d 	blvc	8485c <__HEAP_SIZE+0x8385c>
    1664:	7d021600 	stcvc	6, cr1, [r2, #-0]
    1668:	48910310 	ldmmi	r1, {r4, r8, r9}
    166c:	7d021606 	stcvc	6, cr1, [r2, #-24]	; 0xffffffe8
    1670:	00750214 	rsbseq	r0, r5, r4, lsl r2
    1674:	201e0000 	andscs	r0, lr, r0
    1678:	95000001 	strls	r0, [r0, #-1]
    167c:	1c000007 	stcne	0, cr0, [r0], {7}
    1680:	0000007a 	andeq	r0, r0, sl, ror r0
    1684:	1702df01 	strne	sp, [r2, -r1, lsl #30]
    1688:	0000008c 	andeq	r0, r0, ip, lsl #1
    168c:	00000dff 	strdeq	r0, [r0], -pc	; <UNPREDICTABLE>
    1690:	00000dfd 	strdeq	r0, [r0], -sp
    1694:	00177615 	andseq	r7, r7, r5, lsl r6
    1698:	00150f10 	andseq	r0, r5, r0, lsl pc
    169c:	50011600 	andpl	r1, r1, r0, lsl #12
    16a0:	16007702 	strne	r7, [r0], -r2, lsl #14
    16a4:	78025101 	stmdavc	r2, {r0, r8, ip, lr}
    16a8:	52011600 	andpl	r1, r1, #0, 12
    16ac:	16007402 	strne	r7, [r0], -r2, lsl #8
    16b0:	76025301 	strvc	r5, [r2], -r1, lsl #6
    16b4:	7d021600 	stcvc	6, cr1, [r2, #-0]
    16b8:	007b020c 	rsbseq	r0, fp, ip, lsl #4
    16bc:	107d0216 	rsbsne	r0, sp, r6, lsl r2
    16c0:	06489103 	strbeq	r9, [r8], -r3, lsl #2
    16c4:	147d0216 	ldrbtne	r0, [sp], #-534	; 0xfffffdea
    16c8:	00007502 	andeq	r7, r0, r2, lsl #10
    16cc:	01081e00 	tsteq	r8, r0, lsl #28
    16d0:	07f20000 	ldrbeq	r0, [r2, r0]!
    16d4:	7a1c0000 	bvc	7016dc <__RAM_SIZE+0x6016dc>
    16d8:	01000000 	mrseq	r0, (UNDEF: 0)
    16dc:	9d2002ee 	sfmls	f0, 4, [r0, #-952]!	; 0xfffffc48
    16e0:	16000000 	strne	r0, [r0], -r0
    16e4:	1200000e 	andne	r0, r0, #14
    16e8:	1500000e 	strne	r0, [r0, #-14]
    16ec:	10001720 	andne	r1, r0, r0, lsr #14
    16f0:	0000150f 	andeq	r1, r0, pc, lsl #10
    16f4:	02500116 	subseq	r0, r0, #-2147483643	; 0x80000005
    16f8:	01160077 	tsteq	r6, r7, ror r0
    16fc:	00780251 	rsbseq	r0, r8, r1, asr r2
    1700:	02520116 	subseq	r0, r2, #-2147483643	; 0x80000005
    1704:	01160074 	tsteq	r6, r4, ror r0
    1708:	00760253 	rsbseq	r0, r6, r3, asr r2
    170c:	047d0216 	ldrbteq	r0, [sp], #-534	; 0xfffffdea
    1710:	02163001 	andseq	r3, r6, #1
    1714:	7b020c7d 	blvc	84910 <__HEAP_SIZE+0x83910>
    1718:	7d021600 	stcvc	6, cr1, [r2, #-0]
    171c:	48910310 	ldmmi	r1, {r4, r8, r9}
    1720:	7d021606 	stcvc	6, cr1, [r2, #-24]	; 0xffffffe8
    1724:	00750214 	rsbseq	r0, r5, r4, lsl r2
    1728:	4a200000 	bmi	801730 <__RAM_SIZE+0x701730>
    172c:	7c100018 	ldcvc	0, cr0, [r0], {24}
    1730:	34000013 	strcc	r0, [r0], #-19	; 0xffffffed
    1734:	16000008 	strne	r0, [r0], -r8
    1738:	77025001 	strvc	r5, [r2, -r1]
    173c:	51011600 	tstpl	r1, r0, lsl #12
    1740:	16007802 	strne	r7, [r0], -r2, lsl #16
    1744:	74025201 	strvc	r5, [r2], #-513	; 0xfffffdff
    1748:	53011600 	movwpl	r1, #5632	; 0x1600
    174c:	16007602 	strne	r7, [r0], -r2, lsl #12
    1750:	01087d02 	tsteq	r8, r2, lsl #26
    1754:	7d021630 	stcvc	6, cr1, [r2, #-192]	; 0xffffff40
    1758:	007b0218 	rsbseq	r0, fp, r8, lsl r2
    175c:	1c7d0216 	lfmne	f0, 2, [sp], #-88	; 0xffffffa8
    1760:	06489103 	strbeq	r9, [r8], -r3, lsl #2
    1764:	207d0216 	rsbscs	r0, sp, r6, lsl r2
    1768:	00007502 	andeq	r7, r0, r2, lsl #10
    176c:	00187415 	andseq	r7, r8, r5, lsl r4
    1770:	00150f10 	andseq	r0, r5, r0, lsl pc
    1774:	50011600 	andpl	r1, r1, r0, lsl #12
    1778:	16007702 	strne	r7, [r0], -r2, lsl #14
    177c:	78025101 	stmdavc	r2, {r0, r8, ip, lr}
    1780:	52011600 	andpl	r1, r1, #0, 12
    1784:	16007402 	strne	r7, [r0], -r2, lsl #8
    1788:	76025301 	strvc	r5, [r2], -r1, lsl #6
    178c:	7d021600 	stcvc	6, cr1, [r2, #-0]
    1790:	16300104 	ldrtne	r0, [r0], -r4, lsl #2
    1794:	020c7d02 	andeq	r7, ip, #2, 26	; 0x80
    1798:	0216007b 	andseq	r0, r6, #123	; 0x7b
    179c:	9103107d 	tstls	r3, sp, ror r0
    17a0:	02160648 	andseq	r0, r6, #72, 12	; 0x4800000
    17a4:	7502147d 	strvc	r1, [r2, #-1149]	; 0xfffffb83
    17a8:	1e000000 	cdpne	0, 0, cr0, cr0, cr0, {0}
    17ac:	000000f0 	strdeq	r0, [r0], -r0	; <UNPREDICTABLE>
    17b0:	000008ec 	andeq	r0, r0, ip, ror #17
    17b4:	01006c14 	tsteq	r0, r4, lsl ip
    17b8:	30160309 	andscc	r0, r6, r9, lsl #6
    17bc:	49000000 	stmdbmi	r0, {}	; <UNPREDICTABLE>
    17c0:	3500000e 	strcc	r0, [r0, #-14]
    17c4:	2100000e 	tstcs	r0, lr
    17c8:	1000193e 	andne	r1, r0, lr, lsr r9
    17cc:	000008ab 	andeq	r0, r0, fp, lsr #17
    17d0:	02510116 	subseq	r0, r1, #-2147483643	; 0x80000005
    17d4:	01160078 	tsteq	r6, r8, ror r0
    17d8:	00740252 	rsbseq	r0, r4, r2, asr r2
    17dc:	02530116 	subseq	r0, r3, #-2147483643	; 0x80000005
    17e0:	21000076 	tstcs	r0, r6, ror r0
    17e4:	10001956 	andne	r1, r0, r6, asr r9
    17e8:	000008cd 	andeq	r0, r0, sp, asr #17
    17ec:	02500116 	subseq	r0, r0, #-2147483643	; 0x80000005
    17f0:	01162008 	tsteq	r6, r8
    17f4:	00780251 	rsbseq	r0, r8, r1, asr r2
    17f8:	02520116 	subseq	r0, r2, #-2147483643	; 0x80000005
    17fc:	01167f7a 	tsteq	r6, sl, ror pc
    1800:	00760253 	rsbseq	r0, r6, r3, asr r2
    1804:	19822200 	stmibne	r2, {r9, sp}
    1808:	01161000 	tsteq	r6, r0
    180c:	20080250 	andcs	r0, r8, r0, asr r2
    1810:	02510116 	subseq	r0, r1, #-2147483643	; 0x80000005
    1814:	01160078 	tsteq	r6, r8, ror r0
    1818:	7f750252 	svcvc	0x00750252
    181c:	02530116 	subseq	r0, r3, #-2147483643	; 0x80000005
    1820:	00000076 	andeq	r0, r0, r6, ror r0
    1824:	0019921d 	andseq	r9, r9, sp, lsl r2
    1828:	001a5c10 	andseq	r5, sl, r0, lsl ip
    182c:	0009b110 	andeq	fp, r9, r0, lsl r1
    1830:	00701400 	rsbseq	r1, r0, r0, lsl #8
    1834:	15031d01 	strne	r1, [r3, #-3329]	; 0xfffff2ff
    1838:	0000024c 	andeq	r0, r0, ip, asr #4
    183c:	00000ec5 	andeq	r0, r0, r5, asr #29
    1840:	00000ec1 	andeq	r0, r0, r1, asr #29
    1844:	01006c14 	tsteq	r0, r4, lsl ip
    1848:	3016031e 	andscc	r0, r6, lr, lsl r3
    184c:	f9000000 			; <UNDEFINED> instruction: 0xf9000000
    1850:	e300000e 	movw	r0, #14
    1854:	2300000e 	movwcs	r0, #14
    1858:	00001964 	andeq	r1, r0, r4, ror #18
    185c:	100019aa 	andne	r1, r0, sl, lsr #19
    1860:	100019c0 	andne	r1, r0, r0, asr #19
    1864:	1a031e01 	bne	c9070 <__HEAP_SIZE+0xc8070>
    1868:	00000954 	andeq	r0, r0, r4, asr r9
    186c:	00198224 	andseq	r8, r9, r4, lsr #4
    1870:	000f8200 	andeq	r8, pc, r0, lsl #4
    1874:	000f7c00 	andeq	r7, pc, r0, lsl #24
    1878:	19762500 	ldmdbne	r6!, {r8, sl, sp}^
    187c:	8e260000 	cdphi	0, 2, cr0, cr6, cr0, {0}
    1880:	ad000019 	stcge	0, cr0, [r0, #-100]	; 0xffffff9c
    1884:	ab00000f 	blge	18c8 <__HEAP_SIZE+0x8c8>
    1888:	0000000f 	andeq	r0, r0, pc
    188c:	0019f821 	andseq	pc, r9, r1, lsr #16
    1890:	00097610 	andeq	r7, r9, r0, lsl r6
    1894:	50011600 	andpl	r1, r1, r0, lsl #12
    1898:	16200802 	strtne	r0, [r0], -r2, lsl #16
    189c:	78025101 	stmdavc	r2, {r0, r8, ip, lr}
    18a0:	52011600 	andpl	r1, r1, #0, 12
    18a4:	167f7902 	ldrbtne	r7, [pc], -r2, lsl #18
    18a8:	76025301 	strvc	r5, [r2], -r1, lsl #6
    18ac:	1a210000 	bne	8418b4 <__RAM_SIZE+0x7418b4>
    18b0:	9210001a 	andsls	r0, r0, #26
    18b4:	16000009 	strne	r0, [r0], -r9
    18b8:	78025101 	stmdavc	r2, {r0, r8, ip, lr}
    18bc:	52011600 	andpl	r1, r1, #0, 12
    18c0:	167f7502 	ldrbtne	r7, [pc], -r2, lsl #10
    18c4:	7b025301 	blvc	964d0 <__HEAP_SIZE+0x954d0>
    18c8:	4c220000 	stcmi	0, cr0, [r2], #-0
    18cc:	1610001a 			; <UNDEFINED> instruction: 0x1610001a
    18d0:	08025001 	stmdaeq	r2, {r0, ip, lr}
    18d4:	51011620 	tstpl	r1, r0, lsr #12
    18d8:	16007802 	strne	r7, [r0], -r2, lsl #16
    18dc:	75025201 	strvc	r5, [r2, #-513]	; 0xfffffdff
    18e0:	5301167f 	movwpl	r1, #5759	; 0x167f
    18e4:	00007602 	andeq	r7, r0, r2, lsl #12
    18e8:	1a5c1d00 	bne	1708cf0 <__RAM_SIZE+0x1608cf0>
    18ec:	1a921000 	bne	fe4858f4 <__StackTop+0xc63858f4>
    18f0:	0a161000 	beq	5858f8 <__RAM_SIZE+0x4858f8>
    18f4:	911c0000 	tstls	ip, r0
    18f8:	01000006 	tsteq	r0, r6
    18fc:	8414033a 	ldrhi	r0, [r4], #-826	; 0xfffffcc6
    1900:	c200000b 	andgt	r0, r0, #11
    1904:	c000000f 	andgt	r0, r0, pc
    1908:	1500000f 	strne	r0, [r0, #-15]
    190c:	10001a88 	andne	r1, r0, r8, lsl #21
    1910:	0000150f 	andeq	r1, r0, pc, lsl #10
    1914:	02500116 	subseq	r0, r0, #-2147483643	; 0x80000005
    1918:	01160077 	tsteq	r6, r7, ror r0
    191c:	00780251 	rsbseq	r0, r8, r1, asr r2
    1920:	02520116 	subseq	r0, r2, #-2147483643	; 0x80000005
    1924:	01160074 	tsteq	r6, r4, ror r0
    1928:	00760253 	rsbseq	r0, r6, r3, asr r2
    192c:	047d0216 	ldrbteq	r0, [sp], #-534	; 0xfffffdea
    1930:	02163001 	andseq	r3, r6, #1
    1934:	4001087d 	andmi	r0, r1, sp, ror r8
    1938:	0c7d0216 	lfmeq	f0, 2, [sp], #-88	; 0xffffffa8
    193c:	16007b02 	strne	r7, [r0], -r2, lsl #22
    1940:	01107d02 	tsteq	r0, r2, lsl #26
    1944:	7d021638 	stcvc	6, cr1, [r2, #-224]	; 0xffffff20
    1948:	00750214 	rsbseq	r0, r5, r4, lsl r2
    194c:	46270000 	strtmi	r0, [r7], -r0
    1950:	c0000019 	andgt	r0, r0, r9, lsl r0
    1954:	03100014 	tsteq	r0, #20
    1958:	0014c000 	andseq	ip, r4, r0
    195c:	0014c610 	andseq	ip, r4, r0, lsl r6
    1960:	02680110 	rsbeq	r0, r8, #16, 2
    1964:	000a3f09 	andeq	r3, sl, r9, lsl #30
    1968:	19582400 	ldmdbne	r8, {sl, sp}^
    196c:	0fd80000 	svceq	0x00d80000
    1970:	0fd60000 	svceq	0x00d60000
    1974:	27000000 	strcs	r0, [r0, -r0]
    1978:	00001946 	andeq	r1, r0, r6, asr #18
    197c:	10001566 	andne	r1, r0, r6, ror #10
    1980:	15660000 	strbne	r0, [r6, #-0]!
    1984:	156c1000 	strbne	r1, [ip, #-0]!
    1988:	7c011000 	stcvc	0, cr1, [r1], {-0}
    198c:	0a680b02 	beq	1a0459c <__RAM_SIZE+0x190459c>
    1990:	58240000 	stmdapl	r4!, {}	; <UNPREDICTABLE>
    1994:	ed000019 	stc	0, cr0, [r0, #-100]	; 0xffffff9c
    1998:	eb00000f 	bl	19dc <__HEAP_SIZE+0x9dc>
    199c:	0000000f 	andeq	r0, r0, pc
    19a0:	00148e28 	andseq	r8, r4, r8, lsr #28
    19a4:	00770210 	rsbseq	r0, r7, r0, lsl r2
    19a8:	00000a87 	andeq	r0, r0, r7, lsl #21
    19ac:	02510116 	subseq	r0, r1, #-2147483643	; 0x80000005
    19b0:	01160078 	tsteq	r6, r8, ror r0
    19b4:	00740252 	rsbseq	r0, r4, r2, asr r2
    19b8:	02530116 	subseq	r0, r3, #-2147483643	; 0x80000005
    19bc:	20000076 	andcs	r0, r0, r6, ror r0
    19c0:	10001538 	andne	r1, r0, r8, lsr r5
    19c4:	000018d8 	ldrdeq	r1, [r0], -r8
    19c8:	00000a9b 	muleq	r0, fp, sl
    19cc:	02500116 	subseq	r0, r0, #-2147483643	; 0x80000005
    19d0:	20005491 	mulcs	r0, r1, r4
    19d4:	10001580 	andne	r1, r0, r0, lsl #11
    19d8:	000018d8 	ldrdeq	r1, [r0], -r8
    19dc:	00000aaf 	andeq	r0, r0, pc, lsr #21
    19e0:	02500116 	subseq	r0, r0, #-2147483643	; 0x80000005
    19e4:	20005491 	mulcs	r0, r1, r4
    19e8:	100018c2 	andne	r1, r0, r2, asr #17
    19ec:	00000fa8 	andeq	r0, r0, r8, lsr #31
    19f0:	00000aeb 	andeq	r0, r0, fp, ror #21
    19f4:	02500116 	subseq	r0, r0, #-2147483643	; 0x80000005
    19f8:	01160077 	tsteq	r6, r7, ror r0
    19fc:	00780251 	rsbseq	r0, r8, r1, asr r2
    1a00:	02520116 	subseq	r0, r2, #-2147483643	; 0x80000005
    1a04:	01160074 	tsteq	r6, r4, ror r0
    1a08:	00760253 	rsbseq	r0, r6, r3, asr r2
    1a0c:	087d0216 	ldmdaeq	sp!, {r1, r2, r4, r9}^
    1a10:	16007b02 	strne	r7, [r0], -r2, lsl #22
    1a14:	030c7d02 	movweq	r7, #52482	; 0xcd02
    1a18:	16064891 			; <UNDEFINED> instruction: 0x16064891
    1a1c:	02107d02 	andseq	r7, r0, #2, 26	; 0x80
    1a20:	20000075 	andcs	r0, r0, r5, ror r0
    1a24:	10001916 	andne	r1, r0, r6, lsl r9
    1a28:	00000b89 	andeq	r0, r0, r9, lsl #23
    1a2c:	00000b27 	andeq	r0, r0, r7, lsr #22
    1a30:	02500116 	subseq	r0, r0, #-2147483643	; 0x80000005
    1a34:	01160077 	tsteq	r6, r7, ror r0
    1a38:	00780251 	rsbseq	r0, r8, r1, asr r2
    1a3c:	02520116 	subseq	r0, r2, #-2147483643	; 0x80000005
    1a40:	01160074 	tsteq	r6, r4, ror r0
    1a44:	00760253 	rsbseq	r0, r6, r3, asr r2
    1a48:	087d0216 	ldmdaeq	sp!, {r1, r2, r4, r9}^
    1a4c:	16007b02 	strne	r7, [r0], -r2, lsl #22
    1a50:	030c7d02 	movweq	r7, #52482	; 0xcd02
    1a54:	16064891 			; <UNDEFINED> instruction: 0x16064891
    1a58:	02107d02 	andseq	r7, r0, #2, 26	; 0x80
    1a5c:	21000075 	tstcs	r0, r5, ror r0
    1a60:	10001a9e 	mulne	r0, lr, sl
    1a64:	00000b49 	andeq	r0, r0, r9, asr #22
    1a68:	02500116 	subseq	r0, r0, #-2147483643	; 0x80000005
    1a6c:	01162508 	tsteq	r6, r8, lsl #10
    1a70:	00780251 	rsbseq	r0, r8, r1, asr r2
    1a74:	02520116 	subseq	r0, r2, #-2147483643	; 0x80000005
    1a78:	01160074 	tsteq	r6, r4, ror r0
    1a7c:	00760253 	rsbseq	r0, r6, r3, asr r2
    1a80:	1ab22100 	bne	fec89e88 <__StackTop+0xc6b89e88>
    1a84:	0b651000 	bleq	1945a8c <__RAM_SIZE+0x1845a8c>
    1a88:	01160000 	tsteq	r6, r0
    1a8c:	00780251 	rsbseq	r0, r8, r1, asr r2
    1a90:	02520116 	subseq	r0, r2, #-2147483643	; 0x80000005
    1a94:	01160074 	tsteq	r6, r4, ror r0
    1a98:	00760253 	rsbseq	r0, r6, r3, asr r2
    1a9c:	1ad22200 	bne	ff48a2a4 <__StackTop+0xc738a2a4>
    1aa0:	01161000 	tsteq	r6, r0
    1aa4:	16300150 			; <UNDEFINED> instruction: 0x16300150
    1aa8:	78025101 	stmdavc	r2, {r0, r8, ip, lr}
    1aac:	53011600 	movwpl	r1, #5632	; 0x1600
    1ab0:	00007602 	andeq	r7, r0, r2, lsl #12
    1ab4:	02010200 	andeq	r0, r1, #0, 4
    1ab8:	000005ca 	andeq	r0, r0, sl, asr #11
    1abc:	000b7d03 	andeq	r7, fp, r3, lsl #26
    1ac0:	04971a00 	ldreq	r1, [r7], #2560	; 0xa00
    1ac4:	d3010000 	movwle	r0, #4096	; 0x1000
    1ac8:	ee010f01 	cdp	15, 0, cr0, cr1, cr1, {0}
    1acc:	d8000000 	stmdale	r0, {}	; <UNPREDICTABLE>
    1ad0:	c210000c 	andsgt	r0, r0, #12
    1ad4:	00100010 	andseq	r0, r0, r0, lsl r0
    1ad8:	01000010 	tsteq	r0, r0, lsl r0
    1adc:	00000fa3 	andeq	r0, r0, r3, lsr #31
    1ae0:	74756f0f 	ldrbtvc	r6, [r5], #-3855	; 0xfffff0f1
    1ae4:	01d30100 	bicseq	r0, r3, r0, lsl #2
    1ae8:	00010622 	andeq	r0, r1, r2, lsr #12
    1aec:	00106200 	andseq	r6, r0, r0, lsl #4
    1af0:	00105e00 	andseq	r5, r0, r0, lsl #28
    1af4:	046b1700 	strbteq	r1, [fp], #-1792	; 0xfffff900
    1af8:	d3010000 	movwle	r0, #4096	; 0x1000
    1afc:	02ee2d01 	rsceq	r2, lr, #1, 26	; 0x40
    1b00:	10840000 	addne	r0, r4, r0
    1b04:	10800000 	addne	r0, r0, r0
    1b08:	690f0000 	stmdbvs	pc, {}	; <UNPREDICTABLE>
    1b0c:	01007864 	tsteq	r0, r4, ror #16
    1b10:	ee3c01d3 	mrc	1, 1, r0, cr12, cr3, {6}
    1b14:	b8000000 	stmdalt	r0, {}	; <UNPREDICTABLE>
    1b18:	a2000010 	andge	r0, r0, #16
    1b1c:	17000010 	smladne	r0, r0, r0, r0
    1b20:	000005a0 	andeq	r0, r0, r0, lsr #11
    1b24:	4801d301 	stmdami	r1, {r0, r8, r9, ip, lr, pc}
    1b28:	000000ee 	andeq	r0, r0, lr, ror #1
    1b2c:	0000113d 	andeq	r1, r0, sp, lsr r1
    1b30:	00001139 	andeq	r1, r0, r9, lsr r1
    1b34:	00007a17 	andeq	r7, r0, r7, lsl sl
    1b38:	01d30100 	bicseq	r0, r3, r0, lsl #2
    1b3c:	00002957 	andeq	r2, r0, r7, asr r9
    1b40:	00116700 	andseq	r6, r1, r0, lsl #14
    1b44:	00115b00 	andseq	r5, r1, r0, lsl #22
    1b48:	06571700 	ldrbeq	r1, [r7], -r0, lsl #14
    1b4c:	d3010000 	movwle	r0, #4096	; 0x1000
    1b50:	00306b01 	eorseq	r6, r0, r1, lsl #22
    1b54:	11c60000 	bicne	r0, r6, r0
    1b58:	11ba0000 			; <UNDEFINED> instruction: 0x11ba0000
    1b5c:	5d170000 	ldcpl	0, cr0, [r7, #-0]
    1b60:	01000006 	tsteq	r0, r6
    1b64:	307e01d3 	ldrsbtcc	r0, [lr], #-19	; 0xffffffed
    1b68:	18000000 	stmdane	r0, {}	; <UNPREDICTABLE>
    1b6c:	14000012 	strne	r0, [r0], #-18	; 0xffffffee
    1b70:	17000012 	smladne	r0, r2, r0, r0
    1b74:	0000058b 	andeq	r0, r0, fp, lsl #11
    1b78:	9201d301 	andls	sp, r1, #67108864	; 0x4000000
    1b7c:	00000030 	andeq	r0, r0, r0, lsr r0
    1b80:	00001240 	andeq	r1, r0, r0, asr #4
    1b84:	00001238 	andeq	r1, r0, r8, lsr r2
    1b88:	0004f21c 	andeq	pc, r4, ip, lsl r2	; <UNPREDICTABLE>
    1b8c:	01db0100 	bicseq	r0, fp, r0, lsl #2
    1b90:	000b840e 	andeq	r8, fp, lr, lsl #8
    1b94:	00127b00 	andseq	r7, r2, r0, lsl #22
    1b98:	00127700 	andseq	r7, r2, r0, lsl #14
    1b9c:	01082900 	tsteq	r8, r0, lsl #18
    1ba0:	860301e7 	strhi	r0, [r3], -r7, ror #3
    1ba4:	2a00000c 	bcs	1bdc <__HEAP_SIZE+0xbdc>
    1ba8:	e8010055 	stmda	r1, {r0, r2, r4, r6}
    1bac:	00a20e01 	adceq	r0, r2, r1, lsl #28
    1bb0:	462a0000 	strtmi	r0, [sl], -r0
    1bb4:	01e90100 	mvneq	r0, r0, lsl #2
    1bb8:	0000290e 	andeq	r2, r0, lr, lsl #18
    1bbc:	e51c0000 	ldr	r0, [ip, #-0]
    1bc0:	01000005 	tsteq	r0, r5
    1bc4:	650501ea 	strvs	r0, [r5, #-490]	; 0xfffffe16
    1bc8:	bf00000c 	svclt	0x0000000c
    1bcc:	bb000012 	bllt	1c1c <__HEAP_SIZE+0xc1c>
    1bd0:	1c000012 	stcne	0, cr0, [r0], {18}
    1bd4:	0000044d 	andeq	r0, r0, sp, asr #8
    1bd8:	0701ed01 	streq	lr, [r1, -r1, lsl #26]
    1bdc:	00000085 	andeq	r0, r0, r5, lsl #1
    1be0:	000012f7 	strdeq	r1, [r0], -r7
    1be4:	000012eb 	andeq	r1, r0, fp, ror #5
    1be8:	00045f1c 	andeq	r5, r4, ip, lsl pc
    1bec:	01f00100 	mvnseq	r0, r0, lsl #2
    1bf0:	00008507 	andeq	r8, r0, r7, lsl #10
    1bf4:	00135400 	andseq	r5, r3, r0, lsl #8
    1bf8:	00134a00 	andseq	r4, r3, r0, lsl #20
    1bfc:	007a1400 	rsbseq	r1, sl, r0, lsl #8
    1c00:	1001f301 	andne	pc, r1, r1, lsl #6
    1c04:	00000fa3 	andeq	r0, r0, r3, lsr #31
    1c08:	00001396 	muleq	r0, r6, r3
    1c0c:	00001394 	muleq	r0, r4, r3
    1c10:	00327a14 	eorseq	r7, r2, r4, lsl sl
    1c14:	1001f401 	andne	pc, r1, r1, lsl #8
    1c18:	00000fa3 	andeq	r0, r0, r3, lsr #31
    1c1c:	000013b4 			; <UNDEFINED> instruction: 0x000013b4
    1c20:	000013ae 	andeq	r1, r0, lr, lsr #7
    1c24:	0004811c 	andeq	r8, r4, ip, lsl r1
    1c28:	01ff0100 	mvnseq	r0, r0, lsl #2
    1c2c:	00003010 	andeq	r3, r0, r0, lsl r0
    1c30:	0013f200 	andseq	pc, r3, r0, lsl #4
    1c34:	0013e600 	andseq	lr, r3, r0, lsl #12
    1c38:	065c1c00 	ldrbeq	r1, [ip], -r0, lsl #24
    1c3c:	19010000 	stmdbne	r1, {}	; <UNPREDICTABLE>
    1c40:	00301002 	eorseq	r1, r0, r2
    1c44:	14490000 	strbne	r0, [r9], #-0
    1c48:	143f0000 	ldrtne	r0, [pc], #-0	; 1c50 <__HEAP_SIZE+0xc50>
    1c4c:	de1c0000 	cdple	0, 1, cr0, cr12, cr0, {0}
    1c50:	01000004 	tsteq	r0, r4
    1c54:	fa10022c 	blx	40250c <__RAM_SIZE+0x30250c>
    1c58:	8b000000 	blhi	1c60 <__HEAP_SIZE+0xc60>
    1c5c:	89000014 	stmdbhi	r0, {r2, r4}
    1c60:	2b000014 	blcs	1cb8 <__HEAP_SIZE+0xcb8>
    1c64:	10000cf6 	strdne	r0, [r0], -r6
    1c68:	00001b1c 	andeq	r1, r0, ip, lsl fp
    1c6c:	000d0a2b 	andeq	r0, sp, fp, lsr #20
    1c70:	001b2710 	andseq	r2, fp, r0, lsl r7
    1c74:	0d202b00 	vstmdbeq	r0!, {d2-d1}
    1c78:	1b321000 	blne	c85c80 <__RAM_SIZE+0xb85c80>
    1c7c:	322b0000 	eorcc	r0, fp, #0
    1c80:	3210000d 	andscc	r0, r0, #13
    1c84:	2b00001b 	blcs	1cf8 <__HEAP_SIZE+0xcf8>
    1c88:	10000d6e 	andne	r0, r0, lr, ror #26
    1c8c:	00001b3d 	andeq	r1, r0, sp, lsr fp
    1c90:	000d782b 	andeq	r7, sp, fp, lsr #16
    1c94:	001b4810 	andseq	r4, fp, r0, lsl r8
    1c98:	0d822b00 	vstreq	d2, [r2]
    1c9c:	1b531000 	blne	14c5ca4 <__RAM_SIZE+0x13c5ca4>
    1ca0:	922b0000 	eorls	r0, fp, #0
    1ca4:	5e10000d 	cdppl	0, 1, cr0, cr0, cr13, {0}
    1ca8:	2b00001b 	blcs	1d1c <__HEAP_SIZE+0xd1c>
    1cac:	10000d9c 	mulne	r0, ip, sp
    1cb0:	00001b48 	andeq	r1, r0, r8, asr #22
    1cb4:	000da82b 	andeq	sl, sp, fp, lsr #16
    1cb8:	001b5310 	andseq	r5, fp, r0, lsl r3
    1cbc:	0dac2b00 			; <UNDEFINED> instruction: 0x0dac2b00
    1cc0:	1b691000 	blne	1a45cc8 <__RAM_SIZE+0x1945cc8>
    1cc4:	b22b0000 	eorlt	r0, fp, #0
    1cc8:	3d10000d 	ldccc	0, cr0, [r0, #-52]	; 0xffffffcc
    1ccc:	2b00001b 	blcs	1d40 <__HEAP_SIZE+0xd40>
    1cd0:	10000dc0 	andne	r0, r0, r0, asr #27
    1cd4:	00001b48 	andeq	r1, r0, r8, asr #22
    1cd8:	000dc82b 	andeq	ip, sp, fp, lsr #16
    1cdc:	001b5310 	andseq	r5, fp, r0, lsl r3
    1ce0:	0dcc2b00 	vstreq	d18, [ip]
    1ce4:	1b691000 	blne	1a45cec <__RAM_SIZE+0x1945cec>
    1ce8:	dc2b0000 	stcle	0, cr0, [fp], #-0
    1cec:	4810000d 	ldmdami	r0, {r0, r2, r3}
    1cf0:	2b00001b 	blcs	1d64 <__HEAP_SIZE+0xd64>
    1cf4:	10000de6 	andne	r0, r0, r6, ror #27
    1cf8:	00001b3d 	andeq	r1, r0, sp, lsr fp
    1cfc:	000df02b 	andeq	pc, sp, fp, lsr #32
    1d00:	001b4810 	andseq	r4, fp, r0, lsl r8
    1d04:	0dfc2b00 			; <UNDEFINED> instruction: 0x0dfc2b00
    1d08:	1b5e1000 	blne	1785d10 <__RAM_SIZE+0x1685d10>
    1d0c:	082b0000 	stmdaeq	fp!, {}	; <UNPREDICTABLE>
    1d10:	4810000e 	ldmdami	r0, {r1, r2, r3}
    1d14:	2b00001b 	blcs	1d88 <__HEAP_SIZE+0xd88>
    1d18:	10000e2c 	andne	r0, r0, ip, lsr #28
    1d1c:	00001b53 	andeq	r1, r0, r3, asr fp
    1d20:	000e3e2b 	andeq	r3, lr, fp, lsr #28
    1d24:	001b5e10 	andseq	r5, fp, r0, lsl lr
    1d28:	0e4e2b00 	vmlaeq.f64	d18, d14, d0
    1d2c:	1b741000 	blne	1d05d34 <__RAM_SIZE+0x1c05d34>
    1d30:	562b0000 	strtpl	r0, [fp], -r0
    1d34:	5310000e 	tstpl	r0, #14
    1d38:	2b00001b 	blcs	1dac <__HEAP_SIZE+0xdac>
    1d3c:	10000e62 	andne	r0, r0, r2, ror #28
    1d40:	00001b74 	andeq	r1, r0, r4, ror fp
    1d44:	000e6a2b 	andeq	r6, lr, fp, lsr #20
    1d48:	001b5310 	andseq	r5, fp, r0, lsl r3
    1d4c:	0e762b00 	vaddeq.f64	d18, d6, d0
    1d50:	1b741000 	blne	1d05d58 <__RAM_SIZE+0x1c05d58>
    1d54:	822b0000 	eorhi	r0, fp, #0
    1d58:	5310000e 	tstpl	r0, #14
    1d5c:	2b00001b 	blcs	1dd0 <__HEAP_SIZE+0xdd0>
    1d60:	10000e8e 	andne	r0, r0, lr, lsl #29
    1d64:	00001b74 	andeq	r1, r0, r4, ror fp
    1d68:	000e962b 	andeq	r9, lr, fp, lsr #12
    1d6c:	001b5310 	andseq	r5, fp, r0, lsl r3
    1d70:	0e9e2b00 	vfnmseq.f64	d2, d14, d0
    1d74:	1b481000 	blne	1205d7c <__RAM_SIZE+0x1105d7c>
    1d78:	ae2b0000 	cdpge	0, 2, cr0, cr11, cr0, {0}
    1d7c:	2710000e 	ldrcs	r0, [r0, -lr]
    1d80:	2b00001b 	blcs	1df4 <__HEAP_SIZE+0xdf4>
    1d84:	10000ebe 			; <UNDEFINED> instruction: 0x10000ebe
    1d88:	00001b74 	andeq	r1, r0, r4, ror fp
    1d8c:	000ee62b 	andeq	lr, lr, fp, lsr #12
    1d90:	001b7f10 	andseq	r7, fp, r0, lsl pc
    1d94:	0ef82b00 	vmoveq.f64	d18, #128	; 0xc0000000 -2.0
    1d98:	1b321000 	blne	c85da0 <__RAM_SIZE+0xb85da0>
    1d9c:	2a200000 	bcs	801da4 <__RAM_SIZE+0x701da4>
    1da0:	a810000f 	ldmdage	r0, {r0, r1, r2, r3}
    1da4:	ae00000f 	cdpge	0, 0, cr0, cr0, cr15, {0}
    1da8:	1600000e 	strne	r0, [r0], -lr
    1dac:	7a025001 	bvc	95db8 <__HEAP_SIZE+0x94db8>
    1db0:	51011600 	tstpl	r1, r0, lsl #12
    1db4:	16007402 	strne	r7, [r0], -r2, lsl #8
    1db8:	7b025201 	blvc	965c4 <__HEAP_SIZE+0x955c4>
    1dbc:	53011600 	movwpl	r1, #5632	; 0x1600
    1dc0:	16007502 	strne	r7, [r0], -r2, lsl #10
    1dc4:	05007d02 	streq	r7, [r0, #-3330]	; 0xfffff2fe
    1dc8:	08f60091 	ldmeq	r6!, {r0, r4, r7}^
    1dcc:	7d021629 	stcvc	6, cr1, [r2, #-164]	; 0xffffff5c
    1dd0:	08910308 	ldmeq	r1, {r3, r8, r9}
    1dd4:	7d021606 	stcvc	6, cr1, [r2, #-24]	; 0xffffffe8
    1dd8:	0c91030c 	ldceq	3, cr0, [r1], {12}
    1ddc:	7d021606 	stcvc	6, cr1, [r2, #-24]	; 0xffffffe8
    1de0:	10910310 	addsne	r0, r1, r0, lsl r3
    1de4:	042b0006 	strteq	r0, [fp], #-6
    1de8:	74100010 	ldrvc	r0, [r0], #-16
    1dec:	2b00001b 	blcs	1e60 <__HEAP_SIZE+0xe60>
    1df0:	10001014 	andne	r1, r0, r4, lsl r0
    1df4:	00001b32 	andeq	r1, r0, r2, lsr fp
    1df8:	00103c20 	andseq	r3, r0, r0, lsr #24
    1dfc:	000fa810 	andeq	sl, pc, r0, lsl r8	; <UNPREDICTABLE>
    1e00:	000f0c00 	andeq	r0, pc, r0, lsl #24
    1e04:	50011600 	andpl	r1, r1, r0, lsl #12
    1e08:	16007a02 	strne	r7, [r0], -r2, lsl #20
    1e0c:	74025101 	strvc	r5, [r2], #-257	; 0xfffffeff
    1e10:	52011600 	andpl	r1, r1, #0, 12
    1e14:	16007b02 	strne	r7, [r0], -r2, lsl #22
    1e18:	75025301 	strvc	r5, [r2, #-769]	; 0xfffffcff
    1e1c:	7d021600 	stcvc	6, cr1, [r2, #-0]
    1e20:	a8910600 	ldmge	r1, {r9, sl}
    1e24:	2908f67f 	stmdbcs	r8, {r0, r1, r2, r3, r4, r5, r6, r9, sl, ip, sp, lr, pc}
    1e28:	087d0216 	ldmdaeq	sp!, {r1, r2, r4, r9}^
    1e2c:	06089103 	streq	r9, [r8], -r3, lsl #2
    1e30:	0c7d0216 	lfmeq	f0, 2, [sp], #-88	; 0xffffffa8
    1e34:	16007802 	strne	r7, [r0], -r2, lsl #16
    1e38:	07107d02 	ldreq	r7, [r0, -r2, lsl #26]
    1e3c:	0b061091 	bleq	186088 <__RAM_SIZE+0x86088>
    1e40:	001af7ff 			; <UNDEFINED> instruction: 0x001af7ff
    1e44:	00105c21 	andseq	r5, r0, r1, lsr #24
    1e48:	000f2810 	andeq	r2, pc, r0, lsl r8	; <UNPREDICTABLE>
    1e4c:	51011600 	tstpl	r1, r0, lsl #12
    1e50:	16007402 	strne	r7, [r0], -r2, lsl #8
    1e54:	78025201 	stmdavc	r2, {r0, r9, ip, lr}
    1e58:	5301167f 	movwpl	r1, #5759	; 0x167f
    1e5c:	00007502 	andeq	r7, r0, r2, lsl #10
    1e60:	00108620 	andseq	r8, r0, r0, lsr #12
    1e64:	00150f10 	andseq	r0, r5, r0, lsl pc
    1e68:	000f8400 	andeq	r8, pc, r0, lsl #8
    1e6c:	50011600 	andpl	r1, r1, r0, lsl #12
    1e70:	16007a02 	strne	r7, [r0], -r2, lsl #20
    1e74:	74025101 	strvc	r5, [r2], #-257	; 0xfffffeff
    1e78:	52011600 	andpl	r1, r1, #0, 12
    1e7c:	16007802 	strne	r7, [r0], -r2, lsl #16
    1e80:	75025301 	strvc	r5, [r2, #-769]	; 0xfffffcff
    1e84:	7d021600 	stcvc	6, cr1, [r2, #-0]
    1e88:	00760c00 	rsbseq	r0, r6, r0, lsl #24
    1e8c:	0076264f 	rsbseq	r2, r6, pc, asr #12
    1e90:	4f007627 	svcmi	0x00007627
    1e94:	02161c26 	andseq	r1, r6, #9728	; 0x2600
    1e98:	7604047d 			; <UNDEFINED> instruction: 0x7604047d
    1e9c:	16254f00 	strtne	r4, [r5], -r0, lsl #30
    1ea0:	01087d02 	tsteq	r8, r2, lsl #26
    1ea4:	7d02163a 	stcvc	6, cr1, [r2, #-232]	; 0xffffff18
    1ea8:	b091040c 	addslt	r0, r1, ip, lsl #8
    1eac:	0216067f 	andseq	r0, r6, #133169152	; 0x7f00000
    1eb0:	7702107d 	smlsdxvc	r2, sp, r0, r1
    1eb4:	7d021600 	stcvc	6, cr1, [r2, #-0]
    1eb8:	00350114 	eorseq	r0, r5, r4, lsl r1
    1ebc:	0010b422 	andseq	fp, r0, r2, lsr #8
    1ec0:	50011610 	andpl	r1, r1, r0, lsl r6
    1ec4:	16200802 	strtne	r0, [r0], -r2, lsl #16
    1ec8:	74025101 	strvc	r5, [r2], #-257	; 0xfffffeff
    1ecc:	52011600 	andpl	r1, r1, #0, 12
    1ed0:	167f7602 	ldrbtne	r7, [pc], -r2, lsl #12
    1ed4:	75025301 	strvc	r5, [r2, #-769]	; 0xfffffcff
    1ed8:	03000000 	movweq	r0, #0
    1edc:	00000029 	andeq	r0, r0, r9, lsr #32
    1ee0:	0005341a 	andeq	r3, r5, sl, lsl r4
    1ee4:	01530100 	cmpeq	r3, r0, lsl #2
    1ee8:	00ee010f 	rsceq	r0, lr, pc, lsl #2
    1eec:	10c80000 	sbcne	r0, r8, r0
    1ef0:	145e1000 	ldrbne	r1, [lr], #-0
    1ef4:	149e1000 	ldrne	r1, [lr], #0
    1ef8:	57010000 	strpl	r0, [r1, -r0]
    1efc:	0f000013 	svceq	0x00000013
    1f00:	0074756f 	rsbseq	r7, r4, pc, ror #10
    1f04:	22015301 	andcs	r5, r1, #67108864	; 0x4000000
    1f08:	00000106 	andeq	r0, r0, r6, lsl #2
    1f0c:	00001500 	andeq	r1, r0, r0, lsl #10
    1f10:	000014fc 	strdeq	r1, [r0], -ip
    1f14:	00046b17 	andeq	r6, r4, r7, lsl fp
    1f18:	01530100 	cmpeq	r3, r0, lsl #2
    1f1c:	0002ee2d 	andeq	lr, r2, sp, lsr #28
    1f20:	00152400 	andseq	r2, r5, r0, lsl #8
    1f24:	00152000 	andseq	r2, r5, r0
    1f28:	64690f00 	strbtvs	r0, [r9], #-3840	; 0xfffff100
    1f2c:	53010078 	movwpl	r0, #4216	; 0x1078
    1f30:	00ee3c01 	rsceq	r3, lr, r1, lsl #24
    1f34:	15480000 	strbne	r0, [r8, #-0]
    1f38:	15440000 	strbne	r0, [r4, #-0]
    1f3c:	a0170000 	andsge	r0, r7, r0
    1f40:	01000005 	tsteq	r0, r5
    1f44:	ee480153 	mcr	1, 2, r0, cr8, cr3, {2}
    1f48:	6a000000 	bvs	1f50 <__HEAP_SIZE+0xf50>
    1f4c:	66000015 			; <UNDEFINED> instruction: 0x66000015
    1f50:	17000015 	smladne	r0, r5, r0, r0
    1f54:	0000007a 	andeq	r0, r0, sl, ror r0
    1f58:	57015301 	strpl	r5, [r1, -r1, lsl #6]
    1f5c:	00000029 	andeq	r0, r0, r9, lsr #32
    1f60:	00001592 	muleq	r0, r2, r5
    1f64:	00001588 	andeq	r1, r0, r8, lsl #11
    1f68:	00065717 	andeq	r5, r6, r7, lsl r7
    1f6c:	01530100 	cmpeq	r3, r0, lsl #2
    1f70:	0000306b 	andeq	r3, r0, fp, rrx
    1f74:	0015ea00 	andseq	lr, r5, r0, lsl #20
    1f78:	0015e200 	andseq	lr, r5, r0, lsl #4
    1f7c:	065d1700 	ldrbeq	r1, [sp], -r0, lsl #14
    1f80:	53010000 	movwpl	r0, #4096	; 0x1000
    1f84:	00307e01 	eorseq	r7, r0, r1, lsl #28
    1f88:	162a0000 	strtne	r0, [sl], -r0
    1f8c:	16200000 	strtne	r0, [r0], -r0
    1f90:	8b170000 	blhi	5c1f98 <__RAM_SIZE+0x4c1f98>
    1f94:	01000005 	tsteq	r0, r5
    1f98:	30920153 	addscc	r0, r2, r3, asr r1
    1f9c:	70000000 	andvc	r0, r0, r0
    1fa0:	6c000016 	stcvs	0, cr0, [r0], {22}
    1fa4:	12000016 	andne	r0, r0, #22
    1fa8:	00667562 	rsbeq	r7, r6, r2, ror #10
    1fac:	08015501 	stmdaeq	r1, {r0, r8, sl, ip, lr}
    1fb0:	00001357 	andeq	r1, r0, r7, asr r3
    1fb4:	7fb09103 	svcvc	0x00b09103
    1fb8:	6e656c14 	mcrvs	12, 3, r6, cr5, cr4, {0}
    1fbc:	01560100 	cmpeq	r6, r0, lsl #2
    1fc0:	0000ee0a 	andeq	lr, r0, sl, lsl #28
    1fc4:	0016be00 	andseq	fp, r6, r0, lsl #28
    1fc8:	00169000 	andseq	r9, r6, r0
    1fcc:	06a11c00 	strteq	r1, [r1], r0, lsl #24
    1fd0:	57010000 	strpl	r0, [r1, -r0]
    1fd4:	00290a01 	eoreq	r0, r9, r1, lsl #20
    1fd8:	17dd0000 	ldrbne	r0, [sp, r0]
    1fdc:	17d30000 	ldrbne	r0, [r3, r0]
    1fe0:	47130000 	ldrmi	r0, [r3, -r0]
    1fe4:	01000004 	tsteq	r0, r4
    1fe8:	7717015a 			; <UNDEFINED> instruction: 0x7717015a
    1fec:	05000013 	streq	r0, [r0, #-19]	; 0xffffffed
    1ff0:	003fe003 	eorseq	lr, pc, r3
    1ff4:	04f21c10 	ldrbteq	r1, [r2], #3088	; 0xc10
    1ff8:	6f010000 	svcvs	0x00010000
    1ffc:	0b7d0801 	bleq	1f44008 <__RAM_SIZE+0x1e44008>
    2000:	183f0000 	ldmdane	pc!, {}	; <UNPREDICTABLE>
    2004:	18330000 	ldmdane	r3!, {}	; <UNPREDICTABLE>
    2008:	af1c0000 	svcge	0x001c0000
    200c:	01000004 	tsteq	r0, r4
    2010:	8507017f 	strhi	r0, [r7, #-383]	; 0xfffffe81
    2014:	9c000000 	stcls	0, cr0, [r0], {-0}
    2018:	92000018 	andls	r0, r0, #24
    201c:	14000018 	strne	r0, [r0], #-24	; 0xffffffe8
    2020:	00706d74 	rsbseq	r6, r0, r4, ror sp
    2024:	0a018001 	beq	62030 <__HEAP_SIZE+0x61030>
    2028:	00000029 	andeq	r0, r0, r9, lsr #32
    202c:	000018df 	ldrdeq	r1, [r0], -pc	; <UNPREDICTABLE>
    2030:	000018db 	ldrdeq	r1, [r0], -fp
    2034:	0004c21c 	andeq	ip, r4, ip, lsl r2
    2038:	01810100 	orreq	r0, r1, r0, lsl #2
    203c:	00005f11 	andeq	r5, r0, r1, lsl pc
    2040:	00191000 	andseq	r1, r9, r0
    2044:	00190400 	andseq	r0, r9, r0, lsl #8
    2048:	12e21d00 	rscne	r1, r2, #0, 26
    204c:	13421000 	movtne	r1, #8192	; 0x2000
    2050:	11341000 	teqne	r4, r0
    2054:	8b1c0000 	blhi	70205c <__RAM_SIZE+0x60205c>
    2058:	01000003 	tsteq	r0, r3
    205c:	3012019c 	mulscc	r2, ip, r1
    2060:	5f000000 	svcpl	0x00000000
    2064:	5b000019 	blpl	20d0 <__HEAP_SIZE+0x10d0>
    2068:	00000019 	andeq	r0, r0, r9, lsl r0
    206c:	0010ec2b 	andseq	lr, r0, fp, lsr #24
    2070:	001b1c10 	andseq	r1, fp, r0, lsl ip
    2074:	11002b00 	tstne	r0, r0, lsl #22
    2078:	1b321000 	blne	c86080 <__RAM_SIZE+0xb86080>
    207c:	122b0000 	eorne	r0, fp, #0
    2080:	27100011 			; <UNDEFINED> instruction: 0x27100011
    2084:	2b00001b 	blcs	20f8 <__HEAP_SIZE+0x10f8>
    2088:	10001124 	andne	r1, r0, r4, lsr #2
    208c:	00001b27 	andeq	r1, r0, r7, lsr #22
    2090:	0011362b 	andseq	r3, r1, fp, lsr #12
    2094:	001b3210 	andseq	r3, fp, r0, lsl r2
    2098:	11462b00 	cmpne	r6, r0, lsl #22
    209c:	1b321000 	blne	c860a4 <__RAM_SIZE+0xb860a4>
    20a0:	8e200000 	cdphi	0, 2, cr0, cr0, cr0, {0}
    20a4:	91100011 	tstls	r0, r1, lsl r0
    20a8:	b4000017 	strlt	r0, [r0], #-23	; 0xffffffe9
    20ac:	16000011 			; <UNDEFINED> instruction: 0x16000011
    20b0:	91045001 	tstls	r4, r1
    20b4:	16067f9c 			; <UNDEFINED> instruction: 0x16067f9c
    20b8:	91045101 	tstls	r4, r1, lsl #2
    20bc:	16067fa8 	strne	r7, [r6], -r8, lsr #31
    20c0:	7a025201 	bvc	968cc <__HEAP_SIZE+0x958cc>
    20c4:	53011600 	movwpl	r1, #5632	; 0x1600
    20c8:	16007b02 	strne	r7, [r0], -r2, lsl #22
    20cc:	05007d02 	streq	r7, [r0, #-3330]	; 0xfffff2fe
    20d0:	003fd003 	eorseq	sp, pc, r3
    20d4:	7d021610 	stcvc	6, cr1, [r2, #-64]	; 0xffffffc0
    20d8:	16330104 	ldrtne	r0, [r3], -r4, lsl #2
    20dc:	03087d02 	movweq	r7, #36098	; 0x8d02
    20e0:	16060c91 			; <UNDEFINED> instruction: 0x16060c91
    20e4:	030c7d02 	movweq	r7, #52482	; 0xcd02
    20e8:	00061091 	muleq	r6, r1, r0
    20ec:	0011ac20 	andseq	sl, r1, r0, lsr #24
    20f0:	00179110 	andseq	r9, r7, r0, lsl r1
    20f4:	0011fe00 	andseq	pc, r1, r0, lsl #28
    20f8:	50011600 	andpl	r1, r1, r0, lsl #12
    20fc:	7f9c9104 	svcvc	0x009c9104
    2100:	51011606 	tstpl	r1, r6, lsl #12
    2104:	7fa89104 	svcvc	0x00a89104
    2108:	52011606 	andpl	r1, r1, #6291456	; 0x600000
    210c:	16007a02 	strne	r7, [r0], -r2, lsl #20
    2110:	7b025301 	blvc	96d1c <__HEAP_SIZE+0x95d1c>
    2114:	7d021600 	stcvc	6, cr1, [r2, #-0]
    2118:	d4030500 	strle	r0, [r3], #-1280	; 0xfffffb00
    211c:	1610003f 			; <UNDEFINED> instruction: 0x1610003f
    2120:	01047d02 	tsteq	r4, r2, lsl #26
    2124:	7d021634 	stcvc	6, cr1, [r2, #-208]	; 0xffffff30
    2128:	0c910308 	ldceq	3, cr0, [r1], {8}
    212c:	7d021606 	stcvc	6, cr1, [r2, #-24]	; 0xffffffe8
    2130:	1091030c 	addsne	r0, r1, ip, lsl #6
    2134:	d4200006 	strtle	r0, [r0], #-6
    2138:	91100011 	tstls	r0, r1, lsl r0
    213c:	38000017 	stmdacc	r0, {r0, r1, r2, r4}
    2140:	16000012 			; <UNDEFINED> instruction: 0x16000012
    2144:	91045001 	tstls	r4, r1
    2148:	16067f9c 			; <UNDEFINED> instruction: 0x16067f9c
    214c:	91045101 	tstls	r4, r1, lsl #2
    2150:	16067fa8 	strne	r7, [r6], -r8, lsr #31
    2154:	7a025201 	bvc	96960 <__HEAP_SIZE+0x95960>
    2158:	53011600 	movwpl	r1, #5632	; 0x1600
    215c:	16007b02 	strne	r7, [r0], -r2, lsl #22
    2160:	03087d02 	movweq	r7, #36098	; 0x8d02
    2164:	16060c91 			; <UNDEFINED> instruction: 0x16060c91
    2168:	030c7d02 	movweq	r7, #52482	; 0xcd02
    216c:	00061091 	muleq	r6, r1, r0
    2170:	0011f820 	andseq	pc, r1, r0, lsr #16
    2174:	000b8910 	andeq	r8, fp, r0, lsl r9
    2178:	00128100 	andseq	r8, r2, r0, lsl #2
    217c:	50011600 	andpl	r1, r1, r0, lsl #12
    2180:	7f9c9104 	svcvc	0x009c9104
    2184:	51011606 	tstpl	r1, r6, lsl #12
    2188:	7fa89104 	svcvc	0x00a89104
    218c:	52011606 	andpl	r1, r1, #6291456	; 0x600000
    2190:	16007a02 	strne	r7, [r0], -r2, lsl #20
    2194:	7b025301 	blvc	96da0 <__HEAP_SIZE+0x95da0>
    2198:	7d021600 	stcvc	6, cr1, [r2, #-0]
    219c:	08f50300 	ldmeq	r5!, {r8, r9}^
    21a0:	7d021629 	stcvc	6, cr1, [r2, #-164]	; 0xffffff5c
    21a4:	00750208 	rsbseq	r0, r5, r8, lsl #4
    21a8:	0c7d0216 	lfmeq	f0, 2, [sp], #-88	; 0xffffffa8
    21ac:	060c9103 	streq	r9, [ip], -r3, lsl #2
    21b0:	107d0216 	rsbsne	r0, sp, r6, lsl r2
    21b4:	06109103 	ldreq	r9, [r0], -r3, lsl #2
    21b8:	12062b00 	andne	r2, r6, #0, 22
    21bc:	1b5e1000 	blne	17861c4 <__RAM_SIZE+0x16861c4>
    21c0:	1c2b0000 	stcne	0, cr0, [fp], #-0
    21c4:	69100012 	ldmdbvs	r0, {r1, r4}
    21c8:	2b00001b 	blcs	223c <__HEAP_SIZE+0x123c>
    21cc:	10001222 	andne	r1, r0, r2, lsr #4
    21d0:	00001b3d 	andeq	r1, r0, sp, lsr fp
    21d4:	00122e2b 	andseq	r2, r2, fp, lsr #28
    21d8:	001b5e10 	andseq	r5, fp, r0, lsl lr
    21dc:	12402b00 	subne	r2, r0, #0, 22
    21e0:	1b481000 	blne	12061e8 <__RAM_SIZE+0x11061e8>
    21e4:	4c2b0000 	stcmi	0, cr0, [fp], #-0
    21e8:	8a100012 	bhi	402238 <__RAM_SIZE+0x302238>
    21ec:	2b00001b 	blcs	2260 <__HEAP_SIZE+0x1260>
    21f0:	10001252 	andne	r1, r0, r2, asr r2
    21f4:	00001b95 	muleq	r0, r5, fp
    21f8:	00125e2b 	andseq	r5, r2, fp, lsr #28
    21fc:	001b5e10 	andseq	r5, fp, r0, lsl lr
    2200:	126e2b00 	rsbne	r2, lr, #0, 22
    2204:	1b271000 	blne	9c620c <__RAM_SIZE+0x8c620c>
    2208:	782b0000 	stmdavc	fp!, {}	; <UNPREDICTABLE>
    220c:	95100012 	ldrls	r0, [r0, #-18]	; 0xffffffee
    2210:	2b00001b 	blcs	2284 <__HEAP_SIZE+0x1284>
    2214:	10001284 	andne	r1, r0, r4, lsl #5
    2218:	00001ba0 	andeq	r1, r0, r0, lsr #23
    221c:	0012922b 	andseq	r9, r2, fp, lsr #4
    2220:	001b3d10 	andseq	r3, fp, r0, lsl sp
    2224:	129e2b00 	addsne	r2, lr, #0, 22
    2228:	1b5e1000 	blne	1786230 <__RAM_SIZE+0x1686230>
    222c:	aa2b0000 	bge	ac2234 <__RAM_SIZE+0x9c2234>
    2230:	32100012 	andscc	r0, r0, #18
    2234:	2b00001b 	blcs	22a8 <__HEAP_SIZE+0x12a8>
    2238:	100012b8 			; <UNDEFINED> instruction: 0x100012b8
    223c:	00001b27 	andeq	r1, r0, r7, lsr #22
    2240:	0012d22b 	andseq	sp, r2, fp, lsr #4
    2244:	001b3210 	andseq	r3, fp, r0, lsl r2
    2248:	13ea1500 	mvnne	r1, #0, 10
    224c:	17911000 	ldrne	r1, [r1, r0]
    2250:	01160000 	tsteq	r6, r0
    2254:	9c910450 	cfldrsls	mvf0, [r1], {80}	; 0x50
    2258:	0116067f 	tsteq	r6, pc, ror r6
    225c:	a8910451 	ldmge	r1, {r0, r4, r6, sl}
    2260:	0116067f 	tsteq	r6, pc, ror r6
    2264:	007a0252 	rsbseq	r0, sl, r2, asr r2
    2268:	02530116 	subseq	r0, r3, #-2147483643	; 0x80000005
    226c:	0216007b 	andseq	r0, r6, #123	; 0x7b
    2270:	9103007d 	tstls	r3, sp, ror r0
    2274:	02167fb0 	andseq	r7, r6, #176, 30	; 0x2c0
    2278:	7402047d 	strvc	r0, [r2], #-1149	; 0xfffffb83
    227c:	7d021600 	stcvc	6, cr1, [r2, #-0]
    2280:	0c910308 	ldceq	3, cr0, [r1], {8}
    2284:	7d021606 	stcvc	6, cr1, [r2, #-24]	; 0xffffffe8
    2288:	1091030c 	addsne	r0, r1, ip, lsl #6
    228c:	18000006 	stmdane	r0, {r1, r2}
    2290:	00000133 	andeq	r0, r0, r3, lsr r1
    2294:	00001367 	andeq	r1, r0, r7, ror #6
    2298:	00003019 	andeq	r3, r0, r9, lsl r0
    229c:	18001f00 	stmdane	r0, {r8, r9, sl, fp, ip}
    22a0:	00000fa3 	andeq	r0, r0, r3, lsr #31
    22a4:	00001377 	andeq	r1, r0, r7, ror r3
    22a8:	00003019 	andeq	r3, r0, r9, lsl r0
    22ac:	03000900 	movweq	r0, #2304	; 0x900
    22b0:	00001367 	andeq	r1, r0, r7, ror #6
    22b4:	0006811a 	andeq	r8, r6, sl, lsl r1
    22b8:	01320100 	teqeq	r2, r0, lsl #2
    22bc:	00ee010f 	rsceq	r0, lr, pc, lsl #2
    22c0:	0c100000 	ldceq	0, cr0, [r0], {-0}
    22c4:	0cd61000 	ldcleq	0, cr1, [r6], {0}
    22c8:	197d1000 	ldmdbne	sp!, {ip}^
    22cc:	0f010000 	svceq	0x00010000
    22d0:	0f000015 	svceq	0x00000015
    22d4:	0074756f 	rsbseq	r7, r4, pc, ror #10
    22d8:	2c013201 	sfmcs	f3, 4, [r1], {1}
    22dc:	00000106 	andeq	r0, r0, r6, lsl #2
    22e0:	000019be 			; <UNDEFINED> instruction: 0x000019be
    22e4:	000019b6 			; <UNDEFINED> instruction: 0x000019b6
    22e8:	00046b17 	andeq	r6, r4, r7, lsl fp
    22ec:	01320100 	teqeq	r2, r0, lsl #2
    22f0:	0002ee37 	andeq	lr, r2, r7, lsr lr
    22f4:	0019fe00 	andseq	pc, r9, r0, lsl #28
    22f8:	0019f600 	andseq	pc, r9, r0, lsl #12
    22fc:	64690f00 	strbtvs	r0, [r9], #-3840	; 0xfffff100
    2300:	32010078 	andcc	r0, r1, #120	; 0x78
    2304:	00ee4601 	rsceq	r4, lr, r1, lsl #12
    2308:	1a3e0000 	bne	f82310 <__RAM_SIZE+0xe82310>
    230c:	1a360000 	bne	d82314 <__RAM_SIZE+0xc82314>
    2310:	a0170000 	andsge	r0, r7, r0
    2314:	01000005 	tsteq	r0, r5
    2318:	ee520132 	mrc	1, 2, r0, cr2, cr2, {1}
    231c:	7a000000 	bvc	2324 <__HEAP_SIZE+0x1324>
    2320:	7600001a 			; <UNDEFINED> instruction: 0x7600001a
    2324:	1700001a 	smladne	r0, sl, r0, r0
    2328:	0000007a 	andeq	r0, r0, sl, ror r0
    232c:	6d013201 	sfmvs	f3, 4, [r1, #-4]
    2330:	0000007e 	andeq	r0, r0, lr, ror r0
    2334:	00001aa2 	andeq	r1, r0, r2, lsr #21
    2338:	00001a98 	muleq	r0, r8, sl
    233c:	0004f210 	andeq	pc, r4, r0, lsl r2	; <UNPREDICTABLE>
    2340:	01320100 	teqeq	r2, r0, lsl #2
    2344:	000b7d79 	andeq	r7, fp, r9, ror sp
    2348:	08910200 	ldmeq	r1, {r9}
    234c:	0007b910 	andeq	fp, r7, r0, lsl r9
    2350:	01320100 	teqeq	r2, r0, lsl #2
    2354:	00007e96 	muleq	r0, r6, lr
    2358:	10910200 	addsne	r0, r1, r0, lsl #4
    235c:	00065710 	andeq	r5, r6, r0, lsl r7
    2360:	01320100 	teqeq	r2, r0, lsl #2
    2364:	000030a9 	andeq	r3, r0, r9, lsr #1
    2368:	18910200 	ldmne	r1, {r9}
    236c:	00065d10 	andeq	r5, r6, r0, lsl sp
    2370:	01320100 	teqeq	r2, r0, lsl #2
    2374:	000030bc 	strheq	r3, [r0], -ip
    2378:	1c910200 	lfmne	f0, 4, [r1], {0}
    237c:	00058b17 	andeq	r8, r5, r7, lsl fp
    2380:	01320100 	teqeq	r2, r0, lsl #2
    2384:	000030d0 	ldrdeq	r3, [r0], -r0
    2388:	001af600 	andseq	pc, sl, r0, lsl #12
    238c:	001af200 	andseq	pc, sl, r0, lsl #4
    2390:	75621200 	strbvc	r1, [r2, #-512]!	; 0xfffffe00
    2394:	34010066 	strcc	r0, [r1], #-102	; 0xffffff9a
    2398:	13570801 	cmpne	r7, #65536	; 0x10000
    239c:	91030000 	mrsls	r0, (UNDEF: 3)
    23a0:	6c147fb8 	ldcvs	15, cr7, [r4], {184}	; 0xb8
    23a4:	01006e65 	tsteq	r0, r5, ror #28
    23a8:	ee0a0135 	mcr	1, 0, r0, cr10, cr5, {1}
    23ac:	21000000 	mrscs	r0, (UNDEF: 0)
    23b0:	1500001b 	strne	r0, [r0, #-27]	; 0xffffffe5
    23b4:	1e00001b 	mcrne	0, 0, r0, cr0, cr11, {0}
    23b8:	000000d0 	ldrdeq	r0, [r0], -r0	; <UNPREDICTABLE>
    23bc:	000014b0 			; <UNDEFINED> instruction: 0x000014b0
    23c0:	0005df1c 	andeq	sp, r5, ip, lsl pc
    23c4:	013f0100 	teqeq	pc, r0, lsl #2
    23c8:	00013a12 	andeq	r3, r1, r2, lsl sl
    23cc:	001b7100 	andseq	r7, fp, r0, lsl #2
    23d0:	001b6d00 	andseq	r6, fp, r0, lsl #26
    23d4:	0c682b00 			; <UNDEFINED> instruction: 0x0c682b00
    23d8:	1bab1000 	blne	feac63e0 <__StackTop+0xc69c63e0>
    23dc:	882b0000 	stmdahi	fp!, {}	; <UNPREDICTABLE>
    23e0:	ab10000c 	blge	402418 <__RAM_SIZE+0x302418>
    23e4:	0000001b 	andeq	r0, r0, fp, lsl r0
    23e8:	000cd015 	andeq	sp, ip, r5, lsl r0
    23ec:	00167010 	andseq	r7, r6, r0, lsl r0
    23f0:	50011600 	andpl	r1, r1, r0, lsl #12
    23f4:	7fac9104 	svcvc	0x00ac9104
    23f8:	51011606 	tstpl	r1, r6, lsl #12
    23fc:	7fb09104 	svcvc	0x00b09104
    2400:	52011606 	andpl	r1, r1, #6291456	; 0x600000
    2404:	7fb49104 	svcvc	0x00b49104
    2408:	53011606 	movwpl	r1, #5638	; 0x1606
    240c:	16007b02 	strne	r7, [r0], -r2, lsl #22
    2410:	03007d02 	movweq	r7, #3330	; 0xd02
    2414:	167fb891 			; <UNDEFINED> instruction: 0x167fb891
    2418:	02047d02 	andeq	r7, r4, #2, 26	; 0x80
    241c:	02160079 	andseq	r0, r6, #121	; 0x79
    2420:	9104087d 	tstls	r4, sp, ror r8
    2424:	16019408 	strne	r9, [r1], -r8, lsl #8
    2428:	020c7d02 	andeq	r7, ip, #2, 26	; 0x80
    242c:	02160077 	andseq	r0, r6, #119	; 0x77
    2430:	9103107d 	tstls	r3, sp, ror r0
    2434:	02160618 	andseq	r0, r6, #24, 12	; 0x1800000
    2438:	9103147d 	tstls	r3, sp, ror r4
    243c:	0216061c 	andseq	r0, r6, #28, 12	; 0x1c00000
    2440:	7a02187d 	bvc	8863c <__HEAP_SIZE+0x8763c>
    2444:	1a000000 	bne	244c <__HEAP_SIZE+0x144c>
    2448:	0000056b 	andeq	r0, r0, fp, ror #10
    244c:	0f011901 	svceq	0x00011901
    2450:	0000ee01 	andeq	lr, r0, r1, lsl #28
    2454:	000b7c00 	andeq	r7, fp, r0, lsl #24
    2458:	000c1010 	andeq	r1, ip, r0, lsl r0
    245c:	001b8f10 	andseq	r8, fp, r0, lsl pc
    2460:	16700100 	ldrbtne	r0, [r0], -r0, lsl #2
    2464:	6f0f0000 	svcvs	0x000f0000
    2468:	01007475 	tsteq	r0, r5, ror r4
    246c:	06270119 			; <UNDEFINED> instruction: 0x06270119
    2470:	cc000001 	stcgt	0, cr0, [r0], {1}
    2474:	c800001b 	stmdagt	r0, {r0, r1, r3, r4}
    2478:	1700001b 	smladne	r0, fp, r0, r0
    247c:	0000046b 	andeq	r0, r0, fp, ror #8
    2480:	32011901 	andcc	r1, r1, #16384	; 0x4000
    2484:	000002ee 	andeq	r0, r0, lr, ror #5
    2488:	00001bf1 	strdeq	r1, [r0], -r1	; <UNPREDICTABLE>
    248c:	00001bed 	andeq	r1, r0, sp, ror #23
    2490:	7864690f 	stmdavc	r4!, {r0, r1, r2, r3, r8, fp, sp, lr}^
    2494:	01190100 	tsteq	r9, r0, lsl #2
    2498:	0000ee41 	andeq	lr, r0, r1, asr #28
    249c:	001c1600 	andseq	r1, ip, r0, lsl #12
    24a0:	001c1200 	andseq	r1, ip, r0, lsl #4
    24a4:	05a01700 	streq	r1, [r0, #1792]!	; 0x700
    24a8:	19010000 	stmdbne	r1, {}	; <UNPREDICTABLE>
    24ac:	00ee4d01 	rsceq	r4, lr, r1, lsl #26
    24b0:	1c3b0000 	ldcne	0, cr0, [fp], #-0
    24b4:	1c370000 	ldcne	0, cr0, [r7], #-0
    24b8:	7a170000 	bvc	5c24c0 <__RAM_SIZE+0x4c24c0>
    24bc:	01000000 	mrseq	r0, (UNDEF: 0)
    24c0:	5f630119 	svcpl	0x00630119
    24c4:	66000000 	strvs	r0, [r0], -r0
    24c8:	5c00001c 	stcpl	0, cr0, [r0], {28}
    24cc:	1000001c 	andne	r0, r0, ip, lsl r0
    24d0:	000004f2 	strdeq	r0, [r0], -r2
    24d4:	6f011901 	svcvs	0x00011901
    24d8:	00000b7d 	andeq	r0, r0, sp, ror fp
    24dc:	10049102 	andne	r9, r4, r2, lsl #2
    24e0:	000007b9 			; <UNDEFINED> instruction: 0x000007b9
    24e4:	87011901 	strhi	r1, [r1, -r1, lsl #18]
    24e8:	0000005f 	andeq	r0, r0, pc, asr r0
    24ec:	10089102 	andne	r9, r8, r2, lsl #2
    24f0:	00000657 	andeq	r0, r0, r7, asr r6
    24f4:	9a011901 	bls	48900 <__HEAP_SIZE+0x47900>
    24f8:	00000030 	andeq	r0, r0, r0, lsr r0
    24fc:	100c9102 	andne	r9, ip, r2, lsl #2
    2500:	0000065d 	andeq	r0, r0, sp, asr r6
    2504:	ad011901 	vstrge.16	s2, [r1, #-2]	; <UNPREDICTABLE>
    2508:	00000030 	andeq	r0, r0, r0, lsr r0
    250c:	17109102 	ldrne	r9, [r0, -r2, lsl #2]
    2510:	0000058b 	andeq	r0, r0, fp, lsl #11
    2514:	c1011901 	tstgt	r1, r1, lsl #18
    2518:	00000030 	andeq	r0, r0, r0, lsr r0
    251c:	00001cab 	andeq	r1, r0, fp, lsr #25
    2520:	00001ca7 	andeq	r1, r0, r7, lsr #25
    2524:	66756212 			; <UNDEFINED> instruction: 0x66756212
    2528:	011b0100 	tsteq	fp, r0, lsl #2
    252c:	00135708 	andseq	r5, r3, r8, lsl #14
    2530:	48910200 	ldmmi	r1, {r9}
    2534:	6e656c14 	mcrvs	12, 3, r6, cr5, cr4, {0}
    2538:	011c0100 	tsteq	ip, r0, lsl #2
    253c:	0000ee0a 	andeq	lr, r0, sl, lsl #28
    2540:	001cd600 	andseq	sp, ip, r0, lsl #12
    2544:	001cca00 	andseq	ip, ip, r0, lsl #20
    2548:	00b01e00 	adcseq	r1, r0, r0, lsl #28
    254c:	16300000 	ldrtne	r0, [r0], -r0
    2550:	df1c0000 	svcle	0x001c0000
    2554:	01000005 	tsteq	r0, r5
    2558:	3a120126 	bcc	4829f8 <__RAM_SIZE+0x3829f8>
    255c:	2e000001 	cdpcs	0, 0, cr0, cr0, cr1, {0}
    2560:	2200001d 	andcs	r0, r0, #29
    2564:	0000001d 	andeq	r0, r0, sp, lsl r0
    2568:	000c0c15 	andeq	r0, ip, r5, lsl ip
    256c:	00167010 	andseq	r7, r6, r0, lsl r0
    2570:	7d021600 	stcvc	6, cr1, [r2, #-0]
    2574:	00740200 	rsbseq	r0, r4, r0, lsl #4
    2578:	047d0216 	ldrbteq	r0, [sp], #-534	; 0xfffffdea
    257c:	16007702 	strne	r7, [r0], -r2, lsl #14
    2580:	04087d02 	streq	r7, [r8], #-3330	; 0xfffff2fe
    2584:	01940491 			; <UNDEFINED> instruction: 0x01940491
    2588:	0c7d0216 	lfmeq	f0, 2, [sp], #-88	; 0xffffffa8
    258c:	16007502 	strne	r7, [r0], -r2, lsl #10
    2590:	03107d02 	tsteq	r0, #2, 26	; 0x80
    2594:	16060c91 			; <UNDEFINED> instruction: 0x16060c91
    2598:	03147d02 	tsteq	r4, #2, 26	; 0x80
    259c:	16061091 			; <UNDEFINED> instruction: 0x16061091
    25a0:	02187d02 	andseq	r7, r8, #2, 26	; 0x80
    25a4:	00000076 	andeq	r0, r0, r6, ror r0
    25a8:	0005272c 	andeq	r2, r5, ip, lsr #14
    25ac:	0fe30100 	svceq	0x00e30100
    25b0:	0000ee01 	andeq	lr, r0, r1, lsl #28
    25b4:	000a4400 	andeq	r4, sl, r0, lsl #8
    25b8:	000b7c10 	andeq	r7, fp, r0, lsl ip
    25bc:	001d9c10 	andseq	r9, sp, r0, lsl ip
    25c0:	17910100 	ldrne	r0, [r1, r0, lsl #2]
    25c4:	6f2d0000 	svcvs	0x002d0000
    25c8:	01007475 	tsteq	r0, r5, ror r4
    25cc:	010629e3 	smlatteq	r6, r3, r9, r2
    25d0:	1de60000 	stclne	0, cr0, [r6]
    25d4:	1de00000 	stclne	0, cr0, [r0]
    25d8:	6b2e0000 	blvs	b825e0 <__RAM_SIZE+0xa825e0>
    25dc:	01000004 	tsteq	r0, r4
    25e0:	02ee34e3 	rsceq	r3, lr, #-486539264	; 0xe3000000
    25e4:	1e180000 	cdpne	0, 1, cr0, cr8, cr0, {0}
    25e8:	1e120000 	cdpne	0, 1, cr0, cr2, cr0, {0}
    25ec:	692d0000 	pushvs	{}	; <UNPREDICTABLE>
    25f0:	01007864 	tsteq	r0, r4, ror #16
    25f4:	00ee43e3 	rsceq	r4, lr, r3, ror #7
    25f8:	1e4a0000 	cdpne	0, 4, cr0, cr10, cr0, {0}
    25fc:	1e440000 	cdpne	0, 4, cr0, cr4, cr0, {0}
    2600:	a02e0000 	eorge	r0, lr, r0
    2604:	01000005 	tsteq	r0, r5
    2608:	00ee4fe3 	rsceq	r4, lr, r3, ror #31
    260c:	1e7c0000 	cdpne	0, 7, cr0, cr12, cr0, {0}
    2610:	1e760000 	cdpne	0, 7, cr0, cr6, cr0, {0}
    2614:	622d0000 	eorvs	r0, sp, #0
    2618:	01006675 	tsteq	r0, r5, ror r6
    261c:	02ee5de3 	rsceq	r5, lr, #14528	; 0x38c0
    2620:	1eac0000 	cdpne	0, 10, cr0, cr12, cr0, {0}
    2624:	1ea80000 	cdpne	0, 10, cr0, cr8, cr0, {0}
    2628:	6c2d0000 	stcvs	0, cr0, [sp], #-0
    262c:	01006e65 	tsteq	r0, r5, ror #28
    2630:	00ee69e3 	rsceq	r6, lr, r3, ror #19
    2634:	1efe0000 	cdpne	0, 15, cr0, cr14, cr0, {0}
    2638:	1ecc0000 	cdpne	0, 12, cr0, cr12, cr0, {0}
    263c:	f22e0000 	vhadd.s32	d0, d14, d0
    2640:	01000004 	tsteq	r0, r4
    2644:	0b7d73e3 	bleq	1f5f5d8 <__RAM_SIZE+0x1e5f5d8>
    2648:	20320000 	eorscs	r0, r2, r0
    264c:	202e0000 	eorcs	r0, lr, r0
    2650:	b92e0000 	stmdblt	lr!, {}	; <UNPREDICTABLE>
    2654:	01000007 	tsteq	r0, r7
    2658:	00308ae3 	eorseq	r8, r0, r3, ror #21
    265c:	20560000 	subscs	r0, r6, r0
    2660:	20520000 	subscs	r0, r2, r0
    2664:	572e0000 	strpl	r0, [lr, -r0]!
    2668:	01000006 	tsteq	r0, r6
    266c:	00309de3 	eorseq	r9, r0, r3, ror #27
    2670:	207a0000 	rsbscs	r0, sl, r0
    2674:	20760000 	rsbscs	r0, r6, r0
    2678:	5d2e0000 	stcpl	0, cr0, [lr, #-0]
    267c:	01000006 	tsteq	r0, r6
    2680:	0030b0e3 	eorseq	fp, r0, r3, ror #1
    2684:	209e0000 	addscs	r0, lr, r0
    2688:	209a0000 	addscs	r0, sl, r0
    268c:	8b2e0000 	blhi	b82694 <__RAM_SIZE+0xa82694>
    2690:	01000005 	tsteq	r0, r5
    2694:	0030c4e3 	eorseq	ip, r0, r3, ror #9
    2698:	20c10000 	sbccs	r0, r1, r0
    269c:	20bd0000 	adcscs	r0, sp, r0
    26a0:	fe150000 	cdp2	0, 1, cr0, cr5, cr0, {0}
    26a4:	9110000a 	tstls	r0, sl
    26a8:	16000017 			; <UNDEFINED> instruction: 0x16000017
    26ac:	02007d02 	andeq	r7, r0, #2, 26	; 0x80
    26b0:	02160075 	andseq	r0, r6, #117	; 0x75
    26b4:	7402047d 	strvc	r0, [r2], #-1149	; 0xfffffb83
    26b8:	7d021600 	stcvc	6, cr1, [r2, #-0]
    26bc:	00770208 	rsbseq	r0, r7, r8, lsl #4
    26c0:	0c7d0216 	lfmeq	f0, 2, [sp], #-88	; 0xffffffa8
    26c4:	00007602 	andeq	r7, r0, r2, lsl #12
    26c8:	060f2c00 	streq	r2, [pc], -r0, lsl #24
    26cc:	c7010000 	strgt	r0, [r1, -r0]
    26d0:	00ee010f 	rsceq	r0, lr, pc, lsl #2
    26d4:	09c60000 	stmibeq	r6, {}^	; <UNPREDICTABLE>
    26d8:	0a441000 	beq	11066e0 <__RAM_SIZE+0x10066e0>
    26dc:	20e11000 	rsccs	r1, r1, r0
    26e0:	d8010000 	stmdale	r1, {}	; <UNPREDICTABLE>
    26e4:	2d000018 	stccs	0, cr0, [r0, #-96]	; 0xffffffa0
    26e8:	0074756f 	rsbseq	r7, r4, pc, ror #10
    26ec:	0625c701 	strteq	ip, [r5], -r1, lsl #14
    26f0:	29000001 	stmdbcs	r0, {r0}
    26f4:	25000021 	strcs	r0, [r0, #-33]	; 0xffffffdf
    26f8:	2e000021 	cdpcs	0, 0, cr0, cr0, cr1, {1}
    26fc:	0000046b 	andeq	r0, r0, fp, ror #8
    2700:	ee30c701 	cdp	7, 3, cr12, cr0, cr1, {0}
    2704:	4b000002 	blmi	2714 <__HEAP_SIZE+0x1714>
    2708:	47000021 	strmi	r0, [r0, -r1, lsr #32]
    270c:	2d000021 	stccs	0, cr0, [r0, #-132]	; 0xffffff7c
    2710:	00786469 	rsbseq	r6, r8, r9, ror #8
    2714:	ee3fc701 	cdp	7, 3, cr12, cr15, cr1, {0}
    2718:	75000000 	strvc	r0, [r0, #-0]
    271c:	69000021 	stmdbvs	r0, {r0, r5}
    2720:	2e000021 	cdpcs	0, 0, cr0, cr0, cr1, {1}
    2724:	000005a0 	andeq	r0, r0, r0, lsr #11
    2728:	ee4bc701 	cdp	7, 4, cr12, cr11, cr1, {0}
    272c:	c3000000 	movwgt	r0, #0
    2730:	bf000021 	svclt	0x00000021
    2734:	2d000021 	stccs	0, cr0, [r0, #-132]	; 0xffffff7c
    2738:	00667562 	rsbeq	r7, r6, r2, ror #10
    273c:	4c5fc701 	mrrcmi	7, 0, ip, pc, cr1	; <UNPREDICTABLE>
    2740:	e5000002 	str	r0, [r0, #-2]
    2744:	e1000021 	tst	r0, r1, lsr #32
    2748:	2d000021 	stccs	0, cr0, [r0, #-132]	; 0xffffff7c
    274c:	006e656c 	rsbeq	r6, lr, ip, ror #10
    2750:	ee6bc701 	cdp	7, 6, cr12, cr11, cr1, {0}
    2754:	09000000 	stmdbeq	r0, {}	; <UNPREDICTABLE>
    2758:	05000022 	streq	r0, [r0, #-34]	; 0xffffffde
    275c:	2e000022 	cdpcs	0, 0, cr0, cr0, cr2, {1}
    2760:	0000065d 	andeq	r0, r0, sp, asr r6
    2764:	307dc701 	rsbscc	ip, sp, r1, lsl #14
    2768:	2c000000 	stccs	0, cr0, [r0], {-0}
    276c:	28000022 	stmdacs	r0, {r1, r5}
    2770:	2e000022 	cdpcs	0, 0, cr0, cr0, cr2, {1}
    2774:	0000058b 	andeq	r0, r0, fp, lsl #11
    2778:	3091c701 	addscc	ip, r1, r1, lsl #14
    277c:	50000000 	andpl	r0, r0, r0
    2780:	4c000022 	stcmi	0, cr0, [r0], {34}	; 0x22
    2784:	2f000022 	svccs	0x00000022
    2788:	000004de 	ldrdeq	r0, [r0], -lr
    278c:	fa10c901 	blx	434b98 <__RAM_SIZE+0x334b98>
    2790:	76000000 	strvc	r0, [r0], -r0
    2794:	70000022 	andvc	r0, r0, r2, lsr #32
    2798:	1e000022 	cdpne	0, 0, cr0, cr0, cr2, {1}
    279c:	00000098 	muleq	r0, r8, r0
    27a0:	0000189d 	muleq	r0, sp, r8
    27a4:	01006930 	tsteq	r0, r0, lsr r9
    27a8:	00ee11cd 	rsceq	r1, lr, sp, asr #3
    27ac:	22a50000 	adccs	r0, r5, #0
    27b0:	22a30000 	adccs	r0, r3, #0
    27b4:	fa220000 	blx	8827bc <__RAM_SIZE+0x7827bc>
    27b8:	16100009 	ldrne	r0, [r0], -r9
    27bc:	08025001 	stmdaeq	r2, {r0, ip, lr}
    27c0:	51011620 	tstpl	r1, r0, lsr #12
    27c4:	16007602 	strne	r7, [r0], -r2, lsl #12
    27c8:	7b025201 	blvc	96fd4 <__HEAP_SIZE+0x95fd4>
    27cc:	5301167f 	movwpl	r1, #5759	; 0x167f
    27d0:	00007702 	andeq	r7, r0, r2, lsl #14
    27d4:	0a182100 	beq	60abdc <__RAM_SIZE+0x50abdc>
    27d8:	18b91000 	ldmne	r9!, {ip}
    27dc:	01160000 	tsteq	r6, r0
    27e0:	00760251 	rsbseq	r0, r6, r1, asr r2
    27e4:	02520116 	subseq	r0, r2, #-2147483643	; 0x80000005
    27e8:	01167f78 	tsteq	r6, r8, ror pc
    27ec:	00770253 	rsbseq	r0, r7, r3, asr r2
    27f0:	0a402200 	beq	100aff8 <__RAM_SIZE+0xf0aff8>
    27f4:	01161000 	tsteq	r6, r0
    27f8:	20080250 	andcs	r0, r8, r0, asr r2
    27fc:	02510116 	subseq	r0, r1, #-2147483643	; 0x80000005
    2800:	01160076 	tsteq	r6, r6, ror r0
    2804:	7f740252 	svcvc	0x00740252
    2808:	02530116 	subseq	r0, r3, #-2147483643	; 0x80000005
    280c:	00000077 	andeq	r0, r0, r7, ror r0
    2810:	0005a731 	andeq	sl, r5, r1, lsr r7
    2814:	15bc0100 	ldrne	r0, [ip, #256]!	; 0x100
    2818:	00003001 	andeq	r3, r0, r1
    281c:	0009a200 	andeq	sl, r9, r0, lsl #4
    2820:	0009c610 	andeq	ip, r9, r0, lsl r6
    2824:	007d0210 	rsbseq	r0, sp, r0, lsl r2
    2828:	00194001 	andseq	r4, r9, r1
    282c:	74732d00 	ldrbtvc	r2, [r3], #-3328	; 0xfffff300
    2830:	bc010072 	stclt	0, cr0, [r1], {114}	; 0x72
    2834:	00194028 	andseq	r4, r9, r8, lsr #32
    2838:	0022bc00 	eoreq	fp, r2, r0, lsl #24
    283c:	0022b800 	eoreq	fp, r2, r0, lsl #16
    2840:	00693000 	rsbeq	r3, r9, r0
    2844:	3010be01 	andscc	fp, r0, r1, lsl #28
    2848:	e0000000 	and	r0, r0, r0
    284c:	da000022 	ble	28dc <__HEAP_SIZE+0x18dc>
    2850:	32000022 	andcc	r0, r0, #34	; 0x22
    2854:	00001946 	andeq	r1, r0, r6, asr #18
    2858:	100009bc 			; <UNDEFINED> instruction: 0x100009bc
    285c:	09bc0000 	ldmibeq	ip!, {}	; <UNPREDICTABLE>
    2860:	09c01000 	stmibeq	r0, {ip}^
    2864:	bf011000 	svclt	0x00011000
    2868:	1958240a 	ldmdbne	r8, {r1, r3, sl, sp}^
    286c:	230e0000 	movwcs	r0, #57344	; 0xe000
    2870:	230a0000 	movwcs	r0, #40960	; 0xa000
    2874:	00000000 	andeq	r0, r0, r0
    2878:	024c0409 	subeq	r0, ip, #150994944	; 0x9000000
    287c:	db330000 	blle	cc2884 <__RAM_SIZE+0xbc2884>
    2880:	01000005 	tsteq	r0, r5
    2884:	7d0114b5 	cfstrsvc	mvf1, [r1, #-724]	; 0xfffffd2c
    2888:	0300000b 	movweq	r0, #11
    288c:	00001964 	andeq	r1, r0, r4, ror #18
    2890:	00686334 	rsbeq	r6, r8, r4, lsr r3
    2894:	3323b501 			; <UNDEFINED> instruction: 0x3323b501
    2898:	00000001 	andeq	r0, r0, r1
    289c:	0005ad33 	andeq	sl, r5, r3, lsr sp
    28a0:	1cab0100 	stfnes	f0, [fp]
    28a4:	00003001 	andeq	r3, r0, r1
    28a8:	19990300 	ldmibne	r9, {r8, r9}
    28ac:	73340000 	teqvc	r4, #0
    28b0:	01007274 	tsteq	r0, r4, ror r2
    28b4:	024c33ab 	subeq	r3, ip, #-1409286142	; 0xac000002
    28b8:	a7350000 	ldrge	r0, [r5, -r0]!
    28bc:	01000004 	tsteq	r0, r4
    28c0:	00ee3fab 	rsceq	r3, lr, fp, lsr #31
    28c4:	73360000 	teqvc	r6, #0
    28c8:	0fad0100 	svceq	0x00ad0100
    28cc:	0000024c 	andeq	r0, r0, ip, asr #4
    28d0:	04c73700 	strbeq	r3, [r7], #1792	; 0x700
    28d4:	9f010000 	svcls	0x00010000
    28d8:	00000114 	andeq	r0, r0, r4, lsl r1
    28dc:	00000000 	andeq	r0, r0, r0
    28e0:	232e0000 			; <UNDEFINED> instruction: 0x232e0000
    28e4:	04010000 	streq	r0, [r1], #-0
    28e8:	2e00001a 	mcrcs	0, 0, r0, cr0, cr10, {0}
    28ec:	00000605 	andeq	r0, r0, r5, lsl #12
    28f0:	33229f01 			; <UNDEFINED> instruction: 0x33229f01
    28f4:	60000001 	andvs	r0, r0, r1
    28f8:	5a000023 	bpl	298c <__HEAP_SIZE+0x198c>
    28fc:	2e000023 	cdpcs	0, 0, cr0, cr0, cr3, {1}
    2900:	0000046b 	andeq	r0, r0, fp, ror #8
    2904:	e0339f01 	eors	r9, r3, r1, lsl #30
    2908:	92000000 	andls	r0, r0, #0
    290c:	8c000023 	stchi	0, cr0, [r0], {35}	; 0x23
    2910:	2d000023 	stccs	0, cr0, [r0, #-140]	; 0xffffff74
    2914:	00786469 	rsbseq	r6, r8, r9, ror #8
    2918:	ee429f01 	cdp	15, 4, cr9, cr2, cr1, {0}
    291c:	c4000000 	strgt	r0, [r0], #-0
    2920:	be000023 	cdplt	0, 0, cr0, cr0, cr3, {1}
    2924:	2e000023 	cdpcs	0, 0, cr0, cr0, cr3, {1}
    2928:	000005a0 	andeq	r0, r0, r0, lsr #11
    292c:	ee4e9f01 	cdp	15, 4, cr9, cr14, cr1, {0}
    2930:	f6000000 			; <UNDEFINED> instruction: 0xf6000000
    2934:	f0000023 			; <UNDEFINED> instruction: 0xf0000023
    2938:	00000023 	andeq	r0, r0, r3, lsr #32
    293c:	00049d38 	andeq	r9, r4, r8, lsr sp
    2940:	14950100 	ldrne	r0, [r5], #256	; 0x100
    2944:	001ae001 	andseq	lr, sl, r1
    2948:	001aec10 	andseq	lr, sl, r0, lsl ip
    294c:	00242210 	eoreq	r2, r4, r0, lsl r2
    2950:	1a780100 	bne	1e02d58 <__RAM_SIZE+0x1d02d58>
    2954:	052e0000 	streq	r0, [lr, #-0]!
    2958:	01000006 	tsteq	r0, r6
    295c:	01332395 	teqeq	r3, r5	; <illegal shifter operand>
    2960:	24460000 	strbcs	r0, [r6], #-0
    2964:	24420000 	strbcs	r0, [r2], #-0
    2968:	6b2e0000 	blvs	b82970 <__RAM_SIZE+0xa82970>
    296c:	01000004 	tsteq	r0, r4
    2970:	00e03495 	smlaleq	r3, r0, r5, r4
    2974:	246b0000 	strbtcs	r0, [fp], #-0
    2978:	24670000 	strbtcs	r0, [r7], #-0
    297c:	692d0000 	pushvs	{}	; <UNPREDICTABLE>
    2980:	01007864 	tsteq	r0, r4, ror #16
    2984:	00ee4395 	smlaleq	r4, lr, r5, r3
    2988:	24900000 	ldrcs	r0, [r0], #0
    298c:	248c0000 	strcs	r0, [ip], #0
    2990:	a02e0000 	eorge	r0, lr, r0
    2994:	01000005 	tsteq	r0, r5
    2998:	00ee4f95 	smlaleq	r4, lr, r5, pc	; <UNPREDICTABLE>
    299c:	24b50000 	ldrtcs	r0, [r5], #0
    29a0:	24b10000 	ldrtcs	r0, [r1], #0
    29a4:	ea2b0000 	b	ac29ac <__RAM_SIZE+0x9c29ac>
    29a8:	b610001a 			; <UNDEFINED> instruction: 0xb610001a
    29ac:	0000001b 	andeq	r0, r0, fp, lsl r0
    29b0:	00054539 	andeq	r4, r5, r9, lsr r5
    29b4:	148e0100 	strne	r0, [lr], #256	; 0x100
    29b8:	0009a001 	andeq	sl, r9, r1
    29bc:	0009a210 	andeq	sl, r9, r0, lsl r2
    29c0:	007d0210 	rsbseq	r0, sp, r0, lsl r2
    29c4:	001aca01 	andseq	ip, sl, r1, lsl #20
    29c8:	06053a00 	streq	r3, [r5], -r0, lsl #20
    29cc:	8e010000 	cdphi	0, 0, cr0, cr1, cr0, {0}
    29d0:	00013323 	andeq	r3, r1, r3, lsr #6
    29d4:	3a500100 	bcc	1402ddc <__RAM_SIZE+0x1302ddc>
    29d8:	0000046b 	andeq	r0, r0, fp, ror #8
    29dc:	e0348e01 	eors	r8, r4, r1, lsl #28
    29e0:	01000000 	mrseq	r0, (UNDEF: 0)
    29e4:	64693b51 	strbtvs	r3, [r9], #-2897	; 0xfffff4af
    29e8:	8e010078 	mcrhi	0, 0, r0, cr1, cr8, {3}
    29ec:	0000ee43 	andeq	lr, r0, r3, asr #28
    29f0:	3a520100 	bcc	1482df8 <__RAM_SIZE+0x1382df8>
    29f4:	000005a0 	andeq	r0, r0, r0, lsr #11
    29f8:	ee4f8e01 	cdp	14, 4, cr8, cr15, cr1, {0}
    29fc:	01000000 	mrseq	r0, (UNDEF: 0)
    2a00:	66390053 			; <UNDEFINED> instruction: 0x66390053
    2a04:	01000004 	tsteq	r0, r4
    2a08:	00011485 	andeq	r1, r1, r5, lsl #9
    2a0c:	00000000 	andeq	r0, r0, r0
    2a10:	02000000 	andeq	r0, r0, #0
    2a14:	1c01007d 	stcne	0, cr0, [r1], {125}	; 0x7d
    2a18:	3a00001b 	bcc	2a8c <__HEAP_SIZE+0x1a8c>
    2a1c:	00000605 	andeq	r0, r0, r5, lsl #12
    2a20:	33258501 			; <UNDEFINED> instruction: 0x33258501
    2a24:	01000001 	tsteq	r0, r1
    2a28:	046b3a50 	strbteq	r3, [fp], #-2640	; 0xfffff5b0
    2a2c:	85010000 	strhi	r0, [r1, #-0]
    2a30:	0000e036 	andeq	lr, r0, r6, lsr r0
    2a34:	3b510100 	blcc	1442e3c <__RAM_SIZE+0x1342e3c>
    2a38:	00786469 	rsbseq	r6, r8, r9, ror #8
    2a3c:	ee458501 	cdp	5, 4, cr8, cr5, cr1, {0}
    2a40:	01000000 	mrseq	r0, (UNDEF: 0)
    2a44:	05a03a52 	streq	r3, [r0, #2642]!	; 0xa52
    2a48:	85010000 	strhi	r0, [r1, #-0]
    2a4c:	0000ee51 	andeq	lr, r0, r1, asr lr
    2a50:	00530100 	subseq	r0, r3, r0, lsl #2
    2a54:	ea01013c 	b	42f4c <__HEAP_SIZE+0x41f4c>
    2a58:	ea000005 	b	2a74 <__HEAP_SIZE+0x1a74>
    2a5c:	3c000005 	stccc	0, cr0, [r0], {5}
    2a60:	05910101 	ldreq	r0, [r1, #257]	; 0x101
    2a64:	05910000 	ldreq	r0, [r1]
    2a68:	013c0000 	teqeq	ip, r0
    2a6c:	00067201 	andeq	r7, r6, r1, lsl #4
    2a70:	00067200 	andeq	r7, r6, r0, lsl #4
    2a74:	01013c00 	tsteq	r1, r0, lsl #24
    2a78:	0000043b 	andeq	r0, r0, fp, lsr r4
    2a7c:	0000043b 	andeq	r0, r0, fp, lsr r4
    2a80:	bd01013c 	stflts	f0, [r1, #-240]	; 0xffffff10
    2a84:	bd000005 	stclt	0, cr0, [r0, #-20]	; 0xffffffec
    2a88:	3c000005 	stccc	0, cr0, [r0], {5}
    2a8c:	04fb0101 	ldrbteq	r0, [fp], #257	; 0x101
    2a90:	04fb0000 	ldrbteq	r0, [fp], #0
    2a94:	013c0000 	teqeq	ip, r0
    2a98:	00061801 	andeq	r1, r6, r1, lsl #16
    2a9c:	00061800 	andeq	r1, r6, r0, lsl #16
    2aa0:	01013c00 	tsteq	r1, r0, lsl #24
    2aa4:	000004b5 			; <UNDEFINED> instruction: 0x000004b5
    2aa8:	000004b5 			; <UNDEFINED> instruction: 0x000004b5
    2aac:	8a01013c 	bhi	42fa4 <__HEAP_SIZE+0x41fa4>
    2ab0:	8a000004 	bhi	2ac8 <__HEAP_SIZE+0x1ac8>
    2ab4:	3c000004 	stccc	0, cr0, [r0], {4}
    2ab8:	055c0101 	ldrbeq	r0, [ip, #-257]	; 0xfffffeff
    2abc:	055c0000 	ldrbeq	r0, [ip, #-0]
    2ac0:	013c0000 	teqeq	ip, r0
    2ac4:	0004d001 	andeq	sp, r4, r1
    2ac8:	0004d000 	andeq	sp, r4, r0
    2acc:	01013c00 	tsteq	r1, r0, lsl #24
    2ad0:	0000057e 	andeq	r0, r0, lr, ror r5
    2ad4:	0000057e 	andeq	r0, r0, lr, ror r5
    2ad8:	3601013c 			; <UNDEFINED> instruction: 0x3601013c
    2adc:	36000006 	strcc	r0, [r0], -r6
    2ae0:	3c000006 	stccc	0, cr0, [r0], {6}
    2ae4:	06250101 	strteq	r0, [r5], -r1, lsl #2
    2ae8:	06250000 	strteq	r0, [r5], -r0
    2aec:	013d0000 	teqeq	sp, r0
    2af0:	00043301 	andeq	r3, r4, r1, lsl #6
    2af4:	00043300 	andeq	r3, r4, r0, lsl #6
    2af8:	05310700 	ldreq	r0, [r1, #-1792]!	; 0xfffff900
    2afc:	00023d00 	andeq	r3, r2, r0, lsl #26
    2b00:	54000200 	strpl	r0, [r0], #-512	; 0xfffffe00
    2b04:	04000006 	streq	r0, [r0], #-6
    2b08:	00014c01 	andeq	r4, r1, r1, lsl #24
    2b0c:	06a60c00 	strteq	r0, [r6], r0, lsl #24
    2b10:	03410000 	movteq	r0, #4096	; 0x1000
    2b14:	01e80000 	mvneq	r0, r0
	...
    2b20:	17090000 	strne	r0, [r9, -r0]
    2b24:	01020000 	mrseq	r0, (UNDEF: 2)
    2b28:	00023606 	andeq	r3, r2, r6, lsl #12
    2b2c:	01420300 	mrseq	r0, SPSR_svc
    2b30:	2b020000 	blcs	82b38 <__HEAP_SIZE+0x81b38>
    2b34:	00003c18 	andeq	r3, r0, r8, lsl ip
    2b38:	08010200 	stmdaeq	r1, {r9}
    2b3c:	00000234 	andeq	r0, r0, r4, lsr r2
    2b40:	20050202 	andcs	r0, r5, r2, lsl #4
    2b44:	02000000 	andeq	r0, r0, #0
    2b48:	02c60702 	sbceq	r0, r6, #524288	; 0x80000
    2b4c:	04020000 	streq	r0, [r2], #-0
    2b50:	00011805 	andeq	r1, r1, r5, lsl #16
    2b54:	00520300 	subseq	r0, r2, r0, lsl #6
    2b58:	4f020000 	svcmi	0x00020000
    2b5c:	00006419 	andeq	r6, r0, r9, lsl r4
    2b60:	07040200 	streq	r0, [r4, -r0, lsl #4]
    2b64:	00000275 	andeq	r0, r0, r5, ror r2
    2b68:	13050802 	movwne	r0, #22530	; 0x5802
    2b6c:	02000001 	andeq	r0, r0, #1
    2b70:	02700708 	rsbseq	r0, r0, #8, 14	; 0x200000
    2b74:	04040000 	streq	r0, [r4], #-0
    2b78:	746e6905 	strbtvc	r6, [lr], #-2309	; 0xfffff6fb
    2b7c:	07040200 	streq	r0, [r4, -r0, lsl #4]
    2b80:	0000027a 	andeq	r0, r0, sl, ror r2
    2b84:	00047a03 	andeq	r7, r4, r3, lsl #20
    2b88:	17d10300 	ldrbne	r0, [r1, r0, lsl #6]
    2b8c:	00000080 	andeq	r0, r0, r0, lsl #1
    2b90:	46040802 	strmi	r0, [r4], -r2, lsl #16
    2b94:	02000000 	andeq	r0, r0, #0
    2b98:	023d0801 	eorseq	r0, sp, #65536	; 0x10000
    2b9c:	9a050000 	bls	142ba4 <__RAM_SIZE+0x42ba4>
    2ba0:	06000000 	streq	r0, [r0], -r0
    2ba4:	0000a104 	andeq	sl, r0, r4, lsl #2
    2ba8:	01440300 	mrseq	r0, SPSR_abt
    2bac:	18040000 	stmdane	r4, {}	; <UNPREDICTABLE>
    2bb0:	00003013 	andeq	r3, r0, r3, lsl r0
    2bb4:	00540300 	subseq	r0, r4, r0, lsl #6
    2bb8:	30040000 	andcc	r0, r4, r0
    2bbc:	00005814 	andeq	r5, r0, r4, lsl r8
    2bc0:	c0010700 	andgt	r0, r1, r0, lsl #14
    2bc4:	01000006 	tsteq	r0, r6
    2bc8:	87010847 	strhi	r0, [r1, -r7, asr #16]
	...
    2bd4:	d6000000 	strle	r0, [r0], -r0
    2bd8:	01000024 	tsteq	r0, r4, lsr #32
    2bdc:	0000013b 	andeq	r0, r0, fp, lsr r1
    2be0:	00046b08 	andeq	r6, r4, r8, lsl #22
    2be4:	1b470100 	blne	11c2fec <__RAM_SIZE+0x10c2fec>
    2be8:	0000013b 	andeq	r0, r0, fp, lsr r1
    2bec:	000024fa 	strdeq	r2, [r0], -sl
    2bf0:	000024f6 	strdeq	r2, [r0], -r6
    2bf4:	0004aa08 	andeq	sl, r4, r8, lsl #20
    2bf8:	2a470100 	bcs	11c3000 <__RAM_SIZE+0x10c3000>
    2bfc:	00000087 	andeq	r0, r0, r7, lsl #1
    2c00:	0000251c 	andeq	r2, r0, ip, lsl r5
    2c04:	00002518 	andeq	r2, r0, r8, lsl r5
    2c08:	00686309 	rsbeq	r6, r8, r9, lsl #6
    2c0c:	ac0d4801 	stcge	8, cr4, [sp], {1}
    2c10:	40000000 	andmi	r0, r0, r0
    2c14:	3a000025 	bcc	2cb0 <__HEAP_SIZE+0x1cb0>
    2c18:	09000025 	stmdbeq	r0, {r0, r2, r5}
    2c1c:	01007469 	tsteq	r0, r9, ror #8
    2c20:	00870c49 	addeq	r0, r7, r9, asr #24
    2c24:	256e0000 	strbcs	r0, [lr, #-0]!
    2c28:	256a0000 	strbcs	r0, [sl, #-0]!
    2c2c:	000a0000 	andeq	r0, sl, r0
    2c30:	f8000000 			; <UNDEFINED> instruction: 0xf8000000
    2c34:	00000001 	andeq	r0, r0, r1
    2c38:	00ac0406 	adceq	r0, ip, r6, lsl #8
    2c3c:	010b0000 	mrseq	r0, (UNDEF: 11)
    2c40:	000006d8 	ldrdeq	r0, [r0], -r8
    2c44:	01064301 	tsteq	r6, r1, lsl #6
	...
    2c50:	0000258d 	andeq	r2, r0, sp, lsl #11
    2c54:	00018201 	andeq	r8, r1, r1, lsl #4
    2c58:	06b90800 	ldrteq	r0, [r9], r0, lsl #16
    2c5c:	43010000 	movwmi	r0, #4096	; 0x1000
    2c60:	0000a61c 	andeq	sl, r0, ip, lsl r6
    2c64:	0025b100 	eoreq	fp, r5, r0, lsl #2
    2c68:	0025ad00 	eoreq	sl, r5, r0, lsl #26
    2c6c:	00000c00 	andeq	r0, r0, r0, lsl #24
    2c70:	01980000 	orrseq	r0, r8, r0
    2c74:	010d0000 	mrseq	r0, (UNDEF: 13)
    2c78:	01f30350 	mvnseq	r0, r0, asr r3
    2c7c:	0e000050 	mcreq	0, 0, r0, cr0, cr0, {2}
    2c80:	00003701 	andeq	r3, r0, r1, lsl #14
    2c84:	063a0100 	ldrteq	r0, [sl], -r0, lsl #2
    2c88:	001b4c01 	andseq	r4, fp, r1, lsl #24
    2c8c:	001b7010 	andseq	r7, fp, r0, lsl r0
    2c90:	007d0210 	rsbseq	r0, sp, r0, lsl r2
    2c94:	10010701 	andne	r0, r1, r1, lsl #14
    2c98:	05000000 	streq	r0, [r0, #-0]
    2c9c:	790105dd 	stmdbvc	r1, {r0, r2, r3, r4, r6, r7, r8, sl}
    2ca0:	2c000000 	stccs	0, cr0, [r0], {-0}
    2ca4:	4a10001b 	bmi	402d18 <__RAM_SIZE+0x302d18>
    2ca8:	d210001b 	andsle	r0, r0, #27
    2cac:	01000025 	tsteq	r0, r5, lsr #32
    2cb0:	000001f8 	strdeq	r0, [r0], -r8
    2cb4:	0006b908 	andeq	fp, r6, r8, lsl #18
    2cb8:	16300100 	ldrtne	r0, [r0], -r0, lsl #2
    2cbc:	000000a6 	andeq	r0, r0, r6, lsr #1
    2cc0:	000025f6 	strdeq	r2, [r0], -r6
    2cc4:	000025f2 	strdeq	r2, [r0], -r2	; <UNPREDICTABLE>
    2cc8:	0006d20f 	andeq	sp, r6, pc, lsl #4
    2ccc:	09310100 	ldmdbeq	r1!, {r8}
    2cd0:	00000079 	andeq	r0, r0, r9, ror r0
    2cd4:	00002618 	andeq	r2, r0, r8, lsl r6
    2cd8:	00002614 	andeq	r2, r0, r4, lsl r6
    2cdc:	001b380a 	andseq	r3, fp, sl, lsl #16
    2ce0:	00021210 	andeq	r1, r2, r0, lsl r2
    2ce4:	1b460c00 	blne	1185cec <__RAM_SIZE+0x1085cec>
    2ce8:	02121000 	andseq	r1, r2, #0
    2cec:	010d0000 	mrseq	r0, (UNDEF: 13)
    2cf0:	003a0150 	eorseq	r0, sl, r0, asr r1
    2cf4:	ca011000 	bgt	46cfc <__HEAP_SIZE+0x45cfc>
    2cf8:	05000006 	streq	r0, [r0, #-6]
    2cfc:	790105d9 	stmdbvc	r1, {r0, r3, r4, r6, r7, r8, sl}
	...
    2d08:	02000000 	andeq	r0, r0, #0
    2d0c:	1101007d 	tstne	r1, sp, ror r0
    2d10:	00043301 	andeq	r3, r4, r1, lsl #6
    2d14:	05dc0500 	ldrbeq	r0, [ip, #1280]	; 0x500
    2d18:	00007901 	andeq	r7, r0, r1, lsl #18
    2d1c:	001b1800 	andseq	r1, fp, r0, lsl #16
    2d20:	001b2c10 	andseq	r2, fp, r0, lsl ip
    2d24:	007d0210 	rsbseq	r0, sp, r0, lsl r2
    2d28:	68631201 	stmdavs	r3!, {r0, r9, ip}^
    2d2c:	01250100 			; <UNDEFINED> instruction: 0x01250100
    2d30:	00000079 	andeq	r0, r0, r9, ror r0
    2d34:	00002639 	andeq	r2, r0, r9, lsr r6
    2d38:	00002637 	andeq	r2, r0, r7, lsr r6
    2d3c:	08ae0000 	stmiaeq	lr!, {}	; <UNPREDICTABLE>
    2d40:	00020000 	andeq	r0, r2, r0
    2d44:	0000079d 	muleq	r0, sp, r7
    2d48:	014c0104 	cmpeq	ip, r4, lsl #2
    2d4c:	be0c0000 	cdplt	0, 0, cr0, cr12, cr0, {0}
    2d50:	41000007 	tstmi	r0, r7
    2d54:	20000003 	andcs	r0, r0, r3
    2d58:	00000002 	andeq	r0, r0, r2
    2d5c:	00000000 	andeq	r0, r0, r0
    2d60:	df000000 	svcle	0x00000000
    2d64:	02000019 	andeq	r0, r0, #25
    2d68:	02360601 	eorseq	r0, r6, #1048576	; 0x100000
    2d6c:	01020000 	mrseq	r0, (UNDEF: 2)
    2d70:	00023408 	andeq	r3, r2, r8, lsl #8
    2d74:	05020200 	streq	r0, [r2, #-512]	; 0xfffffe00
    2d78:	00000020 	andeq	r0, r0, r0, lsr #32
    2d7c:	00071703 	andeq	r1, r7, r3, lsl #14
    2d80:	19390300 	ldmdbne	r9!, {r8, r9}
    2d84:	0000004a 	andeq	r0, r0, sl, asr #32
    2d88:	c6070202 	strgt	r0, [r7], -r2, lsl #4
    2d8c:	02000002 	andeq	r0, r0, #2
    2d90:	01180504 	tsteq	r8, r4, lsl #10
    2d94:	52030000 	andpl	r0, r3, #0
    2d98:	03000000 	movweq	r0, #0
    2d9c:	0064194f 	rsbeq	r1, r4, pc, asr #18
    2da0:	04020000 	streq	r0, [r2], #-0
    2da4:	00027507 	andeq	r7, r2, r7, lsl #10
    2da8:	05080200 	streq	r0, [r8, #-512]	; 0xfffffe00
    2dac:	00000113 	andeq	r0, r0, r3, lsl r1
    2db0:	70070802 	andvc	r0, r7, r2, lsl #16
    2db4:	04000002 	streq	r0, [r0], #-2
    2db8:	6e690504 	cdpvs	5, 6, cr0, cr9, cr4, {0}
    2dbc:	04020074 	streq	r0, [r2], #-116	; 0xffffff8c
    2dc0:	00027a07 	andeq	r7, r2, r7, lsl #20
    2dc4:	00800500 	addeq	r0, r0, r0, lsl #10
    2dc8:	7a030000 	bvc	c2dd0 <__HEAP_SIZE+0xc1dd0>
    2dcc:	04000004 	streq	r0, [r0], #-4
    2dd0:	008017d1 	ldrdeq	r1, [r0], r1	; <UNPREDICTABLE>
    2dd4:	08020000 	stmdaeq	r2, {}	; <UNPREDICTABLE>
    2dd8:	00004604 	andeq	r4, r0, r4, lsl #12
    2ddc:	08010200 	stmdaeq	r1, {r9}
    2de0:	0000023d 	andeq	r0, r0, sp, lsr r2
    2de4:	00071903 	andeq	r1, r7, r3, lsl #18
    2de8:	14240500 	strtne	r0, [r4], #-1280	; 0xfffffb00
    2dec:	0000003e 	andeq	r0, r0, lr, lsr r0
    2df0:	00005403 	andeq	r5, r0, r3, lsl #8
    2df4:	14300500 	ldrtne	r0, [r0], #-1280	; 0xfffffb00
    2df8:	00000058 	andeq	r0, r0, r8, asr r0
    2dfc:	00079603 	andeq	r9, r7, r3, lsl #12
    2e00:	23280600 			; <UNDEFINED> instruction: 0x23280600
    2e04:	000000ca 	andeq	r0, r0, sl, asr #1
    2e08:	00082606 	andeq	r2, r8, r6, lsl #12
    2e0c:	29062000 	stmdbcs	r6, {sp}
    2e10:	00014a08 	andeq	r4, r1, r8, lsl #20
    2e14:	30720700 	rsbscc	r0, r2, r0, lsl #14
    2e18:	122a0600 	eorne	r0, sl, #0, 12
    2e1c:	00000080 	andeq	r0, r0, r0, lsl #1
    2e20:	07002302 	streq	r2, [r0, -r2, lsl #6]
    2e24:	06003172 			; <UNDEFINED> instruction: 0x06003172
    2e28:	0080122b 	addeq	r1, r0, fp, lsr #4
    2e2c:	23020000 	movwcs	r0, #8192	; 0x2000
    2e30:	32720704 	rsbscc	r0, r2, #4, 14	; 0x100000
    2e34:	122c0600 	eorne	r0, ip, #0, 12
    2e38:	00000080 	andeq	r0, r0, r0, lsl #1
    2e3c:	07082302 	streq	r2, [r8, -r2, lsl #6]
    2e40:	06003372 			; <UNDEFINED> instruction: 0x06003372
    2e44:	0080122d 	addeq	r1, r0, sp, lsr #4
    2e48:	23020000 	movwcs	r0, #8192	; 0x2000
    2e4c:	3172070c 	cmncc	r2, ip, lsl #14
    2e50:	2e060032 	mcrcs	0, 0, r0, cr6, cr2, {1}
    2e54:	00008012 	andeq	r8, r0, r2, lsl r0
    2e58:	10230200 	eorne	r0, r3, r0, lsl #4
    2e5c:	00726c07 	rsbseq	r6, r2, r7, lsl #24
    2e60:	80122f06 	andshi	r2, r2, r6, lsl #30
    2e64:	02000000 	andeq	r0, r0, #0
    2e68:	70071423 	andvc	r1, r7, r3, lsr #8
    2e6c:	30060063 	andcc	r0, r6, r3, rrx
    2e70:	00008012 	andeq	r8, r0, r2, lsl r0
    2e74:	18230200 	stmdane	r3!, {r9}
    2e78:	72737007 	rsbsvc	r7, r3, #7
    2e7c:	12310600 	eorsne	r0, r1, #0, 12
    2e80:	00000080 	andeq	r0, r0, r0, lsl #1
    2e84:	001c2302 	andseq	r2, ip, r2, lsl #6
    2e88:	00075203 	andeq	r5, r7, r3, lsl #4
    2e8c:	23340600 	teqcs	r4, #0, 12
    2e90:	00000156 	andeq	r0, r0, r6, asr r1
    2e94:	00077706 	andeq	r7, r7, r6, lsl #14
    2e98:	35062000 	strcc	r2, [r6, #-0]
    2e9c:	0001d608 	andeq	sp, r1, r8, lsl #12
    2ea0:	34720700 	ldrbtcc	r0, [r2], #-1792	; 0xfffff900
    2ea4:	12360600 	eorsne	r0, r6, #0, 12
    2ea8:	00000080 	andeq	r0, r0, r0, lsl #1
    2eac:	07002302 	streq	r2, [r0, -r2, lsl #6]
    2eb0:	06003572 			; <UNDEFINED> instruction: 0x06003572
    2eb4:	00801237 	addeq	r1, r0, r7, lsr r2
    2eb8:	23020000 	movwcs	r0, #8192	; 0x2000
    2ebc:	36720704 	ldrbtcc	r0, [r2], -r4, lsl #14
    2ec0:	12380600 	eorsne	r0, r8, #0, 12
    2ec4:	00000080 	andeq	r0, r0, r0, lsl #1
    2ec8:	07082302 	streq	r2, [r8, -r2, lsl #6]
    2ecc:	06003772 			; <UNDEFINED> instruction: 0x06003772
    2ed0:	00801239 	addeq	r1, r0, r9, lsr r2
    2ed4:	23020000 	movwcs	r0, #8192	; 0x2000
    2ed8:	3872070c 	ldmdacc	r2!, {r2, r3, r8, r9, sl}^
    2edc:	123a0600 	eorsne	r0, sl, #0, 12
    2ee0:	00000080 	andeq	r0, r0, r0, lsl #1
    2ee4:	07102302 	ldreq	r2, [r0, -r2, lsl #6]
    2ee8:	06003972 			; <UNDEFINED> instruction: 0x06003972
    2eec:	0080123b 	addeq	r1, r0, fp, lsr r2
    2ef0:	23020000 	movwcs	r0, #8192	; 0x2000
    2ef4:	31720714 	cmncc	r2, r4, lsl r7
    2ef8:	3c060030 	stccc	0, cr0, [r6], {48}	; 0x30
    2efc:	00008012 	andeq	r8, r0, r2, lsl r0
    2f00:	18230200 	stmdane	r3!, {r9}
    2f04:	31317207 	teqcc	r1, r7, lsl #4
    2f08:	123d0600 	eorsne	r0, sp, #0, 12
    2f0c:	00000080 	andeq	r0, r0, r0, lsl #1
    2f10:	001c2302 	andseq	r2, ip, r2, lsl #6
    2f14:	0006f603 	andeq	pc, r6, r3, lsl #12
    2f18:	1c400600 	mcrrne	6, 0, r0, r0, cr0
    2f1c:	000001e2 	andeq	r0, r0, r2, ror #3
    2f20:	00078a06 	andeq	r8, r7, r6, lsl #20
    2f24:	41064000 	mrsmi	r4, (UNDEF: 6)
    2f28:	00020e08 	andeq	r0, r2, r8, lsl #28
    2f2c:	07830800 	streq	r0, [r3, r0, lsl #16]
    2f30:	42060000 	andmi	r0, r6, #0
    2f34:	00014a1a 	andeq	r4, r1, sl, lsl sl
    2f38:	00230200 	eoreq	r0, r3, r0, lsl #4
    2f3c:	00083208 	andeq	r3, r8, r8, lsl #4
    2f40:	1a430600 	bne	10c4748 <__RAM_SIZE+0xfc4748>
    2f44:	000000be 	strheq	r0, [r0], -lr
    2f48:	00202302 	eoreq	r2, r0, r2, lsl #6
    2f4c:	00081509 	andeq	r1, r8, r9, lsl #10
    2f50:	151d0100 	ldrne	r0, [sp, #-256]	; 0xffffff00
    2f54:	00000080 	andeq	r0, r0, r0, lsl #1
    2f58:	39090101 	stmdbcc	r9, {r0, r8}
    2f5c:	01000008 	tsteq	r0, r8
    2f60:	0080151e 	addeq	r1, r0, lr, lsl r5
    2f64:	01010000 	mrseq	r0, (UNDEF: 1)
    2f68:	00072209 	andeq	r2, r7, r9, lsl #4
    2f6c:	151f0100 	ldrne	r0, [pc, #-256]	; 2e74 <__HEAP_SIZE+0x1e74>
    2f70:	00000080 	andeq	r0, r0, r0, lsl #1
    2f74:	3c090101 	stfccs	f0, [r9], {1}
    2f78:	01000007 	tsteq	r0, r7
    2f7c:	00801520 	addeq	r1, r0, r0, lsr #10
    2f80:	01010000 	mrseq	r0, (UNDEF: 1)
    2f84:	0007ab0a 	andeq	sl, r7, sl, lsl #22
    2f88:	17710100 	ldrbne	r0, [r1, -r0, lsl #2]!
    2f8c:	00000087 	andeq	r0, r0, r7, lsl #1
    2f90:	5c030501 	cfstr32pl	mvfx0, [r3], {1}
    2f94:	0a380005 	beq	e02fb0 <__RAM_SIZE+0xd02fb0>
    2f98:	00000704 	andeq	r0, r0, r4, lsl #14
    2f9c:	87177201 	ldrhi	r7, [r7, -r1, lsl #4]
    2fa0:	01000000 	mrseq	r0, (UNDEF: 0)
    2fa4:	05600305 	strbeq	r0, [r0, #-773]!	; 0xfffffcfb
    2fa8:	010b3800 	tsteq	fp, r0, lsl #16
    2fac:	00000091 	muleq	r0, r1, r0
    2fb0:	0e010c01 	cdpeq	12, 0, cr0, cr1, cr1, {0}
    2fb4:	00008001 	andeq	r8, r0, r1
    2fb8:	001e4400 	andseq	r4, lr, r0, lsl #8
    2fbc:	001e4c10 	andseq	r4, lr, r0, lsl ip
    2fc0:	007d0210 	rsbseq	r0, sp, r0, lsl r2
    2fc4:	d3010c01 	movwle	r0, #7169	; 0x1c01
    2fc8:	01000000 	mrseq	r0, (UNDEF: 0)
    2fcc:	010e0108 	tsteq	lr, r8, lsl #2
    2fd0:	00000080 	andeq	r0, r0, r0, lsl #1
    2fd4:	10001e3c 	andne	r1, r0, ip, lsr lr
    2fd8:	10001e42 	andne	r1, r0, r2, asr #28
    2fdc:	01007d02 	tsteq	r0, r2, lsl #26
    2fe0:	000002cb 	andeq	r0, r0, fp, asr #5
    2fe4:	0008670d 	andeq	r6, r8, sp, lsl #14
    2fe8:	001e3c00 	andseq	r3, lr, r0, lsl #24
    2fec:	1e3c0210 	mrcne	2, 1, r0, cr12, cr0, {0}
    2ff0:	1e401000 	cdpne	0, 4, cr1, cr0, cr0, {0}
    2ff4:	09011000 	stmdbeq	r1, {ip}
    2ff8:	7a0e0c01 	bvc	386004 <__RAM_SIZE+0x286004>
    2ffc:	4e000008 	cdpmi	0, 0, cr0, cr0, cr8, {0}
    3000:	4c000026 	stcmi	0, cr0, [r0], {38}	; 0x26
    3004:	00000026 	andeq	r0, r0, r6, lsr #32
    3008:	0a010f00 	beq	46c10 <__HEAP_SIZE+0x45c10>
    300c:	01000002 	tsteq	r0, r2
    3010:	790105dc 	stmdbvc	r1, {r2, r3, r4, r6, r7, r8, sl}
    3014:	3c000000 	stccc	0, cr0, [r0], {-0}
    3018:	b810001c 	ldmdalt	r0, {r2, r3, r4}
    301c:	6110001c 	tstvs	r0, ip, lsl r0
    3020:	01000026 	tsteq	r0, r6, lsr #32
    3024:	000003a5 	andeq	r0, r0, r5, lsr #7
    3028:	00046b10 	andeq	r6, r4, r0, lsl fp
    302c:	28dc0100 	ldmcs	ip, {r8}^
    3030:	000003a5 	andeq	r0, r0, r5, lsr #7
    3034:	00002689 	andeq	r2, r0, r9, lsl #13
    3038:	00002681 	andeq	r2, r0, r1, lsl #13
    303c:	0004aa10 	andeq	sl, r4, r0, lsl sl
    3040:	37dc0100 	ldrbcc	r0, [ip, r0, lsl #2]
    3044:	0000008c 	andeq	r0, r0, ip, lsl #1
    3048:	000026c8 	andeq	r2, r0, r8, asr #13
    304c:	000026c0 	andeq	r2, r0, r0, asr #13
    3050:	0000e110 	andeq	lr, r0, r0, lsl r1
    3054:	4bdc0100 	blmi	ff70345c <__StackTop+0xc760345c>
    3058:	000003a5 	andeq	r0, r0, r5, lsr #7
    305c:	00002705 	andeq	r2, r0, r5, lsl #14
    3060:	000026ff 	strdeq	r2, [r0], -pc	; <UNPREDICTABLE>
    3064:	00009f10 	andeq	r9, r0, r0, lsl pc
    3068:	66dc0100 	ldrbvs	r0, [ip], r0, lsl #2
    306c:	000003a5 	andeq	r0, r0, r5, lsr #7
    3070:	00002739 	andeq	r2, r0, r9, lsr r7
    3074:	00002731 	andeq	r2, r0, r1, lsr r7
    3078:	00038b11 	andeq	r8, r3, r1, lsl fp
    307c:	09dd0100 	ldmibeq	sp, {r8}^
    3080:	00000079 	andeq	r0, r0, r9, ror r0
    3084:	00002776 	andeq	r2, r0, r6, ror r7
    3088:	00002770 	andeq	r2, r0, r0, ror r7
    308c:	00637012 	rsbeq	r7, r3, r2, lsl r0
    3090:	8012de01 	andshi	sp, r2, r1, lsl #28
    3094:	ab000000 	blge	309c <__HEAP_SIZE+0x209c>
    3098:	a1000027 	tstge	r0, r7, lsr #32
    309c:	12000027 	andne	r0, r0, #39	; 0x27
    30a0:	0100706f 	tsteq	r0, pc, rrx
    30a4:	00801ade 	ldrdeq	r1, [r0], lr
    30a8:	27f40000 	ldrbcs	r0, [r4, r0]!
    30ac:	27ee0000 	strbcs	r0, [lr, r0]!
    30b0:	73120000 	tstvc	r2, #0
    30b4:	de010070 	mcrle	0, 0, r0, cr1, cr0, {3}
    30b8:	0003a523 	andeq	sl, r3, r3, lsr #10
    30bc:	00282500 	eoreq	r2, r8, r0, lsl #10
    30c0:	00281f00 	eoreq	r1, r8, r0, lsl #30
    30c4:	1c7e1300 	ldclne	3, cr1, [lr], #-0
    30c8:	07841000 	streq	r1, [r4, r0]
    30cc:	039b0000 	orrseq	r0, fp, #0
    30d0:	01140000 	tsteq	r4, r0
    30d4:	00790250 	rsbseq	r0, r9, r0, asr r2
    30d8:	1c821500 	cfstr32ne	mvfx1, [r2], {0}
    30dc:	07231000 	streq	r1, [r3, -r0]!
    30e0:	16000000 	strne	r0, [r0], -r0
    30e4:	00008004 	andeq	r8, r0, r4
    30e8:	ec011700 	stc	7, cr1, [r1], {-0}
    30ec:	01000007 	tsteq	r0, r7
    30f0:	b80106a1 	stmdalt	r1, {r0, r5, r7, r9, sl}
    30f4:	3c10001c 	ldccc	0, cr0, [r0], {28}
    30f8:	5010001e 	andspl	r0, r0, lr, lsl r0
    30fc:	01000028 	tsteq	r0, r8, lsr #32
    3100:	000006a2 	andeq	r0, r0, r2, lsr #13
    3104:	00073e10 	andeq	r3, r7, r0, lsl lr
    3108:	27a10100 	strcs	r0, [r1, r0, lsl #2]!
    310c:	000003a5 	andeq	r0, r0, r5, lsr #7
    3110:	00002876 	andeq	r2, r0, r6, ror r8
    3114:	00002870 	andeq	r2, r0, r0, ror r8
    3118:	00074b10 	andeq	r4, r7, r0, lsl fp
    311c:	3ba10100 	blcc	fe843524 <__StackTop+0xc6743524>
    3120:	00000080 	andeq	r0, r0, r0, lsl #1
    3124:	000028a6 	andeq	r2, r0, r6, lsr #17
    3128:	000028a2 	andeq	r2, r0, r2, lsr #17
    312c:	00038b11 	andeq	r8, r3, r1, lsl fp
    3130:	09a20100 	stmibeq	r2!, {r8}
    3134:	00000079 	andeq	r0, r0, r9, ror r0
    3138:	000028ca 	andeq	r2, r0, sl, asr #17
    313c:	000028c4 	andeq	r2, r0, r4, asr #17
    3140:	0006d211 	andeq	sp, r6, r1, lsl r2
    3144:	14a20100 	strtne	r0, [r2], #256	; 0x100
    3148:	00000079 	andeq	r0, r0, r9, ror r0
    314c:	000028fc 	strdeq	r2, [r0], -ip
    3150:	000028f4 	strdeq	r2, [r0], -r4
    3154:	0000e711 	andeq	lr, r0, r1, lsl r7
    3158:	13a30100 			; <UNDEFINED> instruction: 0x13a30100
    315c:	000003a5 	andeq	r0, r0, r5, lsr #7
    3160:	00002959 	andeq	r2, r0, r9, asr r9
    3164:	00002933 	andeq	r2, r0, r3, lsr r9
    3168:	00079018 	andeq	r9, r7, r8, lsl r0
    316c:	1aa40100 	bne	fe903574 <__StackTop+0xc6803574>
    3170:	000001d6 	ldrdeq	r0, [r0], -r6
    3174:	05640305 	strbeq	r0, [r4, #-773]!	; 0xfffffcfb
    3178:	6b183800 	blvs	611180 <__RAM_SIZE+0x511180>
    317c:	01000004 	tsteq	r0, r4
    3180:	06a219a5 	strteq	r1, [r2], r5, lsr #19
    3184:	03050000 	movweq	r0, #20480	; 0x5000
    3188:	3800045c 	stmdacc	r0, {r2, r3, r4, r6, sl}
    318c:	001d0813 	andseq	r0, sp, r3, lsl r8
    3190:	00088810 	andeq	r8, r8, r0, lsl r8
    3194:	00046200 	andeq	r6, r4, r0, lsl #4
    3198:	50011400 	andpl	r1, r1, r0, lsl #8
    319c:	00007702 	andeq	r7, r0, r2, lsl #14
    31a0:	001d0e13 	andseq	r0, sp, r3, lsl lr
    31a4:	00088810 	andeq	r8, r8, r0, lsl r8
    31a8:	00047900 	andeq	r7, r4, r0, lsl #18
    31ac:	50011400 	andpl	r1, r1, r0, lsl #8
    31b0:	40b00305 	adcsmi	r0, r0, r5, lsl #6
    31b4:	13001000 	movwne	r1, #0
    31b8:	10001d14 	andne	r1, r0, r4, lsl sp
    31bc:	00000888 	andeq	r0, r0, r8, lsl #17
    31c0:	00000490 	muleq	r0, r0, r4
    31c4:	05500114 	ldrbeq	r0, [r0, #-276]	; 0xfffffeec
    31c8:	0040d003 	subeq	sp, r0, r3
    31cc:	1c130010 	ldcne	0, cr0, [r3], {16}
    31d0:	9510001d 	ldrls	r0, [r0, #-29]	; 0xffffffe3
    31d4:	a7000008 	strge	r0, [r0, -r8]
    31d8:	14000004 	strne	r0, [r0], #-4
    31dc:	03055001 	movweq	r5, #20481	; 0x5001
    31e0:	100040e4 	andne	r4, r0, r4, ror #1
    31e4:	1d241300 	stcne	3, cr1, [r4, #-0]
    31e8:	08951000 	ldmeq	r5, {ip}
    31ec:	04be0000 	ldrteq	r0, [lr], #0
    31f0:	01140000 	tsteq	r4, r0
    31f4:	f8030550 			; <UNDEFINED> instruction: 0xf8030550
    31f8:	00100040 	andseq	r0, r0, r0, asr #32
    31fc:	001d2c13 	andseq	r2, sp, r3, lsl ip
    3200:	00089510 	andeq	r9, r8, r0, lsl r5
    3204:	0004d500 	andeq	sp, r4, r0, lsl #10
    3208:	50011400 	andpl	r1, r1, r0, lsl #8
    320c:	410c0305 	tstmi	ip, r5, lsl #6
    3210:	13001000 	movwne	r1, #0
    3214:	10001d34 	andne	r1, r0, r4, lsr sp
    3218:	00000895 	muleq	r0, r5, r8
    321c:	000004ec 	andeq	r0, r0, ip, ror #9
    3220:	05500114 	ldrbeq	r0, [r0, #-276]	; 0xfffffeec
    3224:	00412003 	subeq	r2, r1, r3
    3228:	3c130010 	ldccc	0, cr0, [r3], {16}
    322c:	9510001d 	ldrls	r0, [r0, #-29]	; 0xffffffe3
    3230:	03000008 	movweq	r0, #8
    3234:	14000005 	strne	r0, [r0], #-5
    3238:	03055001 	movweq	r5, #20481	; 0x5001
    323c:	10004134 	andne	r4, r0, r4, lsr r1
    3240:	1d441300 	stclne	3, cr1, [r4, #-0]
    3244:	08951000 	ldmeq	r5, {ip}
    3248:	051a0000 	ldreq	r0, [sl, #-0]
    324c:	01140000 	tsteq	r4, r0
    3250:	48030550 	stmdami	r3, {r4, r6, r8, sl}
    3254:	00100041 	andseq	r0, r0, r1, asr #32
    3258:	001d4c13 	andseq	r4, sp, r3, lsl ip
    325c:	00089510 	andeq	r9, r8, r0, lsl r5
    3260:	00053100 	andeq	r3, r5, r0, lsl #2
    3264:	50011400 	andpl	r1, r1, r0, lsl #8
    3268:	415c0305 	cmpmi	ip, r5, lsl #6
    326c:	13001000 	movwne	r1, #0
    3270:	10001d54 	andne	r1, r0, r4, asr sp
    3274:	00000895 	muleq	r0, r5, r8
    3278:	00000548 	andeq	r0, r0, r8, asr #10
    327c:	05500114 	ldrbeq	r0, [r0, #-276]	; 0xfffffeec
    3280:	00417003 	subeq	r7, r1, r3
    3284:	5c130010 	ldcpl	0, cr0, [r3], {16}
    3288:	9510001d 	ldrls	r0, [r0, #-29]	; 0xffffffe3
    328c:	5f000008 	svcpl	0x00000008
    3290:	14000005 	strne	r0, [r0], #-5
    3294:	03055001 	movweq	r5, #20481	; 0x5001
    3298:	10004184 	andne	r4, r0, r4, lsl #3
    329c:	1d641300 	stclne	3, cr1, [r4, #-0]
    32a0:	08951000 	ldmeq	r5, {ip}
    32a4:	05760000 	ldrbeq	r0, [r6, #-0]!
    32a8:	01140000 	tsteq	r4, r0
    32ac:	98030550 	stmdals	r3, {r4, r6, r8, sl}
    32b0:	00100041 	andseq	r0, r0, r1, asr #32
    32b4:	001d6c13 	andseq	r6, sp, r3, lsl ip
    32b8:	00089510 	andeq	r9, r8, r0, lsl r5
    32bc:	00058d00 	andeq	r8, r5, r0, lsl #26
    32c0:	50011400 	andpl	r1, r1, r0, lsl #8
    32c4:	41ac0305 			; <UNDEFINED> instruction: 0x41ac0305
    32c8:	13001000 	movwne	r1, #0
    32cc:	10001d74 	andne	r1, r0, r4, ror sp
    32d0:	00000895 	muleq	r0, r5, r8
    32d4:	000005a4 	andeq	r0, r0, r4, lsr #11
    32d8:	05500114 	ldrbeq	r0, [r0, #-276]	; 0xfffffeec
    32dc:	0041c003 	subeq	ip, r1, r3
    32e0:	7c130010 	ldcvc	0, cr0, [r3], {16}
    32e4:	9510001d 	ldrls	r0, [r0, #-29]	; 0xffffffe3
    32e8:	bb000008 	bllt	3310 <__HEAP_SIZE+0x2310>
    32ec:	14000005 	strne	r0, [r0], #-5
    32f0:	03055001 	movweq	r5, #20481	; 0x5001
    32f4:	100041d4 	ldrdne	r4, [r0], -r4	; <UNPREDICTABLE>
    32f8:	1d841300 	stcne	3, cr1, [r4]
    32fc:	08951000 	ldmeq	r5, {ip}
    3300:	05d20000 	ldrbeq	r0, [r2]
    3304:	01140000 	tsteq	r4, r0
    3308:	e8030550 	stmda	r3, {r4, r6, r8, sl}
    330c:	00100041 	andseq	r0, r0, r1, asr #32
    3310:	001d8c13 	andseq	r8, sp, r3, lsl ip
    3314:	00089510 	andeq	r9, r8, r0, lsl r5
    3318:	0005e900 	andeq	lr, r5, r0, lsl #18
    331c:	50011400 	andpl	r1, r1, r0, lsl #8
    3320:	41fc0305 	mvnsmi	r0, r5, lsl #6
    3324:	13001000 	movwne	r1, #0
    3328:	10001d94 	mulne	r0, r4, sp
    332c:	00000895 	muleq	r0, r5, r8
    3330:	00000600 	andeq	r0, r0, r0, lsl #12
    3334:	05500114 	ldrbeq	r0, [r0, #-276]	; 0xfffffeec
    3338:	00421003 	subeq	r1, r2, r3
    333c:	9a130010 	bls	4c3384 <__RAM_SIZE+0x3c3384>
    3340:	8810001d 	ldmdahi	r0, {r0, r2, r3, r4}
    3344:	14000008 	strne	r0, [r0], #-8
    3348:	14000006 	strne	r0, [r0], #-6
    334c:	77025001 	strvc	r5, [r2, -r1]
    3350:	a0130000 	andsge	r0, r3, r0
    3354:	b210001d 	andslt	r0, r0, #29
    3358:	28000006 	stmdacs	r0, {r1, r2}
    335c:	14000006 	strne	r0, [r0], #-6
    3360:	76025001 	strvc	r5, [r2], -r1
    3364:	ae130000 	cdpge	0, 1, cr0, cr3, cr0, {0}
    3368:	cb10001d 	blgt	4033e4 <__RAM_SIZE+0x3033e4>
    336c:	4c000002 	stcmi	0, cr0, [r0], {2}
    3370:	14000006 	strne	r0, [r0], #-6
    3374:	03055001 	movweq	r5, #20481	; 0x5001
    3378:	3800045c 	stmdacc	r0, {r2, r3, r4, r6, sl}
    337c:	02510114 	subseq	r0, r1, #20, 2
    3380:	01144008 	tsteq	r4, r8
    3384:	c0750352 	rsbsgt	r0, r5, r2, asr r3
    3388:	b6130000 	ldrlt	r0, [r3], -r0
    338c:	9510001d 	ldrls	r0, [r0, #-29]	; 0xffffffe3
    3390:	63000008 	movwvs	r0, #8
    3394:	14000006 	strne	r0, [r0], #-6
    3398:	03055001 	movweq	r5, #20481	; 0x5001
    339c:	10004224 	andne	r4, r0, r4, lsr #4
    33a0:	1dbe1300 	ldcne	3, cr1, [lr]
    33a4:	08951000 	ldmeq	r5, {ip}
    33a8:	067a0000 	ldrbteq	r0, [sl], -r0
    33ac:	01140000 	tsteq	r4, r0
    33b0:	5c030550 	cfstr32pl	mvfx0, [r3], {80}	; 0x50
    33b4:	0010003f 	andseq	r0, r0, pc, lsr r0
    33b8:	001dce13 	andseq	ip, sp, r3, lsl lr
    33bc:	00089510 	andeq	r9, r8, r0, lsl r5
    33c0:	00069100 	andeq	r9, r6, r0, lsl #2
    33c4:	50011400 	andpl	r1, r1, r0, lsl #8
    33c8:	3f5c0305 	svccc	0x005c0305
    33cc:	19001000 	stmdbne	r0, {ip}
    33d0:	10001dda 	ldrdne	r1, [r0], -sl
    33d4:	00000888 	andeq	r0, r0, r8, lsl #17
    33d8:	02500114 	subseq	r0, r0, #20, 2
    33dc:	00000077 	andeq	r0, r0, r7, ror r0
    33e0:	0000801a 	andeq	r8, r0, sl, lsl r0
    33e4:	0006b200 	andeq	fp, r6, r0, lsl #4
    33e8:	00801b00 	addeq	r1, r0, r0, lsl #22
    33ec:	003f0000 	eorseq	r0, pc, r0
    33f0:	0008051c 	andeq	r0, r8, ip, lsl r5
    33f4:	0d990100 	ldfeqs	f0, [r9]
    33f8:	001bd401 	andseq	sp, fp, r1, lsl #8
    33fc:	001bec10 	andseq	lr, fp, r0, lsl ip
    3400:	002a5b10 	eoreq	r5, sl, r0, lsl fp
    3404:	07230100 	streq	r0, [r3, -r0, lsl #2]!
    3408:	0a100000 	beq	403410 <__RAM_SIZE+0x303410>
    340c:	01000008 	tsteq	r0, r8
    3410:	00802a99 	umulleq	r2, r0, r9, sl
    3414:	2a830000 	bcs	fe0c341c <__StackTop+0xc5fc341c>
    3418:	2a7b0000 	bcs	1ec3420 <__RAM_SIZE+0x1dc3420>
    341c:	011d0000 	tsteq	sp, r0
    3420:	000007ff 	strdeq	r0, [r0], -pc	; <UNPREDICTABLE>
    3424:	01119c01 	tsteq	r1, r1, lsl #24
    3428:	0006f501 	andeq	pc, r6, r1, lsl #10
    342c:	00801e00 	addeq	r1, r0, r0, lsl #28
    3430:	13000000 	movwne	r0, #0
    3434:	10001be0 	andne	r1, r0, r0, ror #23
    3438:	00000895 	muleq	r0, r5, r8
    343c:	00000712 	andeq	r0, r0, r2, lsl r7
    3440:	05500114 	ldrbeq	r0, [r0, #-276]	; 0xfffffeec
    3444:	00403003 	subeq	r3, r0, r3
    3448:	51011410 	tstpl	r1, r0, lsl r4
    344c:	00007402 	andeq	r7, r0, r2, lsl #8
    3450:	001be619 	andseq	lr, fp, r9, lsl r6
    3454:	0008a310 	andeq	sl, r8, r0, lsl r3
    3458:	50011400 	andpl	r1, r1, r0, lsl #8
    345c:	00007402 	andeq	r7, r0, r2, lsl #8
    3460:	06e21f00 	strbteq	r1, [r2], r0, lsl #30
    3464:	8a010000 	bhi	4346c <__HEAP_SIZE+0x4246c>
    3468:	077d010d 	ldrbeq	r0, [sp, -sp, lsl #2]!
    346c:	1b9c0000 	blne	fe703474 <__StackTop+0xc6603474>
    3470:	1bd21000 	blne	ff487478 <__StackTop+0xc7387478>
    3474:	7d021000 	stcvc	0, cr1, [r2, #-0]
    3478:	077d0100 	ldrbeq	r0, [sp, -r0, lsl #2]!
    347c:	69200000 	stmdbvs	r0!, {}	; <UNPREDICTABLE>
    3480:	0100736e 	tsteq	r0, lr, ror #6
    3484:	00802e8a 	addeq	r2, r0, sl, lsl #29
    3488:	2abe0000 	bcs	fef83490 <__StackTop+0xc6e83490>
    348c:	2aba0000 	bcs	fee83494 <__StackTop+0xc6d83494>
    3490:	67110000 	ldrvs	r0, [r1, -r0]
    3494:	01000007 	tsteq	r0, r7
    3498:	00a60e8e 	adceq	r0, r6, lr, lsl #29
    349c:	2ae10000 	bcs	ff8434a4 <__StackTop+0xc77434a4>
    34a0:	2adf0000 	bcs	ff7c34a8 <__StackTop+0xc76c34a8>
    34a4:	6f110000 	svcvs	0x00110000
    34a8:	01000007 	tsteq	r0, r7
    34ac:	00a60e8f 	adceq	r0, r6, pc, lsl #29
    34b0:	2b080000 	blcs	2034b8 <__RAM_SIZE+0x1034b8>
    34b4:	2af40000 	bcs	ffd034bc <__StackTop+0xc7c034bc>
    34b8:	02000000 	andeq	r0, r0, #0
    34bc:	05ca0201 	strbeq	r0, [sl, #513]	; 0x201
    34c0:	2a210000 	bcs	8434c8 <__RAM_SIZE+0x7434c8>
    34c4:	01000007 	tsteq	r0, r7
    34c8:	8001157f 	andhi	r1, r1, pc, ror r5
    34cc:	70000000 	andvc	r0, r0, r0
    34d0:	9c10001b 	ldcls	0, cr0, [r0], {27}
    34d4:	ab10001b 	blge	403548 <__RAM_SIZE+0x303548>
    34d8:	0100002b 	tsteq	r0, fp, lsr #32
    34dc:	000007f5 	strdeq	r0, [r0], -r5
    34e0:	00637020 	rsbeq	r7, r3, r0, lsr #32
    34e4:	80347f01 	eorshi	r7, r4, r1, lsl #30
    34e8:	db000000 	blle	34f0 <__HEAP_SIZE+0x24f0>
    34ec:	d700002b 	strle	r0, [r0, -fp, lsr #32]
    34f0:	1800002b 	stmdane	r0, {r0, r1, r3, r5}
    34f4:	0000007a 	andeq	r0, r0, sl, ror r0
    34f8:	f50e8001 			; <UNDEFINED> instruction: 0xf50e8001
    34fc:	02000007 	andeq	r0, r0, #7
    3500:	35117c91 	ldrcc	r7, [r1, #-3217]	; 0xfffff36f
    3504:	01000007 	tsteq	r0, r7
    3508:	00801281 	addeq	r1, r0, r1, lsl #5
    350c:	2c020000 	stccs	0, cr0, [r2], {-0}
    3510:	2bfc0000 	blcs	fff03518 <__StackTop+0xc7e03518>
    3514:	76220000 	strtvc	r0, [r2], -r0
    3518:	8c10001b 	ldchi	0, cr0, [r0], {27}
    351c:	1210001b 	andsne	r0, r0, #27
    3520:	82010069 	andhi	r0, r1, #105	; 0x69
    3524:	0000790e 	andeq	r7, r0, lr, lsl #18
    3528:	002c3700 	eoreq	r3, ip, r0, lsl #14
    352c:	002c3300 	eoreq	r3, ip, r0, lsl #6
    3530:	1a000000 	bne	3538 <__HEAP_SIZE+0x2538>
    3534:	000000a6 	andeq	r0, r0, r6, lsr #1
    3538:	00000805 	andeq	r0, r0, r5, lsl #16
    353c:	0000801b 	andeq	r8, r0, fp, lsl r0
    3540:	17000100 	strne	r0, [r0, -r0, lsl #2]
    3544:	00025201 	andeq	r5, r2, r1, lsl #4
    3548:	06740100 	ldrbteq	r0, [r4], -r0, lsl #2
    354c:	001bec01 	andseq	lr, fp, r1, lsl #24
    3550:	001c3c10 	andseq	r3, ip, r0, lsl ip
    3554:	002c5610 	eoreq	r5, ip, r0, lsl r6
    3558:	08670100 	stmdaeq	r7!, {r8}^
    355c:	02130000 	andseq	r0, r3, #0
    3560:	9510001c 	ldrls	r0, [r0, #-28]	; 0xffffffe4
    3564:	37000008 	strcc	r0, [r0, -r8]
    3568:	14000008 	strne	r0, [r0], #-8
    356c:	03055001 	movweq	r5, #20481	; 0x5001
    3570:	10004048 	andne	r4, r0, r8, asr #32
    3574:	1c0e1300 	stcne	3, cr1, [lr], {-0}
    3578:	08951000 	ldmeq	r5, {ip}
    357c:	084e0000 	stmdaeq	lr, {}^	; <UNPREDICTABLE>
    3580:	01140000 	tsteq	r4, r0
    3584:	6c030550 	cfstr32vs	mvfx0, [r3], {80}	; 0x50
    3588:	00100040 	andseq	r0, r0, r0, asr #32
    358c:	001c1619 	andseq	r1, ip, r9, lsl r6
    3590:	00089510 	andeq	r9, r8, r0, lsl r5
    3594:	50011400 	andpl	r1, r1, r0, lsl #8
    3598:	40900305 	addsmi	r0, r0, r5, lsl #6
    359c:	01141000 	tsteq	r4, r0
    35a0:	00310151 	eorseq	r0, r1, r1, asr r1
    35a4:	081c2300 	ldmdaeq	ip, {r8, r9, sp}
    35a8:	63020000 	movwvs	r0, #8192	; 0x2000
    35ac:	b2011f04 	andlt	r1, r1, #4, 30
    35b0:	03000000 	movweq	r0, #0
    35b4:	00000888 	andeq	r0, r0, r8, lsl #17
    35b8:	00074424 	andeq	r4, r7, r4, lsr #8
    35bc:	04650200 	strbteq	r0, [r5], #-512	; 0xfffffe00
    35c0:	0000b20c 	andeq	fp, r0, ip, lsl #4
    35c4:	01250000 			; <UNDEFINED> instruction: 0x01250000
    35c8:	00001001 	andeq	r1, r0, r1
    35cc:	00000600 	andeq	r0, r0, r0, lsl #12
    35d0:	26000800 	strcs	r0, [r0], -r0, lsl #16
    35d4:	053e0101 	ldreq	r0, [lr, #-257]!	; 0xfffffeff
    35d8:	053e0000 	ldreq	r0, [lr, #-0]!
    35dc:	c8070000 	stmdagt	r7, {}	; <UNPREDICTABLE>
    35e0:	01012605 	tsteq	r1, r5, lsl #12
    35e4:	000007ff 	strdeq	r0, [r0], -pc	; <UNPREDICTABLE>
    35e8:	000007ff 	strdeq	r0, [r0], -pc	; <UNPREDICTABLE>
    35ec:	00119c01 	andseq	r9, r1, r1, lsl #24
    35f0:	0000028d 	andeq	r0, r0, sp, lsl #5
    35f4:	0a3a0002 	beq	e83604 <__RAM_SIZE+0xd83604>
    35f8:	01040000 	mrseq	r0, (UNDEF: 4)
    35fc:	0000014c 	andeq	r0, r0, ip, asr #2
    3600:	0008400c 	andeq	r4, r8, ip
    3604:	00034100 	andeq	r4, r3, r0, lsl #2
    3608:	00026800 	andeq	r6, r2, r0, lsl #16
	...
    3614:	001f1f00 	andseq	r1, pc, r0, lsl #30
    3618:	06010200 	streq	r0, [r1], -r0, lsl #4
    361c:	00000236 	andeq	r0, r0, r6, lsr r2
    3620:	34080102 	strcc	r0, [r8], #-258	; 0xfffffefe
    3624:	02000002 	andeq	r0, r0, #2
    3628:	00200502 	eoreq	r0, r0, r2, lsl #10
    362c:	02020000 	andeq	r0, r2, #0
    3630:	0002c607 	andeq	ip, r2, r7, lsl #12
    3634:	05040200 	streq	r0, [r4, #-512]	; 0xfffffe00
    3638:	00000118 	andeq	r0, r0, r8, lsl r1
    363c:	75070402 	strvc	r0, [r7, #-1026]	; 0xfffffbfe
    3640:	02000002 	andeq	r0, r0, #2
    3644:	01130508 	tsteq	r3, r8, lsl #10
    3648:	08020000 	stmdaeq	r2, {}	; <UNPREDICTABLE>
    364c:	00027007 	andeq	r7, r2, r7
    3650:	05040300 	streq	r0, [r4, #-768]	; 0xfffffd00
    3654:	00746e69 	rsbseq	r6, r4, r9, ror #28
    3658:	7a070402 	bvc	1c4668 <__RAM_SIZE+0xc4668>
    365c:	02000002 	andeq	r0, r0, #2
    3660:	00460408 	subeq	r0, r6, r8, lsl #8
    3664:	01020000 	mrseq	r0, (UNDEF: 2)
    3668:	00023d08 	andeq	r3, r2, r8, lsl #26
    366c:	ff010400 			; <UNDEFINED> instruction: 0xff010400
    3670:	01000007 	tsteq	r0, r7
    3674:	4c01060f 	stcmi	6, cr0, [r1], {15}
    3678:	4810001e 	ldmdami	r0, {r1, r2, r3, r4}
    367c:	7610001f 			; <UNDEFINED> instruction: 0x7610001f
    3680:	0100002c 	tsteq	r0, ip, lsr #32
    3684:	00000275 	andeq	r0, r0, r5, ror r2
    3688:	00080a05 	andeq	r0, r8, r5, lsl #20
    368c:	290f0100 	stmdbcs	pc, {r8}	; <UNPREDICTABLE>
    3690:	00000068 	andeq	r0, r0, r8, rrx
    3694:	00002c9a 	muleq	r0, sl, ip
    3698:	00002c96 	muleq	r0, r6, ip
    369c:	001e5606 	andseq	r5, lr, r6, lsl #12
    36a0:	00027510 	andeq	r7, r2, r0, lsl r5
    36a4:	0000c300 	andeq	ip, r0, r0, lsl #6
    36a8:	50010700 	andpl	r0, r1, r0, lsl #14
    36ac:	42340305 	eorsmi	r0, r4, #335544320	; 0x14000000
    36b0:	06001000 	streq	r1, [r0], -r0
    36b4:	10001e5c 	andne	r1, r0, ip, asr lr
    36b8:	00000282 	andeq	r0, r0, r2, lsl #5
    36bc:	000000da 	ldrdeq	r0, [r0], -sl
    36c0:	05500107 	ldrbeq	r0, [r0, #-263]	; 0xfffffef9
    36c4:	00423803 	subeq	r3, r2, r3, lsl #16
    36c8:	68060010 	stmdavs	r6, {r4}
    36cc:	7510001e 	ldrvc	r0, [r0, #-30]	; 0xffffffe2
    36d0:	f1000002 	cps	#2
    36d4:	07000000 	streq	r0, [r0, -r0]
    36d8:	03055001 	movweq	r5, #20481	; 0x5001
    36dc:	10004258 	andne	r4, r0, r8, asr r2
    36e0:	1e6e0600 	cdpne	6, 6, cr0, cr14, cr0, {0}
    36e4:	02821000 	addeq	r1, r2, #0
    36e8:	01080000 	mrseq	r0, (UNDEF: 8)
    36ec:	01070000 	mrseq	r0, (UNDEF: 7)
    36f0:	90030550 	andls	r0, r3, r0, asr r5
    36f4:	00100042 	andseq	r0, r0, r2, asr #32
    36f8:	001e7a06 	andseq	r7, lr, r6, lsl #20
    36fc:	00027510 	andeq	r7, r2, r0, lsl r5
    3700:	00011f00 	andeq	r1, r1, r0, lsl #30
    3704:	50010700 	andpl	r0, r1, r0, lsl #14
    3708:	42b00305 	adcsmi	r0, r0, #335544320	; 0x14000000
    370c:	06001000 	streq	r1, [r0], -r0
    3710:	10001e80 	andne	r1, r0, r0, lsl #29
    3714:	00000282 	andeq	r0, r0, r2, lsl #5
    3718:	00000136 	andeq	r0, r0, r6, lsr r1
    371c:	05500107 	ldrbeq	r0, [r0, #-263]	; 0xfffffef9
    3720:	0042e803 	subeq	lr, r2, r3, lsl #16
    3724:	8c060010 	stchi	0, cr0, [r6], {16}
    3728:	7510001e 	ldrvc	r0, [r0, #-30]	; 0xffffffe2
    372c:	4d000002 	stcmi	0, cr0, [r0, #-8]
    3730:	07000001 	streq	r0, [r0, -r1]
    3734:	03055001 	movweq	r5, #20481	; 0x5001
    3738:	10004308 	andne	r4, r0, r8, lsl #6
    373c:	1e920600 	cdpne	6, 9, cr0, cr2, cr0, {0}
    3740:	02821000 	addeq	r1, r2, #0
    3744:	01640000 	cmneq	r4, r0
    3748:	01070000 	mrseq	r0, (UNDEF: 7)
    374c:	40030550 	andmi	r0, r3, r0, asr r5
    3750:	00100043 	andseq	r0, r0, r3, asr #32
    3754:	001e9e06 	andseq	r9, lr, r6, lsl #28
    3758:	00027510 	andeq	r7, r2, r0, lsl r5
    375c:	00017b00 	andeq	r7, r1, r0, lsl #22
    3760:	50010700 	andpl	r0, r1, r0, lsl #14
    3764:	43600305 	cmnmi	r0, #335544320	; 0x14000000
    3768:	06001000 	streq	r1, [r0], -r0
    376c:	10001ea4 	andne	r1, r0, r4, lsr #29
    3770:	00000282 	andeq	r0, r0, r2, lsl #5
    3774:	00000192 	muleq	r0, r2, r1
    3778:	05500107 	ldrbeq	r0, [r0, #-263]	; 0xfffffef9
    377c:	00439803 	subeq	r9, r3, r3, lsl #16
    3780:	b0060010 	andlt	r0, r6, r0, lsl r0
    3784:	7510001e 	ldrvc	r0, [r0, #-30]	; 0xffffffe2
    3788:	a9000002 	stmdbge	r0, {r1}
    378c:	07000001 	streq	r0, [r0, -r1]
    3790:	03055001 	movweq	r5, #20481	; 0x5001
    3794:	100043b8 			; <UNDEFINED> instruction: 0x100043b8
    3798:	1eb60600 	cdpne	6, 11, cr0, cr6, cr0, {0}
    379c:	02821000 	addeq	r1, r2, #0
    37a0:	01c00000 	biceq	r0, r0, r0
    37a4:	01070000 	mrseq	r0, (UNDEF: 7)
    37a8:	f0030550 			; <UNDEFINED> instruction: 0xf0030550
    37ac:	00100043 	andseq	r0, r0, r3, asr #32
    37b0:	001ec206 	andseq	ip, lr, r6, lsl #4
    37b4:	00027510 	andeq	r7, r2, r0, lsl r5
    37b8:	0001d700 	andeq	sp, r1, r0, lsl #14
    37bc:	50010700 	andpl	r0, r1, r0, lsl #14
    37c0:	44100305 	ldrmi	r0, [r0], #-773	; 0xfffffcfb
    37c4:	06001000 	streq	r1, [r0], -r0
    37c8:	10001ec8 	andne	r1, r0, r8, asr #29
    37cc:	00000275 	andeq	r0, r0, r5, ror r2
    37d0:	000001ee 	andeq	r0, r0, lr, ror #3
    37d4:	05500107 	ldrbeq	r0, [r0, #-263]	; 0xfffffef9
    37d8:	00423403 	subeq	r3, r2, r3, lsl #8
    37dc:	d0060010 	andle	r0, r6, r0, lsl r0
    37e0:	7510001e 	ldrvc	r0, [r0, #-30]	; 0xffffffe2
    37e4:	05000002 	streq	r0, [r0, #-2]
    37e8:	07000002 	streq	r0, [r0, -r2]
    37ec:	03055001 	movweq	r5, #20481	; 0x5001
    37f0:	10004274 	andne	r4, r0, r4, ror r2
    37f4:	1ed80600 	cdpne	6, 13, cr0, cr8, cr0, {0}
    37f8:	02751000 	rsbseq	r1, r5, #0
    37fc:	021c0000 	andseq	r0, ip, #0
    3800:	01070000 	mrseq	r0, (UNDEF: 7)
    3804:	cc030550 	cfstr32gt	mvfx0, [r3], {80}	; 0x50
    3808:	00100042 	andseq	r0, r0, r2, asr #32
    380c:	001ee006 	andseq	lr, lr, r6
    3810:	00027510 	andeq	r7, r2, r0, lsl r5
    3814:	00023300 	andeq	r3, r2, r0, lsl #6
    3818:	50010700 	andpl	r0, r1, r0, lsl #14
    381c:	43240305 			; <UNDEFINED> instruction: 0x43240305
    3820:	06001000 	streq	r1, [r0], -r0
    3824:	10001ee8 	andne	r1, r0, r8, ror #29
    3828:	00000275 	andeq	r0, r0, r5, ror r2
    382c:	0000024a 	andeq	r0, r0, sl, asr #4
    3830:	05500107 	ldrbeq	r0, [r0, #-263]	; 0xfffffef9
    3834:	00437c03 	subeq	r7, r3, r3, lsl #24
    3838:	f0060010 			; <UNDEFINED> instruction: 0xf0060010
    383c:	7510001e 	ldrvc	r0, [r0, #-30]	; 0xffffffe2
    3840:	61000002 	tstvs	r0, r2
    3844:	07000002 	streq	r0, [r0, -r2]
    3848:	03055001 	movweq	r5, #20481	; 0x5001
    384c:	100043d4 	ldrdne	r4, [r0], -r4	; <UNPREDICTABLE>
    3850:	1ef80800 	cdpne	8, 15, cr0, cr8, cr0, {0}
    3854:	02751000 	rsbseq	r1, r5, #0
    3858:	01070000 	mrseq	r0, (UNDEF: 7)
    385c:	2c030550 	cfstr32cs	mvfx0, [r3], {80}	; 0x50
    3860:	00100044 	andseq	r0, r0, r4, asr #32
    3864:	01010900 	tsteq	r1, r0, lsl #18
    3868:	00000010 	andeq	r0, r0, r0, lsl r0
    386c:	00000006 	andeq	r0, r0, r6
    3870:	010a0002 	tsteq	sl, r2
    3874:	00053e01 	andeq	r3, r5, r1, lsl #28
    3878:	00053e00 	andeq	r3, r5, r0, lsl #28
    387c:	05c80300 	strbeq	r0, [r8, #768]	; 0x300
    3880:	00002200 	andeq	r2, r0, r0, lsl #4
    3884:	e0000200 	and	r0, r0, r0, lsl #4
    3888:	0400000a 	streq	r0, [r0], #-10
    388c:	00203c01 	eoreq	r3, r0, r1, lsl #24
    3890:	001f6800 	andseq	r6, pc, r0, lsl #16
    3894:	001fd810 	andseq	sp, pc, r0, lsl r8	; <UNPREDICTABLE>
    3898:	00087810 	andeq	r7, r8, r0, lsl r8
    389c:	00034100 	andeq	r4, r3, r0, lsl #2
    38a0:	00089800 	andeq	r9, r8, r0, lsl #16
    38a4:	22800100 	addcs	r0, r0, #0, 2
    38a8:	02000000 	andeq	r0, r0, #0
    38ac:	000af400 	andeq	pc, sl, r0, lsl #8
    38b0:	c2010400 	andgt	r0, r1, #0, 8
    38b4:	d8000020 	stmdale	r0, {r5}
    38b8:	2010001f 	andscs	r0, r0, pc, lsl r0
    38bc:	a6100020 	ldrge	r0, [r0], -r0, lsr #32
    38c0:	41000008 	tstmi	r0, r8
    38c4:	98000003 	stmdals	r0, {r0, r1}
    38c8:	01000008 	tsteq	r0, r8
    38cc:	Address 0x00000000000038cc is out of bounds.


Disassembly of section .debug_abbrev:

00000000 <.debug_abbrev>:
  SystemCoreClock = SYSTEM_CLOCK;
   0:	25011101 	strcs	r1, [r1, #-257]	; 0xfffffeff
   4:	030b130e 	movweq	r1, #45838	; 0xb30e
}
   8:	550e1b0e 	strpl	r1, [lr, #-2830]	; 0xfffff4f2
   c:	52011106 	andpl	r1, r1, #-2147483647	; 0x80000001
    printf("c = %d\r\n", c);
  10:	00061001 	andeq	r1, r6, r1
}
  14:	00240200 	eoreq	r0, r4, r0, lsl #4
  18:	0b3e0b0b 	bleq	f82c4c <__RAM_SIZE+0xe82c4c>
  1c:	00000e03 	andeq	r0, r0, r3, lsl #28
  20:	03001603 	movweq	r1, #1539	; 0x603
  24:	3b0b3a0e 	blcc	2ce864 <__RAM_SIZE+0x1ce864>
  28:	490b390b 	stmdbmi	fp, {r0, r1, r3, r8, fp, ip, sp}
  2c:	04000013 	streq	r0, [r0], #-19	; 0xffffffed
  30:	0b0b0024 	bleq	2c00c8 <__RAM_SIZE+0x1c00c8>
  34:	08030b3e 	stmdaeq	r3, {r1, r2, r3, r4, r5, r8, r9, fp}
  38:	35050000 	strcc	r0, [r5, #-0]
  3c:	00134900 	andseq	r4, r3, r0, lsl #18
  40:	00260600 	eoreq	r0, r6, r0, lsl #12
  44:	00001349 	andeq	r1, r0, r9, asr #6
  48:	0b011307 	bleq	44c6c <__HEAP_SIZE+0x43c6c>
  4c:	3b0b3a05 	blcc	2ce868 <__RAM_SIZE+0x1ce868>
  50:	010b3905 	tsteq	fp, r5, lsl #18
  54:	08000013 	stmdaeq	r0, {r0, r1, r4}
  58:	0e03000d 	cdpeq	0, 0, cr0, cr3, cr13, {0}
  5c:	053b0b3a 	ldreq	r0, [fp, #-2874]!	; 0xfffff4c6
  60:	13490b39 	movtne	r0, #39737	; 0x9b39
  64:	00000a38 	andeq	r0, r0, r8, lsr sl
  68:	03000d09 	movweq	r0, #3337	; 0xd09
  6c:	3b0b3a08 	blcc	2ce894 <__RAM_SIZE+0x1ce894>
  70:	490b3905 	stmdbmi	fp, {r0, r2, r8, fp, ip, sp}
  74:	000a3813 	andeq	r3, sl, r3, lsl r8
  78:	01010a00 	tsteq	r1, r0, lsl #20
  7c:	13011349 	movwne	r1, #4937	; 0x1349
  80:	210b0000 	mrscs	r0, (UNDEF: 11)
  84:	2f134900 	svccs	0x00134900
  88:	0c00000b 	stceq	0, cr0, [r0], {11}
  8c:	0e030016 	mcreq	0, 0, r0, cr3, cr6, {0}
  90:	053b0b3a 	ldreq	r0, [fp, #-2874]!	; 0xfffff4c6
  94:	13490b39 	movtne	r0, #39737	; 0x9b39
  98:	2e0d0000 	cdpcs	0, 0, cr0, cr13, cr0, {0}
  9c:	030c3f01 	movweq	r3, #52993	; 0xcf01
  a0:	3b0b3a0e 	blcc	2ce8e0 <__RAM_SIZE+0x1ce8e0>
  a4:	270b390b 	strcs	r3, [fp, -fp, lsl #18]
  a8:	1113490c 	tstne	r3, ip, lsl #18
  ac:	40011201 	andmi	r1, r1, r1, lsl #4
  b0:	0c429706 	mcrreq	7, 0, r9, r2, cr6
  b4:	00001301 	andeq	r1, r0, r1, lsl #6
  b8:	0300340e 	movweq	r3, #1038	; 0x40e
  bc:	3b0b3a0e 	blcc	2ce8fc <__RAM_SIZE+0x1ce8fc>
  c0:	490b390b 	stmdbmi	fp, {r0, r1, r3, r8, fp, ip, sp}
  c4:	b7060213 	smladlt	r6, r3, r2, r0
  c8:	00000642 	andeq	r0, r0, r2, asr #12
  cc:	0182890f 	orreq	r8, r2, pc, lsl #18
  d0:	31011100 	mrscc	r1, (UNDEF: 17)
  d4:	10000013 	andne	r0, r0, r3, lsl r0
  d8:	01018289 	smlabbeq	r1, r9, r2, r8
  dc:	13310111 	teqne	r1, #1073741828	; 0x40000004
  e0:	00001301 	andeq	r1, r0, r1, lsl #6
  e4:	01828a11 	orreq	r8, r2, r1, lsl sl
  e8:	910a0200 	mrsls	r0, R10_fiq
  ec:	00000a42 	andeq	r0, r0, r2, asr #20
  f0:	01828912 	orreq	r8, r2, r2, lsl r9
  f4:	31011101 	tstcc	r1, r1, lsl #2
  f8:	13000013 	movwne	r0, #19
  fc:	0c3f012e 	ldfeqs	f0, [pc], #-184	; 4c <__STACKSEAL_SIZE+0x4c>
 100:	0b3a0e03 	bleq	e83914 <__RAM_SIZE+0xd83914>
 104:	0b390b3b 	bleq	e42df8 <__RAM_SIZE+0xd42df8>
 108:	01110c27 	tsteq	r1, r7, lsr #24
 10c:	06400112 			; <UNDEFINED> instruction: 0x06400112
 110:	010c4297 			; <UNDEFINED> instruction: 0x010c4297
 114:	14000013 	strne	r0, [r0], #-19	; 0xffffffed
 118:	0e030034 	mcreq	0, 0, r0, cr3, cr4, {1}
 11c:	0c341349 	ldceq	3, cr1, [r4], #-292	; 0xfffffedc
 120:	00000a02 	andeq	r0, r0, r2, lsl #20
 124:	03003415 	movweq	r3, #1045	; 0x415
 128:	3b0b3a0e 	blcc	2ce968 <__RAM_SIZE+0x1ce968>
 12c:	490b390b 	stmdbmi	fp, {r0, r1, r3, r8, fp, ip, sp}
 130:	000a0213 	andeq	r0, sl, r3, lsl r2
 134:	010b1600 	tsteq	fp, r0, lsl #12
 138:	13010655 	movwne	r0, #5717	; 0x1655
 13c:	34170000 	ldrcc	r0, [r7], #-0
 140:	3a080300 	bcc	200d48 <__RAM_SIZE+0x100d48>
 144:	390b3b0b 	stmdbcc	fp, {r0, r1, r3, r8, r9, fp, ip, sp}
 148:	0213490b 	andseq	r4, r3, #180224	; 0x2c000
 14c:	0642b706 	strbeq	fp, [r2], -r6, lsl #14
 150:	0f180000 	svceq	0x00180000
 154:	490b0b00 	stmdbmi	fp, {r8, r9, fp}
 158:	19000013 	stmdbne	r0, {r0, r1, r4}
 15c:	08030034 	stmdaeq	r3, {r2, r4, r5}
 160:	0b3b0b3a 	bleq	ec2e50 <__RAM_SIZE+0xdc2e50>
 164:	13490b39 	movtne	r0, #39737	; 0x9b39
 168:	00000b1c 	andeq	r0, r0, ip, lsl fp
 16c:	3f002e1a 	svccc	0x00002e1a
 170:	870c3c0c 	strhi	r3, [ip, -ip, lsl #24]
 174:	0e030e40 	cdpeq	14, 0, cr0, cr3, cr0, {2}
 178:	0b3b0b3a 	bleq	ec2e68 <__RAM_SIZE+0xdc2e68>
 17c:	00000b39 	andeq	r0, r0, r9, lsr fp
 180:	3f002e1b 	svccc	0x00002e1b
 184:	870c3c0c 	strhi	r3, [ip, -ip, lsl #24]
 188:	0e030e40 	cdpeq	14, 0, cr0, cr3, cr0, {2}
 18c:	0b3b0b3a 	bleq	ec2e7c <__RAM_SIZE+0xdc2e7c>
 190:	01000000 	mrseq	r0, (UNDEF: 0)
 194:	0e250111 	mcreq	1, 1, r0, cr5, cr1, {0}
 198:	0e030b13 	vmoveq.32	d3[0], r0
 19c:	06550e1b 			; <UNDEFINED> instruction: 0x06550e1b
 1a0:	01520111 	cmpeq	r2, r1, lsl r1
 1a4:	00000610 	andeq	r0, r0, r0, lsl r6
 1a8:	0b002402 	bleq	91b8 <__HEAP_SIZE+0x81b8>
 1ac:	030b3e0b 	movweq	r3, #48651	; 0xbe0b
 1b0:	0300000e 	movweq	r0, #14
 1b4:	0e030016 	mcreq	0, 0, r0, cr3, cr6, {0}
 1b8:	0b3b0b3a 	bleq	ec2ea8 <__RAM_SIZE+0xdc2ea8>
 1bc:	13490b39 	movtne	r0, #39737	; 0x9b39
 1c0:	24040000 	strcs	r0, [r4], #-0
 1c4:	3e0b0b00 	vmlacc.f64	d0, d11, d0
 1c8:	0008030b 	andeq	r0, r8, fp, lsl #6
 1cc:	00350500 	eorseq	r0, r5, r0, lsl #10
 1d0:	00001349 	andeq	r1, r0, r9, asr #6
 1d4:	49002606 	stmdbmi	r0, {r1, r2, r9, sl, sp}
 1d8:	07000013 	smladeq	r0, r3, r0, r0
 1dc:	050b0113 	streq	r0, [fp, #-275]	; 0xfffffeed
 1e0:	053b0b3a 	ldreq	r0, [fp, #-2874]!	; 0xfffff4c6
 1e4:	13010b39 	movwne	r0, #6969	; 0x1b39
 1e8:	0d080000 	stceq	0, cr0, [r8, #-0]
 1ec:	3a0e0300 	bcc	380df4 <__RAM_SIZE+0x280df4>
 1f0:	39053b0b 	stmdbcc	r5, {r0, r1, r3, r8, r9, fp, ip, sp}
 1f4:	3813490b 	ldmdacc	r3, {r0, r1, r3, r8, fp, lr}
 1f8:	0900000a 	stmdbeq	r0, {r1, r3}
 1fc:	0803000d 	stmdaeq	r3, {r0, r2, r3}
 200:	053b0b3a 	ldreq	r0, [fp, #-2874]!	; 0xfffff4c6
 204:	13490b39 	movtne	r0, #39737	; 0x9b39
 208:	00000a38 	andeq	r0, r0, r8, lsr sl
 20c:	4901010a 	stmdbmi	r1, {r1, r3, r8}
 210:	00130113 	andseq	r0, r3, r3, lsl r1
 214:	00210b00 	eoreq	r0, r1, r0, lsl #22
 218:	0b2f1349 	bleq	bc4f44 <__RAM_SIZE+0xac4f44>
 21c:	160c0000 	strne	r0, [ip], -r0
 220:	3a0e0300 	bcc	380e28 <__RAM_SIZE+0x280e28>
 224:	39053b0b 	stmdbcc	r5, {r0, r1, r3, r8, r9, fp, ip, sp}
 228:	0013490b 	andseq	r4, r3, fp, lsl #18
 22c:	000f0d00 	andeq	r0, pc, r0, lsl #26
 230:	13490b0b 	movtne	r0, #39691	; 0x9b0b
 234:	150e0000 	strne	r0, [lr, #-0]
 238:	000c2700 	andeq	r2, ip, r0, lsl #14
 23c:	00340f00 	eorseq	r0, r4, r0, lsl #30
 240:	0b3a0e03 	bleq	e83a54 <__RAM_SIZE+0xd83a54>
 244:	0b390b3b 	bleq	e42f38 <__RAM_SIZE+0xd42f38>
 248:	0c3f1349 	ldceq	3, cr1, [pc], #-292	; 12c <__STACKSEAL_SIZE+0x12c>
 24c:	00000c3c 	andeq	r0, r0, ip, lsr ip
 250:	49002110 	stmdbmi	r0, {r4, r8, sp}
 254:	00052f13 	andeq	r2, r5, r3, lsl pc
 258:	00341100 	eorseq	r1, r4, r0, lsl #2
 25c:	0b3a1347 	bleq	e84f80 <__RAM_SIZE+0xd84f80>
 260:	0b390b3b 	bleq	e42f54 <__RAM_SIZE+0xd42f54>
 264:	00000a02 	andeq	r0, r0, r2, lsl #20
 268:	3f002e12 	svccc	0x00002e12
 26c:	3a0e030c 	bcc	380ea4 <__RAM_SIZE+0x280ea4>
 270:	390b3b0b 	stmdbcc	fp, {r0, r1, r3, r8, r9, fp, ip, sp}
 274:	110c270b 	tstne	ip, fp, lsl #14
 278:	40011201 	andmi	r1, r1, r1, lsl #4
 27c:	0c42970a 	mcrreq	7, 0, r9, r2, cr10
 280:	01000000 	mrseq	r0, (UNDEF: 0)
 284:	0e250111 	mcreq	1, 1, r0, cr5, cr1, {0}
 288:	0e030b13 	vmoveq.32	d3[0], r0
 28c:	06550e1b 			; <UNDEFINED> instruction: 0x06550e1b
 290:	01520111 	cmpeq	r2, r1, lsl r1
 294:	00000610 	andeq	r0, r0, r0, lsl r6
 298:	0b002402 	bleq	92a8 <__HEAP_SIZE+0x82a8>
 29c:	030b3e0b 	movweq	r3, #48651	; 0xbe0b
 2a0:	0300000e 	movweq	r0, #14
 2a4:	13490026 	movtne	r0, #36902	; 0x9026
 2a8:	16040000 	strne	r0, [r4], -r0
 2ac:	3a0e0300 	bcc	380eb4 <__RAM_SIZE+0x280eb4>
 2b0:	390b3b0b 	stmdbcc	fp, {r0, r1, r3, r8, r9, fp, ip, sp}
 2b4:	0013490b 	andseq	r4, r3, fp, lsl #18
 2b8:	00240500 	eoreq	r0, r4, r0, lsl #10
 2bc:	0b3e0b0b 	bleq	f82ef0 <__RAM_SIZE+0xe82ef0>
 2c0:	00000803 	andeq	r0, r0, r3, lsl #16
 2c4:	03011306 	movweq	r1, #4870	; 0x1306
 2c8:	3a0b0b0e 	bcc	2c2f08 <__RAM_SIZE+0x1c2f08>
 2cc:	010b3b0b 	tsteq	fp, fp, lsl #22
 2d0:	07000013 	smladeq	r0, r3, r0, r0
 2d4:	0e03000d 	cdpeq	0, 0, cr0, cr3, cr13, {0}
 2d8:	0a381349 	beq	e05004 <__RAM_SIZE+0xd05004>
 2dc:	00000c34 	andeq	r0, r0, r4, lsr ip
 2e0:	0b000f08 	bleq	3f08 <__HEAP_SIZE+0x2f08>
 2e4:	0900000b 	stmdbeq	r0, {r0, r1, r3}
 2e8:	0b0b000f 	bleq	2c032c <__RAM_SIZE+0x1c032c>
 2ec:	00001349 	andeq	r1, r0, r9, asr #6
 2f0:	2701150a 	strcs	r1, [r1, -sl, lsl #10]
 2f4:	0013010c 	andseq	r0, r3, ip, lsl #2
 2f8:	00050b00 	andeq	r0, r5, r0, lsl #22
 2fc:	00001349 	andeq	r1, r0, r9, asr #6
 300:	0b01130c 	bleq	44f38 <__HEAP_SIZE+0x43f38>
 304:	3b0b3a0b 	blcc	2ceb38 <__RAM_SIZE+0x1ceb38>
 308:	010b390b 	tsteq	fp, fp, lsl #18
 30c:	0d000013 	stceq	0, cr0, [r0, #-76]	; 0xffffffb4
 310:	0803000d 	stmdaeq	r3, {r0, r2, r3}
 314:	0b3b0b3a 	bleq	ec3004 <__RAM_SIZE+0xdc3004>
 318:	13490b39 	movtne	r0, #39737	; 0x9b39
 31c:	00000a38 	andeq	r0, r0, r8, lsr sl
 320:	3f012e0e 	svccc	0x00012e0e
 324:	3a0e030c 	bcc	380f5c <__RAM_SIZE+0x280f5c>
 328:	39053b0b 	stmdbcc	r5, {r0, r1, r3, r8, r9, fp, ip, sp}
 32c:	490c270b 	stmdbmi	ip, {r0, r1, r3, r8, r9, sl, sp}
 330:	12011113 	andne	r1, r1, #-1073741820	; 0xc0000004
 334:	97064001 	strls	r4, [r6, -r1]
 338:	13010c42 	movwne	r0, #7234	; 0x1c42
 33c:	050f0000 	streq	r0, [pc, #-0]	; 344 <__STACKSEAL_SIZE+0x344>
 340:	3a080300 	bcc	200f48 <__RAM_SIZE+0x100f48>
 344:	39053b0b 	stmdbcc	r5, {r0, r1, r3, r8, r9, fp, ip, sp}
 348:	0213490b 	andseq	r4, r3, #180224	; 0x2c000
 34c:	0642b706 	strbeq	fp, [r2], -r6, lsl #14
 350:	05100000 	ldreq	r0, [r0, #-0]
 354:	3a0e0300 	bcc	380f5c <__RAM_SIZE+0x280f5c>
 358:	39053b0b 	stmdbcc	r5, {r0, r1, r3, r8, r9, fp, ip, sp}
 35c:	0213490b 	andseq	r4, r3, #180224	; 0x2c000
 360:	1100000a 	tstne	r0, sl
 364:	00000018 	andeq	r0, r0, r8, lsl r0
 368:	03003412 	movweq	r3, #1042	; 0x412
 36c:	3b0b3a08 	blcc	2ceb94 <__RAM_SIZE+0x1ceb94>
 370:	490b3905 	stmdbmi	fp, {r0, r2, r8, fp, ip, sp}
 374:	000a0213 	andeq	r0, sl, r3, lsl r2
 378:	00341300 	eorseq	r1, r4, r0, lsl #6
 37c:	0b3a0e03 	bleq	e83b90 <__RAM_SIZE+0xd83b90>
 380:	0b39053b 	bleq	e41874 <__RAM_SIZE+0xd41874>
 384:	0a021349 	beq	850b0 <__HEAP_SIZE+0x840b0>
 388:	34140000 	ldrcc	r0, [r4], #-0
 38c:	3a080300 	bcc	200f94 <__RAM_SIZE+0x100f94>
 390:	39053b0b 	stmdbcc	r5, {r0, r1, r3, r8, r9, fp, ip, sp}
 394:	0213490b 	andseq	r4, r3, #180224	; 0x2c000
 398:	0642b706 	strbeq	fp, [r2], -r6, lsl #14
 39c:	89150000 	ldmdbhi	r5, {}	; <UNPREDICTABLE>
 3a0:	11010182 	smlabbne	r1, r2, r1, r0
 3a4:	00133101 	andseq	r3, r3, r1, lsl #2
 3a8:	828a1600 	addhi	r1, sl, #0, 12
 3ac:	0a020001 	beq	803b8 <__HEAP_SIZE+0x7f3b8>
 3b0:	000a4291 	muleq	sl, r1, r2
 3b4:	00051700 	andeq	r1, r5, r0, lsl #14
 3b8:	0b3a0e03 	bleq	e83bcc <__RAM_SIZE+0xd83bcc>
 3bc:	0b39053b 	bleq	e418b0 <__RAM_SIZE+0xd418b0>
 3c0:	06021349 	streq	r1, [r2], -r9, asr #6
 3c4:	000642b7 			; <UNDEFINED> instruction: 0x000642b7
 3c8:	01011800 	tsteq	r1, r0, lsl #16
 3cc:	13011349 	movwne	r1, #4937	; 0x1349
 3d0:	21190000 	tstcs	r9, r0
 3d4:	2f134900 	svccs	0x00134900
 3d8:	1a00000b 	bne	40c <__STACKSEAL_SIZE+0x40c>
 3dc:	0e03012e 	adfeqsp	f0, f3, #0.5
 3e0:	053b0b3a 	ldreq	r0, [fp, #-2874]!	; 0xfffff4c6
 3e4:	0c270b39 			; <UNDEFINED> instruction: 0x0c270b39
 3e8:	01111349 	tsteq	r1, r9, asr #6
 3ec:	06400112 			; <UNDEFINED> instruction: 0x06400112
 3f0:	010c4297 			; <UNDEFINED> instruction: 0x010c4297
 3f4:	1b000013 	blne	448 <__STACKSEAL_SIZE+0x448>
 3f8:	08030005 	stmdaeq	r3, {r0, r2}
 3fc:	053b0b3a 	ldreq	r0, [fp, #-2874]!	; 0xfffff4c6
 400:	13490b39 	movtne	r0, #39737	; 0x9b39
 404:	00000a02 	andeq	r0, r0, r2, lsl #20
 408:	0300341c 	movweq	r3, #1052	; 0x41c
 40c:	3b0b3a0e 	blcc	2cec4c <__RAM_SIZE+0x1cec4c>
 410:	490b3905 	stmdbmi	fp, {r0, r2, r8, fp, ip, sp}
 414:	b7060213 	smladlt	r6, r3, r2, r0
 418:	00000642 	andeq	r0, r0, r2, asr #12
 41c:	11010b1d 	tstne	r1, sp, lsl fp
 420:	01011201 	tsteq	r1, r1, lsl #4
 424:	1e000013 	mcrne	0, 0, r0, cr0, cr3, {0}
 428:	0655010b 	ldrbeq	r0, [r5], -fp, lsl #2
 42c:	00001301 	andeq	r1, r0, r1, lsl #6
 430:	0300341f 	movweq	r3, #1055	; 0x41f
 434:	3b0b3a0e 	blcc	2cec74 <__RAM_SIZE+0x1cec74>
 438:	490b3905 	stmdbmi	fp, {r0, r2, r8, fp, ip, sp}
 43c:	20000013 	andcs	r0, r0, r3, lsl r0
 440:	01018289 	smlabbeq	r1, r9, r2, r8
 444:	13310111 	teqne	r1, #1073741828	; 0x40000004
 448:	00001301 	andeq	r1, r0, r1, lsl #6
 44c:	01828921 	orreq	r8, r2, r1, lsr #18
 450:	01011101 	tsteq	r1, r1, lsl #2
 454:	22000013 	andcs	r0, r0, #19
 458:	01018289 	smlabbeq	r1, r9, r2, r8
 45c:	00000111 	andeq	r0, r0, r1, lsl r1
 460:	31011d23 	tstcc	r1, r3, lsr #26
 464:	12011113 	andne	r1, r1, #-1073741820	; 0xc0000004
 468:	590b5801 	stmdbpl	fp, {r0, fp, ip, lr}
 46c:	010b5705 	tsteq	fp, r5, lsl #14
 470:	24000013 	strcs	r0, [r0], #-19	; 0xffffffed
 474:	13310005 	teqne	r1, #5
 478:	42b70602 	adcsmi	r0, r7, #2097152	; 0x200000
 47c:	25000006 	strcs	r0, [r0, #-6]
 480:	13310005 	teqne	r1, #5
 484:	34260000 	strtcc	r0, [r6], #-0
 488:	02133100 	andseq	r3, r3, #0, 2
 48c:	0642b706 	strbeq	fp, [r2], -r6, lsl #14
 490:	1d270000 	stcne	0, cr0, [r7, #-0]
 494:	52133101 	andspl	r3, r3, #1073741824	; 0x40000000
 498:	0542b801 	strbeq	fp, [r2, #-2049]	; 0xfffff7ff
 49c:	01120111 	tsteq	r2, r1, lsl r1
 4a0:	05590b58 	ldrbeq	r0, [r9, #-2904]	; 0xfffff4a8
 4a4:	13010b57 	movwne	r0, #6999	; 0x1b57
 4a8:	89280000 	stmdbhi	r8!, {}	; <UNPREDICTABLE>
 4ac:	11010182 	smlabbne	r1, r2, r1, r0
 4b0:	0a429301 	beq	10a50bc <__RAM_SIZE+0xfa50bc>
 4b4:	00001301 	andeq	r1, r0, r1, lsl #6
 4b8:	0b011729 	bleq	46164 <__HEAP_SIZE+0x45164>
 4bc:	3b0b3a0b 	blcc	2cecf0 <__RAM_SIZE+0x1cecf0>
 4c0:	010b3905 	tsteq	fp, r5, lsl #18
 4c4:	2a000013 	bcs	518 <__STACKSEAL_SIZE+0x518>
 4c8:	0803000d 	stmdaeq	r3, {r0, r2, r3}
 4cc:	053b0b3a 	ldreq	r0, [fp, #-2874]!	; 0xfffff4c6
 4d0:	13490b39 	movtne	r0, #39737	; 0x9b39
 4d4:	892b0000 	stmdbhi	fp!, {}	; <UNPREDICTABLE>
 4d8:	11000182 	smlabbne	r0, r2, r1, r0
 4dc:	00133101 	andseq	r3, r3, r1, lsl #2
 4e0:	012e2c00 			; <UNDEFINED> instruction: 0x012e2c00
 4e4:	0b3a0e03 	bleq	e83cf8 <__RAM_SIZE+0xd83cf8>
 4e8:	0b390b3b 	bleq	e431dc <__RAM_SIZE+0xd431dc>
 4ec:	13490c27 	movtne	r0, #39975	; 0x9c27
 4f0:	01120111 	tsteq	r2, r1, lsl r1
 4f4:	42970640 	addsmi	r0, r7, #64, 12	; 0x4000000
 4f8:	0013010c 	andseq	r0, r3, ip, lsl #2
 4fc:	00052d00 	andeq	r2, r5, r0, lsl #26
 500:	0b3a0803 	bleq	e82514 <__RAM_SIZE+0xd82514>
 504:	0b390b3b 	bleq	e431f8 <__RAM_SIZE+0xd431f8>
 508:	06021349 	streq	r1, [r2], -r9, asr #6
 50c:	000642b7 			; <UNDEFINED> instruction: 0x000642b7
 510:	00052e00 	andeq	r2, r5, r0, lsl #28
 514:	0b3a0e03 	bleq	e83d28 <__RAM_SIZE+0xd83d28>
 518:	0b390b3b 	bleq	e4320c <__RAM_SIZE+0xd4320c>
 51c:	06021349 	streq	r1, [r2], -r9, asr #6
 520:	000642b7 			; <UNDEFINED> instruction: 0x000642b7
 524:	00342f00 	eorseq	r2, r4, r0, lsl #30
 528:	0b3a0e03 	bleq	e83d3c <__RAM_SIZE+0xd83d3c>
 52c:	0b390b3b 	bleq	e43220 <__RAM_SIZE+0xd43220>
 530:	06021349 	streq	r1, [r2], -r9, asr #6
 534:	000642b7 			; <UNDEFINED> instruction: 0x000642b7
 538:	00343000 	eorseq	r3, r4, r0
 53c:	0b3a0803 	bleq	e82550 <__RAM_SIZE+0xd82550>
 540:	0b390b3b 	bleq	e43234 <__RAM_SIZE+0xd43234>
 544:	06021349 	streq	r1, [r2], -r9, asr #6
 548:	000642b7 			; <UNDEFINED> instruction: 0x000642b7
 54c:	012e3100 			; <UNDEFINED> instruction: 0x012e3100
 550:	0b3a0e03 	bleq	e83d64 <__RAM_SIZE+0xd83d64>
 554:	0b390b3b 	bleq	e43248 <__RAM_SIZE+0xd43248>
 558:	13490c27 	movtne	r0, #39975	; 0x9c27
 55c:	01120111 	tsteq	r2, r1, lsl r1
 560:	42970a40 	addsmi	r0, r7, #64, 20	; 0x40000
 564:	0013010c 	andseq	r0, r3, ip, lsl #2
 568:	011d3200 	tsteq	sp, r0, lsl #4
 56c:	01521331 	cmpeq	r2, r1, lsr r3
 570:	110542b8 			; <UNDEFINED> instruction: 0x110542b8
 574:	58011201 	stmdapl	r1, {r0, r9, ip}
 578:	570b590b 	strpl	r5, [fp, -fp, lsl #18]
 57c:	3300000b 	movwcc	r0, #11
 580:	0e03012e 	adfeqsp	f0, f3, #0.5
 584:	0b3b0b3a 	bleq	ec3274 <__RAM_SIZE+0xdc3274>
 588:	0c270b39 			; <UNDEFINED> instruction: 0x0c270b39
 58c:	0b201349 	bleq	8052b8 <__RAM_SIZE+0x7052b8>
 590:	00001301 	andeq	r1, r0, r1, lsl #6
 594:	03000534 	movweq	r0, #1332	; 0x534
 598:	3b0b3a08 	blcc	2cedc0 <__RAM_SIZE+0x1cedc0>
 59c:	490b390b 	stmdbmi	fp, {r0, r1, r3, r8, fp, ip, sp}
 5a0:	35000013 	strcc	r0, [r0, #-19]	; 0xffffffed
 5a4:	0e030005 	cdpeq	0, 0, cr0, cr3, cr5, {0}
 5a8:	0b3b0b3a 	bleq	ec3298 <__RAM_SIZE+0xdc3298>
 5ac:	13490b39 	movtne	r0, #39737	; 0x9b39
 5b0:	34360000 	ldrtcc	r0, [r6], #-0
 5b4:	3a080300 	bcc	2011bc <__RAM_SIZE+0x1011bc>
 5b8:	390b3b0b 	stmdbcc	fp, {r0, r1, r3, r8, r9, fp, ip, sp}
 5bc:	0013490b 	andseq	r4, r3, fp, lsl #18
 5c0:	012e3700 			; <UNDEFINED> instruction: 0x012e3700
 5c4:	0b3a0e03 	bleq	e83dd8 <__RAM_SIZE+0xd83dd8>
 5c8:	0b390b3b 	bleq	e432bc <__RAM_SIZE+0xd432bc>
 5cc:	01110c27 	tsteq	r1, r7, lsr #24
 5d0:	06400112 			; <UNDEFINED> instruction: 0x06400112
 5d4:	010c4296 			; <UNDEFINED> instruction: 0x010c4296
 5d8:	38000013 	stmdacc	r0, {r0, r1, r4}
 5dc:	0e03012e 	adfeqsp	f0, f3, #0.5
 5e0:	0b3b0b3a 	bleq	ec32d0 <__RAM_SIZE+0xdc32d0>
 5e4:	0c270b39 			; <UNDEFINED> instruction: 0x0c270b39
 5e8:	01120111 	tsteq	r2, r1, lsl r1
 5ec:	42970640 	addsmi	r0, r7, #64, 12	; 0x4000000
 5f0:	0013010c 	andseq	r0, r3, ip, lsl #2
 5f4:	012e3900 			; <UNDEFINED> instruction: 0x012e3900
 5f8:	0b3a0e03 	bleq	e83e0c <__RAM_SIZE+0xd83e0c>
 5fc:	0b390b3b 	bleq	e432f0 <__RAM_SIZE+0xd432f0>
 600:	01110c27 	tsteq	r1, r7, lsr #24
 604:	0a400112 	beq	1000a54 <__RAM_SIZE+0xf00a54>
 608:	010c4297 			; <UNDEFINED> instruction: 0x010c4297
 60c:	3a000013 	bcc	660 <__STACKSEAL_SIZE+0x660>
 610:	0e030005 	cdpeq	0, 0, cr0, cr3, cr5, {0}
 614:	0b3b0b3a 	bleq	ec3304 <__RAM_SIZE+0xdc3304>
 618:	13490b39 	movtne	r0, #39737	; 0x9b39
 61c:	00000a02 	andeq	r0, r0, r2, lsl #20
 620:	0300053b 	movweq	r0, #1339	; 0x53b
 624:	3b0b3a08 	blcc	2cee4c <__RAM_SIZE+0x1cee4c>
 628:	490b390b 	stmdbmi	fp, {r0, r1, r3, r8, fp, ip, sp}
 62c:	000a0213 	andeq	r0, sl, r3, lsl r2
 630:	002e3c00 	eoreq	r3, lr, r0, lsl #24
 634:	0c3c0c3f 	ldceq	12, cr0, [ip], #-252	; 0xffffff04
 638:	030e4087 	movweq	r4, #57479	; 0xe087
 63c:	3d00000e 	stccc	0, cr0, [r0, #-56]	; 0xffffffc8
 640:	0c3f002e 	ldceq	0, cr0, [pc], #-184	; 590 <__STACKSEAL_SIZE+0x590>
 644:	40870c3c 	addmi	r0, r7, ip, lsr ip
 648:	3a0e030e 	bcc	381288 <__RAM_SIZE+0x281288>
 64c:	390b3b0b 	stmdbcc	fp, {r0, r1, r3, r8, r9, fp, ip, sp}
 650:	0000000b 	andeq	r0, r0, fp
 654:	25011101 	strcs	r1, [r1, #-257]	; 0xfffffeff
 658:	030b130e 	movweq	r1, #45838	; 0xb30e
 65c:	550e1b0e 	strpl	r1, [lr, #-2830]	; 0xfffff4f2
 660:	52011106 	andpl	r1, r1, #-2147483647	; 0x80000001
 664:	00061001 	andeq	r1, r6, r1
 668:	00240200 	eoreq	r0, r4, r0, lsl #4
 66c:	0b3e0b0b 	bleq	f832a0 <__RAM_SIZE+0xe832a0>
 670:	00000e03 	andeq	r0, r0, r3, lsl #28
 674:	03001603 	movweq	r1, #1539	; 0x603
 678:	3b0b3a0e 	blcc	2ceeb8 <__RAM_SIZE+0x1ceeb8>
 67c:	490b390b 	stmdbmi	fp, {r0, r1, r3, r8, fp, ip, sp}
 680:	04000013 	streq	r0, [r0], #-19	; 0xffffffed
 684:	0b0b0024 	bleq	2c071c <__RAM_SIZE+0x1c071c>
 688:	08030b3e 	stmdaeq	r3, {r1, r2, r3, r4, r5, r8, r9, fp}
 68c:	26050000 	strcs	r0, [r5], -r0
 690:	00134900 	andseq	r4, r3, r0, lsl #18
 694:	000f0600 	andeq	r0, pc, r0, lsl #12
 698:	13490b0b 	movtne	r0, #39691	; 0x9b0b
 69c:	2e070000 	cdpcs	0, 0, cr0, cr7, cr0, {0}
 6a0:	030c3f01 	movweq	r3, #52993	; 0xcf01
 6a4:	3b0b3a0e 	blcc	2ceee4 <__RAM_SIZE+0x1ceee4>
 6a8:	270b390b 	strcs	r3, [fp, -fp, lsl #18]
 6ac:	1113490c 	tstne	r3, ip, lsl #18
 6b0:	40011201 	andmi	r1, r1, r1, lsl #4
 6b4:	0c429706 	mcrreq	7, 0, r9, r2, cr6
 6b8:	00001301 	andeq	r1, r0, r1, lsl #6
 6bc:	03000508 	movweq	r0, #1288	; 0x508
 6c0:	3b0b3a0e 	blcc	2cef00 <__RAM_SIZE+0x1cef00>
 6c4:	490b390b 	stmdbmi	fp, {r0, r1, r3, r8, fp, ip, sp}
 6c8:	b7060213 	smladlt	r6, r3, r2, r0
 6cc:	00000642 	andeq	r0, r0, r2, asr #12
 6d0:	03003409 	movweq	r3, #1033	; 0x409
 6d4:	3b0b3a08 	blcc	2ceefc <__RAM_SIZE+0x1ceefc>
 6d8:	490b390b 	stmdbmi	fp, {r0, r1, r3, r8, fp, ip, sp}
 6dc:	b7060213 	smladlt	r6, r3, r2, r0
 6e0:	00000642 	andeq	r0, r0, r2, asr #12
 6e4:	0182890a 	orreq	r8, r2, sl, lsl #18
 6e8:	31011100 	mrscc	r1, (UNDEF: 17)
 6ec:	0b000013 	bleq	740 <__STACKSEAL_SIZE+0x740>
 6f0:	0c3f012e 	ldfeqs	f0, [pc], #-184	; 640 <__STACKSEAL_SIZE+0x640>
 6f4:	0b3a0e03 	bleq	e83f08 <__RAM_SIZE+0xd83f08>
 6f8:	0b390b3b 	bleq	e433ec <__RAM_SIZE+0xd433ec>
 6fc:	01110c27 	tsteq	r1, r7, lsr #24
 700:	06400112 			; <UNDEFINED> instruction: 0x06400112
 704:	010c4297 			; <UNDEFINED> instruction: 0x010c4297
 708:	0c000013 	stceq	0, cr0, [r0], {19}
 70c:	01018289 	smlabbeq	r1, r9, r2, r8
 710:	13310111 	teqne	r1, #1073741828	; 0x40000004
 714:	8a0d0000 	bhi	34071c <__RAM_SIZE+0x24071c>
 718:	02000182 	andeq	r0, r0, #-2147483616	; 0x80000020
 71c:	0a42910a 	beq	10a4b4c <__RAM_SIZE+0xfa4b4c>
 720:	2e0e0000 	cdpcs	0, 0, cr0, cr14, cr0, {0}
 724:	030c3f00 	movweq	r3, #52992	; 0xcf00
 728:	3b0b3a0e 	blcc	2cef68 <__RAM_SIZE+0x1cef68>
 72c:	270b390b 	strcs	r3, [fp, -fp, lsl #18]
 730:	1201110c 	andne	r1, r1, #12, 2
 734:	970a4001 	strls	r4, [sl, -r1]
 738:	00000c42 	andeq	r0, r0, r2, asr #24
 73c:	0300340f 	movweq	r3, #1039	; 0x40f
 740:	3b0b3a0e 	blcc	2cef80 <__RAM_SIZE+0x1cef80>
 744:	490b390b 	stmdbmi	fp, {r0, r1, r3, r8, fp, ip, sp}
 748:	b7060213 	smladlt	r6, r3, r2, r0
 74c:	00000642 	andeq	r0, r0, r2, asr #12
 750:	3f002e10 	svccc	0x00002e10
 754:	3a0e030c 	bcc	38138c <__RAM_SIZE+0x28138c>
 758:	390b3b0b 	stmdbcc	fp, {r0, r1, r3, r8, r9, fp, ip, sp}
 75c:	490c270b 	stmdbmi	ip, {r0, r1, r3, r8, r9, sl, sp}
 760:	12011113 	andne	r1, r1, #-1073741820	; 0xc0000004
 764:	970a4001 	strls	r4, [sl, -r1]
 768:	00000c42 	andeq	r0, r0, r2, asr #24
 76c:	3f012e11 	svccc	0x00012e11
 770:	3a0e030c 	bcc	3813a8 <__RAM_SIZE+0x2813a8>
 774:	390b3b0b 	stmdbcc	fp, {r0, r1, r3, r8, r9, fp, ip, sp}
 778:	490c270b 	stmdbmi	ip, {r0, r1, r3, r8, r9, sl, sp}
 77c:	12011113 	andne	r1, r1, #-1073741820	; 0xc0000004
 780:	970a4001 	strls	r4, [sl, -r1]
 784:	00000c42 	andeq	r0, r0, r2, asr #24
 788:	03000512 	movweq	r0, #1298	; 0x512
 78c:	3b0b3a08 	blcc	2cefb4 <__RAM_SIZE+0x1cefb4>
 790:	490b390b 	stmdbmi	fp, {r0, r1, r3, r8, fp, ip, sp}
 794:	b7060213 	smladlt	r6, r3, r2, r0
 798:	00000642 	andeq	r0, r0, r2, asr #12
 79c:	01110100 	tsteq	r1, r0, lsl #2
 7a0:	0b130e25 	bleq	4c403c <__RAM_SIZE+0x3c403c>
 7a4:	0e1b0e03 	cdpeq	14, 1, cr0, cr11, cr3, {0}
 7a8:	01110655 	tsteq	r1, r5, asr r6
 7ac:	06100152 			; <UNDEFINED> instruction: 0x06100152
 7b0:	24020000 	strcs	r0, [r2], #-0
 7b4:	3e0b0b00 	vmlacc.f64	d0, d11, d0
 7b8:	000e030b 	andeq	r0, lr, fp, lsl #6
 7bc:	00160300 	andseq	r0, r6, r0, lsl #6
 7c0:	0b3a0e03 	bleq	e83fd4 <__RAM_SIZE+0xd83fd4>
 7c4:	0b390b3b 	bleq	e434b8 <__RAM_SIZE+0xd434b8>
 7c8:	00001349 	andeq	r1, r0, r9, asr #6
 7cc:	0b002404 	bleq	97e4 <__HEAP_SIZE+0x87e4>
 7d0:	030b3e0b 	movweq	r3, #48651	; 0xbe0b
 7d4:	05000008 	streq	r0, [r0, #-8]
 7d8:	13490035 	movtne	r0, #36917	; 0x9035
 7dc:	13060000 	movwne	r0, #24576	; 0x6000
 7e0:	0b0e0301 	bleq	3813ec <__RAM_SIZE+0x2813ec>
 7e4:	3b0b3a0b 	blcc	2cf018 <__RAM_SIZE+0x1cf018>
 7e8:	010b390b 	tsteq	fp, fp, lsl #18
 7ec:	07000013 	smladeq	r0, r3, r0, r0
 7f0:	0803000d 	stmdaeq	r3, {r0, r2, r3}
 7f4:	0b3b0b3a 	bleq	ec34e4 <__RAM_SIZE+0xdc34e4>
 7f8:	13490b39 	movtne	r0, #39737	; 0x9b39
 7fc:	00000a38 	andeq	r0, r0, r8, lsr sl
 800:	03000d08 	movweq	r0, #3336	; 0xd08
 804:	3b0b3a0e 	blcc	2cf044 <__RAM_SIZE+0x1cf044>
 808:	490b390b 	stmdbmi	fp, {r0, r1, r3, r8, fp, ip, sp}
 80c:	000a3813 	andeq	r3, sl, r3, lsl r8
 810:	00340900 	eorseq	r0, r4, r0, lsl #18
 814:	0b3a0e03 	bleq	e84028 <__RAM_SIZE+0xd84028>
 818:	0b390b3b 	bleq	e4350c <__RAM_SIZE+0xd4350c>
 81c:	0c3f1349 	ldceq	3, cr1, [pc], #-292	; 700 <__STACKSEAL_SIZE+0x700>
 820:	00000c3c 	andeq	r0, r0, ip, lsr ip
 824:	0300340a 	movweq	r3, #1034	; 0x40a
 828:	3b0b3a0e 	blcc	2cf068 <__RAM_SIZE+0x1cf068>
 82c:	490b390b 	stmdbmi	fp, {r0, r1, r3, r8, fp, ip, sp}
 830:	020c3f13 	andeq	r3, ip, #19, 30	; 0x4c
 834:	0b00000a 	bleq	864 <__Vectors_Size+0xa4>
 838:	0c3f002e 	ldceq	0, cr0, [pc], #-184	; 788 <__STACKSEAL_SIZE+0x788>
 83c:	0b3a0e03 	bleq	e84050 <__RAM_SIZE+0xd84050>
 840:	0b39053b 	bleq	e41d34 <__RAM_SIZE+0xd41d34>
 844:	13490c27 	movtne	r0, #39975	; 0x9c27
 848:	01120111 	tsteq	r2, r1, lsl r1
 84c:	42970a40 	addsmi	r0, r7, #64, 20	; 0x40000
 850:	0c00000c 	stceq	0, cr0, [r0], {12}
 854:	0c3f012e 	ldfeqs	f0, [pc], #-184	; 7a4 <__STACKSEAL_SIZE+0x7a4>
 858:	0b3a0e03 	bleq	e8406c <__RAM_SIZE+0xd8406c>
 85c:	0b39053b 	bleq	e41d50 <__RAM_SIZE+0xd41d50>
 860:	13490c27 	movtne	r0, #39975	; 0x9c27
 864:	01120111 	tsteq	r2, r1, lsl r1
 868:	42970a40 	addsmi	r0, r7, #64, 20	; 0x40000
 86c:	0013010c 	andseq	r0, r3, ip, lsl #2
 870:	011d0d00 	tsteq	sp, r0, lsl #26
 874:	01521331 	cmpeq	r2, r1, lsr r3
 878:	110b42b8 			; <UNDEFINED> instruction: 0x110b42b8
 87c:	58011201 	stmdapl	r1, {r0, r9, ip}
 880:	5705590b 	strpl	r5, [r5, -fp, lsl #18]
 884:	0e00000b 	cdpeq	0, 0, cr0, cr0, cr11, {0}
 888:	13310034 	teqne	r1, #52	; 0x34
 88c:	42b70602 	adcsmi	r0, r7, #2097152	; 0x200000
 890:	0f000006 	svceq	0x00000006
 894:	0c3f012e 	ldfeqs	f0, [pc], #-184	; 7e4 <__Vectors_Size+0x24>
 898:	0b3a0e03 	bleq	e840ac <__RAM_SIZE+0xd840ac>
 89c:	0b390b3b 	bleq	e43590 <__RAM_SIZE+0xd43590>
 8a0:	13490c27 	movtne	r0, #39975	; 0x9c27
 8a4:	01120111 	tsteq	r2, r1, lsl r1
 8a8:	42970640 	addsmi	r0, r7, #64, 12	; 0x4000000
 8ac:	0013010c 	andseq	r0, r3, ip, lsl #2
 8b0:	00051000 	andeq	r1, r5, r0
 8b4:	0b3a0e03 	bleq	e840c8 <__RAM_SIZE+0xd840c8>
 8b8:	0b390b3b 	bleq	e435ac <__RAM_SIZE+0xd435ac>
 8bc:	06021349 	streq	r1, [r2], -r9, asr #6
 8c0:	000642b7 			; <UNDEFINED> instruction: 0x000642b7
 8c4:	00341100 	eorseq	r1, r4, r0, lsl #2
 8c8:	0b3a0e03 	bleq	e840dc <__RAM_SIZE+0xd840dc>
 8cc:	0b390b3b 	bleq	e435c0 <__RAM_SIZE+0xd435c0>
 8d0:	06021349 	streq	r1, [r2], -r9, asr #6
 8d4:	000642b7 			; <UNDEFINED> instruction: 0x000642b7
 8d8:	00341200 	eorseq	r1, r4, r0, lsl #4
 8dc:	0b3a0803 	bleq	e828f0 <__RAM_SIZE+0xd828f0>
 8e0:	0b390b3b 	bleq	e435d4 <__RAM_SIZE+0xd435d4>
 8e4:	06021349 	streq	r1, [r2], -r9, asr #6
 8e8:	000642b7 			; <UNDEFINED> instruction: 0x000642b7
 8ec:	82891300 	addhi	r1, r9, #0, 6
 8f0:	01110101 	tsteq	r1, r1, lsl #2
 8f4:	13011331 	movwne	r1, #4913	; 0x1331
 8f8:	8a140000 	bhi	500900 <__RAM_SIZE+0x400900>
 8fc:	02000182 	andeq	r0, r0, #-2147483616	; 0x80000020
 900:	0a42910a 	beq	10a4d30 <__RAM_SIZE+0xfa4d30>
 904:	89150000 	ldmdbhi	r5, {}	; <UNPREDICTABLE>
 908:	11000182 	smlabbne	r0, r2, r1, r0
 90c:	00133101 	andseq	r3, r3, r1, lsl #2
 910:	000f1600 	andeq	r1, pc, r0, lsl #12
 914:	13490b0b 	movtne	r0, #39691	; 0x9b0b
 918:	2e170000 	cdpcs	0, 1, cr0, cr7, cr0, {0}
 91c:	030c3f01 	movweq	r3, #52993	; 0xcf01
 920:	3b0b3a0e 	blcc	2cf160 <__RAM_SIZE+0x1cf160>
 924:	270b390b 	strcs	r3, [fp, -fp, lsl #18]
 928:	1201110c 	andne	r1, r1, #12, 2
 92c:	97064001 	strls	r4, [r6, -r1]
 930:	13010c42 	movwne	r0, #7234	; 0x1c42
 934:	34180000 	ldrcc	r0, [r8], #-0
 938:	3a0e0300 	bcc	381540 <__RAM_SIZE+0x281540>
 93c:	390b3b0b 	stmdbcc	fp, {r0, r1, r3, r8, r9, fp, ip, sp}
 940:	0213490b 	andseq	r4, r3, #180224	; 0x2c000
 944:	1900000a 	stmdbne	r0, {r1, r3}
 948:	01018289 	smlabbeq	r1, r9, r2, r8
 94c:	13310111 	teqne	r1, #1073741828	; 0x40000004
 950:	011a0000 	tsteq	sl, r0
 954:	01134901 	tsteq	r3, r1, lsl #18
 958:	1b000013 	blne	9ac <__Vectors_Size+0x1ec>
 95c:	13490021 	movtne	r0, #36897	; 0x9021
 960:	00000b2f 	andeq	r0, r0, pc, lsr #22
 964:	03012e1c 	movweq	r2, #7708	; 0x1e1c
 968:	3b0b3a0e 	blcc	2cf1a8 <__RAM_SIZE+0x1cf1a8>
 96c:	270b390b 	strcs	r3, [fp, -fp, lsl #18]
 970:	1201110c 	andne	r1, r1, #12, 2
 974:	97064001 	strls	r4, [r6, -r1]
 978:	13010c42 	movwne	r0, #7234	; 0x1c42
 97c:	2e1d0000 	cdpcs	0, 1, cr0, cr13, cr0, {0}
 980:	030c3f01 	movweq	r3, #52993	; 0xcf01
 984:	3b0b3a0e 	blcc	2cf1c4 <__RAM_SIZE+0x1cf1c4>
 988:	270b390b 	strcs	r3, [fp, -fp, lsl #18]
 98c:	010c3c0c 	tsteq	ip, ip, lsl #24
 990:	1e000013 	mcrne	0, 0, r0, cr0, cr3, {0}
 994:	13490005 	movtne	r0, #36869	; 0x9005
 998:	2e1f0000 	cdpcs	0, 1, cr0, cr15, cr0, {0}
 99c:	3a0e0301 	bcc	3815a8 <__RAM_SIZE+0x2815a8>
 9a0:	390b3b0b 	stmdbcc	fp, {r0, r1, r3, r8, r9, fp, ip, sp}
 9a4:	490c270b 	stmdbmi	ip, {r0, r1, r3, r8, r9, sl, sp}
 9a8:	12011113 	andne	r1, r1, #-1073741820	; 0xc0000004
 9ac:	970a4001 	strls	r4, [sl, -r1]
 9b0:	13010c42 	movwne	r0, #7234	; 0x1c42
 9b4:	05200000 	streq	r0, [r0, #-0]!
 9b8:	3a080300 	bcc	2015c0 <__RAM_SIZE+0x1015c0>
 9bc:	390b3b0b 	stmdbcc	fp, {r0, r1, r3, r8, r9, fp, ip, sp}
 9c0:	0213490b 	andseq	r4, r3, #180224	; 0x2c000
 9c4:	0642b706 	strbeq	fp, [r2], -r6, lsl #14
 9c8:	2e210000 	cdpcs	0, 2, cr0, cr1, cr0, {0}
 9cc:	3a0e0301 	bcc	3815d8 <__RAM_SIZE+0x2815d8>
 9d0:	390b3b0b 	stmdbcc	fp, {r0, r1, r3, r8, r9, fp, ip, sp}
 9d4:	490c270b 	stmdbmi	ip, {r0, r1, r3, r8, r9, sl, sp}
 9d8:	12011113 	andne	r1, r1, #-1073741820	; 0xc0000004
 9dc:	97064001 	strls	r4, [r6, -r1]
 9e0:	13010c42 	movwne	r0, #7234	; 0x1c42
 9e4:	0b220000 	bleq	8809ec <__RAM_SIZE+0x7809ec>
 9e8:	12011101 	andne	r1, r1, #1073741824	; 0x40000000
 9ec:	23000001 	movwcs	r0, #1
 9f0:	0e03012e 	adfeqsp	f0, f3, #0.5
 9f4:	053b0b3a 	ldreq	r0, [fp, #-2874]!	; 0xfffff4c6
 9f8:	0c270b39 			; <UNDEFINED> instruction: 0x0c270b39
 9fc:	0b201349 	bleq	805728 <__RAM_SIZE+0x705728>
 a00:	00001301 	andeq	r1, r0, r1, lsl #6
 a04:	03003424 	movweq	r3, #1060	; 0x424
 a08:	3b0b3a0e 	blcc	2cf248 <__RAM_SIZE+0x1cf248>
 a0c:	490b3905 	stmdbmi	fp, {r0, r2, r8, fp, ip, sp}
 a10:	25000013 	strcs	r0, [r0, #-19]	; 0xffffffed
 a14:	0c3f002e 	ldceq	0, cr0, [pc], #-184	; 964 <__Vectors_Size+0x1a4>
 a18:	40870c3c 	addmi	r0, r7, ip, lsr ip
 a1c:	3a0e030e 	bcc	38165c <__RAM_SIZE+0x28165c>
 a20:	000b3b0b 	andeq	r3, fp, fp, lsl #22
 a24:	002e2600 	eoreq	r2, lr, r0, lsl #12
 a28:	0c3c0c3f 	ldceq	12, cr0, [ip], #-252	; 0xffffff04
 a2c:	030e4087 	movweq	r4, #57479	; 0xe087
 a30:	3b0b3a0e 	blcc	2cf270 <__RAM_SIZE+0x1cf270>
 a34:	000b390b 	andeq	r3, fp, fp, lsl #18
 a38:	11010000 	mrsne	r0, (UNDEF: 1)
 a3c:	130e2501 	movwne	r2, #58625	; 0xe501
 a40:	1b0e030b 	blne	381674 <__RAM_SIZE+0x281674>
 a44:	1106550e 	tstne	r6, lr, lsl #10
 a48:	10015201 	andne	r5, r1, r1, lsl #4
 a4c:	02000006 	andeq	r0, r0, #6
 a50:	0b0b0024 	bleq	2c0ae8 <__RAM_SIZE+0x1c0ae8>
 a54:	0e030b3e 	vmoveq.16	d3[0], r0
 a58:	24030000 	strcs	r0, [r3], #-0
 a5c:	3e0b0b00 	vmlacc.f64	d0, d11, d0
 a60:	0008030b 	andeq	r0, r8, fp, lsl #6
 a64:	012e0400 			; <UNDEFINED> instruction: 0x012e0400
 a68:	0e030c3f 	mcreq	12, 0, r0, cr3, cr15, {1}
 a6c:	0b3b0b3a 	bleq	ec375c <__RAM_SIZE+0xdc375c>
 a70:	0c270b39 			; <UNDEFINED> instruction: 0x0c270b39
 a74:	01120111 	tsteq	r2, r1, lsl r1
 a78:	42970640 	addsmi	r0, r7, #64, 12	; 0x4000000
 a7c:	0013010c 	andseq	r0, r3, ip, lsl #2
 a80:	00050500 	andeq	r0, r5, r0, lsl #10
 a84:	0b3a0e03 	bleq	e84298 <__RAM_SIZE+0xd84298>
 a88:	0b390b3b 	bleq	e4377c <__RAM_SIZE+0xd4377c>
 a8c:	06021349 	streq	r1, [r2], -r9, asr #6
 a90:	000642b7 			; <UNDEFINED> instruction: 0x000642b7
 a94:	82890600 	addhi	r0, r9, #0, 12
 a98:	01110101 	tsteq	r1, r1, lsl #2
 a9c:	13011331 	movwne	r1, #4913	; 0x1331
 aa0:	8a070000 	bhi	1c0aa8 <__RAM_SIZE+0xc0aa8>
 aa4:	02000182 	andeq	r0, r0, #-2147483616	; 0x80000020
 aa8:	0a42910a 	beq	10a4ed8 <__RAM_SIZE+0xfa4ed8>
 aac:	89080000 	stmdbhi	r8, {}	; <UNPREDICTABLE>
 ab0:	11010182 	smlabbne	r1, r2, r1, r0
 ab4:	00133101 	andseq	r3, r3, r1, lsl #2
 ab8:	002e0900 	eoreq	r0, lr, r0, lsl #18
 abc:	0c3c0c3f 	ldceq	12, cr0, [ip], #-252	; 0xffffff04
 ac0:	030e4087 	movweq	r4, #57479	; 0xe087
 ac4:	3b0b3a0e 	blcc	2cf304 <__RAM_SIZE+0x1cf304>
 ac8:	0a00000b 	beq	afc <__Vectors_Size+0x33c>
 acc:	0c3f002e 	ldceq	0, cr0, [pc], #-184	; a1c <__Vectors_Size+0x25c>
 ad0:	40870c3c 	addmi	r0, r7, ip, lsr ip
 ad4:	3a0e030e 	bcc	381714 <__RAM_SIZE+0x281714>
 ad8:	390b3b0b 	stmdbcc	fp, {r0, r1, r3, r8, r9, fp, ip, sp}
 adc:	0000000b 	andeq	r0, r0, fp
 ae0:	10001101 	andne	r1, r0, r1, lsl #2
 ae4:	12011106 	andne	r1, r1, #-2147483647	; 0x80000001
 ae8:	1b0e0301 	blne	3816f4 <__RAM_SIZE+0x2816f4>
 aec:	130e250e 	movwne	r2, #58638	; 0xe50e
 af0:	00000005 	andeq	r0, r0, r5
 af4:	10001101 	andne	r1, r0, r1, lsl #2
 af8:	12011106 	andne	r1, r1, #-2147483647	; 0x80000001
 afc:	1b0e0301 	blne	381708 <__RAM_SIZE+0x281708>
 b00:	130e250e 	movwne	r2, #58638	; 0xe50e
 b04:	00000005 	andeq	r0, r0, r5

Disassembly of section .debug_loc:

00000000 <.debug_loc>:
  SystemCoreClock = SYSTEM_CLOCK;
       0:	10000948 	andne	r0, r0, r8, asr #18
       4:	1000094a 	andne	r0, r0, sl, asr #18
}
       8:	007d0002 	rsbseq	r0, sp, r2
       c:	1000094a 	andne	r0, r0, sl, asr #18
    printf("c = %d\r\n", c);
      10:	10000974 	andne	r0, r0, r4, ror r9
}
      14:	087d0002 	ldmdaeq	sp!, {r1}^
	...
      20:	00000001 	andeq	r0, r0, r1
      24:	094a0000 	stmdbeq	sl, {}^	; <UNPREDICTABLE>
      28:	095e1000 	ldmdbeq	lr, {ip}^
      2c:	00021000 	andeq	r1, r2, r0
      30:	095e9f30 	ldmdbeq	lr, {r4, r5, r8, r9, sl, fp, ip, pc}^
      34:	09621000 	stmdbeq	r2!, {ip}^
      38:	00011000 	andeq	r1, r1, r0
      3c:	00096251 	andeq	r6, r9, r1, asr r2
      40:	00097410 	andeq	r7, r9, r0, lsl r4
      44:	54000110 	strpl	r0, [r0], #-272	; 0xfffffef0
	...
      50:	10000930 	andne	r0, r0, r0, lsr r9
      54:	10000932 	andne	r0, r0, r2, lsr r9
      58:	007d0002 	rsbseq	r0, sp, r2
      5c:	10000932 	andne	r0, r0, r2, lsr r9
      60:	10000948 	andne	r0, r0, r8, asr #18
      64:	087d0002 	ldmdaeq	sp!, {r1}^
	...
      70:	10000918 	andne	r0, r0, r8, lsl r9
      74:	1000091a 	andne	r0, r0, sl, lsl r9
      78:	007d0002 	rsbseq	r0, sp, r2
      7c:	1000091a 	andne	r0, r0, sl, lsl r9
      80:	10000930 	andne	r0, r0, r0, lsr r9
      84:	087d0002 	ldmdaeq	sp!, {r1}^
	...
      90:	10000900 	andne	r0, r0, r0, lsl #18
      94:	10000902 	andne	r0, r0, r2, lsl #18
      98:	007d0002 	rsbseq	r0, sp, r2
      9c:	10000902 	andne	r0, r0, r2, lsl #18
      a0:	10000918 	andne	r0, r0, r8, lsl r9
      a4:	087d0002 	ldmdaeq	sp!, {r1}^
	...
      b0:	100008e8 	andne	r0, r0, r8, ror #17
      b4:	100008ea 	andne	r0, r0, sl, ror #17
      b8:	007d0002 	rsbseq	r0, sp, r2
      bc:	100008ea 	andne	r0, r0, sl, ror #17
      c0:	10000900 	andne	r0, r0, r0, lsl #18
      c4:	087d0002 	ldmdaeq	sp!, {r1}^
	...
      d0:	100008d0 	ldrdne	r0, [r0], -r0	; <UNPREDICTABLE>
      d4:	100008d2 	ldrdne	r0, [r0], -r2
      d8:	007d0002 	rsbseq	r0, sp, r2
      dc:	100008d2 	ldrdne	r0, [r0], -r2
      e0:	100008e8 	andne	r0, r0, r8, ror #17
      e4:	087d0002 	ldmdaeq	sp!, {r1}^
	...
      f0:	100008b4 			; <UNDEFINED> instruction: 0x100008b4
      f4:	100008b6 			; <UNDEFINED> instruction: 0x100008b6
      f8:	007d0002 	rsbseq	r0, sp, r2
      fc:	100008b6 			; <UNDEFINED> instruction: 0x100008b6
     100:	100008d0 	ldrdne	r0, [r0], -r0	; <UNPREDICTABLE>
     104:	087d0002 	ldmdaeq	sp!, {r1}^
	...
     110:	1000084c 	andne	r0, r0, ip, asr #16
     114:	1000084e 	andne	r0, r0, lr, asr #16
     118:	007d0002 	rsbseq	r0, sp, r2
     11c:	1000084e 	andne	r0, r0, lr, asr #16
     120:	10000850 	andne	r0, r0, r0, asr r8
     124:	0c7d0002 	ldcleq	0, cr0, [sp], #-8
     128:	10000850 	andne	r0, r0, r0, asr r8
     12c:	100008a2 	andne	r0, r0, r2, lsr #17
     130:	907d0003 	rsbsls	r0, sp, r3
     134:	0008a202 	andeq	sl, r8, r2, lsl #4
     138:	0008b410 	andeq	fp, r8, r0, lsl r4
     13c:	7d000210 	sfmvc	f0, 4, [r0, #-64]	; 0xffffffc0
     140:	0000000c 	andeq	r0, r0, ip
	...
     14c:	62000000 	andvs	r0, r0, #0
     150:	65100008 	ldrvs	r0, [r0, #-8]
     154:	01100008 	tsteq	r0, r8
     158:	08655000 	stmdaeq	r5!, {ip, lr}^
     15c:	087e1000 	ldmdaeq	lr!, {ip}^
     160:	00011000 	andeq	r1, r1, r0
     164:	00088054 	andeq	r8, r8, r4, asr r0
     168:	00088a10 	andeq	r8, r8, r0, lsl sl
     16c:	54000110 	strpl	r0, [r0], #-272	; 0xfffffef0
	...
     17c:	10000868 	andne	r0, r0, r8, ror #16
     180:	1000086e 	andne	r0, r0, lr, ror #16
     184:	6e500001 	cdpvs	0, 5, cr0, cr0, cr1, {0}
     188:	71100008 	tstvc	r0, r8
     18c:	01100008 	tsteq	r0, r8
     190:	00005300 	andeq	r5, r0, r0, lsl #6
	...
     1a0:	08720000 	ldmdaeq	r2!, {}^	; <UNPREDICTABLE>
     1a4:	08781000 	ldmdaeq	r8!, {ip}^
     1a8:	00011000 	andeq	r1, r1, r0
     1ac:	00087850 	andeq	r7, r8, r0, asr r8
     1b0:	00088010 	andeq	r8, r8, r0, lsl r0
     1b4:	55000110 	strpl	r0, [r0, #-272]	; 0xfffffef0
     1b8:	10000880 	andne	r0, r0, r0, lsl #17
     1bc:	10000884 	andne	r0, r0, r4, lsl #17
     1c0:	84500001 	ldrbhi	r0, [r0], #-1
     1c4:	a4100008 	ldrge	r0, [r0], #-8
     1c8:	01100008 	tsteq	r0, r8
     1cc:	00005500 	andeq	r5, r0, r0, lsl #10
     1d0:	00000000 	andeq	r0, r0, r0
     1d4:	00020000 	andeq	r0, r2, r0
     1d8:	087c0000 	ldmdaeq	ip!, {}^	; <UNPREDICTABLE>
     1dc:	08801000 	stmeq	r0, {ip}
     1e0:	00021000 	andeq	r1, r2, r0
     1e4:	088a9f30 	stmeq	sl, {r4, r5, r8, r9, sl, fp, ip, pc}
     1e8:	08a01000 	stmiaeq	r0!, {ip}
     1ec:	00011000 	andeq	r1, r1, r0
     1f0:	00000054 	andeq	r0, r0, r4, asr r0
     1f4:	00000000 	andeq	r0, r0, r0
     1f8:	00080000 	andeq	r0, r8, r0
     1fc:	00080210 	andeq	r0, r8, r0, lsl r2
     200:	7d000210 	sfmvc	f0, 4, [r0, #-64]	; 0xffffffc0
     204:	00080200 	andeq	r0, r8, r0, lsl #4
     208:	00080410 	andeq	r0, r8, r0, lsl r4
     20c:	7d000210 	sfmvc	f0, 4, [r0, #-64]	; 0xffffffc0
     210:	0008040c 	andeq	r0, r8, ip, lsl #8
     214:	00084210 	andeq	r4, r8, r0, lsl r2
     218:	7d000210 	sfmvc	f0, 4, [r0, #-64]	; 0xffffffc0
     21c:	00084218 	andeq	r4, r8, r8, lsl r2
     220:	00084c10 	andeq	r4, r8, r0, lsl ip
     224:	7d000210 	sfmvc	f0, 4, [r0, #-64]	; 0xffffffc0
     228:	0000000c 	andeq	r0, r0, ip
     22c:	00000000 	andeq	r0, r0, r0
     230:	01010100 	mrseq	r0, (UNDEF: 17)
     234:	04000101 	streq	r0, [r0], #-257	; 0xfffffeff
     238:	22100008 	andscs	r0, r0, #8
     23c:	02100008 	andseq	r0, r0, #8
     240:	229f3000 	addscs	r3, pc, #0
     244:	30100008 	andscc	r0, r0, r8
     248:	02100008 	andseq	r0, r0, #8
     24c:	309f3400 	addscc	r3, pc, r0, lsl #8
     250:	4c100008 	ldcmi	0, cr0, [r0], {8}
     254:	02100008 	andseq	r0, r0, #8
     258:	009f3300 	addseq	r3, pc, r0, lsl #6
	...
     268:	02000000 	andeq	r0, r0, #0
     26c:	00007d00 	andeq	r7, r0, r0, lsl #26
     270:	00000000 	andeq	r0, r0, r0
     274:	02000000 	andeq	r0, r0, #0
     278:	00087d00 	andeq	r7, r8, r0, lsl #26
	...
     288:	02000000 	andeq	r0, r0, #0
     28c:	00007d00 	andeq	r7, r0, r0, lsl #26
     290:	00000000 	andeq	r0, r0, r0
     294:	02000000 	andeq	r0, r0, #0
     298:	00087d00 	andeq	r7, r8, r0, lsl #26
	...
     2a8:	02000000 	andeq	r0, r0, #0
     2ac:	00007d00 	andeq	r7, r0, r0, lsl #26
     2b0:	00000000 	andeq	r0, r0, r0
     2b4:	02000000 	andeq	r0, r0, #0
     2b8:	00087d00 	andeq	r7, r8, r0, lsl #26
	...
     2c8:	02000000 	andeq	r0, r0, #0
     2cc:	00007d00 	andeq	r7, r0, r0, lsl #26
     2d0:	00000000 	andeq	r0, r0, r0
     2d4:	02000000 	andeq	r0, r0, #0
     2d8:	00087d00 	andeq	r7, r8, r0, lsl #26
     2dc:	00000000 	andeq	r0, r0, r0
     2e0:	02000000 	andeq	r0, r0, #0
     2e4:	000c7d00 	andeq	r7, ip, r0, lsl #26
     2e8:	00000000 	andeq	r0, r0, r0
     2ec:	02000000 	andeq	r0, r0, #0
     2f0:	00287d00 	eoreq	r7, r8, r0, lsl #26
     2f4:	00000000 	andeq	r0, r0, r0
     2f8:	02000000 	andeq	r0, r0, #0
     2fc:	000c7d00 	andeq	r7, ip, r0, lsl #26
     300:	00000000 	andeq	r0, r0, r0
     304:	02000000 	andeq	r0, r0, #0
     308:	00087d00 	andeq	r7, r8, r0, lsl #26
     30c:	00000000 	andeq	r0, r0, r0
     310:	02000000 	andeq	r0, r0, #0
     314:	00007d00 	andeq	r7, r0, r0, lsl #26
	...
     32c:	50000100 	andpl	r0, r0, r0, lsl #2
	...
     338:	54910002 	ldrpl	r0, [r1], #2
	...
     344:	01f30004 	mvnseq	r0, r4
     348:	00009f50 	andeq	r9, r0, r0, asr pc
	...
     35c:	00010000 	andeq	r0, r1, r0
     360:	00000051 	andeq	r0, r0, r1, asr r0
     364:	00000000 	andeq	r0, r0, r0
     368:	f3000400 	vshl.u8	d0, d0, d0
     36c:	009f5101 	addseq	r5, pc, r1, lsl #2
	...
     380:	50000100 	andpl	r0, r0, r0, lsl #2
	...
     394:	007d0002 	rsbseq	r0, sp, r2
	...
     3a0:	047d0002 	ldrbteq	r0, [sp], #-2
	...
     3ac:	107d0002 	rsbsne	r0, sp, r2
	...
     3b8:	047d0002 	ldrbteq	r0, [sp], #-2
	...
     3d0:	00010000 	andeq	r0, r1, r0
     3d4:	00000050 	andeq	r0, r0, r0, asr r0
     3d8:	00000000 	andeq	r0, r0, r0
     3dc:	51000100 	mrspl	r0, (UNDEF: 16)
	...
     3e8:	01f30004 	mvnseq	r0, r4
     3ec:	00009f50 	andeq	r9, r0, r0, asr pc
	...
     404:	00510001 	subseq	r0, r1, r1
     408:	00000000 	andeq	r0, r0, r0
     40c:	01000000 	mrseq	r0, (UNDEF: 0)
     410:	00005200 	andeq	r5, r0, r0, lsl #4
     414:	00000000 	andeq	r0, r0, r0
     418:	00040000 	andeq	r0, r4, r0
     41c:	9f5101f3 	svcls	0x005101f3
	...
     434:	00010000 	andeq	r0, r1, r0
     438:	00000052 	andeq	r0, r0, r2, asr r0
     43c:	00000000 	andeq	r0, r0, r0
     440:	53000100 	movwpl	r0, #256	; 0x100
	...
     44c:	01f30004 	mvnseq	r0, r4
     450:	00009f52 	andeq	r9, r0, r2, asr pc
	...
     464:	00530001 	subseq	r0, r3, r1
	...
     474:	02000000 	andeq	r0, r0, #0
     478:	00007d00 	andeq	r7, r0, r0, lsl #26
     47c:	00000000 	andeq	r0, r0, r0
     480:	02000000 	andeq	r0, r0, #0
     484:	00047d00 	andeq	r7, r4, r0, lsl #26
     488:	00000000 	andeq	r0, r0, r0
     48c:	02000000 	andeq	r0, r0, #0
     490:	00187d00 	andseq	r7, r8, r0, lsl #26
     494:	00000000 	andeq	r0, r0, r0
     498:	02000000 	andeq	r0, r0, #0
     49c:	00047d00 	andeq	r7, r4, r0, lsl #26
	...
     4b4:	50000100 	andpl	r0, r0, r0, lsl #2
	...
     4c0:	00530001 	subseq	r0, r3, r1
     4c4:	00000000 	andeq	r0, r0, r0
     4c8:	04000000 	streq	r0, [r0], #-0
     4cc:	5001f300 	andpl	pc, r1, r0, lsl #6
     4d0:	0000009f 	muleq	r0, pc, r0	; <UNPREDICTABLE>
	...
     4e0:	01000000 	mrseq	r0, (UNDEF: 0)
     4e4:	00005100 	andeq	r5, r0, r0, lsl #2
	...
     4f4:	00020000 	andeq	r0, r2, r0
     4f8:	0000007d 	andeq	r0, r0, sp, ror r0
     4fc:	00000000 	andeq	r0, r0, r0
     500:	00020000 	andeq	r0, r2, r0
     504:	0000087d 	andeq	r0, r0, sp, ror r8
     508:	00000000 	andeq	r0, r0, r0
     50c:	00020000 	andeq	r0, r2, r0
     510:	0000107d 	andeq	r1, r0, sp, ror r0
     514:	00000000 	andeq	r0, r0, r0
     518:	00020000 	andeq	r0, r2, r0
     51c:	0000207d 	andeq	r2, r0, sp, ror r0
     520:	00000000 	andeq	r0, r0, r0
     524:	00020000 	andeq	r0, r2, r0
     528:	0000107d 	andeq	r1, r0, sp, ror r0
     52c:	00000000 	andeq	r0, r0, r0
     530:	00020000 	andeq	r0, r2, r0
     534:	0000087d 	andeq	r0, r0, sp, ror r8
     538:	00000000 	andeq	r0, r0, r0
     53c:	00020000 	andeq	r0, r2, r0
     540:	0000007d 	andeq	r0, r0, sp, ror r0
	...
     558:	00500001 	subseq	r0, r0, r1
     55c:	00000000 	andeq	r0, r0, r0
     560:	01000000 	mrseq	r0, (UNDEF: 0)
     564:	00005100 	andeq	r5, r0, r0, lsl #2
     568:	00000000 	andeq	r0, r0, r0
     56c:	00040000 	andeq	r0, r4, r0
     570:	9f5001f3 	svcls	0x005001f3
	...
     588:	00010000 	andeq	r0, r1, r0
     58c:	00000051 	andeq	r0, r0, r1, asr r0
     590:	00000000 	andeq	r0, r0, r0
     594:	52000100 	andpl	r0, r0, #0, 2
	...
     5a0:	01f30004 	mvnseq	r0, r4
     5a4:	00009f51 	andeq	r9, r0, r1, asr pc
	...
     5b8:	00500001 	subseq	r0, r0, r1
	...
     5c8:	02000000 	andeq	r0, r0, #0
     5cc:	00007d00 	andeq	r7, r0, r0, lsl #26
     5d0:	00000000 	andeq	r0, r0, r0
     5d4:	02000000 	andeq	r0, r0, #0
     5d8:	000c7d00 	andeq	r7, ip, r0, lsl #26
     5dc:	00000000 	andeq	r0, r0, r0
     5e0:	02000000 	andeq	r0, r0, #0
     5e4:	00107d00 	andseq	r7, r0, r0, lsl #26
     5e8:	00000000 	andeq	r0, r0, r0
     5ec:	02000000 	andeq	r0, r0, #0
     5f0:	00207d00 	eoreq	r7, r0, r0, lsl #26
     5f4:	00000000 	andeq	r0, r0, r0
     5f8:	02000000 	andeq	r0, r0, #0
     5fc:	00107d00 	andseq	r7, r0, r0, lsl #26
     600:	00000000 	andeq	r0, r0, r0
     604:	02000000 	andeq	r0, r0, #0
     608:	000c7d00 	andeq	r7, ip, r0, lsl #26
     60c:	00000000 	andeq	r0, r0, r0
     610:	02000000 	andeq	r0, r0, #0
     614:	00007d00 	andeq	r7, r0, r0, lsl #26
	...
     62c:	50000100 	andpl	r0, r0, r0, lsl #2
	...
     638:	00510001 	subseq	r0, r1, r1
     63c:	00000000 	andeq	r0, r0, r0
     640:	04000000 	streq	r0, [r0], #-0
     644:	5001f300 	andpl	pc, r1, r0, lsl #6
     648:	0000009f 	muleq	r0, pc, r0	; <UNPREDICTABLE>
	...
     658:	01000000 	mrseq	r0, (UNDEF: 0)
     65c:	00005000 	andeq	r5, r0, r0
     660:	00000000 	andeq	r0, r0, r0
     664:	1aec0000 	bne	ffb0066c <__StackTop+0xc7a0066c>
     668:	1aee1000 	bne	ffb84670 <__StackTop+0xc7a84670>
     66c:	00021000 	andeq	r1, r2, r0
     670:	1aee007d 	bne	ffb8086c <__StackTop+0xc7a8086c>
     674:	1af01000 	bne	ffc0467c <__StackTop+0xc7b0467c>
     678:	00021000 	andeq	r1, r2, r0
     67c:	1af0107d 	bne	ffc04878 <__StackTop+0xc7b04878>
     680:	1af21000 	bne	ffc84688 <__StackTop+0xc7b84688>
     684:	00021000 	andeq	r1, r2, r0
     688:	1af2147d 	bne	ffc85884 <__StackTop+0xc7b85884>
     68c:	1b0a1000 	blne	284694 <__RAM_SIZE+0x184694>
     690:	00021000 	andeq	r1, r2, r0
     694:	1b0a287d 	blne	28a890 <__RAM_SIZE+0x18a890>
     698:	1b0e1000 	blne	3846a0 <__RAM_SIZE+0x2846a0>
     69c:	00021000 	andeq	r1, r2, r0
     6a0:	1b0e147d 	blne	38589c <__RAM_SIZE+0x28589c>
     6a4:	1b101000 	blne	4046ac <__RAM_SIZE+0x3046ac>
     6a8:	00021000 	andeq	r1, r2, r0
     6ac:	1b10107d 	blne	4048a8 <__RAM_SIZE+0x3048a8>
     6b0:	1b181000 	blne	6046b8 <__RAM_SIZE+0x5046b8>
     6b4:	00021000 	andeq	r1, r2, r0
     6b8:	0000007d 	andeq	r0, r0, sp, ror r0
	...
     6c4:	10001b08 	andne	r1, r0, r8, lsl #22
     6c8:	10001b18 	andne	r1, r0, r8, lsl fp
     6cc:	00500001 	subseq	r0, r0, r1
     6d0:	00000000 	andeq	r0, r0, r0
     6d4:	60000000 	andvs	r0, r0, r0
     6d8:	64100014 	ldrvs	r0, [r0], #-20	; 0xffffffec
     6dc:	02100014 	andseq	r0, r0, #20
     6e0:	64007d00 	strvs	r7, [r0], #-3328	; 0xfffff300
     6e4:	66100014 			; <UNDEFINED> instruction: 0x66100014
     6e8:	02100014 	andseq	r0, r0, #20
     6ec:	66247d00 	strtvs	r7, [r4], -r0, lsl #26
     6f0:	d6100014 			; <UNDEFINED> instruction: 0xd6100014
     6f4:	0310001a 	tsteq	r0, #26
     6f8:	00e07d00 	rsceq	r7, r0, r0, lsl #26
     6fc:	10001ad6 	ldrdne	r1, [r0], -r6
     700:	10001ae0 	andne	r1, r0, r0, ror #21
     704:	247d0002 	ldrbtcs	r0, [sp], #-2
	...
     718:	10001460 	andne	r1, r0, r0, ror #8
     71c:	10001474 	andne	r1, r0, r4, ror r4
     720:	76500001 	ldrbvc	r0, [r0], -r1
     724:	bc100014 	ldclt	0, cr0, [r0], {20}
     728:	0110001a 	tsteq	r0, sl, lsl r0
     72c:	1abc5700 	bne	fef16334 <__StackTop+0xc6e16334>
     730:	1ac01000 	bne	ff004738 <__StackTop+0xc6f04738>
     734:	00011000 	andeq	r1, r1, r0
     738:	001ac050 	andseq	ip, sl, r0, asr r0
     73c:	001ada10 	andseq	sp, sl, r0, lsl sl
     740:	57000110 	smladpl	r0, r0, r1, r0
	...
     754:	14600000 	strbtne	r0, [r0], #-0
     758:	14761000 	ldrbtne	r1, [r6], #-0
     75c:	00011000 	andeq	r1, r1, r0
     760:	00147651 	andseq	r7, r4, r1, asr r6
     764:	001abc10 	andseq	fp, sl, r0, lsl ip
     768:	58000110 	stmdapl	r0, {r4, r8}
     76c:	10001abc 			; <UNDEFINED> instruction: 0x10001abc
     770:	10001ac0 	andne	r1, r0, r0, asr #21
     774:	c0510001 	subsgt	r0, r1, r1
     778:	da10001a 	ble	4007e8 <__RAM_SIZE+0x3007e8>
     77c:	0110001a 	tsteq	r0, sl, lsl r0
     780:	1ada5800 	bne	ff696788 <__StackTop+0xc7596788>
     784:	1ae01000 	bne	ff80478c <__StackTop+0xc770478c>
     788:	00041000 	andeq	r1, r4, r0
     78c:	9f5101f3 	svcls	0x005101f3
	...
     7a8:	14600000 	strbtne	r0, [r0], #-0
     7ac:	14761000 	ldrbtne	r1, [r6], #-0
     7b0:	00011000 	andeq	r1, r1, r0
     7b4:	00147652 	andseq	r7, r4, r2, asr r6
     7b8:	0019de10 	andseq	sp, r9, r0, lsl lr
     7bc:	56000110 			; <UNDEFINED> instruction: 0x56000110
     7c0:	100019de 	ldrdne	r1, [r0], -lr
     7c4:	100019e0 	andne	r1, r0, r0, ror #19
     7c8:	e05b0001 	subs	r0, fp, r1
     7cc:	0a100019 	beq	400838 <__RAM_SIZE+0x300838>
     7d0:	0110001a 	tsteq	r0, sl, lsl r0
     7d4:	1a0a5600 	bne	295fdc <__RAM_SIZE+0x195fdc>
     7d8:	1a341000 	bne	d047e0 <__RAM_SIZE+0xc047e0>
     7dc:	00011000 	andeq	r1, r1, r0
     7e0:	001a345b 	andseq	r3, sl, fp, asr r4
     7e4:	001abc10 	andseq	fp, sl, r0, lsl ip
     7e8:	56000110 			; <UNDEFINED> instruction: 0x56000110
     7ec:	10001abc 			; <UNDEFINED> instruction: 0x10001abc
     7f0:	10001ac0 	andne	r1, r0, r0, asr #21
     7f4:	c0520001 	subsgt	r0, r2, r1
     7f8:	da10001a 	ble	400868 <__RAM_SIZE+0x300868>
     7fc:	0110001a 	tsteq	r0, sl, lsl r0
     800:	1ada5600 	bne	ff696008 <__StackTop+0xc7596008>
     804:	1ae01000 	bne	ff80480c <__StackTop+0xc770480c>
     808:	00041000 	andeq	r1, r4, r0
     80c:	9f5201f3 	svcls	0x005201f3
	...
     81c:	10001460 	andne	r1, r0, r0, ror #8
     820:	10001476 	andne	r1, r0, r6, ror r4
     824:	bc530001 	mrrclt	0, 0, r0, r3, cr1
     828:	c010001a 	andsgt	r0, r0, sl, lsl r0
     82c:	0110001a 	tsteq	r0, sl, lsl r0
     830:	00005300 	andeq	r5, r0, r0, lsl #6
     834:	00000000 	andeq	r0, r0, r0
     838:	00010000 	andeq	r0, r1, r0
	...
     850:	149c0000 	ldrne	r0, [ip], #0
     854:	149e1000 	ldrne	r1, [lr], #0
     858:	00021000 	andeq	r1, r2, r0
     85c:	149e9f30 	ldrne	r9, [lr], #3888	; 0xf30
     860:	159c1000 	ldrne	r1, [ip]
     864:	00011000 	andeq	r1, r1, r0
     868:	00159c55 	andseq	r9, r5, r5, asr ip
     86c:	0015ae10 	andseq	sl, r5, r0, lsl lr
     870:	51000110 	tstpl	r0, r0, lsl r1
     874:	100015ae 	andne	r1, r0, lr, lsr #11
     878:	100015b8 			; <UNDEFINED> instruction: 0x100015b8
     87c:	b8550001 	ldmdalt	r5, {r0}^
     880:	ca100015 	bgt	4008dc <__RAM_SIZE+0x3008dc>
     884:	01100015 	tsteq	r0, r5, lsl r0
     888:	15ca5100 	strbne	r5, [sl, #256]	; 0x100
     88c:	17781000 	ldrbne	r1, [r8, -r0]!
     890:	00011000 	andeq	r1, r1, r0
     894:	00178055 	andseq	r8, r7, r5, asr r0
     898:	00179c10 	andseq	r9, r7, r0, lsl ip
     89c:	55000110 	strpl	r0, [r0, #-272]	; 0xfffffef0
     8a0:	1000179c 	mulne	r0, ip, r7
     8a4:	100017bb 			; <UNDEFINED> instruction: 0x100017bb
     8a8:	40910002 	addsmi	r0, r1, r2
     8ac:	100017c0 	andne	r1, r0, r0, asr #15
     8b0:	10001924 	andne	r1, r0, r4, lsr #18
     8b4:	92550001 	subsls	r0, r5, #1
     8b8:	ec100019 	ldc	0, cr0, [r0], {25}
     8bc:	01100019 	tsteq	r0, r9, lsl r0
     8c0:	1a5c5500 	bne	1715cc8 <__RAM_SIZE+0x1615cc8>
     8c4:	1a941000 	bne	fe5048cc <__StackTop+0xc64048cc>
     8c8:	00011000 	andeq	r1, r1, r0
     8cc:	001aa855 	andseq	sl, sl, r5, asr r8
     8d0:	001aaa10 	andseq	sl, sl, r0, lsl sl
     8d4:	55000110 	strpl	r0, [r0, #-272]	; 0xfffffef0
	...
     8e0:	00000002 	andeq	r0, r0, r2
	...
     8f0:	00020200 	andeq	r0, r2, r0, lsl #4
     8f4:	14c00000 	strbne	r0, [r0], #0
     8f8:	14d21000 	ldrbne	r1, [r2], #0
     8fc:	00021000 	andeq	r1, r2, r0
     900:	14d29f30 	ldrbne	r9, [r2], #3888	; 0xf30
     904:	14ff1000 	ldrbtne	r1, [pc], #0	; 90c <__Vectors_Size+0x14c>
     908:	00021000 	andeq	r1, r2, r0
     90c:	15324891 	ldrne	r4, [r2, #-2193]!	; 0xfffff76f
     910:	153a1000 	ldrne	r1, [sl, #-0]!
     914:	00021000 	andeq	r1, r2, r0
     918:	153a9f30 	ldrne	r9, [sl, #-3888]!	; 0xfffff0d0
     91c:	153c1000 	ldrne	r1, [ip, #-0]!
     920:	00011000 	andeq	r1, r1, r0
     924:	00153c50 	andseq	r3, r5, r0, asr ip
     928:	00154a10 	andseq	r4, r5, r0, lsl sl
     92c:	30000210 	andcc	r0, r0, r0, lsl r2
     930:	00154a9f 	mulseq	r5, pc, sl	; <UNPREDICTABLE>
     934:	00155210 	andseq	r5, r5, r0, lsl r2
     938:	91000210 	tstls	r0, r0, lsl r2
     93c:	00155248 	andseq	r5, r5, r8, asr #4
     940:	00155a10 	andseq	r5, r5, r0, lsl sl
     944:	30000210 	andcc	r0, r0, r0, lsl r2
     948:	00155a9f 	mulseq	r5, pc, sl	; <UNPREDICTABLE>
     94c:	00155c10 	andseq	r5, r5, r0, lsl ip
     950:	53000110 	movwpl	r0, #272	; 0x110
     954:	1000155c 	andne	r1, r0, ip, asr r5
     958:	10001a5c 	andne	r1, r0, ip, asr sl
     95c:	48910002 	ldmmi	r1, {r1}
     960:	10001a5c 	andne	r1, r0, ip, asr sl
     964:	10001a92 	mulne	r0, r2, sl
     968:	9f380002 	svcls	0x00380002
     96c:	10001a92 	mulne	r0, r2, sl
     970:	10001abc 			; <UNDEFINED> instruction: 0x10001abc
     974:	48910002 	ldmmi	r1, {r1}
	...
     980:	00000001 	andeq	r0, r0, r1
	...
     99c:	14d20000 	ldrbne	r0, [r2], #0
     9a0:	14de1000 	ldrbne	r1, [lr], #0
     9a4:	00021000 	andeq	r1, r2, r0
     9a8:	14de9f30 	ldrbne	r9, [lr], #3888	; 0xf30
     9ac:	14ff1000 	ldrbtne	r1, [pc], #0	; 9b4 <__Vectors_Size+0x1f4>
     9b0:	00011000 	andeq	r1, r1, r0
     9b4:	00155c5b 	andseq	r5, r5, fp, asr ip
     9b8:	00158210 	andseq	r8, r5, r0, lsl r2
     9bc:	30000210 	andcc	r0, r0, r0, lsl r2
     9c0:	0015829f 	mulseq	r5, pc, r2	; <UNPREDICTABLE>
     9c4:	00158410 	andseq	r8, r5, r0, lsl r4
     9c8:	50000110 	andpl	r0, r0, r0, lsl r1
     9cc:	10001584 	andne	r1, r0, r4, lsl #11
     9d0:	10001590 	mulne	r0, r0, r5
     9d4:	9f300002 	svcls	0x00300002
     9d8:	10001590 	mulne	r0, r0, r5
     9dc:	1000192a 	andne	r1, r0, sl, lsr #18
     9e0:	665b0001 	ldrbvs	r0, [fp], -r1
     9e4:	6c100019 	ldcvs	0, cr0, [r0], {25}
     9e8:	01100019 	tsteq	r0, r9, lsl r0
     9ec:	19925b00 	ldmibne	r2, {r8, r9, fp, ip, lr}
     9f0:	19dc1000 	ldmibne	ip, {ip}^
     9f4:	00011000 	andeq	r1, r1, r0
     9f8:	0019dc5b 	andseq	sp, r9, fp, asr ip
     9fc:	0019e010 	andseq	lr, r9, r0, lsl r0
     a00:	54000110 	strpl	r0, [r0], #-272	; 0xfffffef0
     a04:	100019e0 	andne	r1, r0, r0, ror #19
     a08:	10001a08 	andne	r1, r0, r8, lsl #20
     a0c:	085b0001 	ldmdaeq	fp, {r0}^
     a10:	0c10001a 	ldceq	0, cr0, [r0], {26}
     a14:	0110001a 	tsteq	r0, sl, lsl r0
     a18:	1a0c5400 	bne	315a20 <__RAM_SIZE+0x215a20>
     a1c:	1a0e1000 	bne	384a24 <__RAM_SIZE+0x284a24>
     a20:	00011000 	andeq	r1, r1, r0
     a24:	001a0e53 	andseq	r0, sl, r3, asr lr
     a28:	001a2810 	andseq	r2, sl, r0, lsl r8
     a2c:	54000110 	strpl	r0, [r0], #-272	; 0xfffffef0
     a30:	10001a28 	andne	r1, r0, r8, lsr #20
     a34:	10001a2c 	andne	r1, r0, ip, lsr #20
     a38:	5c530001 	mrrcpl	0, 0, r0, r3, cr1
     a3c:	bc10001a 	ldclt	0, cr0, [r0], {26}
     a40:	0110001a 	tsteq	r0, sl, lsl r0
     a44:	00005b00 	andeq	r5, r0, r0, lsl #22
	...
     a50:	00010001 	andeq	r0, r1, r1
     a54:	00010001 	andeq	r0, r1, r1
     a58:	00000001 	andeq	r0, r0, r1
     a5c:	100014c0 	andne	r1, r0, r0, asr #9
     a60:	100014ff 	strdne	r1, [r0], -pc	; <UNPREDICTABLE>
     a64:	9f300002 	svcls	0x00300002
     a68:	10001508 	andne	r1, r0, r8, lsl #10
     a6c:	1000150a 	andne	r1, r0, sl, lsl #10
     a70:	9f310002 	svcls	0x00310002
     a74:	10001512 	andne	r1, r0, r2, lsl r5
     a78:	10001514 	andne	r1, r0, r4, lsl r5
     a7c:	9f310002 	svcls	0x00310002
     a80:	1000151c 	andne	r1, r0, ip, lsl r5
     a84:	1000151e 	andne	r1, r0, lr, lsl r5
     a88:	9f310002 	svcls	0x00310002
     a8c:	10001526 	andne	r1, r0, r6, lsr #10
     a90:	10001528 	andne	r1, r0, r8, lsr #10
     a94:	9f310002 	svcls	0x00310002
     a98:	10001530 	andne	r1, r0, r0, lsr r5
     a9c:	10001532 	andne	r1, r0, r2, lsr r5
     aa0:	9f310002 	svcls	0x00310002
     aa4:	10001532 	andne	r1, r0, r2, lsr r5
     aa8:	10001abc 			; <UNDEFINED> instruction: 0x10001abc
     aac:	9f300002 	svcls	0x00300002
	...
     ab8:	00000002 	andeq	r0, r0, r2
	...
     b18:	1000146c 	andne	r1, r0, ip, ror #8
     b1c:	10001476 	andne	r1, r0, r6, ror r4
     b20:	9f300002 	svcls	0x00300002
     b24:	10001476 	andne	r1, r0, r6, ror r4
     b28:	10001486 	andne	r1, r0, r6, lsl #9
     b2c:	86540001 	ldrbhi	r0, [r4], -r1
     b30:	98100014 	ldmdals	r0, {r2, r4}
     b34:	01100014 	tsteq	r0, r4, lsl r0
     b38:	14985500 	ldrne	r5, [r8], #1280	; 0x500
     b3c:	17221000 	strne	r1, [r2, -r0]!
     b40:	00011000 	andeq	r1, r1, r0
     b44:	00172254 	andseq	r2, r7, r4, asr r2
     b48:	00172410 	andseq	r2, r7, r0, lsl r4
     b4c:	50000110 	andpl	r0, r0, r0, lsl r1
     b50:	10001724 	andne	r1, r0, r4, lsr #14
     b54:	10001778 	andne	r1, r0, r8, ror r7
     b58:	78540001 	ldmdavc	r4, {r0}^
     b5c:	80100017 	andshi	r0, r0, r7, lsl r0
     b60:	01100017 	tsteq	r0, r7, lsl r0
     b64:	17805000 	strne	r5, [r0, r0]
     b68:	17be1000 	ldrne	r1, [lr, r0]!
     b6c:	00011000 	andeq	r1, r1, r0
     b70:	0017be54 	andseq	fp, r7, r4, asr lr
     b74:	0017c010 	andseq	ip, r7, r0, lsl r0
     b78:	50000110 	andpl	r0, r0, r0, lsl r1
     b7c:	100017c0 	andne	r1, r0, r0, asr #15
     b80:	100017f8 	strdne	r1, [r0], -r8
     b84:	f8540001 			; <UNDEFINED> instruction: 0xf8540001
     b88:	fa100017 	blx	400bec <__RAM_SIZE+0x300bec>
     b8c:	01100017 	tsteq	r0, r7, lsl r0
     b90:	17fa5000 	ldrbne	r5, [sl, r0]!
     b94:	184c1000 	stmdane	ip, {ip}^
     b98:	00011000 	andeq	r1, r1, r0
     b9c:	00184c54 	andseq	r4, r8, r4, asr ip
     ba0:	00184e10 	andseq	r4, r8, r0, lsl lr
     ba4:	50000110 	andpl	r0, r0, r0, lsl r1
     ba8:	1000184e 	andne	r1, r0, lr, asr #16
     bac:	10001876 	andne	r1, r0, r6, ror r8
     bb0:	76540001 	ldrbvc	r0, [r4], -r1
     bb4:	78100018 	ldmdavc	r0, {r3, r4}
     bb8:	01100018 	tsteq	r0, r8, lsl r0
     bbc:	18785000 	ldmdane	r8!, {ip, lr}^
     bc0:	18c41000 	stmiane	r4, {ip}^
     bc4:	00011000 	andeq	r1, r1, r0
     bc8:	0018c454 	andseq	ip, r8, r4, asr r4
     bcc:	0018cc10 	andseq	ip, r8, r0, lsl ip
     bd0:	50000110 	andpl	r0, r0, r0, lsl r1
     bd4:	100018cc 	andne	r1, r0, ip, asr #17
     bd8:	10001918 	andne	r1, r0, r8, lsl r9
     bdc:	18540001 	ldmdane	r4, {r0}^
     be0:	20100019 	andscs	r0, r0, r9, lsl r0
     be4:	01100019 	tsteq	r0, r9, lsl r0
     be8:	19205000 	stmdbne	r0!, {ip, lr}
     bec:	19341000 	ldmdbne	r4!, {ip}
     bf0:	00011000 	andeq	r1, r1, r0
     bf4:	00193454 	andseq	r3, r9, r4, asr r4
     bf8:	00194a10 	andseq	r4, r9, r0, lsl sl
     bfc:	5a000110 	bpl	1044 <__HEAP_SIZE+0x44>
     c00:	1000194a 	andne	r1, r0, sl, asr #18
     c04:	1000194e 	andne	r1, r0, lr, asr #18
     c08:	4e520001 	cdpmi	0, 5, cr0, cr2, cr1, {0}
     c0c:	5a100019 	bpl	400c78 <__RAM_SIZE+0x300c78>
     c10:	01100019 	tsteq	r0, r9, lsl r0
     c14:	195a5a00 	ldmdbne	sl, {r9, fp, ip, lr}^
     c18:	19661000 	stmdbne	r6!, {ip}^
     c1c:	00011000 	andeq	r1, r1, r0
     c20:	00196652 	andseq	r6, r9, r2, asr r6
     c24:	00197010 	andseq	r7, r9, r0, lsl r0
     c28:	54000110 	strpl	r0, [r0], #-272	; 0xfffffef0
     c2c:	10001970 	andne	r1, r0, r0, ror r9
     c30:	10001976 	andne	r1, r0, r6, ror r9
     c34:	765a0001 	ldrbvc	r0, [sl], -r1
     c38:	7a100019 	bvc	400ca4 <__RAM_SIZE+0x300ca4>
     c3c:	01100019 	tsteq	r0, r9, lsl r0
     c40:	197a5200 	ldmdbne	sl!, {r9, ip, lr}^
     c44:	19861000 	stmibne	r6, {ip}
     c48:	00011000 	andeq	r1, r1, r0
     c4c:	00198655 	andseq	r8, r9, r5, asr r6
     c50:	00199210 	andseq	r9, r9, r0, lsl r2
     c54:	52000110 	andpl	r0, r0, #16, 2
     c58:	10001992 	mulne	r0, r2, r9
     c5c:	100019da 	ldrdne	r1, [r0], -sl
     c60:	da540001 	ble	1500c6c <__RAM_SIZE+0x1400c6c>
     c64:	e0100019 	ands	r0, r0, r9, lsl r0
     c68:	01100019 	tsteq	r0, r9, lsl r0
     c6c:	19e05200 	stmibne	r0!, {r9, ip, lr}^
     c70:	19e81000 	stmibne	r8!, {ip}^
     c74:	00011000 	andeq	r1, r1, r0
     c78:	0019e854 	andseq	lr, r9, r4, asr r8
     c7c:	0019f010 	andseq	pc, r9, r0, lsl r0	; <UNPREDICTABLE>
     c80:	52000110 	andpl	r0, r0, #16, 2
     c84:	100019f0 	strdne	r1, [r0], -r0
     c88:	100019fc 	strdne	r1, [r0], -ip
     c8c:	fc590001 	mrrc2	0, 0, r0, r9, cr1
     c90:	14100019 	ldrne	r0, [r0], #-25	; 0xffffffe7
     c94:	0110001a 	tsteq	r0, sl, lsl r0
     c98:	1a145200 	bne	5154a0 <__RAM_SIZE+0x4154a0>
     c9c:	1a1c1000 	bne	704ca4 <__RAM_SIZE+0x604ca4>
     ca0:	00011000 	andeq	r1, r1, r0
     ca4:	001a1c55 	andseq	r1, sl, r5, asr ip
     ca8:	001a4410 	andseq	r4, sl, r0, lsl r4
     cac:	52000110 	andpl	r0, r0, #16, 2
     cb0:	10001a44 	andne	r1, r0, r4, asr #20
     cb4:	10001a50 	andne	r1, r0, r0, asr sl
     cb8:	50550001 	subspl	r0, r5, r1
     cbc:	5c10001a 	ldcpl	0, cr0, [r0], {26}
     cc0:	0110001a 	tsteq	r0, sl, lsl r0
     cc4:	1a5c5200 	bne	17154cc <__RAM_SIZE+0x16154cc>
     cc8:	1a8a1000 	bne	fe284cd0 <__StackTop+0xc6184cd0>
     ccc:	00011000 	andeq	r1, r1, r0
     cd0:	001a8a54 	andseq	r8, sl, r4, asr sl
     cd4:	001a9210 	andseq	r9, sl, r0, lsl r2
     cd8:	50000110 	andpl	r0, r0, r0, lsl r1
     cdc:	10001a92 	mulne	r0, r2, sl
     ce0:	10001a94 	mulne	r0, r4, sl
     ce4:	94540001 	ldrbls	r0, [r4], #-1
     ce8:	a810001a 	ldmdage	r0, {r1, r3, r4}
     cec:	0110001a 	tsteq	r0, sl, lsl r0
     cf0:	1aa85500 	bne	fea160f8 <__StackTop+0xc69160f8>
     cf4:	1aaa1000 	bne	fea84cfc <__StackTop+0xc6984cfc>
     cf8:	00011000 	andeq	r1, r1, r0
     cfc:	001aaa54 	andseq	sl, sl, r4, asr sl
     d00:	001abc10 	andseq	fp, sl, r0, lsl ip
     d04:	55000110 	strpl	r0, [r0, #-272]	; 0xfffffef0
     d08:	10001abc 			; <UNDEFINED> instruction: 0x10001abc
     d0c:	10001ac0 	andne	r1, r0, r0, asr #21
     d10:	9f300002 	svcls	0x00300002
     d14:	10001ac0 	andne	r1, r0, r0, asr #21
     d18:	10001ada 	ldrdne	r1, [r0], -sl
     d1c:	da540001 	ble	1500d28 <__RAM_SIZE+0x1400d28>
     d20:	e010001a 	ands	r0, r0, sl, lsl r0
     d24:	0110001a 	tsteq	r0, sl, lsl r0
     d28:	00005000 	andeq	r5, r0, r0
     d2c:	00000000 	andeq	r0, r0, r0
     d30:	00010000 	andeq	r0, r1, r0
	...
     d4c:	16b60000 	ldrtne	r0, [r6], r0
     d50:	16be1000 	ldrtne	r1, [lr], r0
     d54:	00021000 	andeq	r1, r2, r0
     d58:	16c09f3a 			; <UNDEFINED> instruction: 0x16c09f3a
     d5c:	17101000 	ldrne	r1, [r0, -r0]
     d60:	00011000 	andeq	r1, r1, r0
     d64:	00171053 	andseq	r1, r7, r3, asr r0
     d68:	00171f10 	andseq	r1, r7, r0, lsl pc
     d6c:	91000310 	tstls	r0, r0, lsl r3
     d70:	17307fa8 	ldrne	r7, [r0, -r8, lsr #31]!
     d74:	176c1000 	strbne	r1, [ip, -r0]!
     d78:	00011000 	andeq	r1, r1, r0
     d7c:	00176c53 	andseq	r6, r7, r3, asr ip
     d80:	00177510 	andseq	r7, r7, r0, lsl r5
     d84:	91000310 	tstls	r0, r0, lsl r3
     d88:	17807fa8 	strne	r7, [r0, r8, lsr #31]
     d8c:	17a61000 	strne	r1, [r6, r0]!
     d90:	00011000 	andeq	r1, r1, r0
     d94:	0017a653 	andseq	sl, r7, r3, asr r6
     d98:	0017bb10 	andseq	fp, r7, r0, lsl fp
     d9c:	91000310 	tstls	r0, r0, lsl r3
     da0:	17c07fb0 			; <UNDEFINED> instruction: 0x17c07fb0
     da4:	17ec1000 	strbne	r1, [ip, r0]!
     da8:	00011000 	andeq	r1, r1, r0
     dac:	0017ec53 	andseq	lr, r7, r3, asr ip
     db0:	0017f510 	andseq	pc, r7, r0, lsl r5	; <UNPREDICTABLE>
     db4:	91000310 	tstls	r0, r0, lsl r3
     db8:	17fa7fa8 	ldrbne	r7, [sl, r8, lsr #31]!
     dbc:	18401000 	stmdane	r0, {ip}^
     dc0:	00011000 	andeq	r1, r1, r0
     dc4:	00184053 	andseq	r4, r8, r3, asr r0
     dc8:	00184910 	andseq	r4, r8, r0, lsl r9
     dcc:	91000310 	tstls	r0, r0, lsl r3
     dd0:	184e7fb0 	stmdane	lr, {r4, r5, r7, r8, r9, sl, fp, ip, sp, lr}^
     dd4:	18621000 	stmdane	r2!, {ip}^
     dd8:	00011000 	andeq	r1, r1, r0
     ddc:	00186253 	andseq	r6, r8, r3, asr r2
     de0:	00187310 	andseq	r7, r8, r0, lsl r3
     de4:	91000310 	tstls	r0, r0, lsl r3
     de8:	18787fa8 	ldmdane	r8!, {r3, r5, r7, r8, r9, sl, fp, ip, sp, lr}^
     dec:	18921000 	ldmne	r2, {ip}
     df0:	00011000 	andeq	r1, r1, r0
     df4:	00000053 	andeq	r0, r0, r3, asr r0
     df8:	00000000 	andeq	r0, r0, r0
     dfc:	50000000 	andpl	r0, r0, r0
     e00:	66100017 			; <UNDEFINED> instruction: 0x66100017
     e04:	01100017 	tsteq	r0, r7, lsl r0
     e08:	00005200 	andeq	r5, r0, r0, lsl #4
	...
     e14:	17020000 	strne	r0, [r2, -r0]
     e18:	17181000 	ldrne	r1, [r8, -r0]
     e1c:	00011000 	andeq	r1, r1, r0
     e20:	00171852 	andseq	r1, r7, r2, asr r8
     e24:	00171f10 	andseq	r1, r7, r0, lsl pc
     e28:	7d000210 	sfmvc	f0, 4, [r0, #-64]	; 0xffffffc0
	...
     e34:	00000100 	andeq	r0, r0, r0, lsl #2
	...
     e48:	00192000 	andseq	r2, r9, r0
     e4c:	00192a10 	andseq	r2, r9, r0, lsl sl
     e50:	31000210 	tstcc	r0, r0, lsl r2
     e54:	00192a9f 	mulseq	r9, pc, sl	; <UNPREDICTABLE>
     e58:	00194010 	andseq	r4, r9, r0, lsl r0
     e5c:	59000110 	stmdbpl	r0, {r4, r8}
     e60:	1000194a 	andne	r1, r0, sl, asr #18
     e64:	1000195a 	andne	r1, r0, sl, asr r9
     e68:	5a590001 	bpl	1640e74 <__RAM_SIZE+0x1540e74>
     e6c:	5e100019 	mrcpl	0, 0, r0, cr0, cr9, {0}
     e70:	01100019 	tsteq	r0, r9, lsl r0
     e74:	195e5300 	ldmdbne	lr, {r8, r9, ip, lr}^
     e78:	19661000 	stmdbne	r6!, {ip}^
     e7c:	00011000 	andeq	r1, r1, r0
     e80:	00196659 	andseq	r6, r9, r9, asr r6
     e84:	00197010 	andseq	r7, r9, r0, lsl r0
     e88:	31000210 	tstcc	r0, r0, lsl r2
     e8c:	0019709f 	mulseq	r9, pc, r0	; <UNPREDICTABLE>
     e90:	00197810 	andseq	r7, r9, r0, lsl r8
     e94:	59000110 	stmdbpl	r0, {r4, r8}
     e98:	10001978 	andne	r1, r0, r8, ror r9
     e9c:	10001986 	andne	r1, r0, r6, lsl #19
     ea0:	86540001 	ldrbhi	r0, [r4], -r1
     ea4:	8a100019 	bhi	400f10 <__RAM_SIZE+0x300f10>
     ea8:	01100019 	tsteq	r0, r9, lsl r0
     eac:	198a5900 	stmibne	sl, {r8, fp, ip, lr}
     eb0:	19921000 	ldmibne	r2, {ip}
     eb4:	00011000 	andeq	r1, r1, r0
     eb8:	00000054 	andeq	r0, r0, r4, asr r0
	...
     ec4:	001a0c00 	andseq	r0, sl, r0, lsl #24
     ec8:	001a3410 	andseq	r3, sl, r0, lsl r4
     ecc:	5a000110 	bpl	1314 <__HEAP_SIZE+0x314>
     ed0:	10001a3c 	andne	r1, r0, ip, lsr sl
     ed4:	10001a40 	andne	r1, r0, r0, asr #20
     ed8:	005a0001 	subseq	r0, sl, r1
	...
     ef8:	0019c000 	andseq	ip, r9, r0
     efc:	0019e010 	andseq	lr, r9, r0, lsl r0
     f00:	59000110 	stmdbpl	r0, {r4, r8}
     f04:	100019e4 	andne	r1, r0, r4, ror #19
     f08:	100019ec 	andne	r1, r0, ip, ror #19
     f0c:	ec590001 	mrrc	0, 0, r0, r9, cr1
     f10:	fc100019 	ldc2	0, cr0, [r0], {25}
     f14:	01100019 	tsteq	r0, r9, lsl r0
     f18:	19fc5500 	ldmibne	ip!, {r8, sl, ip, lr}^
     f1c:	19fe1000 	ldmibne	lr!, {ip}^
     f20:	00011000 	andeq	r1, r1, r0
     f24:	0019fe53 	andseq	pc, r9, r3, asr lr	; <UNPREDICTABLE>
     f28:	001a0c10 	andseq	r0, sl, r0, lsl ip
     f2c:	55000110 	strpl	r0, [r0, #-272]	; 0xfffffef0
     f30:	10001a0c 	andne	r1, r0, ip, lsl #20
     f34:	10001a34 	andne	r1, r0, r4, lsr sl
     f38:	3c590001 	mrrccc	0, 0, r0, r9, cr1
     f3c:	4210001a 	andsmi	r0, r0, #26
     f40:	0110001a 	tsteq	r0, sl, lsl r0
     f44:	1a425900 	bne	109734c <__RAM_SIZE+0xf9734c>
     f48:	1a501000 	bne	1404f50 <__RAM_SIZE+0x1304f50>
     f4c:	00011000 	andeq	r1, r1, r0
     f50:	001a5054 	andseq	r5, sl, r4, asr r0
     f54:	001a5410 	andseq	r5, sl, r0, lsl r4
     f58:	59000110 	stmdbpl	r0, {r4, r8}
     f5c:	10001a54 	andne	r1, r0, r4, asr sl
     f60:	10001a5a 	andne	r1, r0, sl, asr sl
     f64:	5a540001 	bpl	1500f70 <__RAM_SIZE+0x1400f70>
     f68:	5c10001a 	ldcpl	0, cr0, [r0], {26}
     f6c:	0310001a 	tsteq	r0, #26
     f70:	9f017900 	svcls	0x00017900
	...
     f80:	19aa0000 	stmibne	sl!, {}	; <UNPREDICTABLE>
     f84:	19b01000 	ldmibne	r0!, {ip}
     f88:	00011000 	andeq	r1, r1, r0
     f8c:	0019b052 	andseq	fp, r9, r2, asr r0
     f90:	0019b810 	andseq	fp, r9, r0, lsl r8
     f94:	53000110 	movwpl	r0, #272	; 0x110
     f98:	100019b8 			; <UNDEFINED> instruction: 0x100019b8
     f9c:	100019bc 			; <UNDEFINED> instruction: 0x100019bc
     fa0:	00520001 	subseq	r0, r2, r1
	...
     fac:	0019aa00 	andseq	sl, r9, r0, lsl #20
     fb0:	0019c010 	andseq	ip, r9, r0, lsl r0
     fb4:	59000110 	stmdbpl	r0, {r4, r8}
	...
     fc0:	1a600001 	bne	1800fcc <__RAM_SIZE+0x1700fcc>
     fc4:	1a921000 	bne	fe484fcc <__StackTop+0xc6384fcc>
     fc8:	00021000 	andeq	r1, r2, r0
     fcc:	00009f30 	andeq	r9, r0, r0, lsr pc
     fd0:	00000000 	andeq	r0, r0, r0
     fd4:	00030000 	andeq	r0, r3, r0
     fd8:	100014c0 	andne	r1, r0, r0, asr #9
     fdc:	100014c6 	andne	r1, r0, r6, asr #9
     fe0:	00510001 	subseq	r0, r1, r1
	...
     fec:	00156600 	andseq	r6, r5, r0, lsl #12
     ff0:	00156c10 	andseq	r6, r5, r0, lsl ip
     ff4:	52000110 	andpl	r0, r0, #16, 2
	...
    1000:	10000cd8 	ldrdne	r0, [r0], -r8
    1004:	10000cdc 	ldrdne	r0, [r0], -ip
    1008:	007d0002 	rsbseq	r0, sp, r2
    100c:	10000cdc 	ldrdne	r0, [r0], -ip
    1010:	10000ce0 	andne	r0, r0, r0, ror #25
    1014:	247d0002 	ldrbtcs	r0, [sp], #-2
    1018:	10000ce0 	andne	r0, r0, r0, ror #25
    101c:	10000ce2 	andne	r0, r0, r2, ror #25
    1020:	2c7d0002 	ldclcs	0, cr0, [sp], #-8
    1024:	10000ce2 	andne	r0, r0, r2, ror #25
    1028:	10000f2c 	andne	r0, r0, ip, lsr #30
    102c:	f07d0003 			; <UNDEFINED> instruction: 0xf07d0003
    1030:	000f2c00 	andeq	r2, pc, r0, lsl #24
    1034:	000f3010 	andeq	r3, pc, r0, lsl r0	; <UNPREDICTABLE>
    1038:	7d000210 	sfmvc	f0, 4, [r0, #-64]	; 0xffffffc0
    103c:	000f302c 	andeq	r3, pc, ip, lsr #32
    1040:	000f3410 	andeq	r3, pc, r0, lsl r4	; <UNPREDICTABLE>
    1044:	7d000210 	sfmvc	f0, 4, [r0, #-64]	; 0xffffffc0
    1048:	000f3424 	andeq	r3, pc, r4, lsr #8
    104c:	0010c210 	andseq	ip, r0, r0, lsl r2
    1050:	7d000310 	stcvc	3, cr0, [r0, #-64]	; 0xffffffc0
    1054:	000000f0 	strdeq	r0, [r0], -r0	; <UNPREDICTABLE>
	...
    1060:	0cd80000 	ldcleq	0, cr0, [r8], {0}
    1064:	0cf01000 	ldcleq	0, cr1, [r0]
    1068:	00011000 	andeq	r1, r1, r0
    106c:	000cf050 	andeq	pc, ip, r0, asr r0	; <UNPREDICTABLE>
    1070:	0010c210 	andseq	ip, r0, r0, lsl r2
    1074:	5a000110 	bpl	14bc <__HEAP_SIZE+0x4bc>
	...
    1084:	10000cd8 	ldrdne	r0, [r0], -r8
    1088:	10000cf2 	strdne	r0, [r0], -r2
    108c:	f2510001 	vhadd.s16	d16, d1, d1
    1090:	c210000c 	andsgt	r0, r0, #12
    1094:	01100010 	tsteq	r0, r0, lsl r0
    1098:	00005400 	andeq	r5, r0, r0, lsl #8
	...
    10b8:	10000cd8 	ldrdne	r0, [r0], -r8
    10bc:	10000cee 	andne	r0, r0, lr, ror #25
    10c0:	ee520001 	cdp	0, 5, cr0, cr2, cr1, {0}
    10c4:	2a10000c 	bcs	4010fc <__RAM_SIZE+0x3010fc>
    10c8:	0110000f 	tsteq	r0, pc
    10cc:	0f345b00 	svceq	0x00345b00
    10d0:	103c1000 	eorsne	r1, ip, r0
    10d4:	00011000 	andeq	r1, r1, r0
    10d8:	00103c5b 	andseq	r3, r0, fp, asr ip
    10dc:	00105210 	andseq	r5, r0, r0, lsl r2
    10e0:	50000110 	andpl	r0, r0, r0, lsl r1
    10e4:	10001052 	andne	r1, r0, r2, asr r0
    10e8:	10001086 	andne	r1, r0, r6, lsl #1
    10ec:	86580001 	ldrbhi	r0, [r8], -r1
    10f0:	94100010 	ldrls	r0, [r0], #-16
    10f4:	01100010 	tsteq	r0, r0, lsl r0
    10f8:	10945000 	addsne	r5, r4, r0
    10fc:	10a41000 	adcne	r1, r4, r0
    1100:	00011000 	andeq	r1, r1, r0
    1104:	0010a45b 	andseq	sl, r0, fp, asr r4
    1108:	0010aa10 	andseq	sl, r0, r0, lsl sl
    110c:	50000110 	andpl	r0, r0, r0, lsl r1
    1110:	100010aa 	andne	r1, r0, sl, lsr #1
    1114:	100010ac 	andne	r1, r0, ip, lsr #1
    1118:	ac520001 	mrrcge	0, 0, r0, r2, cr1
    111c:	b6100010 			; <UNDEFINED> instruction: 0xb6100010
    1120:	01100010 	tsteq	r0, r0, lsl r0
    1124:	10b65600 	adcsne	r5, r6, r0, lsl #12
    1128:	10c21000 	sbcne	r1, r2, r0
    112c:	00011000 	andeq	r1, r1, r0
    1130:	00000052 	andeq	r0, r0, r2, asr r0
	...
    113c:	000cd800 	andeq	sp, ip, r0, lsl #16
    1140:	000cf510 	andeq	pc, ip, r0, lsl r5	; <UNPREDICTABLE>
    1144:	53000110 	movwpl	r0, #272	; 0x110
    1148:	10000cf5 	strdne	r0, [r0], -r5
    114c:	100010c2 	andne	r1, r0, r2, asr #1
    1150:	00550001 	subseq	r0, r5, r1
	...
    1164:	d8000000 	stmdale	r0, {}	; <UNPREDICTABLE>
    1168:	4010000c 	andsmi	r0, r0, ip
    116c:	0210000d 	andseq	r0, r0, #13
    1170:	40009100 	andmi	r9, r0, r0, lsl #2
    1174:	0a10000d 	beq	4011b0 <__RAM_SIZE+0x3011b0>
    1178:	0310000f 	tsteq	r0, #15
    117c:	7fa89100 	svcvc	0x00a89100
    1180:	10000f0a 	andne	r0, r0, sl, lsl #30
    1184:	10000f2a 	andne	r0, r0, sl, lsr #30
    1188:	00910002 	addseq	r0, r1, r2
    118c:	10000f34 	andne	r0, r0, r4, lsr pc
    1190:	10000f48 	andne	r0, r0, r8, asr #30
    1194:	00910002 	addseq	r0, r1, r2
    1198:	10000f48 	andne	r0, r0, r8, asr #30
    119c:	10001018 	andne	r1, r0, r8, lsl r0
    11a0:	a8910003 	ldmge	r1, {r0, r1}
    11a4:	0010947f 	andseq	r9, r0, pc, ror r4
    11a8:	0010a210 	andseq	sl, r0, r0, lsl r2
    11ac:	91000310 	tstls	r0, r0, lsl r3
    11b0:	00007fa8 	andeq	r7, r0, r8, lsr #31
	...
    11c4:	0cd80000 	ldcleq	0, cr0, [r8], {0}
    11c8:	0d4e1000 	stcleq	0, cr1, [lr, #-0]
    11cc:	00021000 	andeq	r1, r2, r0
    11d0:	0d4e0891 	stcleq	8, cr0, [lr, #-580]	; 0xfffffdbc
    11d4:	0f081000 	svceq	0x00081000
    11d8:	00021000 	andeq	r1, r2, r0
    11dc:	0f080891 	svceq	0x00080891
    11e0:	0f0a1000 	svceq	0x000a1000
    11e4:	00011000 	andeq	r1, r1, r0
    11e8:	000f0a53 	andeq	r0, pc, r3, asr sl	; <UNPREDICTABLE>
    11ec:	000f7c10 	andeq	r7, pc, r0, lsl ip	; <UNPREDICTABLE>
    11f0:	91000210 	tstls	r0, r0, lsl r2
    11f4:	000f7c08 	andeq	r7, pc, r8, lsl #24
    11f8:	000fe410 	andeq	lr, pc, r0, lsl r4	; <UNPREDICTABLE>
    11fc:	53000110 	movwpl	r0, #272	; 0x110
    1200:	10000fe4 	andne	r0, r0, r4, ror #31
    1204:	100010c2 	andne	r1, r0, r2, asr #1
    1208:	08910002 	ldmeq	r1, {r1}
	...
    1218:	10000cd8 	ldrdne	r0, [r0], -r8
    121c:	10000f34 	andne	r0, r0, r4, lsr pc
    1220:	0c910002 	ldceq	0, cr0, [r1], {2}
    1224:	10000f34 	andne	r0, r0, r4, lsr pc
    1228:	100010c2 	andne	r1, r0, r2, asr #1
    122c:	0c910002 	ldceq	0, cr0, [r1], {2}
	...
    1240:	10000cd8 	ldrdne	r0, [r0], -r8
    1244:	10000f34 	andne	r0, r0, r4, lsr pc
    1248:	10910002 	addsne	r0, r1, r2
    124c:	10000f34 	andne	r0, r0, r4, lsr pc
    1250:	10000f5a 	andne	r0, r0, sl, asr pc
    1254:	10910002 	addsne	r0, r1, r2
    1258:	10000f5a 	andne	r0, r0, sl, asr pc
    125c:	10000f5e 	andne	r0, r0, lr, asr pc
    1260:	5e530001 	cdppl	0, 5, cr0, cr3, cr1, {0}
    1264:	c210000f 	andsgt	r0, r0, #15
    1268:	02100010 	andseq	r0, r0, #16
    126c:	00109100 	andseq	r9, r0, r0, lsl #2
    1270:	00000000 	andeq	r0, r0, r0
    1274:	01000000 	mrseq	r0, (UNDEF: 0)
    1278:	26000000 	strcs	r0, [r0], -r0
    127c:	0a10000d 	beq	4012b8 <__RAM_SIZE+0x3012b8>
    1280:	1210000f 	andsne	r0, r0, #15
    1284:	f6009100 			; <UNDEFINED> instruction: 0xf6009100
    1288:	29f42908 	ldmibcs	r4!, {r3, r8, fp, sp}^
    128c:	00000008 	andeq	r0, r0, r8
    1290:	00000000 	andeq	r0, r0, r0
    1294:	349f2d00 	ldrcc	r2, [pc], #3328	; 129c <__HEAP_SIZE+0x29c>
    1298:	c210000f 	andsgt	r0, r0, #15
    129c:	12100010 	andsne	r0, r0, #16
    12a0:	f6009100 			; <UNDEFINED> instruction: 0xf6009100
    12a4:	29f42908 	ldmibcs	r4!, {r3, r8, fp, sp}^
    12a8:	00000008 	andeq	r0, r0, r8
    12ac:	00000000 	andeq	r0, r0, r0
    12b0:	009f2d00 	addseq	r2, pc, r0, lsl #26
	...
    12bc:	2a000100 	bcs	16c4 <__HEAP_SIZE+0x6c4>
    12c0:	3010000f 	andscc	r0, r0, pc
    12c4:	0810000f 	ldmdaeq	r0, {r0, r1, r2, r3}
    12c8:	93509000 	cmpls	r0, #0
    12cc:	93519004 	cmpls	r1, #4
    12d0:	000ff804 	andeq	pc, pc, r4, lsl #16
    12d4:	0010c210 	andseq	ip, r0, r0, lsl r2
    12d8:	90000810 	andls	r0, r0, r0, lsl r8
    12dc:	90049350 	andls	r9, r4, r0, asr r3
    12e0:	00049351 	andeq	r9, r4, r1, asr r3
	...
    12f4:	58000000 	stmdapl	r0, {}	; <UNPREDICTABLE>
    12f8:	6a10000d 	bvs	401334 <__RAM_SIZE+0x301334>
    12fc:	0410000d 	ldreq	r0, [r0], #-13
    1300:	78817000 	stmvc	r1, {ip, sp, lr}
    1304:	000d6a9f 	muleq	sp, pc, sl	; <UNPREDICTABLE>
    1308:	000d6d10 	andeq	r6, sp, r0, lsl sp
    130c:	50000110 	andpl	r0, r0, r0, lsl r1
    1310:	10000dce 	andne	r0, r0, lr, asr #27
    1314:	10000dd6 	ldrdne	r0, [r0], -r6
    1318:	d6500001 	ldrble	r0, [r0], -r1
    131c:	1010000d 	andsne	r0, r0, sp
    1320:	0110000e 	tsteq	r0, lr
    1324:	0e105700 	cdpeq	7, 1, cr5, cr0, cr0, {0}
    1328:	0ecc1000 	cdpeq	0, 12, cr1, cr12, cr0, {0}
    132c:	00041000 	andeq	r1, r4, r0
    1330:	9f788177 	svcls	0x00788177
    1334:	10000f4a 	andne	r0, r0, sl, asr #30
    1338:	10000f4c 	andne	r0, r0, ip, asr #30
    133c:	81770004 	cmnhi	r7, r4
    1340:	00009f78 	andeq	r9, r0, r8, ror pc
	...
    1350:	00000002 	andeq	r0, r0, r2
    1354:	10000dae 	andne	r0, r0, lr, lsr #27
    1358:	10000db1 			; <UNDEFINED> instruction: 0x10000db1
    135c:	b1500001 	cmplt	r0, r1
    1360:	0410000d 	ldreq	r0, [r0], #-13
    1364:	0110000f 	tsteq	r0, pc
    1368:	0f4a5600 	svceq	0x004a5600
    136c:	0f521000 	svceq	0x00521000
    1370:	00011000 	andeq	r1, r1, r0
    1374:	000f5a56 	andeq	r5, pc, r6, asr sl	; <UNPREDICTABLE>
    1378:	000f5e10 	andeq	r5, pc, r0, lsl lr	; <UNPREDICTABLE>
    137c:	30000210 	andcc	r0, r0, r0, lsl r2
    1380:	000f5e9f 	muleq	pc, pc, lr	; <UNPREDICTABLE>
    1384:	0010aa10 	andseq	sl, r0, r0, lsl sl
    1388:	56000110 			; <UNDEFINED> instruction: 0x56000110
	...
    1394:	0e000000 	cdpeq	0, 0, cr0, cr0, cr0, {0}
    1398:	0e401000 	cdpeq	0, 4, cr1, cr0, cr0, {0}
    139c:	00061000 	andeq	r1, r6, r0
    13a0:	59049358 	stmdbpl	r4, {r3, r4, r6, r8, r9, ip, pc}
    13a4:	00000493 	muleq	r0, r3, r4
	...
    13b4:	10000e0c 	andne	r0, r0, ip, lsl #28
    13b8:	10000e26 	andne	r0, r0, r6, lsr #28
    13bc:	93500006 	cmpls	r0, #6
    13c0:	04935104 	ldreq	r5, [r3], #260	; 0x104
    13c4:	10000e26 	andne	r0, r0, r6, lsr #28
    13c8:	10000f0a 	andne	r0, r0, sl, lsl #30
    13cc:	b8910003 	ldmlt	r1, {r0, r1}
    13d0:	000f4a7f 	andeq	r4, pc, pc, ror sl	; <UNPREDICTABLE>
    13d4:	0010c210 	andseq	ip, r0, r0, lsl r2
    13d8:	91000310 	tstls	r0, r0, lsl r3
    13dc:	00007fb8 			; <UNDEFINED> instruction: 0x00007fb8
	...
    13e8:	00010100 	andeq	r0, r1, r0, lsl #2
    13ec:	00000000 	andeq	r0, r0, r0
    13f0:	0ecc0000 	cdpeq	0, 12, cr0, cr12, cr0, {0}
    13f4:	0f0a1000 	svceq	0x000a1000
    13f8:	00011000 	andeq	r1, r1, r0
    13fc:	000f4e57 	andeq	r4, pc, r7, asr lr	; <UNPREDICTABLE>
    1400:	000f5a10 	andeq	r5, pc, r0, lsl sl	; <UNPREDICTABLE>
    1404:	57000110 	smladpl	r0, r0, r1, r0
    1408:	10000f5a 	andne	r0, r0, sl, asr pc
    140c:	10000f5e 	andne	r0, r0, lr, asr pc
    1410:	9f300002 	svcls	0x00300002
    1414:	10000f5e 	andne	r0, r0, lr, asr pc
    1418:	1000106a 	andne	r1, r0, sl, rrx
    141c:	6a570001 	bvs	15c1428 <__RAM_SIZE+0x14c1428>
    1420:	92100010 	andsls	r0, r0, #16
    1424:	03100010 	tsteq	r0, #16
    1428:	9f017700 	svcls	0x00017700
    142c:	10001094 	mulne	r0, r4, r0
    1430:	100010aa 	andne	r1, r0, sl, lsr #1
    1434:	00570001 	subseq	r0, r7, r1
    1438:	00000000 	andeq	r0, r0, r0
    143c:	01000000 	mrseq	r0, (UNDEF: 0)
	...
    1448:	000f5e00 	andeq	r5, pc, r0, lsl #28
    144c:	000f6810 	andeq	r6, pc, r0, lsl r8	; <UNPREDICTABLE>
    1450:	91000210 	tstls	r0, r0, lsl r2
    1454:	000f680c 	andeq	r6, pc, ip, lsl #16
    1458:	000f6a10 	andeq	r6, pc, r0, lsl sl	; <UNPREDICTABLE>
    145c:	58000110 	stmdapl	r0, {r4, r8}
    1460:	10000fe4 	andne	r0, r0, r4, ror #31
    1464:	10000fe8 	andne	r0, r0, r8, ror #31
    1468:	e8530001 	ldmda	r3, {r0}^
    146c:	5210000f 	andspl	r0, r0, #15
    1470:	01100010 	tsteq	r0, r0, lsl r0
    1474:	10945800 	addsne	r5, r4, r0, lsl #16
    1478:	10aa1000 	adcne	r1, sl, r0
    147c:	00011000 	andeq	r1, r1, r0
    1480:	00000058 	andeq	r0, r0, r8, asr r0
    1484:	00000000 	andeq	r0, r0, r0
    1488:	08000100 	stmdaeq	r0, {r8}
    148c:	c2100010 	andsgt	r0, r0, #16
    1490:	01100010 	tsteq	r0, r0, lsl r0
    1494:	00005b00 	andeq	r5, r0, r0, lsl #22
    1498:	00000000 	andeq	r0, r0, r0
    149c:	10c80000 	sbcne	r0, r8, r0
    14a0:	10cc1000 	sbcne	r1, ip, r0
    14a4:	00021000 	andeq	r1, r2, r0
    14a8:	10cc007d 	sbcne	r0, ip, sp, ror r0
    14ac:	10d01000 	sbcsne	r1, r0, r0
    14b0:	00021000 	andeq	r1, r2, r0
    14b4:	10d0247d 	sbcsne	r2, r0, sp, ror r4
    14b8:	10d21000 	sbcsne	r1, r2, r0
    14bc:	00021000 	andeq	r1, r2, r0
    14c0:	10d22c7d 	sbcsne	r2, r2, sp, ror ip
    14c4:	13ec1000 	mvnne	r1, #0
    14c8:	00031000 	andeq	r1, r3, r0
    14cc:	ec01807d 	stc	0, cr8, [r1], {125}	; 0x7d
    14d0:	f0100013 			; <UNDEFINED> instruction: 0xf0100013
    14d4:	02100013 	andseq	r0, r0, #19
    14d8:	f02c7d00 			; <UNDEFINED> instruction: 0xf02c7d00
    14dc:	f4100013 			; <UNDEFINED> instruction: 0xf4100013
    14e0:	02100013 	andseq	r0, r0, #19
    14e4:	f4247d00 			; <UNDEFINED> instruction: 0xf4247d00
    14e8:	5e100013 	mrcpl	0, 0, r0, cr0, cr3, {0}
    14ec:	03100014 	tsteq	r0, #20
    14f0:	01807d00 	orreq	r7, r0, r0, lsl #26
	...
    1500:	100010c8 	andne	r1, r0, r8, asr #1
    1504:	100010e6 	andne	r1, r0, r6, ror #1
    1508:	e6500001 	ldrb	r0, [r0], -r1
    150c:	5e100010 	mrcpl	0, 0, r0, cr0, cr0, {0}
    1510:	03100014 	tsteq	r0, #20
    1514:	7f9c9100 	svcvc	0x009c9100
	...
    1524:	100010c8 	andne	r1, r0, r8, asr #1
    1528:	100010e8 	andne	r1, r0, r8, ror #1
    152c:	e8510001 	ldmda	r1, {r0}^
    1530:	5e100010 	mrcpl	0, 0, r0, cr0, cr0, {0}
    1534:	03100014 	tsteq	r0, #20
    1538:	7fa89100 	svcvc	0x00a89100
	...
    1548:	100010c8 	andne	r1, r0, r8, asr #1
    154c:	100010e2 	andne	r1, r0, r2, ror #1
    1550:	e2520001 	subs	r0, r2, #1
    1554:	5e100010 	mrcpl	0, 0, r0, cr0, cr0, {0}
    1558:	01100014 	tsteq	r0, r4, lsl r0
    155c:	00005a00 	andeq	r5, r0, r0, lsl #20
	...
    1568:	10c80000 	sbcne	r0, r8, r0
    156c:	10e41000 	rscne	r1, r4, r0
    1570:	00011000 	andeq	r1, r1, r0
    1574:	0010e453 	andseq	lr, r0, r3, asr r4
    1578:	00145e10 	andseq	r5, r4, r0, lsl lr
    157c:	5b000110 	blpl	19c4 <__HEAP_SIZE+0x9c4>
	...
    1590:	10c80000 	sbcne	r0, r8, r0
    1594:	114e1000 	mrsne	r1, (UNDEF: 78)
    1598:	00021000 	andeq	r1, r2, r0
    159c:	114e0091 	swpbne	r0, r1, [lr]
    15a0:	11721000 	cmnne	r2, r0
    15a4:	00061000 	andeq	r1, r6, r0
    15a8:	59049358 	stmdbpl	r4, {r3, r4, r6, r8, r9, ip, pc}
    15ac:	11720493 			; <UNDEFINED> instruction: 0x11720493
    15b0:	120a1000 	andne	r1, sl, #0
    15b4:	00021000 	andeq	r1, r2, r0
    15b8:	120a0091 	andne	r0, sl, #145	; 0x91
    15bc:	12a21000 	adcne	r1, r2, #0
    15c0:	00061000 	andeq	r1, r6, r0
    15c4:	59049358 	stmdbpl	r4, {r3, r4, r6, r8, r9, ip, pc}
    15c8:	12c60493 	sbcne	r0, r6, #-1828716544	; 0x93000000
    15cc:	13421000 	movtne	r1, #8192	; 0x2000
    15d0:	00061000 	andeq	r1, r6, r0
    15d4:	59049358 	stmdbpl	r4, {r3, r4, r6, r8, r9, ip, pc}
    15d8:	00000493 	muleq	r0, r3, r4
	...
    15e8:	10c80000 	sbcne	r0, r8, r0
    15ec:	11561000 	cmpne	r6, r0
    15f0:	00021000 	andeq	r1, r2, r0
    15f4:	11580891 			; <UNDEFINED> instruction: 0x11580891
    15f8:	11721000 	cmnne	r2, r0
    15fc:	00011000 	andeq	r1, r1, r0
    1600:	00117255 	andseq	r7, r1, r5, asr r2
    1604:	00121410 	andseq	r1, r2, r0, lsl r4
    1608:	91000210 	tstls	r0, r0, lsl r2
    160c:	00121408 	andseq	r1, r2, r8, lsl #8
    1610:	0012e210 	andseq	lr, r2, r0, lsl r2
    1614:	55000110 	strpl	r0, [r0, #-272]	; 0xfffffef0
	...
    1628:	10c80000 	sbcne	r0, r8, r0
    162c:	13b81000 			; <UNDEFINED> instruction: 0x13b81000
    1630:	00021000 	andeq	r1, r2, r0
    1634:	13b80c91 			; <UNDEFINED> instruction: 0x13b80c91
    1638:	140a1000 	strne	r1, [sl], #-0
    163c:	00021000 	andeq	r1, r2, r0
    1640:	140a0c91 	strne	r0, [sl], #-3217	; 0xfffff36f
    1644:	140e1000 	strne	r1, [lr], #-0
    1648:	00011000 	andeq	r1, r1, r0
    164c:	00140e53 	andseq	r0, r4, r3, asr lr
    1650:	00142610 	andseq	r2, r4, r0, lsl r6
    1654:	51000110 	tstpl	r0, r0, lsl r1
    1658:	10001426 	andne	r1, r0, r6, lsr #8
    165c:	1000145e 	andne	r1, r0, lr, asr r4
    1660:	0c910002 	ldceq	0, cr0, [r1], {2}
	...
    1670:	100010c8 	andne	r1, r0, r8, asr #1
    1674:	100013f4 	strdne	r1, [r0], -r4
    1678:	10910002 	addsne	r0, r1, r2
    167c:	100013f4 	strdne	r1, [r0], -r4
    1680:	1000145e 	andne	r1, r0, lr, asr r4
    1684:	10910002 	addsne	r0, r1, r2
	...
    1690:	01000002 	tsteq	r0, r2
    1694:	00000001 	andeq	r0, r0, r1
    1698:	00000000 	andeq	r0, r0, r0
    169c:	01000000 	mrseq	r0, (UNDEF: 0)
    16a0:	01000001 	tsteq	r0, r1
    16a4:	00000001 	andeq	r0, r0, r1
    16a8:	01000000 	mrseq	r0, (UNDEF: 0)
    16ac:	00000001 	andeq	r0, r0, r1
    16b0:	00010100 	andeq	r0, r1, r0, lsl #2
    16b4:	00010100 	andeq	r0, r1, r0, lsl #2
    16b8:	00010100 	andeq	r0, r1, r0, lsl #2
    16bc:	10e00000 	rscne	r0, r0, r0
    16c0:	11581000 	cmpne	r8, r0
    16c4:	00021000 	andeq	r1, r2, r0
    16c8:	11589f30 	cmpne	r8, r0, lsr pc
    16cc:	11601000 	cmnne	r0, r0
    16d0:	00011000 	andeq	r1, r1, r0
    16d4:	00116054 	andseq	r6, r1, r4, asr r0
    16d8:	00117010 	andseq	r7, r1, r0, lsl r0
    16dc:	74000310 	strvc	r0, [r0], #-784	; 0xfffffcf0
    16e0:	11709f01 	cmnne	r0, r1, lsl #30
    16e4:	11721000 	cmnne	r2, r0
    16e8:	00011000 	andeq	r1, r1, r0
    16ec:	00117254 	andseq	r7, r1, r4, asr r2
    16f0:	00121410 	andseq	r1, r2, r0, lsl r4
    16f4:	30000210 	andcc	r0, r0, r0, lsl r2
    16f8:	0012149f 	mulseq	r2, pc, r4	; <UNPREDICTABLE>
    16fc:	0012fc10 	andseq	pc, r2, r0, lsl ip	; <UNPREDICTABLE>
    1700:	54000110 	strpl	r0, [r0], #-272	; 0xfffffef0
    1704:	100012fc 	strdne	r1, [r0], -ip
    1708:	10001316 	andne	r1, r0, r6, lsl r3
    170c:	16520001 	ldrbne	r0, [r2], -r1
    1710:	1e100013 	mrcne	0, 0, r0, cr0, cr3, {0}
    1714:	01100013 	tsteq	r0, r3, lsl r0
    1718:	131e5400 	tstne	lr, #0, 8
    171c:	132e1000 			; <UNDEFINED> instruction: 0x132e1000
    1720:	00031000 	andeq	r1, r3, r0
    1724:	2e9f0174 	mrccs	1, 4, r0, cr15, cr4, {3}
    1728:	34100013 	ldrcc	r0, [r0], #-19	; 0xffffffed
    172c:	01100013 	tsteq	r0, r3, lsl r0
    1730:	13345400 	teqne	r4, #0, 8
    1734:	13421000 	movtne	r1, #8192	; 0x2000
    1738:	00031000 	andeq	r1, r3, r0
    173c:	429f0174 	addsmi	r0, pc, #116, 2
    1740:	5e100013 	mrcpl	0, 0, r0, cr0, cr3, {0}
    1744:	01100013 	tsteq	r0, r3, lsl r0
    1748:	135e5400 	cmpne	lr, #0, 8
    174c:	13ae1000 			; <UNDEFINED> instruction: 0x13ae1000
    1750:	00011000 	andeq	r1, r1, r0
    1754:	0013ae51 	andseq	sl, r3, r1, asr lr
    1758:	0013c210 	andseq	ip, r3, r0, lsl r2
    175c:	54000110 	strpl	r0, [r0], #-272	; 0xfffffef0
    1760:	100013c2 	andne	r1, r0, r2, asr #7
    1764:	100013d0 	ldrdne	r1, [r0], -r0
    1768:	01740003 	cmneq	r4, r3
    176c:	0013d09f 	mulseq	r3, pc, r0	; <UNPREDICTABLE>
    1770:	0013ea10 	andseq	lr, r3, r0, lsl sl
    1774:	54000110 	strpl	r0, [r0], #-272	; 0xfffffef0
    1778:	100013f4 	strdne	r1, [r0], -r4
    177c:	1000140e 	andne	r1, r0, lr, lsl #8
    1780:	0e540001 	cdpeq	0, 5, cr0, cr4, cr1, {0}
    1784:	1c100014 	ldcne	0, cr0, [r0], {20}
    1788:	03100014 	tsteq	r0, #20
    178c:	9f017400 	svcls	0x00017400
    1790:	1000141c 	andne	r1, r0, ip, lsl r4
    1794:	10001436 	andne	r1, r0, r6, lsr r4
    1798:	36540001 	ldrbcc	r0, [r4], -r1
    179c:	44100014 	ldrmi	r0, [r0], #-20	; 0xffffffec
    17a0:	03100014 	tsteq	r0, #20
    17a4:	9f017400 	svcls	0x00017400
    17a8:	10001444 	andne	r1, r0, r4, asr #8
    17ac:	1000144e 	andne	r1, r0, lr, asr #8
    17b0:	4e540001 	cdpmi	0, 5, cr0, cr4, cr1, {0}
    17b4:	5c100014 	ldcpl	0, cr0, [r0], {20}
    17b8:	03100014 	tsteq	r0, #20
    17bc:	9f017400 	svcls	0x00017400
    17c0:	1000145c 	andne	r1, r0, ip, asr r4
    17c4:	1000145e 	andne	r1, r0, lr, asr r4
    17c8:	00540001 	subseq	r0, r4, r1
    17cc:	00000000 	andeq	r0, r0, r0
    17d0:	03000000 	movweq	r0, #0
	...
    17dc:	0010e000 	andseq	lr, r0, r0
    17e0:	00126610 	andseq	r6, r2, r0, lsl r6
    17e4:	9e000a10 	vmovls	s0, r0
    17e8:	00000008 	andeq	r0, r0, r8
    17ec:	00000000 	andeq	r0, r0, r0
    17f0:	00126600 	andseq	r6, r2, r0, lsl #12
    17f4:	00126810 	andseq	r6, r2, r0, lsl r8
    17f8:	52000610 	andpl	r0, r0, #16, 12	; 0x1000000
    17fc:	93530493 	cmpls	r3, #-1828716544	; 0x93000000
    1800:	00126804 	andseq	r6, r2, r4, lsl #16
    1804:	0012a210 	andseq	sl, r2, r0, lsl r2
    1808:	91000310 	tstls	r0, r0, lsl r3
    180c:	12a27fa0 	adcne	r7, r2, #160, 30	; 0x280
    1810:	12c61000 	sbcne	r1, r6, #0
    1814:	00061000 	andeq	r1, r6, r0
    1818:	58049357 	stmdapl	r4, {r0, r1, r2, r4, r6, r8, r9, ip, pc}
    181c:	12c60493 	sbcne	r0, r6, #-1828716544	; 0x93000000
    1820:	13421000 	movtne	r1, #8192	; 0x2000
    1824:	00031000 	andeq	r1, r3, r0
    1828:	007fa091 			; <UNDEFINED> instruction: 0x007fa091
    182c:	00000000 	andeq	r0, r0, r0
    1830:	01000000 	mrseq	r0, (UNDEF: 0)
    1834:	00000000 	andeq	r0, r0, r0
    1838:	00000101 	andeq	r0, r0, r1, lsl #2
    183c:	3a000000 	bcc	1844 <__HEAP_SIZE+0x844>
    1840:	4e100011 	mrcmi	0, 0, r0, cr0, cr1, {0}
    1844:	02100011 	andseq	r0, r0, #17
    1848:	4e9f3000 	cdpmi	0, 9, cr3, cr15, cr0, {0}
    184c:	72100011 	andsvc	r0, r0, #17
    1850:	03100011 	tsteq	r0, #17
    1854:	7fac9100 	svcvc	0x00ac9100
    1858:	100011fa 	strdne	r1, [r0], -sl
    185c:	100011fa 	strdne	r1, [r0], -sl
    1860:	9f300002 	svcls	0x00300002
    1864:	100011fa 	strdne	r1, [r0], -sl
    1868:	10001210 	andne	r1, r0, r0, lsl r2
    186c:	9f310002 	svcls	0x00310002
    1870:	10001210 	andne	r1, r0, r0, lsl r2
    1874:	100013ea 	andne	r1, r0, sl, ror #7
    1878:	ac910003 	ldcge	0, cr0, [r1], {3}
    187c:	0013f47f 	andseq	pc, r3, pc, ror r4	; <UNPREDICTABLE>
    1880:	00145e10 	andseq	r5, r4, r0, lsl lr
    1884:	91000310 	tstls	r0, r0, lsl r3
    1888:	00007fac 	andeq	r7, r0, ip, lsr #31
	...
    189c:	1000121e 	andne	r1, r0, lr, lsl r2
    18a0:	10001221 	andne	r1, r0, r1, lsr #4
    18a4:	21500001 	cmpcs	r0, r1
    18a8:	6e100012 	mrcvs	0, 0, r0, cr0, cr2, {0}
    18ac:	01100013 	tsteq	r0, r3, lsl r0
    18b0:	136e5600 	cmnne	lr, #0, 12
    18b4:	13ae1000 			; <UNDEFINED> instruction: 0x13ae1000
    18b8:	00011000 	andeq	r1, r1, r0
    18bc:	0013ae52 	andseq	sl, r3, r2, asr lr
    18c0:	0013ea10 	andseq	lr, r3, r0, lsl sl
    18c4:	56000110 			; <UNDEFINED> instruction: 0x56000110
    18c8:	100013f4 	strdne	r1, [r0], -r4
    18cc:	1000145e 	andne	r1, r0, lr, asr r4
    18d0:	00560001 	subseq	r0, r6, r1
	...
    18dc:	48000000 	stmdami	r0, {}	; <UNPREDICTABLE>
    18e0:	4b100012 	blmi	401930 <__RAM_SIZE+0x301930>
    18e4:	06100012 			; <UNDEFINED> instruction: 0x06100012
    18e8:	04935200 	ldreq	r5, [r3], #512	; 0x200
    18ec:	4b049353 	blmi	126640 <__RAM_SIZE+0x26640>
    18f0:	66100012 			; <UNDEFINED> instruction: 0x66100012
    18f4:	03100012 	tsteq	r0, #18
    18f8:	7fa09100 	svcvc	0x00a09100
	...
    1904:	01000000 	mrseq	r0, (UNDEF: 0)
    1908:	00000001 	andeq	r0, r0, r1
    190c:	00010100 	andeq	r0, r1, r0, lsl #2
    1910:	1000124e 	andne	r1, r0, lr, asr #4
    1914:	10001251 	andne	r1, r0, r1, asr r2
    1918:	51500001 	cmppl	r0, r1
    191c:	86100012 			; <UNDEFINED> instruction: 0x86100012
    1920:	01100012 	tsteq	r0, r2, lsl r0
    1924:	12865700 	addne	r5, r6, #0, 14
    1928:	128a1000 	addne	r1, sl, #0
    192c:	00021000 	andeq	r1, r2, r0
    1930:	128a9f30 	addne	r9, sl, #48, 30	; 0xc0
    1934:	12a01000 	adcne	r1, r0, #0
    1938:	00011000 	andeq	r1, r1, r0
    193c:	0012c657 	andseq	ip, r2, r7, asr r6
    1940:	00130a10 	andseq	r0, r3, r0, lsl sl
    1944:	57000110 	smladpl	r0, r0, r1, r0
    1948:	1000130a 	andne	r1, r0, sl, lsl #6
    194c:	10001316 	andne	r1, r0, r6, lsl r3
    1950:	00510001 	subseq	r0, r1, r1
	...
    195c:	e2000000 	and	r0, r0, #0
    1960:	1c100012 	ldcne	0, cr0, [r0], {18}
    1964:	01100013 	tsteq	r0, r3, lsl r0
    1968:	131c5500 	tstne	ip, #0, 10
    196c:	13301000 	teqne	r0, #0
    1970:	00011000 	andeq	r1, r1, r0
    1974:	00000053 	andeq	r0, r0, r3, asr r0
    1978:	00000000 	andeq	r0, r0, r0
    197c:	000c1000 	andeq	r1, ip, r0
    1980:	000c1410 	andeq	r1, ip, r0, lsl r4
    1984:	7d000210 	sfmvc	f0, 4, [r0, #-64]	; 0xffffffc0
    1988:	000c1400 	andeq	r1, ip, r0, lsl #8
    198c:	000c1610 	andeq	r1, ip, r0, lsl r6
    1990:	7d000210 	sfmvc	f0, 4, [r0, #-64]	; 0xffffffc0
    1994:	000c1624 	andeq	r1, ip, r4, lsr #12
    1998:	000cd210 	andeq	sp, ip, r0, lsl r2
    199c:	7d000310 	stcvc	3, cr0, [r0, #-64]	; 0xffffffc0
    19a0:	0cd200f8 	ldcleq	0, cr0, [r2], {248}	; 0xf8
    19a4:	0cd61000 	ldcleq	0, cr1, [r6], {0}
    19a8:	00021000 	andeq	r1, r2, r0
    19ac:	0000247d 	andeq	r2, r0, sp, ror r4
	...
    19bc:	0c100000 	ldceq	0, cr0, [r0], {-0}
    19c0:	0c461000 	mareq	acc0, r1, r6
    19c4:	00011000 	andeq	r1, r1, r0
    19c8:	000c4650 	andeq	r4, ip, r0, asr r6
    19cc:	000ca410 	andeq	sl, ip, r0, lsl r4
    19d0:	91000310 	tstls	r0, r0, lsl r3
    19d4:	0ca47fac 	stceq	15, cr7, [r4], #688	; 0x2b0
    19d8:	0ca81000 	stceq	0, cr1, [r8]
    19dc:	00011000 	andeq	r1, r1, r0
    19e0:	000ca850 	andeq	sl, ip, r0, asr r8
    19e4:	000cd610 	andeq	sp, ip, r0, lsl r6
    19e8:	91000310 	tstls	r0, r0, lsl r3
    19ec:	00007fac 	andeq	r7, r0, ip, lsr #31
	...
    19fc:	0c100000 	ldceq	0, cr0, [r0], {-0}
    1a00:	0c461000 	mareq	acc0, r1, r6
    1a04:	00011000 	andeq	r1, r1, r0
    1a08:	000c4651 	andeq	r4, ip, r1, asr r6
    1a0c:	000ca410 	andeq	sl, ip, r0, lsl r4
    1a10:	91000310 	tstls	r0, r0, lsl r3
    1a14:	0ca47fb0 	stceq	15, cr7, [r4], #704	; 0x2c0
    1a18:	0ca81000 	stceq	0, cr1, [r8]
    1a1c:	00011000 	andeq	r1, r1, r0
    1a20:	000ca851 	andeq	sl, ip, r1, asr r8
    1a24:	000cd610 	andeq	sp, ip, r0, lsl r6
    1a28:	91000310 	tstls	r0, r0, lsl r3
    1a2c:	00007fb0 			; <UNDEFINED> instruction: 0x00007fb0
	...
    1a3c:	0c100000 	ldceq	0, cr0, [r0], {-0}
    1a40:	0c461000 	mareq	acc0, r1, r6
    1a44:	00011000 	andeq	r1, r1, r0
    1a48:	000c4652 	andeq	r4, ip, r2, asr r6
    1a4c:	000ca410 	andeq	sl, ip, r0, lsl r4
    1a50:	91000310 	tstls	r0, r0, lsl r3
    1a54:	0ca47fb4 	stceq	15, cr7, [r4], #720	; 0x2d0
    1a58:	0ca81000 	stceq	0, cr1, [r8]
    1a5c:	00011000 	andeq	r1, r1, r0
    1a60:	000ca852 	andeq	sl, ip, r2, asr r8
    1a64:	000cd610 	andeq	sp, ip, r0, lsl r6
    1a68:	91000310 	tstls	r0, r0, lsl r3
    1a6c:	00007fb4 			; <UNDEFINED> instruction: 0x00007fb4
	...
    1a78:	0c100000 	ldceq	0, cr0, [r0], {-0}
    1a7c:	0c301000 	ldceq	0, cr1, [r0], #-0
    1a80:	00011000 	andeq	r1, r1, r0
    1a84:	000c3053 	andeq	r3, ip, r3, asr r0
    1a88:	000cd610 	andeq	sp, ip, r0, lsl r6
    1a8c:	5b000110 	blpl	1ed4 <__HEAP_SIZE+0xed4>
	...
    1aa0:	0c100000 	ldceq	0, cr0, [r0], {-0}
    1aa4:	0c461000 	mareq	acc0, r1, r6
    1aa8:	00021000 	andeq	r1, r2, r0
    1aac:	0c460091 	mcrreq	0, 9, r0, r6, cr1
    1ab0:	0c681000 	stcleq	0, cr1, [r8], #-0
    1ab4:	00061000 	andeq	r1, r6, r0
    1ab8:	56049355 			; <UNDEFINED> instruction: 0x56049355
    1abc:	0c680493 	cfstrdeq	mvd0, [r8], #-588	; 0xfffffdb4
    1ac0:	0c7c1000 	ldcleq	0, cr1, [ip], #-0
    1ac4:	00061000 	andeq	r1, r6, r0
    1ac8:	51049350 	tstpl	r4, r0, asr r3
    1acc:	0c7c0493 	cfldrdeq	mvd0, [ip], #-588	; 0xfffffdb4
    1ad0:	0ca41000 	stceq	0, cr1, [r4]
    1ad4:	00061000 	andeq	r1, r6, r0
    1ad8:	56049355 			; <UNDEFINED> instruction: 0x56049355
    1adc:	0ca40493 	cfstrseq	mvf0, [r4], #588	; 0x24c
    1ae0:	0ca81000 	stceq	0, cr1, [r8]
    1ae4:	00021000 	andeq	r1, r2, r0
    1ae8:	00000091 	muleq	r0, r1, r0
	...
    1af4:	0c100000 	ldceq	0, cr0, [r0], {-0}
    1af8:	0c361000 	ldceq	0, cr1, [r6], #-0
    1afc:	00021000 	andeq	r1, r2, r0
    1b00:	0c362091 	ldceq	0, cr2, [r6], #-580	; 0xfffffdbc
    1b04:	0cd61000 	ldcleq	0, cr1, [r6], {0}
    1b08:	00011000 	andeq	r1, r1, r0
    1b0c:	0000005a 	andeq	r0, r0, sl, asr r0
    1b10:	00000000 	andeq	r0, r0, r0
    1b14:	00000200 	andeq	r0, r0, r0, lsl #4
	...
    1b20:	000c2c00 	andeq	r2, ip, r0, lsl #24
    1b24:	000c4610 	andeq	r4, ip, r0, lsl r6
    1b28:	30000210 	andcc	r0, r0, r0, lsl r2
    1b2c:	000c469f 	muleq	ip, pc, r6	; <UNPREDICTABLE>
    1b30:	000c5010 	andeq	r5, ip, r0, lsl r0
    1b34:	54000110 	strpl	r0, [r0], #-272	; 0xfffffef0
    1b38:	10000c50 	andne	r0, r0, r0, asr ip
    1b3c:	10000c7c 	andne	r0, r0, ip, ror ip
    1b40:	7c590001 	mrrcvc	0, 0, r0, r9, cr1
    1b44:	a410000c 	ldrge	r0, [r0], #-12
    1b48:	0110000c 	tsteq	r0, ip
    1b4c:	0ca45400 	cfstrseq	mvf5, [r4]
    1b50:	0ca81000 	stceq	0, cr1, [r8]
    1b54:	00021000 	andeq	r1, r2, r0
    1b58:	0ca89f30 	stceq	15, cr9, [r8], #192	; 0xc0
    1b5c:	0cd61000 	ldcleq	0, cr1, [r6], {0}
    1b60:	00011000 	andeq	r1, r1, r0
    1b64:	00000059 	andeq	r0, r0, r9, asr r0
	...
    1b70:	000c4600 	andeq	r4, ip, r0, lsl #12
    1b74:	000c5410 	andeq	r5, ip, r0, lsl r4
    1b78:	53000110 	movwpl	r0, #272	; 0x110
    1b7c:	10000c8a 	andne	r0, r0, sl, lsl #25
    1b80:	10000ca4 	andne	r0, r0, r4, lsr #25
    1b84:	00530001 	subseq	r0, r3, r1
    1b88:	00000000 	andeq	r0, r0, r0
    1b8c:	7c000000 	stcvc	0, cr0, [r0], {-0}
    1b90:	7e10000b 	cdpvc	0, 1, cr0, cr0, cr11, {0}
    1b94:	0210000b 	andseq	r0, r0, #11
    1b98:	7e007d00 	cdpvc	13, 0, cr7, cr0, cr0, {0}
    1b9c:	8010000b 	andshi	r0, r0, fp
    1ba0:	0210000b 	andseq	r0, r0, #11
    1ba4:	80147d00 	andshi	r7, r4, r0, lsl #26
    1ba8:	0e10000b 	cdpeq	0, 1, cr0, cr0, cr11, {0}
    1bac:	0310000c 	tsteq	r0, #12
    1bb0:	00d87d00 	sbcseq	r7, r8, r0, lsl #26
    1bb4:	10000c0e 	andne	r0, r0, lr, lsl #24
    1bb8:	10000c10 	andne	r0, r0, r0, lsl ip
    1bbc:	147d0002 	ldrbtne	r0, [sp], #-2
	...
    1bcc:	10000b7c 	andne	r0, r0, ip, ror fp
    1bd0:	10000c0b 	andne	r0, r0, fp, lsl #24
    1bd4:	0b500001 	bleq	1401be0 <__RAM_SIZE+0x1301be0>
    1bd8:	1010000c 	andsne	r0, r0, ip
    1bdc:	0410000c 	ldreq	r0, [r0], #-12
    1be0:	5001f300 	andpl	pc, r1, r0, lsl #6
    1be4:	0000009f 	muleq	r0, pc, r0	; <UNPREDICTABLE>
	...
    1bf0:	000b7c00 	andeq	r7, fp, r0, lsl #24
    1bf4:	000c0b10 	andeq	r0, ip, r0, lsl fp
    1bf8:	51000110 	tstpl	r0, r0, lsl r1
    1bfc:	10000c0b 	andne	r0, r0, fp, lsl #24
    1c00:	10000c10 	andne	r0, r0, r0, lsl ip
    1c04:	01f30004 	mvnseq	r0, r4
    1c08:	00009f51 	andeq	r9, r0, r1, asr pc
	...
    1c14:	0b7c0000 	bleq	1f01c1c <__RAM_SIZE+0x1e01c1c>
    1c18:	0c0b1000 	stceq	0, cr1, [fp], {-0}
    1c1c:	00011000 	andeq	r1, r1, r0
    1c20:	000c0b52 	andeq	r0, ip, r2, asr fp
    1c24:	000c1010 	andeq	r1, ip, r0, lsl r0
    1c28:	f3000410 	vqshl.u8	d0, d0, d0
    1c2c:	009f5201 	addseq	r5, pc, r1, lsl #4
	...
    1c38:	7c000000 	stcvc	0, cr0, [r0], {-0}
    1c3c:	0b10000b 	bleq	401c70 <__RAM_SIZE+0x301c70>
    1c40:	0110000c 	tsteq	r0, ip
    1c44:	0c0b5300 	stceq	3, cr5, [fp], {-0}
    1c48:	0c101000 	ldceq	0, cr1, [r0], {-0}
    1c4c:	00041000 	andeq	r1, r4, r0
    1c50:	9f5301f3 	svcls	0x005301f3
	...
    1c64:	0b7c0000 	bleq	1f01c6c <__RAM_SIZE+0x1e01c6c>
    1c68:	0b9a1000 	bleq	fe685c70 <__StackTop+0xc6585c70>
    1c6c:	00021000 	andeq	r1, r2, r0
    1c70:	0b9a0091 	bleq	fe681ebc <__StackTop+0xc6581ebc>
    1c74:	0bb41000 	bleq	fed05c7c <__StackTop+0xc6c05c7c>
    1c78:	00011000 	andeq	r1, r1, r0
    1c7c:	000bb454 	andeq	fp, fp, r4, asr r4
    1c80:	000bc010 	andeq	ip, fp, r0, lsl r0
    1c84:	5c000110 	stfpls	f0, [r0], {16}
    1c88:	10000bc0 	andne	r0, r0, r0, asr #23
    1c8c:	10000bee 	andne	r0, r0, lr, ror #23
    1c90:	ee540001 	cdp	0, 5, cr0, cr4, cr1, {0}
    1c94:	f010000b 			; <UNDEFINED> instruction: 0xf010000b
    1c98:	0210000b 	andseq	r0, r0, #11
    1c9c:	00009100 	andeq	r9, r0, r0, lsl #2
	...
    1ca8:	7c000000 	stcvc	0, cr0, [r0], {-0}
    1cac:	8c10000b 	ldchi	0, cr0, [r0], {11}
    1cb0:	0210000b 	andseq	r0, r0, #11
    1cb4:	8c149100 	ldfhid	f1, [r4], {-0}
    1cb8:	1010000b 	andsne	r0, r0, fp
    1cbc:	0110000c 	tsteq	r0, ip
    1cc0:	00005600 	andeq	r5, r0, r0, lsl #12
    1cc4:	00000000 	andeq	r0, r0, r0
    1cc8:	00020000 	andeq	r0, r2, r0
	...
    1cd4:	0b860000 	bleq	fe181cdc <__StackTop+0xc6081cdc>
    1cd8:	0b9a1000 	bleq	fe685ce0 <__StackTop+0xc6585ce0>
    1cdc:	00021000 	andeq	r1, r2, r0
    1ce0:	0b9a9f30 	bleq	fe6a99a8 <__StackTop+0xc65a99a8>
    1ce4:	0ba61000 	bleq	fe985cec <__StackTop+0xc6885cec>
    1ce8:	00011000 	andeq	r1, r1, r0
    1cec:	000ba65e 	andeq	sl, fp, lr, asr r6
    1cf0:	000bc010 	andeq	ip, fp, r0, lsl r0
    1cf4:	57000110 	smladpl	r0, r0, r1, r0
    1cf8:	10000bc0 	andne	r0, r0, r0, asr #23
    1cfc:	10000bee 	andne	r0, r0, lr, ror #23
    1d00:	ee5e0001 	cdp	0, 5, cr0, cr14, cr1, {0}
    1d04:	f010000b 			; <UNDEFINED> instruction: 0xf010000b
    1d08:	0210000b 	andseq	r0, r0, #11
    1d0c:	f09f3000 			; <UNDEFINED> instruction: 0xf09f3000
    1d10:	1010000b 	andsne	r0, r0, fp
    1d14:	0110000c 	tsteq	r0, ip
    1d18:	00005700 	andeq	r5, r0, r0, lsl #14
	...
    1d2c:	0b9a0000 	bleq	fe681d34 <__StackTop+0xc6581d34>
    1d30:	0b9e1000 	bleq	fe785d38 <__StackTop+0xc6685d38>
    1d34:	00011000 	andeq	r1, r1, r0
    1d38:	000b9e5c 	andeq	r9, fp, ip, asr lr
    1d3c:	000ba210 	andeq	sl, fp, r0, lsl r2
    1d40:	7c000310 	stcvc	3, cr0, [r0], {16}
    1d44:	0ba29f50 	bleq	fe8a9a8c <__StackTop+0xc67a9a8c>
    1d48:	0bc01000 	bleq	ff005d50 <__StackTop+0xc6f05d50>
    1d4c:	00121000 	andseq	r1, r2, r0
    1d50:	00740074 	rsbseq	r0, r4, r4, ror r0
    1d54:	007530f7 	ldrshteq	r3, [r5], #-7
    1d58:	f71b30f7 			; <UNDEFINED> instruction: 0xf71b30f7
    1d5c:	1e007500 	cfsh32ne	mvfx7, mvfx0, #0
    1d60:	0bcc9f1c 	bleq	ff3299d8 <__StackTop+0xc72299d8>
    1d64:	0bdc1000 	bleq	ff705d6c <__StackTop+0xc7605d6c>
    1d68:	00011000 	andeq	r1, r1, r0
    1d6c:	000bdc5c 	andeq	sp, fp, ip, asr ip
    1d70:	000bea10 	andeq	lr, fp, r0, lsl sl
    1d74:	74001210 	strvc	r1, [r0], #-528	; 0xfffffdf0
    1d78:	f7007400 			; <UNDEFINED> instruction: 0xf7007400
    1d7c:	f7007530 			; <UNDEFINED> instruction: 0xf7007530
    1d80:	00f71b30 	rscseq	r1, r7, r0, lsr fp
    1d84:	1c1e0075 	ldcne	0, cr0, [lr], {117}	; 0x75
    1d88:	000bea9f 	muleq	fp, pc, sl	; <UNPREDICTABLE>
    1d8c:	000bee10 	andeq	lr, fp, r0, lsl lr
    1d90:	5c000110 	stfpls	f0, [r0], {16}
	...
    1d9c:	10000a44 	andne	r0, r0, r4, asr #20
    1da0:	10000a48 	andne	r0, r0, r8, asr #20
    1da4:	007d0002 	rsbseq	r0, sp, r2
    1da8:	10000a48 	andne	r0, r0, r8, asr #20
    1dac:	10000a4a 	andne	r0, r0, sl, asr #20
    1db0:	1c7d0002 	ldclne	0, cr0, [sp], #-8
    1db4:	10000a4a 	andne	r0, r0, sl, asr #20
    1db8:	10000b00 	andne	r0, r0, r0, lsl #22
    1dbc:	307d0002 	rsbscc	r0, sp, r2
    1dc0:	10000b00 	andne	r0, r0, r0, lsl #22
    1dc4:	10000b04 	andne	r0, r0, r4, lsl #22
    1dc8:	1c7d0002 	ldclne	0, cr0, [sp], #-8
    1dcc:	10000b04 	andne	r0, r0, r4, lsl #22
    1dd0:	10000b7c 	andne	r0, r0, ip, ror fp
    1dd4:	307d0002 	rsbscc	r0, sp, r2
	...
    1de4:	0a440000 	beq	1101dec <__RAM_SIZE+0x1001dec>
    1de8:	0afd1000 	beq	fff45df0 <__StackTop+0xc7e45df0>
    1dec:	00011000 	andeq	r1, r1, r0
    1df0:	000afd50 	andeq	pc, sl, r0, asr sp	; <UNPREDICTABLE>
    1df4:	000b0410 	andeq	r0, fp, r0, lsl r4
    1df8:	f3000410 	vqshl.u8	d0, d0, d0
    1dfc:	049f5001 	ldreq	r5, [pc], #1	; 1e04 <__HEAP_SIZE+0xe04>
    1e00:	7c10000b 	ldcvc	0, cr0, [r0], {11}
    1e04:	0110000b 	tsteq	r0, fp
    1e08:	00005000 	andeq	r5, r0, r0
	...
    1e18:	10000a44 	andne	r0, r0, r4, asr #20
    1e1c:	10000afd 	strdne	r0, [r0], -sp
    1e20:	fd510001 	ldc2l	0, cr0, [r1, #-4]
    1e24:	0410000a 	ldreq	r0, [r0], #-10
    1e28:	0410000b 	ldreq	r0, [r0], #-11
    1e2c:	5101f300 	mrspl	pc, SP_irq	; <UNPREDICTABLE>
    1e30:	000b049f 	muleq	fp, pc, r4	; <UNPREDICTABLE>
    1e34:	000b7c10 	andeq	r7, fp, r0, lsl ip
    1e38:	51000110 	tstpl	r0, r0, lsl r1
	...
    1e48:	0a440000 	beq	1101e50 <__RAM_SIZE+0x1001e50>
    1e4c:	0afd1000 	beq	fff45e54 <__StackTop+0xc7e45e54>
    1e50:	00011000 	andeq	r1, r1, r0
    1e54:	000afd52 	andeq	pc, sl, r2, asr sp	; <UNPREDICTABLE>
    1e58:	000b0410 	andeq	r0, fp, r0, lsl r4
    1e5c:	f3000410 	vqshl.u8	d0, d0, d0
    1e60:	049f5201 	ldreq	r5, [pc], #513	; 1e68 <__HEAP_SIZE+0xe68>
    1e64:	7c10000b 	ldcvc	0, cr0, [r0], {11}
    1e68:	0110000b 	tsteq	r0, fp
    1e6c:	00005200 	andeq	r5, r0, r0, lsl #4
	...
    1e7c:	10000a44 	andne	r0, r0, r4, asr #20
    1e80:	10000afd 	strdne	r0, [r0], -sp
    1e84:	fd530001 	ldc2l	0, cr0, [r3, #-4]
    1e88:	0410000a 	ldreq	r0, [r0], #-10
    1e8c:	0410000b 	ldreq	r0, [r0], #-11
    1e90:	5301f300 	movwpl	pc, #4864	; 0x1300	; <UNPREDICTABLE>
    1e94:	000b049f 	muleq	fp, pc, r4	; <UNPREDICTABLE>
    1e98:	000b7c10 	andeq	r7, fp, r0, lsl ip
    1e9c:	53000110 	movwpl	r0, #272	; 0x110
	...
    1eac:	10000a44 	andne	r0, r0, r4, asr #20
    1eb0:	10000b04 	andne	r0, r0, r4, lsl #22
    1eb4:	00910002 	addseq	r0, r1, r2
    1eb8:	10000b04 	andne	r0, r0, r4, lsl #22
    1ebc:	10000b7c 	andne	r0, r0, ip, ror fp
    1ec0:	00910002 	addseq	r0, r1, r2
	...
    1ecc:	01000000 	mrseq	r0, (UNDEF: 0)
    1ed0:	01000001 	tsteq	r0, r1
    1ed4:	01000001 	tsteq	r0, r1
    1ed8:	01000001 	tsteq	r0, r1
    1edc:	01000001 	tsteq	r0, r1
    1ee0:	00000001 	andeq	r0, r0, r1
    1ee4:	00000000 	andeq	r0, r0, r0
    1ee8:	00010100 	andeq	r0, r1, r0, lsl #2
    1eec:	00010100 	andeq	r0, r1, r0, lsl #2
    1ef0:	00010100 	andeq	r0, r1, r0, lsl #2
    1ef4:	00010100 	andeq	r0, r1, r0, lsl #2
    1ef8:	00010100 	andeq	r0, r1, r0, lsl #2
    1efc:	0a440000 	beq	1101f04 <__RAM_SIZE+0x1001f04>
    1f00:	0a7c1000 	beq	1f05f08 <__RAM_SIZE+0x1e05f08>
    1f04:	00021000 	andeq	r1, r2, r0
    1f08:	0a7c0491 	beq	1f03154 <__RAM_SIZE+0x1e03154>
    1f0c:	0a7c1000 	beq	1f05f14 <__RAM_SIZE+0x1e05f14>
    1f10:	00011000 	andeq	r1, r1, r0
    1f14:	000a7c54 	andeq	r7, sl, r4, asr ip
    1f18:	000a8610 	andeq	r8, sl, r0, lsl r6
    1f1c:	74000310 	strvc	r0, [r0], #-784	; 0xfffffcf0
    1f20:	0a869f01 	beq	fe1a9b2c <__StackTop+0xc60a9b2c>
    1f24:	0a9c1000 	beq	fe705f2c <__StackTop+0xc6605f2c>
    1f28:	00011000 	andeq	r1, r1, r0
    1f2c:	000a9c54 	andeq	r9, sl, r4, asr ip
    1f30:	000aa610 	andeq	sl, sl, r0, lsl r6
    1f34:	74000310 	strvc	r0, [r0], #-784	; 0xfffffcf0
    1f38:	0aa69f01 	beq	fe9a9b44 <__StackTop+0xc68a9b44>
    1f3c:	0ad41000 	beq	ff505f44 <__StackTop+0xc7405f44>
    1f40:	00011000 	andeq	r1, r1, r0
    1f44:	000ad454 	andeq	sp, sl, r4, asr r4
    1f48:	000ade10 	andeq	sp, sl, r0, lsl lr
    1f4c:	74000310 	strvc	r0, [r0], #-784	; 0xfffffcf0
    1f50:	0ade9f01 	beq	ff7a9b5c <__StackTop+0xc76a9b5c>
    1f54:	0ae81000 	beq	ffa05f5c <__StackTop+0xc7905f5c>
    1f58:	00011000 	andeq	r1, r1, r0
    1f5c:	000ae854 	andeq	lr, sl, r4, asr r8
    1f60:	000af210 	andeq	pc, sl, r0, lsl r2	; <UNPREDICTABLE>
    1f64:	74000310 	strvc	r0, [r0], #-784	; 0xfffffcf0
    1f68:	0af29f01 	beq	ffca9b74 <__StackTop+0xc7ba9b74>
    1f6c:	0b041000 	bleq	105f74 <__RAM_SIZE+0x5f74>
    1f70:	00011000 	andeq	r1, r1, r0
    1f74:	000b0454 	andeq	r0, fp, r4, asr r4
    1f78:	000b0810 	andeq	r0, fp, r0, lsl r8
    1f7c:	74000310 	strvc	r0, [r0], #-784	; 0xfffffcf0
    1f80:	0b089f7f 	bleq	229d84 <__RAM_SIZE+0x129d84>
    1f84:	0b161000 	bleq	585f8c <__RAM_SIZE+0x485f8c>
    1f88:	00011000 	andeq	r1, r1, r0
    1f8c:	000b165c 	andeq	r1, fp, ip, asr r6
    1f90:	000b1810 	andeq	r1, fp, r0, lsl r8
    1f94:	54000110 	strpl	r0, [r0], #-272	; 0xfffffef0
    1f98:	10000b18 	andne	r0, r0, r8, lsl fp
    1f9c:	10000b1c 	andne	r0, r0, ip, lsl fp
    1fa0:	1c5c0001 	mrrcne	0, 0, r0, ip, cr1
    1fa4:	2610000b 	ldrcs	r0, [r0], -fp
    1fa8:	0110000b 	tsteq	r0, fp
    1fac:	0b265400 	bleq	996fb4 <__RAM_SIZE+0x896fb4>
    1fb0:	0b301000 	bleq	c05fb8 <__RAM_SIZE+0xb05fb8>
    1fb4:	00031000 	andeq	r1, r3, r0
    1fb8:	309f0174 	addscc	r0, pc, r4, ror r1	; <UNPREDICTABLE>
    1fbc:	3c10000b 	ldccc	0, cr0, [r0], {11}
    1fc0:	0110000b 	tsteq	r0, fp
    1fc4:	0b3c5400 	bleq	f16fcc <__RAM_SIZE+0xe16fcc>
    1fc8:	0b461000 	bleq	1185fd0 <__RAM_SIZE+0x1085fd0>
    1fcc:	00031000 	andeq	r1, r3, r0
    1fd0:	469f0174 			; <UNDEFINED> instruction: 0x469f0174
    1fd4:	4c10000b 	ldcmi	0, cr0, [r0], {11}
    1fd8:	0110000b 	tsteq	r0, fp
    1fdc:	0b4c5400 	bleq	1316fe4 <__RAM_SIZE+0x1216fe4>
    1fe0:	0b561000 	bleq	1585fe8 <__RAM_SIZE+0x1485fe8>
    1fe4:	00031000 	andeq	r1, r3, r0
    1fe8:	569f0174 			; <UNDEFINED> instruction: 0x569f0174
    1fec:	5e10000b 	cdppl	0, 1, cr0, cr0, cr11, {0}
    1ff0:	0110000b 	tsteq	r0, fp
    1ff4:	0b5e5400 	bleq	1796ffc <__RAM_SIZE+0x1696ffc>
    1ff8:	0b681000 	bleq	1a06000 <__RAM_SIZE+0x1906000>
    1ffc:	00031000 	andeq	r1, r3, r0
    2000:	689f0174 	ldmvs	pc, {r2, r4, r5, r6, r8}	; <UNPREDICTABLE>
    2004:	7010000b 	andsvc	r0, r0, fp
    2008:	0110000b 	tsteq	r0, fp
    200c:	0b705400 	bleq	1c17014 <__RAM_SIZE+0x1b17014>
    2010:	0b7a1000 	bleq	1e86018 <__RAM_SIZE+0x1d86018>
    2014:	00031000 	andeq	r1, r3, r0
    2018:	7a9f0174 	bvc	fe7c25f0 <__StackTop+0xc66c25f0>
    201c:	7c10000b 	ldcvc	0, cr0, [r0], {11}
    2020:	0110000b 	tsteq	r0, fp
    2024:	00005400 	andeq	r5, r0, r0, lsl #8
	...
    2030:	0a440000 	beq	1102038 <__RAM_SIZE+0x1002038>
    2034:	0b041000 	bleq	10603c <__RAM_SIZE+0x603c>
    2038:	00021000 	andeq	r1, r2, r0
    203c:	0b040891 	bleq	104288 <__RAM_SIZE+0x4288>
    2040:	0b7c1000 	bleq	1f06048 <__RAM_SIZE+0x1e06048>
    2044:	00021000 	andeq	r1, r2, r0
    2048:	00000891 	muleq	r0, r1, r8
	...
    2054:	0a440000 	beq	110205c <__RAM_SIZE+0x100205c>
    2058:	0b041000 	bleq	106060 <__RAM_SIZE+0x6060>
    205c:	00021000 	andeq	r1, r2, r0
    2060:	0b040c91 	bleq	1052ac <__RAM_SIZE+0x52ac>
    2064:	0b7c1000 	bleq	1f0606c <__RAM_SIZE+0x1e0606c>
    2068:	00021000 	andeq	r1, r2, r0
    206c:	00000c91 	muleq	r0, r1, ip
	...
    2078:	0a440000 	beq	1102080 <__RAM_SIZE+0x1002080>
    207c:	0b041000 	bleq	106084 <__RAM_SIZE+0x6084>
    2080:	00021000 	andeq	r1, r2, r0
    2084:	0b041091 	bleq	1062d0 <__RAM_SIZE+0x62d0>
    2088:	0b7c1000 	bleq	1f06090 <__RAM_SIZE+0x1e06090>
    208c:	00021000 	andeq	r1, r2, r0
    2090:	00001091 	muleq	r0, r1, r0
	...
    209c:	0a440000 	beq	11020a4 <__RAM_SIZE+0x10020a4>
    20a0:	0a7a1000 	beq	1e860a8 <__RAM_SIZE+0x1d860a8>
    20a4:	00021000 	andeq	r1, r2, r0
    20a8:	0a7a1491 	beq	1e872f4 <__RAM_SIZE+0x1d872f4>
    20ac:	0b7c1000 	bleq	1f060b4 <__RAM_SIZE+0x1e060b4>
    20b0:	00011000 	andeq	r1, r1, r0
    20b4:	00000057 	andeq	r0, r0, r7, asr r0
	...
    20c0:	000a4400 	andeq	r4, sl, r0, lsl #8
    20c4:	000b0410 	andeq	r0, fp, r0, lsl r4
    20c8:	91000210 	tstls	r0, r0, lsl r2
    20cc:	000b0418 	andeq	r0, fp, r8, lsl r4
    20d0:	000b7c10 	andeq	r7, fp, r0, lsl ip
    20d4:	91000210 	tstls	r0, r0, lsl r2
    20d8:	00000018 	andeq	r0, r0, r8, lsl r0
    20dc:	00000000 	andeq	r0, r0, r0
    20e0:	0009c600 	andeq	ip, r9, r0, lsl #12
    20e4:	0009ca10 	andeq	ip, r9, r0, lsl sl
    20e8:	7d000210 	sfmvc	f0, 4, [r0, #-64]	; 0xffffffc0
    20ec:	0009ca00 	andeq	ip, r9, r0, lsl #20
    20f0:	0009cc10 	andeq	ip, r9, r0, lsl ip
    20f4:	7d000210 	sfmvc	f0, 4, [r0, #-64]	; 0xffffffc0
    20f8:	0009cc24 	andeq	ip, r9, r4, lsr #24
    20fc:	000a2a10 	andeq	r2, sl, r0, lsl sl
    2100:	7d000210 	sfmvc	f0, 4, [r0, #-64]	; 0xffffffc0
    2104:	000a2a30 	andeq	r2, sl, r0, lsr sl
    2108:	000a2e10 	andeq	r2, sl, r0, lsl lr
    210c:	7d000210 	sfmvc	f0, 4, [r0, #-64]	; 0xffffffc0
    2110:	000a2e24 	andeq	r2, sl, r4, lsr #28
    2114:	000a4410 	andeq	r4, sl, r0, lsl r4
    2118:	7d000210 	sfmvc	f0, 4, [r0, #-64]	; 0xffffffc0
    211c:	00000030 	andeq	r0, r0, r0, lsr r0
	...
    2128:	0009c600 	andeq	ip, r9, r0, lsl #12
    212c:	0009ea10 	andeq	lr, r9, r0, lsl sl
    2130:	50000110 	andpl	r0, r0, r0, lsl r1
    2134:	100009ea 	andne	r0, r0, sl, ror #19
    2138:	10000a44 	andne	r0, r0, r4, asr #20
    213c:	00550001 	subseq	r0, r5, r1
	...
    2148:	c6000000 	strgt	r0, [r0], -r0
    214c:	ea100009 	b	402178 <__RAM_SIZE+0x302178>
    2150:	01100009 	tsteq	r0, r9
    2154:	09ea5100 	stmibeq	sl!, {r8, ip, lr}^
    2158:	0a441000 	beq	1106160 <__RAM_SIZE+0x1006160>
    215c:	00011000 	andeq	r1, r1, r0
    2160:	00000056 	andeq	r0, r0, r6, asr r0
	...
    2174:	0009c600 	andeq	ip, r9, r0, lsl #12
    2178:	0009f210 	andeq	pc, r9, r0, lsl r2	; <UNPREDICTABLE>
    217c:	52000110 	andpl	r0, r0, #16, 2
    2180:	100009f2 	strdne	r0, [r0], -r2
    2184:	10000a02 	andne	r0, r0, r2, lsl #20
    2188:	025b0001 	subseq	r0, fp, #1
    218c:	0e10000a 	cdpeq	0, 1, cr0, cr0, cr10, {0}
    2190:	0110000a 	tsteq	r0, sl
    2194:	0a0e5200 	beq	39699c <__RAM_SIZE+0x29699c>
    2198:	0a1a1000 	beq	6861a0 <__RAM_SIZE+0x5861a0>
    219c:	00011000 	andeq	r1, r1, r0
    21a0:	000a1a58 	andeq	r1, sl, r8, asr sl
    21a4:	000a3810 	andeq	r3, sl, r0, lsl r8
    21a8:	52000110 	andpl	r0, r0, #16, 2
    21ac:	10000a38 	andne	r0, r0, r8, lsr sl
    21b0:	10000a44 	andne	r0, r0, r4, asr #20
    21b4:	00540001 	subseq	r0, r4, r1
	...
    21c0:	c6000000 	strgt	r0, [r0], -r0
    21c4:	e0100009 	ands	r0, r0, r9
    21c8:	01100009 	tsteq	r0, r9
    21cc:	09e05300 	stmibeq	r0!, {r8, r9, ip, lr}^
    21d0:	0a441000 	beq	11061d8 <__RAM_SIZE+0x10061d8>
    21d4:	00011000 	andeq	r1, r1, r0
    21d8:	00000057 	andeq	r0, r0, r7, asr r0
	...
    21e4:	0009c600 	andeq	ip, r9, r0, lsl #12
    21e8:	000a2e10 	andeq	r2, sl, r0, lsl lr
    21ec:	91000210 	tstls	r0, r0, lsl r2
    21f0:	000a2e00 	andeq	r2, sl, r0, lsl #28
    21f4:	000a4410 	andeq	r4, sl, r0, lsl r4
    21f8:	91000210 	tstls	r0, r0, lsl r2
	...
    2208:	0009c600 	andeq	ip, r9, r0, lsl #12
    220c:	000a0810 	andeq	r0, sl, r0, lsl r8
    2210:	91000210 	tstls	r0, r0, lsl r2
    2214:	000a0804 	andeq	r0, sl, r4, lsl #16
    2218:	000a2610 	andeq	r2, sl, r0, lsl r6
    221c:	54000110 	strpl	r0, [r0], #-272	; 0xfffffef0
	...
    222c:	100009c6 	andne	r0, r0, r6, asr #19
    2230:	10000a2e 	andne	r0, r0, lr, lsr #20
    2234:	08910002 	ldmeq	r1, {r1}
    2238:	10000a2e 	andne	r0, r0, lr, lsr #20
    223c:	10000a44 	andne	r0, r0, r4, asr #20
    2240:	08910002 	ldmeq	r1, {r1}
	...
    2250:	100009c6 	andne	r0, r0, r6, asr #19
    2254:	10000a2e 	andne	r0, r0, lr, lsr #20
    2258:	0c910002 	ldceq	0, cr0, [r1], {2}
    225c:	10000a2e 	andne	r0, r0, lr, lsr #20
    2260:	10000a44 	andne	r0, r0, r4, asr #20
    2264:	0c910002 	ldceq	0, cr0, [r1], {2}
	...
    2270:	00000001 	andeq	r0, r0, r1
    2274:	09de0000 	ldmibeq	lr, {}^	; <UNPREDICTABLE>
    2278:	09ea1000 	stmibeq	sl!, {ip}^
    227c:	00011000 	andeq	r1, r1, r0
    2280:	0009ea52 	andeq	lr, r9, r2, asr sl
    2284:	000a0810 	andeq	r0, sl, r0, lsl r8
    2288:	91000210 	tstls	r0, r0, lsl r2
    228c:	000a0854 	andeq	r0, sl, r4, asr r8
    2290:	000a4410 	andeq	r4, sl, r0, lsl r4
    2294:	f3000410 	vqshl.u8	d0, d0, d0
    2298:	009f5201 	addseq	r5, pc, r1, lsl #4
	...
    22a4:	0009ea00 	andeq	lr, r9, r0, lsl #20
    22a8:	000a0810 	andeq	r0, sl, r0, lsl r8
    22ac:	58000110 	stmdapl	r0, {r4, r8}
	...
    22bc:	100009a2 	andne	r0, r0, r2, lsr #19
    22c0:	100009a6 	andne	r0, r0, r6, lsr #19
    22c4:	a6500001 	ldrbge	r0, [r0], -r1
    22c8:	c6100009 	ldrgt	r0, [r0], -r9
    22cc:	01100009 	tsteq	r0, r9
    22d0:	00005100 	andeq	r5, r0, r0, lsl #2
    22d4:	00000000 	andeq	r0, r0, r0
    22d8:	00010000 	andeq	r0, r1, r0
    22dc:	00000000 	andeq	r0, r0, r0
    22e0:	100009a4 	andne	r0, r0, r4, lsr #19
    22e4:	100009a8 	andne	r0, r0, r8, lsr #19
    22e8:	9f300002 	svcls	0x00300002
    22ec:	100009a8 	andne	r0, r0, r8, lsr #19
    22f0:	100009ac 	andne	r0, r0, ip, lsr #19
    22f4:	b8500001 	ldmdalt	r0, {r0}^
    22f8:	c6100009 	ldrgt	r0, [r0], -r9
    22fc:	01100009 	tsteq	r0, r9
    2300:	00005000 	andeq	r5, r0, r0
	...
    230c:	09bc0000 	ldmibeq	ip!, {}	; <UNPREDICTABLE>
    2310:	09be1000 	ldmibeq	lr!, {ip}
    2314:	00011000 	andeq	r1, r1, r0
    2318:	0009be53 	andeq	fp, r9, r3, asr lr
    231c:	0009c010 	andeq	ip, r9, r0, lsl r0
    2320:	73000310 	movwvc	r0, #784	; 0x310
    2324:	00009f30 	andeq	r9, r0, r0, lsr pc
	...
    2334:	00020000 	andeq	r0, r2, r0
    2338:	0000007d 	andeq	r0, r0, sp, ror r0
    233c:	00000000 	andeq	r0, r0, r0
    2340:	00020000 	andeq	r0, r2, r0
    2344:	0000087d 	andeq	r0, r0, sp, ror r8
    2348:	00000000 	andeq	r0, r0, r0
    234c:	00020000 	andeq	r0, r2, r0
    2350:	0000007d 	andeq	r0, r0, sp, ror r0
	...
    2368:	00500001 	subseq	r0, r0, r1
    236c:	00000000 	andeq	r0, r0, r0
    2370:	04000000 	streq	r0, [r0], #-0
    2374:	5001f300 	andpl	pc, r1, r0, lsl #6
    2378:	0000009f 	muleq	r0, pc, r0	; <UNPREDICTABLE>
    237c:	00000000 	andeq	r0, r0, r0
    2380:	50000100 	andpl	r0, r0, r0, lsl #2
	...
    2398:	00010000 	andeq	r0, r1, r0
    239c:	00000051 	andeq	r0, r0, r1, asr r0
    23a0:	00000000 	andeq	r0, r0, r0
    23a4:	f3000400 	vshl.u8	d0, d0, d0
    23a8:	009f5101 	addseq	r5, pc, r1, lsl #2
    23ac:	00000000 	andeq	r0, r0, r0
    23b0:	01000000 	mrseq	r0, (UNDEF: 0)
    23b4:	00005100 	andeq	r5, r0, r0, lsl #2
	...
    23cc:	00520001 	subseq	r0, r2, r1
    23d0:	00000000 	andeq	r0, r0, r0
    23d4:	04000000 	streq	r0, [r0], #-0
    23d8:	5201f300 	andpl	pc, r1, #0, 6
    23dc:	0000009f 	muleq	r0, pc, r0	; <UNPREDICTABLE>
    23e0:	00000000 	andeq	r0, r0, r0
    23e4:	52000100 	andpl	r0, r0, #0, 2
	...
    23fc:	00010000 	andeq	r0, r1, r0
    2400:	00000053 	andeq	r0, r0, r3, asr r0
    2404:	00000000 	andeq	r0, r0, r0
    2408:	f3000400 	vshl.u8	d0, d0, d0
    240c:	009f5301 	addseq	r5, pc, r1, lsl #6
    2410:	00000000 	andeq	r0, r0, r0
    2414:	01000000 	mrseq	r0, (UNDEF: 0)
    2418:	00005300 	andeq	r5, r0, r0, lsl #6
    241c:	00000000 	andeq	r0, r0, r0
    2420:	1ae00000 	bne	ff802428 <__StackTop+0xc7702428>
    2424:	1ae61000 	bne	ff98642c <__StackTop+0xc788642c>
    2428:	00021000 	andeq	r1, r2, r0
    242c:	1ae6007d 	bne	ff982628 <__StackTop+0xc7882628>
    2430:	1aec1000 	bne	ffb06438 <__StackTop+0xc7a06438>
    2434:	00021000 	andeq	r1, r2, r0
    2438:	0000087d 	andeq	r0, r0, sp, ror r8
	...
    2444:	1ae00000 	bne	ff80244c <__StackTop+0xc770244c>
    2448:	1ae91000 	bne	ffa46450 <__StackTop+0xc7946450>
    244c:	00011000 	andeq	r1, r1, r0
    2450:	001ae950 	andseq	lr, sl, r0, asr r9
    2454:	001aec10 	andseq	lr, sl, r0, lsl ip
    2458:	f3000410 	vqshl.u8	d0, d0, d0
    245c:	009f5001 	addseq	r5, pc, r1
	...
    2468:	e0000000 	and	r0, r0, r0
    246c:	e910001a 	ldmdb	r0, {r1, r3, r4}
    2470:	0110001a 	tsteq	r0, sl, lsl r0
    2474:	1ae95100 	bne	ffa5687c <__StackTop+0xc795687c>
    2478:	1aec1000 	bne	ffb06480 <__StackTop+0xc7a06480>
    247c:	00041000 	andeq	r1, r4, r0
    2480:	9f5101f3 	svcls	0x005101f3
	...
    2490:	10001ae0 	andne	r1, r0, r0, ror #21
    2494:	10001ae9 	andne	r1, r0, r9, ror #21
    2498:	e9520001 	ldmdb	r2, {r0}^
    249c:	ec10001a 	ldc	0, cr0, [r0], {26}
    24a0:	0410001a 	ldreq	r0, [r0], #-26	; 0xffffffe6
    24a4:	5201f300 	andpl	pc, r1, #0, 6
    24a8:	0000009f 	muleq	r0, pc, r0	; <UNPREDICTABLE>
	...
    24b4:	001ae000 	andseq	lr, sl, r0
    24b8:	001ae910 	andseq	lr, sl, r0, lsl r9
    24bc:	53000110 	movwpl	r0, #272	; 0x110
    24c0:	10001ae9 	andne	r1, r0, r9, ror #21
    24c4:	10001aec 	andne	r1, r0, ip, ror #21
    24c8:	01f30004 	mvnseq	r0, r4
    24cc:	00009f53 	andeq	r9, r0, r3, asr pc
	...
    24dc:	00020000 	andeq	r0, r2, r0
    24e0:	0000007d 	andeq	r0, r0, sp, ror r0
    24e4:	00000000 	andeq	r0, r0, r0
    24e8:	00020000 	andeq	r0, r2, r0
    24ec:	0000107d 	andeq	r1, r0, sp, ror r0
	...
    2500:	00010000 	andeq	r0, r1, r0
    2504:	00000050 	andeq	r0, r0, r0, asr r0
    2508:	00000000 	andeq	r0, r0, r0
    250c:	56000100 	strpl	r0, [r0], -r0, lsl #2
	...
    2524:	00510001 	subseq	r0, r1, r1
    2528:	00000000 	andeq	r0, r0, r0
    252c:	01000000 	mrseq	r0, (UNDEF: 0)
    2530:	00005500 	andeq	r5, r0, r0, lsl #10
    2534:	00000000 	andeq	r0, r0, r0
    2538:	00010000 	andeq	r0, r1, r0
    253c:	00000100 	andeq	r0, r0, r0, lsl #2
	...
    2548:	9f300002 	svcls	0x00300002
	...
    2554:	00500001 	subseq	r0, r0, r1
    2558:	00000000 	andeq	r0, r0, r0
    255c:	01000000 	mrseq	r0, (UNDEF: 0)
    2560:	00005000 	andeq	r5, r0, r0
    2564:	00000000 	andeq	r0, r0, r0
    2568:	00020000 	andeq	r0, r2, r0
	...
    2574:	00020000 	andeq	r0, r2, r0
    2578:	00009f30 	andeq	r9, r0, r0, lsr pc
    257c:	00000000 	andeq	r0, r0, r0
    2580:	00010000 	andeq	r0, r1, r0
    2584:	00000054 	andeq	r0, r0, r4, asr r0
	...
    2594:	7d000200 	sfmvc	f0, 4, [r0, #-0]
	...
    25a0:	7d000200 	sfmvc	f0, 4, [r0, #-0]
    25a4:	00000008 	andeq	r0, r0, r8
	...
    25b8:	50000100 	andpl	r0, r0, r0, lsl #2
	...
    25c4:	01f30004 	mvnseq	r0, r4
    25c8:	00009f50 	andeq	r9, r0, r0, asr pc
    25cc:	00000000 	andeq	r0, r0, r0
    25d0:	1b2c0000 	blne	b025d8 <__RAM_SIZE+0xa025d8>
    25d4:	1b2e1000 	blne	b865dc <__RAM_SIZE+0xa865dc>
    25d8:	00021000 	andeq	r1, r2, r0
    25dc:	1b2e007d 	blne	b827d8 <__RAM_SIZE+0xa827d8>
    25e0:	1b4a1000 	blne	12865e8 <__RAM_SIZE+0x11865e8>
    25e4:	00021000 	andeq	r1, r2, r0
    25e8:	0000107d 	andeq	r1, r0, sp, ror r0
	...
    25f4:	1b2c0000 	blne	b025fc <__RAM_SIZE+0xa025fc>
    25f8:	1b341000 	blne	d06600 <__RAM_SIZE+0xc06600>
    25fc:	00011000 	andeq	r1, r1, r0
    2600:	001b3450 	andseq	r3, fp, r0, asr r4
    2604:	001b4a10 	andseq	r4, fp, r0, lsl sl
    2608:	55000110 	strpl	r0, [r0, #-272]	; 0xfffffef0
	...
    2614:	00000001 	andeq	r0, r0, r1
    2618:	10001b30 	andne	r1, r0, r0, lsr fp
    261c:	10001b34 	andne	r1, r0, r4, lsr fp
    2620:	9f300002 	svcls	0x00300002
    2624:	10001b34 	andne	r1, r0, r4, lsr fp
    2628:	10001b4a 	andne	r1, r0, sl, asr #22
    262c:	00540001 	subseq	r0, r4, r1
    2630:	00000000 	andeq	r0, r0, r0
    2634:	01000000 	mrseq	r0, (UNDEF: 0)
    2638:	001b1800 	andseq	r1, fp, r0, lsl #16
    263c:	001b2c10 	andseq	r2, fp, r0, lsl ip
    2640:	50000110 	andpl	r0, r0, r0, lsl r1
	...
    264c:	1e400100 	dvfnes	f0, f0, f0
    2650:	1e401000 	cdpne	0, 4, cr1, cr0, cr0, {0}
    2654:	00011000 	andeq	r1, r1, r0
    2658:	00000050 	andeq	r0, r0, r0, asr r0
    265c:	00000000 	andeq	r0, r0, r0
    2660:	001c3c00 	andseq	r3, ip, r0, lsl #24
    2664:	001c4010 	andseq	r4, ip, r0, lsl r0
    2668:	7d000210 	sfmvc	f0, 4, [r0, #-64]	; 0xffffffc0
    266c:	001c4000 	andseq	r4, ip, r0
    2670:	001cb810 	andseq	fp, ip, r0, lsl r8
    2674:	7d000210 	sfmvc	f0, 4, [r0, #-64]	; 0xffffffc0
    2678:	00000020 	andeq	r0, r0, r0, lsr #32
	...
    2688:	001c3c00 	andseq	r3, ip, r0, lsl #24
    268c:	001c5610 	andseq	r5, ip, r0, lsl r6
    2690:	50000110 	andpl	r0, r0, r0, lsl r1
    2694:	10001c56 	andne	r1, r0, r6, asr ip
    2698:	10001c90 	mulne	r0, r0, ip
    269c:	90580001 	subsls	r0, r8, r1
    26a0:	9610001c 			; <UNDEFINED> instruction: 0x9610001c
    26a4:	0410001c 	ldreq	r0, [r0], #-28	; 0xffffffe4
    26a8:	5001f300 	andpl	pc, r1, r0, lsl #6
    26ac:	001c969f 	mulseq	ip, pc, r6	; <UNPREDICTABLE>
    26b0:	001cb810 	andseq	fp, ip, r0, lsl r8
    26b4:	50000110 	andpl	r0, r0, r0, lsl r1
	...
    26c8:	10001c3c 	andne	r1, r0, ip, lsr ip
    26cc:	10001c56 	andne	r1, r0, r6, asr ip
    26d0:	56510001 	ldrbpl	r0, [r1], -r1
    26d4:	9010001c 	andsls	r0, r0, ip, lsl r0
    26d8:	0110001c 	tsteq	r0, ip, lsl r0
    26dc:	1c905700 	ldcne	7, cr5, [r0], {0}
    26e0:	1c961000 	ldcne	0, cr1, [r6], {0}
    26e4:	00041000 	andeq	r1, r4, r0
    26e8:	9f5101f3 	svcls	0x005101f3
    26ec:	10001c96 	mulne	r0, r6, ip
    26f0:	10001cb8 			; <UNDEFINED> instruction: 0x10001cb8
    26f4:	00510001 	subseq	r0, r1, r1
	...
    2704:	001c3c00 	andseq	r3, ip, r0, lsl #24
    2708:	001c5610 	andseq	r5, ip, r0, lsl r6
    270c:	52000110 	andpl	r0, r0, #16, 2
    2710:	10001c56 	andne	r1, r0, r6, asr ip
    2714:	10001c96 	mulne	r0, r6, ip
    2718:	01f30004 	mvnseq	r0, r4
    271c:	1c969f52 	ldcne	15, cr9, [r6], {82}	; 0x52
    2720:	1cb81000 	ldcne	0, cr1, [r8]
    2724:	00011000 	andeq	r1, r1, r0
    2728:	00000052 	andeq	r0, r0, r2, asr r0
	...
    2738:	001c3c00 	andseq	r3, ip, r0, lsl #24
    273c:	001c5610 	andseq	r5, ip, r0, lsl r6
    2740:	53000110 	movwpl	r0, #272	; 0x110
    2744:	10001c56 	andne	r1, r0, r6, asr ip
    2748:	10001c90 	mulne	r0, r0, ip
    274c:	90550001 	subsls	r0, r5, r1
    2750:	9610001c 			; <UNDEFINED> instruction: 0x9610001c
    2754:	0410001c 	ldreq	r0, [r0], #-28	; 0xffffffe4
    2758:	5301f300 	movwpl	pc, #4864	; 0x1300	; <UNPREDICTABLE>
    275c:	001c969f 	mulseq	ip, pc, r6	; <UNPREDICTABLE>
    2760:	001cb810 	andseq	fp, ip, r0, lsl r8
    2764:	53000110 	movwpl	r0, #272	; 0x110
	...
    2770:	00000001 	andeq	r0, r0, r1
    2774:	1c400000 	marne	acc0, r0, r0
    2778:	1c561000 	mrane	r1, r6, acc0
    277c:	00021000 	andeq	r1, r2, r0
    2780:	1c569f30 	mrrcne	15, 3, r9, r6, cr0
    2784:	1c901000 	ldcne	0, cr1, [r0], {0}
    2788:	00011000 	andeq	r1, r1, r0
    278c:	001c9656 	andseq	r9, ip, r6, asr r6
    2790:	001cac10 	andseq	sl, ip, r0, lsl ip
    2794:	30000210 	andcc	r0, r0, r0, lsl r2
    2798:	0000009f 	muleq	r0, pc, r0	; <UNPREDICTABLE>
    279c:	00000000 	andeq	r0, r0, r0
    27a0:	00000200 	andeq	r0, r0, r0, lsl #4
    27a4:	00000101 	andeq	r0, r0, r1, lsl #2
    27a8:	40000000 	andmi	r0, r0, r0
    27ac:	5610001c 			; <UNDEFINED> instruction: 0x5610001c
    27b0:	0210001c 	andseq	r0, r0, #28
    27b4:	609f3000 	addsvs	r3, pc, r0
    27b8:	7210001c 	andsvc	r0, r0, #28
    27bc:	0110001c 	tsteq	r0, ip, lsl r0
    27c0:	1c725200 	lfmne	f5, 2, [r2], #-0
    27c4:	1c761000 	ldclne	0, cr1, [r6], #-0
    27c8:	00031000 	andeq	r1, r3, r0
    27cc:	769f7f72 			; <UNDEFINED> instruction: 0x769f7f72
    27d0:	9010001c 	andsls	r0, r0, ip, lsl r0
    27d4:	0110001c 	tsteq	r0, ip, lsl r0
    27d8:	1c965900 			; <UNDEFINED> instruction: 0x1c965900
    27dc:	1cb81000 	ldcne	0, cr1, [r8]
    27e0:	00021000 	andeq	r1, r2, r0
    27e4:	00009f30 	andeq	r9, r0, r0, lsr pc
    27e8:	00000000 	andeq	r0, r0, r0
    27ec:	00020000 	andeq	r0, r2, r0
    27f0:	00000000 	andeq	r0, r0, r0
    27f4:	10001c40 	andne	r1, r0, r0, asr #24
    27f8:	10001c56 	andne	r1, r0, r6, asr ip
    27fc:	9f300002 	svcls	0x00300002
    2800:	10001c7e 	andne	r1, r0, lr, ror ip
    2804:	10001c81 	andne	r1, r0, r1, lsl #25
    2808:	96500001 	ldrbls	r0, [r0], -r1
    280c:	b810001c 	ldmdalt	r0, {r2, r3, r4}
    2810:	0210001c 	andseq	r0, r0, #28
    2814:	009f3000 	addseq	r3, pc, r0
    2818:	00000000 	andeq	r0, r0, r0
    281c:	02000000 	andeq	r0, r0, #0
    2820:	00000000 	andeq	r0, r0, r0
    2824:	001c4000 	andseq	r4, ip, r0
    2828:	001c5610 	andseq	r5, ip, r0, lsl r6
    282c:	30000210 	andcc	r0, r0, r0, lsl r2
    2830:	001c569f 	mulseq	ip, pc, r6	; <UNPREDICTABLE>
    2834:	001c9010 	andseq	r9, ip, r0, lsl r0
    2838:	54000110 	strpl	r0, [r0], #-272	; 0xfffffef0
    283c:	10001c96 	mulne	r0, r6, ip
    2840:	10001cb8 			; <UNDEFINED> instruction: 0x10001cb8
    2844:	9f300002 	svcls	0x00300002
	...
    2850:	10001cb8 			; <UNDEFINED> instruction: 0x10001cb8
    2854:	10001cba 			; <UNDEFINED> instruction: 0x10001cba
    2858:	007d0002 	rsbseq	r0, sp, r2
    285c:	10001cba 			; <UNDEFINED> instruction: 0x10001cba
    2860:	10001e3c 	andne	r1, r0, ip, lsr lr
    2864:	187d0002 	ldmdane	sp!, {r1}^
	...
    2874:	1cb80000 	ldcne	0, cr0, [r8]
    2878:	1d041000 	stcne	0, cr1, [r4, #-0]
    287c:	00011000 	andeq	r1, r1, r0
    2880:	001d0450 	andseq	r0, sp, r0, asr r4
    2884:	001db010 	andseq	fp, sp, r0, lsl r0
    2888:	55000110 	strpl	r0, [r0, #-272]	; 0xfffffef0
    288c:	10001db0 			; <UNDEFINED> instruction: 0x10001db0
    2890:	10001e3c 	andne	r1, r0, ip, lsr lr
    2894:	01f30004 	mvnseq	r0, r4
    2898:	00009f50 	andeq	r9, r0, r0, asr pc
	...
    28a4:	1cb80000 	ldcne	0, cr0, [r8]
    28a8:	1d071000 	stcne	0, cr1, [r7, #-0]
    28ac:	00011000 	andeq	r1, r1, r0
    28b0:	001d0751 	andseq	r0, sp, r1, asr r7
    28b4:	001e3c10 	andseq	r3, lr, r0, lsl ip
    28b8:	56000110 			; <UNDEFINED> instruction: 0x56000110
	...
    28c4:	00000001 	andeq	r0, r0, r1
    28c8:	1cbe0000 	ldcne	0, cr0, [lr]
    28cc:	1db01000 	ldcne	0, cr1, [r0]
    28d0:	00021000 	andeq	r1, r2, r0
    28d4:	1db09f30 	ldcne	15, cr9, [r0, #192]!	; 0xc0
    28d8:	1db21000 	ldcne	0, cr1, [r2]
    28dc:	00011000 	andeq	r1, r1, r0
    28e0:	001db250 	andseq	fp, sp, r0, asr r2
    28e4:	001e3c10 	andseq	r3, lr, r0, lsl ip
    28e8:	55000110 	strpl	r0, [r0, #-272]	; 0xfffffef0
	...
    28f4:	01010101 	tsteq	r1, r1, lsl #2
    28f8:	00000001 	andeq	r0, r0, r1
    28fc:	10001cbe 			; <UNDEFINED> instruction: 0x10001cbe
    2900:	10001da0 	andne	r1, r0, r0, lsr #27
    2904:	9f300002 	svcls	0x00300002
    2908:	10001da0 	andne	r1, r0, r0, lsr #27
    290c:	10001dbe 			; <UNDEFINED> instruction: 0x10001dbe
    2910:	9f400002 	svcls	0x00400002
    2914:	10001dbe 			; <UNDEFINED> instruction: 0x10001dbe
    2918:	10001dc2 	andne	r1, r0, r2, asr #27
    291c:	9f300002 	svcls	0x00300002
    2920:	10001dc2 	andne	r1, r0, r2, asr #27
    2924:	10001e3c 	andne	r1, r0, ip, lsr lr
    2928:	00540001 	subseq	r0, r4, r1
    292c:	00000000 	andeq	r0, r0, r0
    2930:	02000000 	andeq	r0, r0, #0
    2934:	01010505 	tsteq	r1, r5, lsl #10
    2938:	01010101 	tsteq	r1, r1, lsl #2
    293c:	01010101 	tsteq	r1, r1, lsl #2
    2940:	01010101 	tsteq	r1, r1, lsl #2
    2944:	01010101 	tsteq	r1, r1, lsl #2
    2948:	01010101 	tsteq	r1, r1, lsl #2
    294c:	01010101 	tsteq	r1, r1, lsl #2
    2950:	01010101 	tsteq	r1, r1, lsl #2
    2954:	00000000 	andeq	r0, r0, r0
    2958:	001cbe00 	andseq	fp, ip, r0, lsl #28
    295c:	001cbe10 	andseq	fp, ip, r0, lsl lr
    2960:	50000110 	andpl	r0, r0, r0, lsl r1
    2964:	10001cbe 			; <UNDEFINED> instruction: 0x10001cbe
    2968:	10001cc4 	andne	r1, r0, r4, asr #25
    296c:	04700003 	ldrbteq	r0, [r0], #-3
    2970:	001cc49f 	mulseq	ip, pc, r4	; <UNPREDICTABLE>
    2974:	001cc810 	andseq	ip, ip, r0, lsl r8
    2978:	70000310 	andvc	r0, r0, r0, lsl r3
    297c:	1cc89f08 	stclne	15, cr9, [r8], {8}
    2980:	1ccc1000 	stclne	0, cr1, [ip], {0}
    2984:	00031000 	andeq	r1, r3, r0
    2988:	cc9f0c70 	ldcgt	12, cr0, [pc], {112}	; 0x70
    298c:	d010001c 	andsle	r0, r0, ip, lsl r0
    2990:	0310001c 	tsteq	r0, #28
    2994:	9f107000 	svcls	0x00107000
    2998:	10001cd0 	ldrdne	r1, [r0], -r0
    299c:	10001cd4 	ldrdne	r1, [r0], -r4
    29a0:	14700003 	ldrbtne	r0, [r0], #-3
    29a4:	001cd49f 	mulseq	ip, pc, r4	; <UNPREDICTABLE>
    29a8:	001cd810 	andseq	sp, ip, r0, lsl r8
    29ac:	70000310 	andvc	r0, r0, r0, lsl r3
    29b0:	1cd89f18 	ldclne	15, cr9, [r8], {24}
    29b4:	1cdc1000 	ldclne	0, cr1, [ip], {0}
    29b8:	00031000 	andeq	r1, r3, r0
    29bc:	dc9f1c70 	ldcle	12, cr1, [pc], {112}	; 0x70
    29c0:	e010001c 	ands	r0, r0, ip, lsl r0
    29c4:	0310001c 	tsteq	r0, #28
    29c8:	9f207000 	svcls	0x00207000
    29cc:	10001ce0 	andne	r1, r0, r0, ror #25
    29d0:	10001ce4 	andne	r1, r0, r4, ror #25
    29d4:	24700003 	ldrbtcs	r0, [r0], #-3
    29d8:	001ce49f 	mulseq	ip, pc, r4	; <UNPREDICTABLE>
    29dc:	001ce810 	andseq	lr, ip, r0, lsl r8
    29e0:	70000310 	andvc	r0, r0, r0, lsl r3
    29e4:	1ce89f28 	stclne	15, cr9, [r8], #160	; 0xa0
    29e8:	1cec1000 	stclne	0, cr1, [ip]
    29ec:	00031000 	andeq	r1, r3, r0
    29f0:	ec9f2c70 	ldc	12, cr2, [pc], {112}	; 0x70
    29f4:	f010001c 			; <UNDEFINED> instruction: 0xf010001c
    29f8:	0310001c 	tsteq	r0, #28
    29fc:	9f307000 	svcls	0x00307000
    2a00:	10001cf0 	strdne	r1, [r0], -r0
    2a04:	10001cf4 	strdne	r1, [r0], -r4
    2a08:	34700003 	ldrbtcc	r0, [r0], #-3
    2a0c:	001cf49f 	mulseq	ip, pc, r4	; <UNPREDICTABLE>
    2a10:	001cf810 	andseq	pc, ip, r0, lsl r8	; <UNPREDICTABLE>
    2a14:	70000310 	andvc	r0, r0, r0, lsl r3
    2a18:	1cf89f38 	ldclne	15, cr9, [r8], #224	; 0xe0
    2a1c:	1cfc1000 	ldclne	0, cr1, [ip]
    2a20:	00031000 	andeq	r1, r3, r0
    2a24:	fc9f3c70 	ldc2	12, cr3, [pc], {112}	; 0x70
    2a28:	0410001c 	ldreq	r0, [r0], #-28	; 0xffffffe4
    2a2c:	0410001d 	ldreq	r0, [r0], #-29	; 0xffffffe3
    2a30:	00c07000 	sbceq	r7, r0, r0
    2a34:	001d049f 	mulseq	sp, pc, r4	; <UNPREDICTABLE>
    2a38:	001db010 	andseq	fp, sp, r0, lsl r0
    2a3c:	75000410 	strvc	r0, [r0, #-1040]	; 0xfffffbf0
    2a40:	b09f00c0 	addslt	r0, pc, r0, asr #1
    2a44:	3c10001d 	ldccc	0, cr0, [r0], {29}
    2a48:	0610001e 			; <UNDEFINED> instruction: 0x0610001e
    2a4c:	5001f300 	andpl	pc, r1, r0, lsl #6
    2a50:	009f4023 	addseq	r4, pc, r3, lsr #32
    2a54:	00000000 	andeq	r0, r0, r0
    2a58:	d4000000 	strle	r0, [r0], #-0
    2a5c:	d610001b 			; <UNDEFINED> instruction: 0xd610001b
    2a60:	0210001b 	andseq	r0, r0, #27
    2a64:	d6007d00 	strle	r7, [r0], -r0, lsl #26
    2a68:	ec10001b 	ldc	0, cr0, [r0], {27}
    2a6c:	0210001b 	andseq	r0, r0, #27
    2a70:	00087d00 	andeq	r7, r8, r0, lsl #26
	...
    2a80:	d4000000 	strle	r0, [r0], #-0
    2a84:	dc10001b 	ldcle	0, cr0, [r0], {27}
    2a88:	0110001b 	tsteq	r0, fp, lsl r0
    2a8c:	1bdc5000 	blne	ff716a94 <__StackTop+0xc7616a94>
    2a90:	1bdf1000 	blne	ff7c6a98 <__StackTop+0xc76c6a98>
    2a94:	00011000 	andeq	r1, r1, r0
    2a98:	001bdf51 	andseq	sp, fp, r1, asr pc
    2a9c:	001be810 	andseq	lr, fp, r0, lsl r8
    2aa0:	54000110 	strpl	r0, [r0], #-272	; 0xfffffef0
    2aa4:	10001be8 	andne	r1, r0, r8, ror #23
    2aa8:	10001bec 	andne	r1, r0, ip, ror #23
    2aac:	01f30004 	mvnseq	r0, r4
    2ab0:	00009f50 	andeq	r9, r0, r0, asr pc
	...
    2abc:	1b9c0000 	blne	fe702ac4 <__StackTop+0xc6602ac4>
    2ac0:	1ba21000 	blne	fe886ac8 <__StackTop+0xc6786ac8>
    2ac4:	00011000 	andeq	r1, r1, r0
    2ac8:	001ba250 	andseq	sl, fp, r0, asr r2
    2acc:	001bd210 	andseq	sp, fp, r0, lsl r2
    2ad0:	f3000410 	vqshl.u8	d0, d0, d0
    2ad4:	009f5001 	addseq	r5, pc, r1
	...
    2ae0:	001ba000 	andseq	sl, fp, r0
    2ae4:	001bd210 	andseq	sp, fp, r0, lsl r2
    2ae8:	53000110 	movwpl	r0, #272	; 0x110
	...
    2b08:	10001ba6 	andne	r1, r0, r6, lsr #23
    2b0c:	10001bc0 	andne	r1, r0, r0, asr #23
    2b10:	c0500001 	subsgt	r0, r0, r1
    2b14:	c210001b 	andsgt	r0, r0, #27
    2b18:	0a10001b 	beq	402b8c <__RAM_SIZE+0x302b8c>
    2b1c:	5001f300 	andpl	pc, r1, r0, lsl #6
    2b20:	000a2540 	andeq	r2, sl, r0, asr #10
    2b24:	c29f1af8 	addsgt	r1, pc, #248, 20	; 0xf8000
    2b28:	c410001b 	ldrgt	r0, [r0], #-27	; 0xffffffe5
    2b2c:	0110001b 	tsteq	r0, fp, lsl r0
    2b30:	1bc45000 	blne	ff116b38 <__StackTop+0xc7016b38>
    2b34:	1bc61000 	blne	ff186b3c <__StackTop+0xc7086b3c>
    2b38:	000a1000 	andeq	r1, sl, r0
    2b3c:	405001f3 	ldrshmi	r0, [r0], #-19	; 0xffffffed
    2b40:	f8000a25 			; <UNDEFINED> instruction: 0xf8000a25
    2b44:	1bc69f1a 	blne	ff1aa7b4 <__StackTop+0xc70aa7b4>
    2b48:	1bc81000 	blne	ff206b50 <__StackTop+0xc7106b50>
    2b4c:	00011000 	andeq	r1, r1, r0
    2b50:	001bc850 	andseq	ip, fp, r0, asr r8
    2b54:	001bca10 	andseq	ip, fp, r0, lsl sl
    2b58:	f3000a10 	vpmin.u8	d0, d0, d0
    2b5c:	25405001 	strbcs	r5, [r0, #-1]
    2b60:	1af8000a 	bne	ffe02b90 <__StackTop+0xc7d02b90>
    2b64:	001bca9f 	mulseq	fp, pc, sl	; <UNPREDICTABLE>
    2b68:	001bcc10 	andseq	ip, fp, r0, lsl ip
    2b6c:	50000110 	andpl	r0, r0, r0, lsl r1
    2b70:	10001bcc 	andne	r1, r0, ip, asr #23
    2b74:	10001bce 	andne	r1, r0, lr, asr #23
    2b78:	01f3000a 	mvnseq	r0, sl
    2b7c:	0a254050 	beq	952cc4 <__RAM_SIZE+0x852cc4>
    2b80:	9f1af800 	svcls	0x001af800
    2b84:	10001bce 	andne	r1, r0, lr, asr #23
    2b88:	10001bd0 	ldrdne	r1, [r0], -r0
    2b8c:	d0500001 	subsle	r0, r0, r1
    2b90:	d210001b 	andsle	r0, r0, #27
    2b94:	0a10001b 	beq	402c08 <__RAM_SIZE+0x302c08>
    2b98:	5001f300 	andpl	pc, r1, r0, lsl #6
    2b9c:	000a2540 	andeq	r2, sl, r0, asr #10
    2ba0:	009f1af8 			; <UNDEFINED> instruction: 0x009f1af8
    2ba4:	00000000 	andeq	r0, r0, r0
    2ba8:	70000000 	andvc	r0, r0, r0
    2bac:	7210001b 	andsvc	r0, r0, #27
    2bb0:	0210001b 	andseq	r0, r0, #27
    2bb4:	72007d00 	andvc	r7, r0, #0, 26
    2bb8:	9a10001b 	bls	402c2c <__RAM_SIZE+0x302c2c>
    2bbc:	0210001b 	andseq	r0, r0, #27
    2bc0:	9a087d00 	bls	221fc8 <__RAM_SIZE+0x121fc8>
    2bc4:	9c10001b 	ldcls	0, cr0, [r0], {27}
    2bc8:	0210001b 	andseq	r0, r0, #27
    2bcc:	00007d00 	andeq	r7, r0, r0, lsl #26
	...
    2bd8:	70000000 	andvc	r0, r0, r0
    2bdc:	9010001b 	andsls	r0, r0, fp, lsl r0
    2be0:	0110001b 	tsteq	r0, fp, lsl r0
    2be4:	1b905000 	blne	fe416bec <__StackTop+0xc6316bec>
    2be8:	1b9c1000 	blne	fe706bf0 <__StackTop+0xc6606bf0>
    2bec:	00041000 	andeq	r1, r4, r0
    2bf0:	9f5001f3 	svcls	0x005001f3
	...
    2bfc:	00000001 	andeq	r0, r0, r1
    2c00:	1b760000 	blne	1d82c08 <__RAM_SIZE+0x1c82c08>
    2c04:	1b941000 	blne	fe506c0c <__StackTop+0xc6406c0c>
    2c08:	00021000 	andeq	r1, r2, r0
    2c0c:	1b949f30 	blne	fe52a8d4 <__StackTop+0xc642a8d4>
    2c10:	1b981000 	blne	fe606c18 <__StackTop+0xc6506c18>
    2c14:	00081000 	andeq	r1, r8, r0
    2c18:	24400070 	strbcs	r0, [r0], #-112	; 0xffffff90
    2c1c:	9f210073 	svcls	0x00210073
    2c20:	10001b98 	mulne	r0, r8, fp
    2c24:	10001b9c 	mulne	r0, ip, fp
    2c28:	00500001 	subseq	r0, r0, r1
    2c2c:	00000000 	andeq	r0, r0, r0
    2c30:	03000000 	movweq	r0, #0
    2c34:	76000000 	strvc	r0, [r0], -r0
    2c38:	7810001b 	ldmdavc	r0, {r0, r1, r3, r4}
    2c3c:	0210001b 	andseq	r0, r0, #27
    2c40:	789f3000 	ldmvc	pc, {ip, sp}	; <UNPREDICTABLE>
    2c44:	9410001b 	ldrls	r0, [r0], #-27	; 0xffffffe5
    2c48:	0110001b 	tsteq	r0, fp, lsl r0
    2c4c:	00005300 	andeq	r5, r0, r0, lsl #6
    2c50:	00000000 	andeq	r0, r0, r0
    2c54:	1bec0000 	blne	ffb02c5c <__StackTop+0xc7a02c5c>
    2c58:	1bee1000 	blne	ffb86c60 <__StackTop+0xc7a86c60>
    2c5c:	00021000 	andeq	r1, r2, r0
    2c60:	1bee007d 	blne	ffb82e5c <__StackTop+0xc7a82e5c>
    2c64:	1c3c1000 	ldcne	0, cr1, [ip], #-0
    2c68:	00021000 	andeq	r1, r2, r0
    2c6c:	0000087d 	andeq	r0, r0, sp, ror r8
    2c70:	00000000 	andeq	r0, r0, r0
    2c74:	1e4c0000 	cdpne	0, 4, cr0, cr12, cr0, {0}
    2c78:	1e4e1000 	cdpne	0, 4, cr1, cr14, cr0, {0}
    2c7c:	00021000 	andeq	r1, r2, r0
    2c80:	1e4e007d 	mcrne	0, 2, r0, cr14, cr13, {3}
    2c84:	1f481000 	svcne	0x00481000
    2c88:	00021000 	andeq	r1, r2, r0
    2c8c:	0000087d 	andeq	r0, r0, sp, ror r8
	...
    2c98:	1e4c0000 	cdpne	0, 4, cr0, cr12, cr0, {0}
    2c9c:	1e521000 	cdpne	0, 5, cr1, cr2, cr0, {0}
    2ca0:	00011000 	andeq	r1, r1, r0
    2ca4:	001e5250 	andseq	r5, lr, r0, asr r2
    2ca8:	001f4810 	andseq	r4, pc, r0, lsl r8	; <UNPREDICTABLE>
    2cac:	54000110 	strpl	r0, [r0], #-272	; 0xfffffef0
	...

Disassembly of section .debug_aranges:

00000000 <.debug_aranges>:
  SystemCoreClock = SYSTEM_CLOCK;
   0:	00000074 	andeq	r0, r0, r4, ror r0
   4:	00000002 	andeq	r0, r0, r2
}
   8:	00040000 	andeq	r0, r4, r0
	...
  14:	00000010 	andeq	r0, r0, r0, lsl r0
  18:	00000000 	andeq	r0, r0, r0
  1c:	00000010 	andeq	r0, r0, r0, lsl r0
  20:	00000000 	andeq	r0, r0, r0
  24:	00000020 	andeq	r0, r0, r0, lsr #32
  28:	10000800 	andne	r0, r0, r0, lsl #16
  2c:	0000004c 	andeq	r0, r0, ip, asr #32
  30:	1000084c 	andne	r0, r0, ip, asr #16
  34:	00000068 	andeq	r0, r0, r8, rrx
  38:	100008b4 			; <UNDEFINED> instruction: 0x100008b4
  3c:	0000001c 	andeq	r0, r0, ip, lsl r0
  40:	100008d0 	ldrdne	r0, [r0], -r0	; <UNPREDICTABLE>
  44:	00000018 	andeq	r0, r0, r8, lsl r0
  48:	100008e8 	andne	r0, r0, r8, ror #17
  4c:	00000018 	andeq	r0, r0, r8, lsl r0
  50:	10000900 	andne	r0, r0, r0, lsl #18
  54:	00000018 	andeq	r0, r0, r8, lsl r0
  58:	10000918 	andne	r0, r0, r8, lsl r9
  5c:	00000018 	andeq	r0, r0, r8, lsl r0
  60:	10000930 	andne	r0, r0, r0, lsr r9
  64:	00000018 	andeq	r0, r0, r8, lsl r0
  68:	10000948 	andne	r0, r0, r8, asr #18
  6c:	0000002c 	andeq	r0, r0, ip, lsr #32
	...
  78:	00000024 	andeq	r0, r0, r4, lsr #32
  7c:	0a4f0002 	beq	13c008c <__RAM_SIZE+0x12c008c>
  80:	00040000 	andeq	r0, r4, r0
	...
  8c:	00000010 	andeq	r0, r0, r0, lsl r0
  90:	10000974 	andne	r0, r0, r4, ror r9
  94:	0000002c 	andeq	r0, r0, ip, lsr #32
	...
  a0:	000000a4 	andeq	r0, r0, r4, lsr #1
  a4:	0f380002 	svceq	0x00380002
  a8:	00040000 	andeq	r0, r4, r0
	...
  b4:	00000008 	andeq	r0, r0, r8
  b8:	100009a0 	andne	r0, r0, r0, lsr #19
  bc:	00000002 	andeq	r0, r0, r2
  c0:	00000000 	andeq	r0, r0, r0
  c4:	0000000e 	andeq	r0, r0, lr
  c8:	100009a2 	andne	r0, r0, r2, lsr #19
  cc:	00000024 	andeq	r0, r0, r4, lsr #32
  d0:	100009c6 	andne	r0, r0, r6, asr #19
  d4:	0000007e 	andeq	r0, r0, lr, ror r0
  d8:	10000a44 	andne	r0, r0, r4, asr #20
  dc:	00000138 	andeq	r0, r0, r8, lsr r1
  e0:	10000b7c 	andne	r0, r0, ip, ror fp
  e4:	00000094 	muleq	r0, r4, r0
  e8:	10000c10 	andne	r0, r0, r0, lsl ip
  ec:	000000c6 	andeq	r0, r0, r6, asr #1
  f0:	10000cd8 	ldrdne	r0, [r0], -r8
  f4:	000003ea 	andeq	r0, r0, sl, ror #7
  f8:	100010c8 	andne	r1, r0, r8, asr #1
  fc:	00000396 	muleq	r0, r6, r3
 100:	10001460 	andne	r1, r0, r0, ror #8
 104:	00000680 	andeq	r0, r0, r0, lsl #13
 108:	10001ae0 	andne	r1, r0, r0, ror #21
 10c:	0000000c 	andeq	r0, r0, ip
 110:	10001aec 	andne	r1, r0, ip, ror #21
 114:	0000002c 	andeq	r0, r0, ip, lsr #32
 118:	00000000 	andeq	r0, r0, r0
 11c:	0000002c 	andeq	r0, r0, ip, lsr #32
 120:	00000000 	andeq	r0, r0, r0
 124:	00000028 	andeq	r0, r0, r8, lsr #32
 128:	00000000 	andeq	r0, r0, r0
 12c:	00000020 	andeq	r0, r0, r0, lsr #32
 130:	00000000 	andeq	r0, r0, r0
 134:	0000001c 	andeq	r0, r0, ip, lsl r0
 138:	00000000 	andeq	r0, r0, r0
 13c:	00000030 	andeq	r0, r0, r0, lsr r0
	...
 148:	00000044 	andeq	r0, r0, r4, asr #32
 14c:	2afd0002 	bcs	fff4015c <__StackTop+0xc7e4015c>
 150:	00040000 	andeq	r0, r4, r0
 154:	00000000 	andeq	r0, r0, r0
 158:	10001b18 	andne	r1, r0, r8, lsl fp
 15c:	00000014 	andeq	r0, r0, r4, lsl r0
 160:	00000000 	andeq	r0, r0, r0
 164:	00000014 	andeq	r0, r0, r4, lsl r0
 168:	10001b2c 	andne	r1, r0, ip, lsr #22
 16c:	0000001e 	andeq	r0, r0, lr, lsl r0
 170:	10001b4c 	andne	r1, r0, ip, asr #22
 174:	00000024 	andeq	r0, r0, r4, lsr #32
 178:	00000000 	andeq	r0, r0, r0
 17c:	00000008 	andeq	r0, r0, r8
 180:	00000000 	andeq	r0, r0, r0
 184:	00000020 	andeq	r0, r0, r0, lsr #32
	...
 190:	00000054 	andeq	r0, r0, r4, asr r0
 194:	2d3e0002 	ldccs	0, cr0, [lr, #-8]!
 198:	00040000 	andeq	r0, r4, r0
 19c:	00000000 	andeq	r0, r0, r0
 1a0:	10001b70 	andne	r1, r0, r0, ror fp
 1a4:	0000002c 	andeq	r0, r0, ip, lsr #32
 1a8:	10001b9c 	mulne	r0, ip, fp
 1ac:	00000036 	andeq	r0, r0, r6, lsr r0
 1b0:	10001bd4 	ldrdne	r1, [r0], -r4
 1b4:	00000018 	andeq	r0, r0, r8, lsl r0
 1b8:	10001bec 	andne	r1, r0, ip, ror #23
 1bc:	00000050 	andeq	r0, r0, r0, asr r0
 1c0:	10001c3c 	andne	r1, r0, ip, lsr ip
 1c4:	0000007c 	andeq	r0, r0, ip, ror r0
 1c8:	10001cb8 			; <UNDEFINED> instruction: 0x10001cb8
 1cc:	00000184 	andeq	r0, r0, r4, lsl #3
 1d0:	10001e3c 	andne	r1, r0, ip, lsr lr
 1d4:	00000006 	andeq	r0, r0, r6
 1d8:	10001e44 	andne	r1, r0, r4, asr #28
 1dc:	00000008 	andeq	r0, r0, r8
	...
 1e8:	0000001c 	andeq	r0, r0, ip, lsl r0
 1ec:	35f00002 	ldrbcc	r0, [r0, #2]!
 1f0:	00040000 	andeq	r0, r4, r0
 1f4:	00000000 	andeq	r0, r0, r0
 1f8:	10001e4c 	andne	r1, r0, ip, asr #28
 1fc:	000000fc 	strdeq	r0, [r0], -ip
	...
 208:	0000001c 	andeq	r0, r0, ip, lsl r0
 20c:	38810002 	stmcc	r1, {r1}
 210:	00040000 	andeq	r0, r4, r0
 214:	00000000 	andeq	r0, r0, r0
 218:	10001f68 	andne	r1, r0, r8, ror #30
 21c:	00000070 	andeq	r0, r0, r0, ror r0
	...
 228:	0000001c 	andeq	r0, r0, ip, lsl r0
 22c:	38a70002 	stmiacc	r7!, {r1}
 230:	00040000 	andeq	r0, r4, r0
 234:	00000000 	andeq	r0, r0, r0
 238:	10001fd8 	ldrdne	r1, [r0], -r8
 23c:	00000048 	andeq	r0, r0, r8, asr #32
	...

Disassembly of section .debug_ranges:

00000000 <.debug_ranges>:
  SystemCoreClock = SYSTEM_CLOCK;
   0:	1000087c 	andne	r0, r0, ip, ror r8
   4:	10000880 	andne	r0, r0, r0, lsl #17
}
   8:	1000088a 	andne	r0, r0, sl, lsl #17
   c:	1000089a 	mulne	r0, sl, r8
	...
  18:	00000001 	andeq	r0, r0, r1
  1c:	00000001 	andeq	r0, r0, r1
  20:	00000001 	andeq	r0, r0, r1
  24:	00000001 	andeq	r0, r0, r1
  28:	00000001 	andeq	r0, r0, r1
  2c:	00000001 	andeq	r0, r0, r1
  30:	10000800 	andne	r0, r0, r0, lsl #16
  34:	1000084c 	andne	r0, r0, ip, asr #16
  38:	1000084c 	andne	r0, r0, ip, asr #16
  3c:	100008b4 			; <UNDEFINED> instruction: 0x100008b4
  40:	100008b4 			; <UNDEFINED> instruction: 0x100008b4
  44:	100008d0 	ldrdne	r0, [r0], -r0	; <UNPREDICTABLE>
  48:	100008d0 	ldrdne	r0, [r0], -r0	; <UNPREDICTABLE>
  4c:	100008e8 	andne	r0, r0, r8, ror #17
  50:	100008e8 	andne	r0, r0, r8, ror #17
  54:	10000900 	andne	r0, r0, r0, lsl #18
  58:	10000900 	andne	r0, r0, r0, lsl #18
  5c:	10000918 	andne	r0, r0, r8, lsl r9
  60:	10000918 	andne	r0, r0, r8, lsl r9
  64:	10000930 	andne	r0, r0, r0, lsr r9
  68:	10000930 	andne	r0, r0, r0, lsr r9
  6c:	10000948 	andne	r0, r0, r8, asr #18
  70:	10000948 	andne	r0, r0, r8, asr #18
  74:	10000974 	andne	r0, r0, r4, ror r9
	...
  80:	00000001 	andeq	r0, r0, r1
  84:	00000001 	andeq	r0, r0, r1
  88:	10000974 	andne	r0, r0, r4, ror r9
  8c:	100009a0 	andne	r0, r0, r0, lsr #19
	...
  98:	100009e6 	andne	r0, r0, r6, ror #19
  9c:	100009e8 	andne	r0, r0, r8, ror #19
  a0:	100009ea 	andne	r0, r0, sl, ror #19
  a4:	10000a08 	andne	r0, r0, r8, lsl #20
	...
  b0:	10000b9a 	mulne	r0, sl, fp
  b4:	10000bb4 			; <UNDEFINED> instruction: 0x10000bb4
  b8:	10000bbc 			; <UNDEFINED> instruction: 0x10000bbc
  bc:	10000bc0 	andne	r0, r0, r0, asr #23
  c0:	10000bc0 	andne	r0, r0, r0, asr #23
  c4:	10000bee 	andne	r0, r0, lr, ror #23
	...
  d0:	10000c46 	andne	r0, r0, r6, asr #24
  d4:	10000c68 	andne	r0, r0, r8, ror #24
  d8:	10000c76 	andne	r0, r0, r6, ror ip
  dc:	10000c7c 	andne	r0, r0, ip, ror ip
  e0:	10000c7c 	andne	r0, r0, ip, ror ip
  e4:	10000ca4 	andne	r0, r0, r4, lsr #25
	...
  f0:	10001474 	andne	r1, r0, r4, ror r4
  f4:	10001476 	andne	r1, r0, r6, ror r4
  f8:	10001920 	andne	r1, r0, r0, lsr #18
  fc:	10001992 	mulne	r0, r2, r9
	...
 108:	100016f2 	strdne	r1, [r0], -r2
 10c:	10001724 	andne	r1, r0, r4, lsr #14
 110:	10001878 	andne	r1, r0, r8, ror r8
 114:	10001892 	mulne	r0, r2, r8
	...
 120:	10001742 	andne	r1, r0, r2, asr #14
 124:	10001778 	andne	r1, r0, r8, ror r7
 128:	100017fa 	strdne	r1, [r0], -sl
 12c:	10001816 	andne	r1, r0, r6, lsl r8
	...
 138:	10001780 	andne	r1, r0, r0, lsl #15
 13c:	100017be 			; <UNDEFINED> instruction: 0x100017be
 140:	100017c0 	andne	r1, r0, r0, asr #15
 144:	100017c8 	andne	r1, r0, r8, asr #15
	...
 150:	00000001 	andeq	r0, r0, r1
 154:	00000001 	andeq	r0, r0, r1
 158:	100009a0 	andne	r0, r0, r0, lsr #19
 15c:	100009a2 	andne	r0, r0, r2, lsr #19
 160:	00000001 	andeq	r0, r0, r1
 164:	00000001 	andeq	r0, r0, r1
 168:	100009a2 	andne	r0, r0, r2, lsr #19
 16c:	100009c6 	andne	r0, r0, r6, asr #19
 170:	100009c6 	andne	r0, r0, r6, asr #19
 174:	10000a44 	andne	r0, r0, r4, asr #20
 178:	10000a44 	andne	r0, r0, r4, asr #20
 17c:	10000b7c 	andne	r0, r0, ip, ror fp
 180:	10000b7c 	andne	r0, r0, ip, ror fp
 184:	10000c10 	andne	r0, r0, r0, lsl ip
 188:	10000c10 	andne	r0, r0, r0, lsl ip
 18c:	10000cd6 	ldrdne	r0, [r0], -r6
 190:	10000cd8 	ldrdne	r0, [r0], -r8
 194:	100010c2 	andne	r1, r0, r2, asr #1
 198:	100010c8 	andne	r1, r0, r8, asr #1
 19c:	1000145e 	andne	r1, r0, lr, asr r4
 1a0:	10001460 	andne	r1, r0, r0, ror #8
 1a4:	10001ae0 	andne	r1, r0, r0, ror #21
 1a8:	10001ae0 	andne	r1, r0, r0, ror #21
 1ac:	10001aec 	andne	r1, r0, ip, ror #21
 1b0:	10001aec 	andne	r1, r0, ip, ror #21
 1b4:	10001b18 	andne	r1, r0, r8, lsl fp
 1b8:	00000001 	andeq	r0, r0, r1
 1bc:	00000001 	andeq	r0, r0, r1
 1c0:	00000001 	andeq	r0, r0, r1
 1c4:	00000001 	andeq	r0, r0, r1
 1c8:	00000001 	andeq	r0, r0, r1
 1cc:	00000001 	andeq	r0, r0, r1
 1d0:	00000001 	andeq	r0, r0, r1
 1d4:	00000001 	andeq	r0, r0, r1
 1d8:	00000001 	andeq	r0, r0, r1
 1dc:	00000001 	andeq	r0, r0, r1
	...
 1e8:	10001b18 	andne	r1, r0, r8, lsl fp
 1ec:	10001b2c 	andne	r1, r0, ip, lsr #22
 1f0:	00000001 	andeq	r0, r0, r1
 1f4:	00000001 	andeq	r0, r0, r1
 1f8:	10001b2c 	andne	r1, r0, ip, lsr #22
 1fc:	10001b4a 	andne	r1, r0, sl, asr #22
 200:	10001b4c 	andne	r1, r0, ip, asr #22
 204:	10001b70 	andne	r1, r0, r0, ror fp
 208:	00000001 	andeq	r0, r0, r1
 20c:	00000001 	andeq	r0, r0, r1
 210:	00000001 	andeq	r0, r0, r1
 214:	00000001 	andeq	r0, r0, r1
	...
 220:	10001b70 	andne	r1, r0, r0, ror fp
 224:	10001b9c 	mulne	r0, ip, fp
 228:	10001b9c 	mulne	r0, ip, fp
 22c:	10001bd2 	ldrdne	r1, [r0], -r2
 230:	10001bd4 	ldrdne	r1, [r0], -r4
 234:	10001bec 	andne	r1, r0, ip, ror #23
 238:	10001bec 	andne	r1, r0, ip, ror #23
 23c:	10001c3c 	andne	r1, r0, ip, lsr ip
 240:	10001c3c 	andne	r1, r0, ip, lsr ip
 244:	10001cb8 			; <UNDEFINED> instruction: 0x10001cb8
 248:	10001cb8 			; <UNDEFINED> instruction: 0x10001cb8
 24c:	10001e3c 	andne	r1, r0, ip, lsr lr
 250:	10001e3c 	andne	r1, r0, ip, lsr lr
 254:	10001e42 	andne	r1, r0, r2, asr #28
 258:	10001e44 	andne	r1, r0, r4, asr #28
 25c:	10001e4c 	andne	r1, r0, ip, asr #28
	...
 268:	10001e4c 	andne	r1, r0, ip, asr #28
 26c:	10001f48 	andne	r1, r0, r8, asr #30
	...

Disassembly of section .debug_line:

00000000 <.debug_line>:
  SystemCoreClock = SYSTEM_CLOCK;
       0:	000003a1 	andeq	r0, r0, r1, lsr #7
       4:	019b0003 	orrseq	r0, fp, r3
}
       8:	01020000 	mrseq	r0, (UNDEF: 2)
       c:	000d0efb 	strdeq	r0, [sp], -fp
    printf("c = %d\r\n", c);
      10:	01010101 	tsteq	r1, r1, lsl #2
}
      14:	01000000 	mrseq	r0, (UNDEF: 0)
      18:	2e010000 	cdpcs	0, 0, cr0, cr1, cr0, {0}
      1c:	7070612f 	rsbsvc	r6, r0, pc, lsr #2
      20:	6163696c 	cmnvs	r3, ip, ror #18
      24:	6e6f6974 			; <UNDEFINED> instruction: 0x6e6f6974
      28:	706f2f00 	rsbvc	r2, pc, r0, lsl #30
      2c:	63672f74 	cmnvs	r7, #116, 30	; 0x1d0
      30:	72612d63 	rsbvc	r2, r1, #6336	; 0x18c0
      34:	6f6e2d6d 	svcvs	0x006e2d6d
      38:	652d656e 	strvs	r6, [sp, #-1390]!	; 0xfffffa92
      3c:	2d696261 	sfmcs	f6, 2, [r9, #-388]!	; 0xfffffe7c
      40:	332e3031 			; <UNDEFINED> instruction: 0x332e3031
      44:	3230322d 	eorscc	r3, r0, #-805306366	; 0xd0000002
      48:	30312e31 	eorscc	r2, r1, r1, lsr lr
      4c:	6d72612f 	ldfvse	f6, [r2, #-188]!	; 0xffffff44
      50:	6e6f6e2d 	cdpvs	14, 6, cr6, cr15, cr13, {1}
      54:	61652d65 	cmnvs	r5, r5, ror #26
      58:	692f6962 	stmdbvs	pc!, {r1, r5, r6, r8, fp, sp, lr}	; <UNPREDICTABLE>
      5c:	756c636e 	strbvc	r6, [ip, #-878]!	; 0xfffffc92
      60:	6d2f6564 	cfstr32vs	mvfx6, [pc, #-400]!	; fffffed8 <__StackTop+0xc7effed8>
      64:	69686361 	stmdbvs	r8!, {r0, r5, r6, r8, r9, sp, lr}^
      68:	2f00656e 	svccs	0x0000656e
      6c:	2f74706f 	svccs	0x0074706f
      70:	2d636367 	stclcs	3, cr6, [r3, #-412]!	; 0xfffffe64
      74:	2d6d7261 	sfmcs	f7, 2, [sp, #-388]!	; 0xfffffe7c
      78:	656e6f6e 	strbvs	r6, [lr, #-3950]!	; 0xfffff092
      7c:	6261652d 	rsbvs	r6, r1, #188743680	; 0xb400000
      80:	30312d69 	eorscc	r2, r1, r9, ror #26
      84:	322d332e 	eorcc	r3, sp, #-1207959552	; 0xb8000000
      88:	2e313230 	mrccs	2, 1, r3, cr1, cr0, {1}
      8c:	612f3031 			; <UNDEFINED> instruction: 0x612f3031
      90:	6e2d6d72 	mcrvs	13, 1, r6, cr13, cr2, {3}
      94:	2d656e6f 	stclcs	14, cr6, [r5, #-444]!	; 0xfffffe44
      98:	69626165 	stmdbvs	r2!, {r0, r2, r5, r6, r8, sp, lr}^
      9c:	636e692f 	cmnvs	lr, #770048	; 0xbc000
      a0:	6564756c 	strbvs	r7, [r4, #-1388]!	; 0xfffffa94
      a4:	7379732f 	cmnvc	r9, #-1140850688	; 0xbc000000
      a8:	2f2e2e00 	svccs	0x002e2e00
      ac:	76697244 	strbtvc	r7, [r9], -r4, asr #4
      b0:	2f737265 	svccs	0x00737265
      b4:	49534d43 	ldmdbmi	r3, {r0, r1, r6, r8, sl, fp, lr}^
      b8:	2f355f53 	svccs	0x00355f53
      bc:	49534d43 	ldmdbmi	r3, {r0, r1, r6, r8, sl, fp, lr}^
      c0:	6f432f53 	svcvs	0x00432f53
      c4:	492f6572 	stmdbmi	pc!, {r1, r4, r5, r6, r8, sl, sp, lr}	; <UNPREDICTABLE>
      c8:	756c636e 	strbvc	r6, [ip, #-878]!	; 0xfffffc92
      cc:	2e006564 	cfsh32cs	mvfx6, mvfx0, #52
      d0:	6f432f2e 	svcvs	0x00432f2e
      d4:	492f6572 	stmdbmi	pc!, {r1, r4, r5, r6, r8, sl, sp, lr}	; <UNPREDICTABLE>
      d8:	2e00636e 	cdpcs	3, 0, cr6, cr0, cr14, {3}
      dc:	2e2e2f2e 	cdpcs	15, 2, cr2, cr14, cr14, {1}
      e0:	2f2e2e2f 	svccs	0x002e2e2f
      e4:	7562696c 	strbvc	r6, [r2, #-2412]!	; 0xfffff694
      e8:	736c6974 	cmnvc	ip, #116, 18	; 0x1d0000
      ec:	7561662f 	strbvc	r6, [r1, #-1583]!	; 0xfffff9d1
      f0:	642d746c 	strtvs	r7, [sp], #-1132	; 0xfffffb94
      f4:	2f706d75 	svccs	0x00706d75
      f8:	00636e69 	rsbeq	r6, r3, r9, ror #28
      fc:	74706f2f 	ldrbtvc	r6, [r0], #-3887	; 0xfffff0d1
     100:	6363672f 	cmnvs	r3, #12320768	; 0xbc0000
     104:	6d72612d 	ldfvse	f6, [r2, #-180]!	; 0xffffff4c
     108:	6e6f6e2d 	cdpvs	14, 6, cr6, cr15, cr13, {1}
     10c:	61652d65 	cmnvs	r5, r5, ror #26
     110:	312d6962 			; <UNDEFINED> instruction: 0x312d6962
     114:	2d332e30 	ldccs	14, cr2, [r3, #-192]!	; 0xffffff40
     118:	31323032 	teqcc	r2, r2, lsr r0
     11c:	2f30312e 	svccs	0x0030312e
     120:	2d6d7261 	sfmcs	f7, 2, [sp, #-388]!	; 0xfffffe7c
     124:	656e6f6e 	strbvs	r6, [lr, #-3950]!	; 0xfffff092
     128:	6261652d 	rsbvs	r6, r1, #188743680	; 0xb400000
     12c:	6e692f69 	cdpvs	15, 6, cr2, cr9, cr9, {3}
     130:	64756c63 	ldrbtvs	r6, [r5], #-3171	; 0xfffff39d
     134:	6d000065 	stcvs	0, cr0, [r0, #-404]	; 0xfffffe6c
     138:	2e6e6961 	vnmulcs.f16	s13, s28, s3	; <UNPREDICTABLE>
     13c:	00010063 	andeq	r0, r1, r3, rrx
     140:	65645f00 	strbvs	r5, [r4, #-3840]!	; 0xfffff100
     144:	6c756166 	ldfvse	f6, [r5], #-408	; 0xfffffe68
     148:	79745f74 	ldmdbvc	r4!, {r2, r4, r5, r6, r8, r9, sl, fp, ip, lr}^
     14c:	2e736570 	mrccs	5, 3, r6, cr3, cr0, {3}
     150:	00020068 	andeq	r0, r2, r8, rrx
     154:	74735f00 	ldrbtvc	r5, [r3], #-3840	; 0xfffff100
     158:	746e6964 	strbtvc	r6, [lr], #-2404	; 0xfffff69c
     15c:	0300682e 	movweq	r6, #2094	; 0x82e
     160:	6f630000 	svcvs	0x00630000
     164:	635f6572 	cmpvs	pc, #478150656	; 0x1c800000
     168:	2e33336d 	cdpcs	3, 3, cr3, cr3, cr13, {3}
     16c:	00040068 	andeq	r0, r4, r8, rrx
     170:	72617500 	rsbvc	r7, r1, #0, 10
     174:	00682e74 	rsbeq	r2, r8, r4, ror lr
     178:	66000005 	strvs	r0, [r0], -r5
     17c:	746c7561 	strbtvc	r7, [ip], #-1377	; 0xfffffa9f
     180:	6d75642d 	cfldrdvs	mvd6, [r5, #-180]!	; 0xffffff4c
     184:	00682e70 	rsbeq	r2, r8, r0, ror lr
     188:	73000006 	movwvc	r0, #6
     18c:	6f696474 	svcvs	0x00696474
     190:	0700682e 	streq	r6, [r0, -lr, lsr #16]
     194:	623c0000 	eorsvs	r0, ip, #0
     198:	746c6975 	strbtvc	r6, [ip], #-2421	; 0xfffff68b
     19c:	3e6e692d 	vmulcc.f16	s13, s28, s27	; <UNPREDICTABLE>
     1a0:	00000000 	andeq	r0, r0, r0
     1a4:	00260500 	eoreq	r0, r6, r0, lsl #10
     1a8:	00000205 	andeq	r0, r0, r5, lsl #4
     1ac:	05190000 	ldreq	r0, [r9, #-0]
     1b0:	01052105 	tsteq	r5, r5, lsl #2
     1b4:	04023d06 	streq	r3, [r2], #-3334	; 0xfffff2fa
     1b8:	05010100 	streq	r0, [r1, #-256]	; 0xffffff00
     1bc:	0205001c 	andeq	r0, r5, #28
     1c0:	00000000 	andeq	r0, r0, r0
     1c4:	05010b03 	streq	r0, [r1, #-2819]	; 0xfffff4fd
     1c8:	01052105 	tsteq	r5, r5, lsl #2
     1cc:	04023d06 	streq	r3, [r2], #-3334	; 0xfffff2fa
     1d0:	05010100 	streq	r0, [r1, #-256]	; 0xffffff00
     1d4:	02050023 	andeq	r0, r5, #35	; 0x23
     1d8:	00000000 	andeq	r0, r0, r0
     1dc:	05010f03 	streq	r0, [r1, #-3843]	; 0xfffff0fd
     1e0:	05142105 	ldreq	r2, [r4, #-261]	; 0xfffffefb
     1e4:	0501060e 	streq	r0, [r1, #-1550]	; 0xfffff9f2
     1e8:	13590605 	cmpne	r9, #5242880	; 0x500000
     1ec:	4b060105 	blmi	180608 <__RAM_SIZE+0x80608>
     1f0:	01000602 	tsteq	r0, r2, lsl #12
     1f4:	00220501 	eoreq	r0, r2, r1, lsl #10
     1f8:	08000205 	stmdaeq	r0, {r0, r2, r9}
     1fc:	17031000 	strne	r1, [r3, -r0]
     200:	2f050501 	svccs	0x00050501
     204:	06120513 			; <UNDEFINED> instruction: 0x06120513
     208:	06050501 	streq	r0, [r5], -r1, lsl #10
     20c:	060e052f 	streq	r0, [lr], -pc, lsr #10
     210:	06050501 	streq	r0, [r5], -r1, lsl #10
     214:	0d05135a 	stceq	3, cr1, [r5, #-360]	; 0xfffffe98
     218:	0b050106 	bleq	140638 <__RAM_SIZE+0x40638>
     21c:	06050520 	streq	r0, [r5], -r0, lsr #10
     220:	05136721 	ldreq	r6, [r3, #-1825]	; 0xfffff8df
     224:	0501060d 	streq	r0, [r1, #-1549]	; 0xfffff9f3
     228:	0505200b 	streq	r2, [r5, #-11]
     22c:	13592106 	cmpne	r9, #-2147483647	; 0x80000001
     230:	01060d05 	tsteq	r6, r5, lsl #26
     234:	052e0b05 	streq	r0, [lr, #-2821]!	; 0xfffff4fb
     238:	05210605 	streq	r0, [r1, #-1541]!	; 0xfffff9fb
     23c:	02590601 	subseq	r0, r9, #1048576	; 0x100000
     240:	01010006 	tsteq	r1, r6
     244:	05001b05 	streq	r1, [r0, #-2821]	; 0xfffff4fb
     248:	00084c02 	andeq	r4, r8, r2, lsl #24
     24c:	01270310 			; <UNDEFINED> instruction: 0x01270310
     250:	052f0505 	streq	r0, [pc, #-1285]!	; fffffd53 <__StackTop+0xc7effd53>
     254:	05010612 	streq	r0, [r1, #-1554]	; 0xfffff9ee
     258:	05670605 	strbeq	r0, [r7, #-1541]!	; 0xfffff9fb
     25c:	0501061a 	streq	r0, [r1, #-1562]	; 0xfffff9e6
     260:	053d0605 	ldreq	r0, [sp, #-1541]!	; 0xfffff9fb
     264:	2e01061a 	mcrcs	6, 0, r0, cr1, cr10, {0}
     268:	21060505 	tstcs	r6, r5, lsl #10
     26c:	01061105 	tsteq	r6, r5, lsl #2
     270:	0605053c 			; <UNDEFINED> instruction: 0x0605053c
     274:	0608052f 	streq	r0, [r8], -pc, lsr #10
     278:	06090501 	streq	r0, [r9], -r1, lsl #10
     27c:	06200631 			; <UNDEFINED> instruction: 0x06200631
     280:	010e052f 	tsteq	lr, pc, lsr #10
     284:	01061205 	tsteq	r6, r5, lsl #4
     288:	20200905 	eorcs	r0, r0, r5, lsl #18
     28c:	2e060f06 	cdpcs	15, 0, cr0, cr6, cr6, {0}
     290:	02000d05 	andeq	r0, r0, #320	; 0x140
     294:	40060304 	andmi	r0, r6, r4, lsl #6
     298:	02002405 	andeq	r2, r0, #83886080	; 0x5000000
     29c:	05570304 	ldrbeq	r0, [r7, #-772]	; 0xfffffcfc
     2a0:	04020025 	streq	r0, [r2], #-37	; 0xffffffdb
     2a4:	05010603 	streq	r0, [r1, #-1539]	; 0xfffff9fd
     2a8:	04020019 	streq	r0, [r2], #-25	; 0xffffffe7
     2ac:	05200601 	streq	r0, [r0, #-1537]!	; 0xfffff9ff
     2b0:	04020009 	streq	r0, [r2], #-9
     2b4:	06010601 	streq	r0, [r1], -r1, lsl #12
     2b8:	06010531 			; <UNDEFINED> instruction: 0x06010531
     2bc:	08022e3e 	stmdaeq	r2, {r1, r2, r3, r4, r5, r9, sl, fp, sp}
     2c0:	05010100 	streq	r0, [r1, #-256]	; 0xffffff00
     2c4:	02050012 	andeq	r0, r5, #18
     2c8:	100008b4 			; <UNDEFINED> instruction: 0x100008b4
     2cc:	05013703 	streq	r3, [r1, #-1795]	; 0xfffff8fd
     2d0:	304b2105 	subcc	r2, fp, r5, lsl #2
     2d4:	2f060105 	svccs	0x00060105
     2d8:	01000502 	tsteq	r0, r2, lsl #10
     2dc:	00120501 	andseq	r0, r2, r1, lsl #10
     2e0:	08d00205 	ldmeq	r0, {r0, r2, r9}^
     2e4:	3e031000 	cdpcc	0, 0, cr1, cr3, cr0, {0}
     2e8:	21050501 	tstcs	r5, r1, lsl #10
     2ec:	0601054b 	streq	r0, [r1], -fp, asr #10
     2f0:	0005022f 	andeq	r0, r5, pc, lsr #4
     2f4:	12050101 	andne	r0, r5, #1073741824	; 0x40000000
     2f8:	e8020500 	stmda	r2, {r8, sl}
     2fc:	03100008 	tsteq	r0, #8
     300:	050100c3 	streq	r0, [r1, #-195]	; 0xffffff3d
     304:	054b2105 	strbeq	r2, [fp, #-261]	; 0xfffffefb
     308:	022f0601 	eoreq	r0, pc, #1048576	; 0x100000
     30c:	01010005 	tsteq	r1, r5
     310:	05001205 	streq	r1, [r0, #-517]	; 0xfffffdfb
     314:	00090002 	andeq	r0, r9, r2
     318:	00c80310 	sbceq	r0, r8, r0, lsl r3
     31c:	21050501 	tstcs	r5, r1, lsl #10
     320:	0601054b 	streq	r0, [r1], -fp, asr #10
     324:	0005022f 	andeq	r0, r5, pc, lsr #4
     328:	12050101 	andne	r0, r5, #1073741824	; 0x40000000
     32c:	18020500 	stmdane	r2, {r8, sl}
     330:	03100009 	tsteq	r0, #9
     334:	050100cd 	streq	r0, [r1, #-205]	; 0xffffff33
     338:	054b2105 	strbeq	r2, [fp, #-261]	; 0xfffffefb
     33c:	022f0601 	eoreq	r0, pc, #1048576	; 0x100000
     340:	01010005 	tsteq	r1, r5
     344:	05001205 	streq	r1, [r0, #-517]	; 0xfffffdfb
     348:	00093002 	andeq	r3, r9, r2
     34c:	00d20310 	sbcseq	r0, r2, r0, lsl r3
     350:	21050501 	tstcs	r5, r1, lsl #10
     354:	0601054b 	streq	r0, [r1], -fp, asr #10
     358:	0005022f 	andeq	r0, r5, pc, lsr #4
     35c:	10050101 	andne	r0, r5, r1, lsl #2
     360:	48020500 	stmdami	r2, {r8, sl}
     364:	03100009 	tsteq	r0, #9
     368:	050100d7 	streq	r0, [r1, #-215]	; 0xffffff29
     36c:	30132105 	andscc	r2, r3, r5, lsl #2
     370:	09052f3d 	stmdbeq	r5, {r0, r2, r3, r4, r5, r8, r9, sl, fp, sp}
     374:	05052906 	streq	r2, [r5, #-2310]	; 0xfffff6fa
     378:	01040200 	mrseq	r0, R12_usr
     37c:	09052706 	stmdbeq	r5, {r1, r2, r8, r9, sl, sp}
     380:	01040200 	mrseq	r0, R12_usr
     384:	04020013 	streq	r0, [r2], #-19	; 0xffffffed
     388:	02002101 	andeq	r2, r0, #1073741824	; 0x40000000
     38c:	20060104 	andcs	r0, r6, r4, lsl #2
     390:	02000b05 	andeq	r0, r0, #5120	; 0x1400
     394:	3a060104 	bcc	1807ac <__RAM_SIZE+0x807ac>
     398:	02000905 	andeq	r0, r0, #81920	; 0x14000
     39c:	14060104 	strne	r0, [r6], #-260	; 0xfffffefc
     3a0:	01000602 	tsteq	r0, r2, lsl #12
     3a4:	00019d01 	andeq	r9, r1, r1, lsl #26
     3a8:	4d000300 	stcmi	3, cr0, [r0, #-0]
     3ac:	02000001 	andeq	r0, r0, #1
     3b0:	0d0efb01 	vstreq	d15, [lr, #-4]
     3b4:	01010100 	mrseq	r0, (UNDEF: 17)
     3b8:	00000001 	andeq	r0, r0, r1
     3bc:	01000001 	tsteq	r0, r1
     3c0:	74732f2e 	ldrbtvc	r2, [r3], #-3886	; 0xfffff0d2
     3c4:	75747261 	ldrbvc	r7, [r4, #-609]!	; 0xfffffd9f
     3c8:	63672f70 	cmnvs	r7, #112, 30	; 0x1c0
     3cc:	6f2f0063 	svcvs	0x002f0063
     3d0:	672f7470 			; <UNDEFINED> instruction: 0x672f7470
     3d4:	612d6363 			; <UNDEFINED> instruction: 0x612d6363
     3d8:	6e2d6d72 	mcrvs	13, 1, r6, cr13, cr2, {3}
     3dc:	2d656e6f 	stclcs	14, cr6, [r5, #-444]!	; 0xfffffe44
     3e0:	69626165 	stmdbvs	r2!, {r0, r2, r5, r6, r8, sp, lr}^
     3e4:	2e30312d 	rsfcssp	f3, f0, #5.0
     3e8:	30322d33 	eorscc	r2, r2, r3, lsr sp
     3ec:	312e3132 			; <UNDEFINED> instruction: 0x312e3132
     3f0:	72612f30 	rsbvc	r2, r1, #48, 30	; 0xc0
     3f4:	6f6e2d6d 	svcvs	0x006e2d6d
     3f8:	652d656e 	strvs	r6, [sp, #-1390]!	; 0xfffffa92
     3fc:	2f696261 	svccs	0x00696261
     400:	6c636e69 	stclvs	14, cr6, [r3], #-420	; 0xfffffe5c
     404:	2f656475 	svccs	0x00656475
     408:	6863616d 	stmdavs	r3!, {r0, r2, r3, r5, r6, r8, sp, lr}^
     40c:	00656e69 	rsbeq	r6, r5, r9, ror #28
     410:	74706f2f 	ldrbtvc	r6, [r0], #-3887	; 0xfffff0d1
     414:	6363672f 	cmnvs	r3, #12320768	; 0xbc0000
     418:	6d72612d 	ldfvse	f6, [r2, #-180]!	; 0xffffff4c
     41c:	6e6f6e2d 	cdpvs	14, 6, cr6, cr15, cr13, {1}
     420:	61652d65 	cmnvs	r5, r5, ror #26
     424:	312d6962 			; <UNDEFINED> instruction: 0x312d6962
     428:	2d332e30 	ldccs	14, cr2, [r3, #-192]!	; 0xffffff40
     42c:	31323032 	teqcc	r2, r2, lsr r0
     430:	2f30312e 	svccs	0x0030312e
     434:	2d6d7261 	sfmcs	f7, 2, [sp, #-388]!	; 0xfffffe7c
     438:	656e6f6e 	strbvs	r6, [lr, #-3950]!	; 0xfffff092
     43c:	6261652d 	rsbvs	r6, r1, #188743680	; 0xb400000
     440:	6e692f69 	cdpvs	15, 6, cr2, cr9, cr9, {3}
     444:	64756c63 	ldrbtvs	r6, [r5], #-3171	; 0xfffff39d
     448:	79732f65 	ldmdbvc	r3!, {r0, r2, r5, r6, r8, r9, sl, fp, sp}^
     44c:	2e2e0073 	mcrcs	0, 1, r0, cr14, cr3, {3}
     450:	6972442f 	ldmdbvs	r2!, {r0, r1, r2, r3, r5, sl, lr}^
     454:	73726576 	cmnvc	r2, #494927872	; 0x1d800000
     458:	534d432f 	movtpl	r4, #54063	; 0xd32f
     45c:	355f5349 	ldrbcc	r5, [pc, #-841]	; 11b <__STACKSEAL_SIZE+0x11b>
     460:	534d432f 	movtpl	r4, #54063	; 0xd32f
     464:	432f5349 			; <UNDEFINED> instruction: 0x432f5349
     468:	2f65726f 	svccs	0x0065726f
     46c:	6c636e49 	stclvs	14, cr6, [r3], #-292	; 0xfffffedc
     470:	00656475 	rsbeq	r6, r5, r5, ror r4
     474:	442f2e2e 	strtmi	r2, [pc], #-3630	; 47c <__STACKSEAL_SIZE+0x47c>
     478:	65766972 	ldrbvs	r6, [r6, #-2418]!	; 0xfffff68e
     47c:	432f7372 			; <UNDEFINED> instruction: 0x432f7372
     480:	5349534d 	movtpl	r5, #37709	; 0x934d
     484:	442f355f 	strtmi	r3, [pc], #-1375	; 48c <__STACKSEAL_SIZE+0x48c>
     488:	63697665 	cmnvs	r9, #105906176	; 0x6500000
     48c:	52412f65 	subpl	r2, r1, #404	; 0x194
     490:	52412f4d 	subpl	r2, r1, #308	; 0x134
     494:	334d434d 	movtcc	r4, #54093	; 0xd34d
     498:	6e492f33 	mcrvs	15, 2, r2, cr9, cr3, {1}
     49c:	64756c63 	ldrbtvs	r6, [r5], #-3171	; 0xfffff39d
     4a0:	73000065 	movwvc	r0, #101	; 0x65
     4a4:	65747379 	ldrbvs	r7, [r4, #-889]!	; 0xfffffc87
     4a8:	52415f6d 	subpl	r5, r1, #436	; 0x1b4
     4ac:	334d434d 	movtcc	r4, #54093	; 0xd34d
     4b0:	00632e33 	rsbeq	r2, r3, r3, lsr lr
     4b4:	5f000001 	svcpl	0x00000001
     4b8:	61666564 	cmnvs	r6, r4, ror #10
     4bc:	5f746c75 	svcpl	0x00746c75
     4c0:	65707974 	ldrbvs	r7, [r0, #-2420]!	; 0xfffff68c
     4c4:	00682e73 	rsbeq	r2, r8, r3, ror lr
     4c8:	5f000002 	svcpl	0x00000002
     4cc:	69647473 	stmdbvs	r4!, {r0, r1, r4, r5, r6, sl, ip, sp, lr}^
     4d0:	682e746e 	stmdavs	lr!, {r1, r2, r3, r5, r6, sl, ip, sp, lr}
     4d4:	00000300 	andeq	r0, r0, r0, lsl #6
     4d8:	65726f63 	ldrbvs	r6, [r2, #-3939]!	; 0xfffff09d
     4dc:	336d635f 	cmncc	sp, #2080374785	; 0x7c000001
     4e0:	00682e33 	rsbeq	r2, r8, r3, lsr lr
     4e4:	73000004 	movwvc	r0, #4
     4e8:	65747379 	ldrbvs	r7, [r4, #-889]!	; 0xfffffc87
     4ec:	52415f6d 	subpl	r5, r1, #436	; 0x1b4
     4f0:	334d434d 	movtcc	r4, #54093	; 0xd34d
     4f4:	00682e33 	rsbeq	r2, r8, r3, lsr lr
     4f8:	00000005 	andeq	r0, r0, r5
     4fc:	05000105 	streq	r0, [r0, #-261]	; 0xfffffefb
     500:	00000002 	andeq	r0, r0, r2
     504:	00c40300 	sbceq	r0, r4, r0, lsl #6
     508:	13030501 	movwne	r0, #13569	; 0x3501
     50c:	01061305 	tsteq	r6, r5, lsl #6
     510:	023d0105 	eorseq	r0, sp, #1073741825	; 0x40000001
     514:	01010005 	tsteq	r1, r5
     518:	05000105 	streq	r0, [r0, #-261]	; 0xfffffefb
     51c:	00097402 	andeq	r7, r9, r2, lsl #8
     520:	00cc0310 	sbceq	r0, ip, r0, lsl r3
     524:	15030501 	strne	r0, [r3, #-1281]	; 0xfffffaff
     528:	01060d05 	tsteq	r6, r5, lsl #26
     52c:	40060305 	andmi	r0, r6, r5, lsl #6
     530:	01060e05 	tsteq	r6, r5, lsl #28
     534:	03060305 	movweq	r0, #25349	; 0x6305
     538:	1305660c 	movwne	r6, #22028	; 0x560c
     53c:	01050106 	tsteq	r5, r6, lsl #2
     540:	000a023d 	andeq	r0, sl, sp, lsr r2
     544:	11bf0101 			; <UNDEFINED> instruction: 0x11bf0101
     548:	00030000 	andeq	r0, r3, r0
     54c:	00000153 	andeq	r0, r0, r3, asr r1
     550:	0efb0102 	cdpeq	1, 15, cr0, cr11, cr2, {0}
     554:	0101000d 	tsteq	r1, sp
     558:	00000101 	andeq	r0, r0, r1, lsl #2
     55c:	00000100 	andeq	r0, r0, r0, lsl #2
     560:	2f2e2e01 	svccs	0x002e2e01
     564:	65726f43 	ldrbvs	r6, [r2, #-3907]!	; 0xfffff0bd
     568:	6372532f 	cmnvs	r2, #-1140850688	; 0xbc000000
     56c:	706f2f00 	rsbvc	r2, pc, r0, lsl #30
     570:	63672f74 	cmnvs	r7, #116, 30	; 0x1d0
     574:	72612d63 	rsbvc	r2, r1, #6336	; 0x18c0
     578:	6f6e2d6d 	svcvs	0x006e2d6d
     57c:	652d656e 	strvs	r6, [sp, #-1390]!	; 0xfffffa92
     580:	2d696261 	sfmcs	f6, 2, [r9, #-388]!	; 0xfffffe7c
     584:	332e3031 			; <UNDEFINED> instruction: 0x332e3031
     588:	3230322d 	eorscc	r3, r0, #-805306366	; 0xd0000002
     58c:	30312e31 	eorscc	r2, r1, r1, lsr lr
     590:	6d72612f 	ldfvse	f6, [r2, #-188]!	; 0xffffff44
     594:	6e6f6e2d 	cdpvs	14, 6, cr6, cr15, cr13, {1}
     598:	61652d65 	cmnvs	r5, r5, ror #26
     59c:	692f6962 	stmdbvs	pc!, {r1, r5, r6, r8, fp, sp, lr}	; <UNPREDICTABLE>
     5a0:	756c636e 	strbvc	r6, [ip, #-878]!	; 0xfffffc92
     5a4:	6d2f6564 	cfstr32vs	mvfx6, [pc, #-400]!	; 41c <__STACKSEAL_SIZE+0x41c>
     5a8:	69686361 	stmdbvs	r8!, {r0, r5, r6, r8, r9, sp, lr}^
     5ac:	2f00656e 	svccs	0x0000656e
     5b0:	2f74706f 	svccs	0x0074706f
     5b4:	2d636367 	stclcs	3, cr6, [r3, #-412]!	; 0xfffffe64
     5b8:	2d6d7261 	sfmcs	f7, 2, [sp, #-388]!	; 0xfffffe7c
     5bc:	656e6f6e 	strbvs	r6, [lr, #-3950]!	; 0xfffff092
     5c0:	6261652d 	rsbvs	r6, r1, #188743680	; 0xb400000
     5c4:	30312d69 	eorscc	r2, r1, r9, ror #26
     5c8:	322d332e 	eorcc	r3, sp, #-1207959552	; 0xb8000000
     5cc:	2e313230 	mrccs	2, 1, r3, cr1, cr0, {1}
     5d0:	612f3031 			; <UNDEFINED> instruction: 0x612f3031
     5d4:	6e2d6d72 	mcrvs	13, 1, r6, cr13, cr2, {3}
     5d8:	2d656e6f 	stclcs	14, cr6, [r5, #-444]!	; 0xfffffe44
     5dc:	69626165 	stmdbvs	r2!, {r0, r2, r5, r6, r8, sp, lr}^
     5e0:	636e692f 	cmnvs	lr, #770048	; 0xbc000
     5e4:	6564756c 	strbvs	r7, [r4, #-1388]!	; 0xfffffa94
     5e8:	7379732f 	cmnvc	r9, #-1140850688	; 0xbc000000
     5ec:	706f2f00 	rsbvc	r2, pc, r0, lsl #30
     5f0:	63672f74 	cmnvs	r7, #116, 30	; 0x1d0
     5f4:	72612d63 	rsbvc	r2, r1, #6336	; 0x18c0
     5f8:	6f6e2d6d 	svcvs	0x006e2d6d
     5fc:	652d656e 	strvs	r6, [sp, #-1390]!	; 0xfffffa92
     600:	2d696261 	sfmcs	f6, 2, [r9, #-388]!	; 0xfffffe7c
     604:	332e3031 			; <UNDEFINED> instruction: 0x332e3031
     608:	3230322d 	eorscc	r3, r0, #-805306366	; 0xd0000002
     60c:	30312e31 	eorscc	r2, r1, r1, lsr lr
     610:	62696c2f 	rsbvs	r6, r9, #12032	; 0x2f00
     614:	6363672f 	cmnvs	r3, #12320768	; 0xbc0000
     618:	6d72612f 	ldfvse	f6, [r2, #-188]!	; 0xffffff44
     61c:	6e6f6e2d 	cdpvs	14, 6, cr6, cr15, cr13, {1}
     620:	61652d65 	cmnvs	r5, r5, ror #26
     624:	312f6962 			; <UNDEFINED> instruction: 0x312f6962
     628:	2e332e30 	mrccs	14, 1, r2, cr3, cr0, {1}
     62c:	6e692f31 	mcrvs	15, 3, r2, cr9, cr1, {1}
     630:	64756c63 	ldrbtvs	r6, [r5], #-3171	; 0xfffff39d
     634:	2e2e0065 	cdpcs	0, 2, cr0, cr14, cr5, {3}
     638:	726f432f 	rsbvc	r4, pc, #-1140850688	; 0xbc000000
     63c:	6e492f65 	cdpvs	15, 4, cr2, cr9, cr5, {3}
     640:	70000063 	andvc	r0, r0, r3, rrx
     644:	746e6972 	strbtvc	r6, [lr], #-2418	; 0xfffff68e
     648:	00632e66 	rsbeq	r2, r3, r6, ror #28
     64c:	5f000001 	svcpl	0x00000001
     650:	61666564 	cmnvs	r6, r4, ror #10
     654:	5f746c75 	svcpl	0x00746c75
     658:	65707974 	ldrbvs	r7, [r0, #-2420]!	; 0xfffff68c
     65c:	00682e73 	rsbeq	r2, r8, r3, ror lr
     660:	5f000002 	svcpl	0x00000002
     664:	69647473 	stmdbvs	r4!, {r0, r1, r4, r5, r6, sl, ip, sp, lr}^
     668:	682e746e 	stmdavs	lr!, {r1, r2, r3, r5, r6, sl, ip, sp, lr}
     66c:	00000300 	andeq	r0, r0, r0, lsl #6
     670:	61647473 	smcvs	18243	; 0x4743
     674:	682e6772 	stmdavs	lr!, {r1, r4, r5, r6, r8, r9, sl, sp, lr}
     678:	00000400 	andeq	r0, r0, r0, lsl #8
     67c:	64647473 	strbtvs	r7, [r4], #-1139	; 0xfffffb8d
     680:	682e6665 	stmdavs	lr!, {r0, r2, r5, r6, r9, sl, sp, lr}
     684:	00000400 	andeq	r0, r0, r0, lsl #8
     688:	6975623c 	ldmdbvs	r5!, {r2, r3, r4, r5, r9, sp, lr}^
     68c:	692d746c 	pushvs	{r2, r3, r5, r6, sl, ip, sp, lr}
     690:	00003e6e 	andeq	r3, r0, lr, ror #28
     694:	72700000 	rsbsvc	r0, r0, #0
     698:	66746e69 	ldrbtvs	r6, [r4], -r9, ror #28
     69c:	0500682e 	streq	r6, [r0, #-2094]	; 0xfffff7d2
     6a0:	05000000 	streq	r0, [r0, #-0]
     6a4:	02050001 	andeq	r0, r5, #1
     6a8:	00000000 	andeq	r0, r0, r0
     6ac:	01018503 	tsteq	r1, r3, lsl #10
     6b0:	05130305 	ldreq	r0, [r3, #-773]	; 0xfffffcfb
     6b4:	05010606 	streq	r0, [r1, #-1542]	; 0xfffff9fa
     6b8:	052f0605 	streq	r0, [pc, #-1541]!	; bb <__STACKSEAL_SIZE+0xbb>
     6bc:	0501061a 	streq	r0, [r1, #-1562]	; 0xfffff9e6
     6c0:	01022201 	tsteq	r2, r1, lsl #4
     6c4:	05010100 	streq	r0, [r1, #-256]	; 0xffffff00
     6c8:	02050001 	andeq	r0, r5, #1
     6cc:	100009a0 	andne	r0, r0, r0, lsr #19
     6d0:	01018e03 	tsteq	r1, r3, lsl #28
     6d4:	05130305 	ldreq	r0, [r3, #-773]	; 0xfffffcfb
     6d8:	22050114 	andcs	r0, r5, #20, 2
     6dc:	012d0501 			; <UNDEFINED> instruction: 0x012d0501
     6e0:	13060105 	movwne	r0, #24837	; 0x6105
     6e4:	01000102 	tsteq	r0, r2, lsl #2
     6e8:	00010501 	andeq	r0, r1, r1, lsl #10
     6ec:	00000205 	andeq	r0, r0, r5, lsl #4
     6f0:	9f030000 	svcls	0x00030000
     6f4:	03050101 	movweq	r0, #20737	; 0x5101
     6f8:	010e0513 	tsteq	lr, r3, lsl r5
     6fc:	05130305 	ldreq	r0, [r3, #-773]	; 0xfffffcfb
     700:	05010606 	streq	r0, [r1, #-1542]	; 0xfffff9fa
     704:	05051e01 	streq	r1, [r5, #-3585]	; 0xfffff1ff
     708:	21052406 	tstcs	r5, r6, lsl #8
     70c:	06050106 	streq	r0, [r5], -r6, lsl #2
     710:	01052020 	tsteq	r5, r0, lsr #32
     714:	01022022 	tsteq	r2, r2, lsr #32
     718:	05010100 	streq	r0, [r1, #-256]	; 0xffffff00
     71c:	02050001 	andeq	r0, r5, #1
     720:	100009a2 	andne	r0, r0, r2, lsr #19
     724:	0101bc03 	tsteq	r1, r3, lsl #24
     728:	03050106 	movweq	r0, #20742	; 0x5106
     72c:	05132106 	ldreq	r2, [r3, #-262]	; 0xfffffefa
     730:	05110610 	ldreq	r0, [r1, #-1552]	; 0xfffff9f0
     734:	05052109 	streq	r2, [r5, #-265]	; 0xfffffef7
     738:	0b052106 	bleq	148b58 <__RAM_SIZE+0x48b58>
     73c:	2a050106 	bcs	140b5c <__RAM_SIZE+0x40b5c>
     740:	2e22052e 	cfsh64cs	mvdx0, mvdx2, #30
     744:	05201105 	streq	r1, [r0, #-261]!	; 0xfffffefb
     748:	09052e07 	stmdbeq	r5, {r0, r1, r2, r9, sl, fp, sp}
     74c:	15051f06 	strne	r1, [r5, #-3846]	; 0xfffff0fa
     750:	0a050106 	beq	140b70 <__RAM_SIZE+0x40b70>
     754:	06140520 	ldreq	r0, [r4], -r0, lsr #10
     758:	05207603 	streq	r7, [r0, #-1539]!	; 0xfffff9fd
     75c:	16051403 	strne	r1, [r5], -r3, lsl #8
     760:	20200106 	eorcs	r0, r0, r6, lsl #2
     764:	051a0905 	ldreq	r0, [sl, #-2309]	; 0xfffff6fb
     768:	05310603 	ldreq	r0, [r1, #-1539]!	; 0xfffff9fd
     76c:	02130601 	andseq	r0, r3, #1048576	; 0x100000
     770:	01010001 	tsteq	r1, r1
     774:	05000105 	streq	r0, [r0, #-261]	; 0xfffffefb
     778:	0009c602 	andeq	ip, r9, r2, lsl #12
     77c:	01c70310 	biceq	r0, r7, r0, lsl r3
     780:	05010601 	streq	r0, [r1, #-1537]	; 0xfffff9ff
     784:	15bb0603 	ldrne	r0, [fp, #1539]!	; 0x603
     788:	01060605 	tsteq	r6, r5, lsl #12
     78c:	3d110520 	cfldr32cc	mvfx0, [r1, #-128]	; 0xffffff80
     790:	02001a05 	andeq	r1, r0, #20480	; 0x5000
     794:	2e060104 	adfcss	f0, f6, f4
     798:	02000505 	andeq	r0, r0, #20971520	; 0x1400000
     79c:	01060104 	tsteq	r6, r4, lsl #2
     7a0:	02000705 	andeq	r0, r0, #1310720	; 0x140000
     7a4:	2f060304 	svccs	0x00060304
     7a8:	03040200 	movweq	r0, #16896	; 0x4200
     7ac:	25052e06 	strcs	r2, [r5, #-3590]	; 0xfffff1fa
     7b0:	03040200 	movweq	r0, #16896	; 0x4200
     7b4:	26054906 	strcs	r4, [r5], -r6, lsl #18
     7b8:	03040200 	movweq	r0, #16896	; 0x4200
     7bc:	07050106 	streq	r0, [r5, -r6, lsl #2]
     7c0:	03040200 	movweq	r0, #16896	; 0x4200
     7c4:	0402002f 	streq	r0, [r2], #-47	; 0xffffffd1
     7c8:	02002e03 	andeq	r2, r0, #3, 28	; 0x30
     7cc:	053c0304 	ldreq	r0, [ip, #-772]!	; 0xfffffcfc
     7d0:	06180605 	ldreq	r0, [r8], -r5, lsl #12
     7d4:	09052e20 	stmdbeq	r5, {r5, r9, sl, fp, sp}
     7d8:	03056506 	movweq	r6, #21766	; 0x5506
     7dc:	06060533 			; <UNDEFINED> instruction: 0x06060533
     7e0:	51010501 	tstpl	r1, r1, lsl #10
     7e4:	03060b05 	movweq	r0, #27397	; 0x6b05
     7e8:	10054a7a 	andne	r4, r5, sl, ror sl
     7ec:	0b050106 	bleq	140c0c <__RAM_SIZE+0x40c0c>
     7f0:	0607052e 	streq	r0, [r7], -lr, lsr #10
     7f4:	0220062f 	eoreq	r0, r0, #49283072	; 0x2f00000
     7f8:	01010006 	tsteq	r1, r6
     7fc:	05000105 	streq	r0, [r0, #-261]	; 0xfffffefb
     800:	000a4402 	andeq	r4, sl, r2, lsl #8
     804:	01e30310 	mvneq	r0, r0, lsl r3
     808:	05010601 	streq	r0, [r1, #-1537]	; 0xfffff9ff
     80c:	05ca0603 	strbeq	r0, [sl, #1539]	; 0x603
     810:	05010606 	streq	r0, [r1, #-1542]	; 0xfffff9fa
     814:	053d0605 	ldreq	r0, [sp, #-1541]!	; 0xfffff9fb
     818:	05010608 	streq	r0, [r1, #-1544]	; 0xfffff9f8
     81c:	0402000f 	streq	r0, [r2], #-15
     820:	2a052001 	bcs	14882c <__RAM_SIZE+0x4882c>
     824:	02040200 	andeq	r0, r4, #0, 4
     828:	0037053c 	eorseq	r0, r7, ip, lsr r5
     82c:	3c030402 	cfstrscc	mvf0, [r3], {2}
     830:	3d060705 	stccc	7, cr0, [r6, #-20]	; 0xffffffec
     834:	01060c05 	tsteq	r6, r5, lsl #24
     838:	06070520 	streq	r0, [r7], -r0, lsr #10
     83c:	06120523 	ldreq	r0, [r2], -r3, lsr #10
     840:	4a0e0501 	bmi	381c4c <__RAM_SIZE+0x281c4c>
     844:	1f060b05 	svcne	0x00060b05
     848:	02001905 	andeq	r1, r0, #81920	; 0x14000
     84c:	2e060104 	adfcss	f0, f6, f4
     850:	31060b05 	tstcc	r6, r5, lsl #22
     854:	02002405 	andeq	r2, r0, #83886080	; 0x5000000
     858:	3c060104 	stfccs	f0, [r6], {4}
     85c:	02003505 	andeq	r3, r0, #20971520	; 0x1400000
     860:	052e0204 	streq	r0, [lr, #-516]!	; 0xfffffdfc
     864:	052f0607 	streq	r0, [pc, #-1543]!	; 265 <__STACKSEAL_SIZE+0x265>
     868:	05010612 	streq	r0, [r1, #-1554]	; 0xfffff9ee
     86c:	05204a0e 	streq	r4, [r0, #-2574]!	; 0xfffff5f2
     870:	05250603 	streq	r0, [r5, #-1539]!	; 0xfffff9fd
     874:	05010606 	streq	r0, [r1, #-1542]	; 0xfffff9fa
     878:	053d0605 	ldreq	r0, [sp, #-1541]!	; 0xfffff9fb
     87c:	05010608 	streq	r0, [r1, #-1544]	; 0xfffff9f8
     880:	04020024 	streq	r0, [r2], #-36	; 0xffffffdc
     884:	2b053c01 	blcs	14f890 <__RAM_SIZE+0x4f890>
     888:	02040200 	andeq	r0, r4, #0, 4
     88c:	003d0520 	eorseq	r0, sp, r0, lsr #10
     890:	2e030402 	cdpcs	4, 0, cr0, cr3, cr2, {0}
     894:	34060505 	strcc	r0, [r6], #-1285	; 0xfffffafb
     898:	01060805 	tsteq	r6, r5, lsl #16
     89c:	3f060a05 	svccc	0x00060a05
     8a0:	01060d05 	tsteq	r6, r5, lsl #26
     8a4:	3f060a05 	svccc	0x00060a05
     8a8:	01060d05 	tsteq	r6, r5, lsl #26
     8ac:	3f060505 	svccc	0x00060505
     8b0:	01060805 	tsteq	r6, r5, lsl #16
     8b4:	2f060705 	svccs	0x00060705
     8b8:	01061205 	tsteq	r6, r5, lsl #4
     8bc:	054a0e05 	strbeq	r0, [sl, #-3589]	; 0xfffff1fb
     8c0:	05240603 	streq	r0, [r4, #-1539]!	; 0xfffff9fd
     8c4:	05010606 	streq	r0, [r1, #-1542]	; 0xfffff9fa
     8c8:	052f0605 	streq	r0, [pc, #-1541]!	; 2cb <__STACKSEAL_SIZE+0x2cb>
     8cc:	05010608 	streq	r0, [r1, #-1544]	; 0xfffff9f8
     8d0:	053d0607 	ldreq	r0, [sp, #-1543]!	; 0xfffff9f9
     8d4:	05010612 	streq	r0, [r1, #-1554]	; 0xfffff9ee
     8d8:	03054a0e 	movweq	r4, #23054	; 0x5a0e
     8dc:	200a0306 	andcs	r0, sl, r6, lsl #6
     8e0:	01060a05 	tsteq	r6, r5, lsl #20
     8e4:	05670105 	strbeq	r0, [r7, #-261]!	; 0xfffffefb
     8e8:	60030607 	andvs	r0, r3, r7, lsl #12
     8ec:	0a05133c 	beq	1455e4 <__RAM_SIZE+0x455e4>
     8f0:	052e0106 	streq	r0, [lr, #-262]!	; 0xfffffefa
     8f4:	0402000f 	streq	r0, [r2], #-15
     8f8:	0a052001 	beq	148904 <__RAM_SIZE+0x48904>
     8fc:	0609053b 			; <UNDEFINED> instruction: 0x0609053b
     900:	060c0530 			; <UNDEFINED> instruction: 0x060c0530
     904:	0a052001 	beq	148910 <__RAM_SIZE+0x48910>
     908:	0017051e 	andseq	r0, r7, lr, lsl r5
     90c:	33010402 	movwcc	r0, #5122	; 0x1402
     910:	02003505 	andeq	r3, r0, #20971520	; 0x1400000
     914:	053c0204 	ldreq	r0, [ip, #-516]!	; 0xfffffdfc
     918:	052f0607 	streq	r0, [pc, #-1543]!	; 319 <__STACKSEAL_SIZE+0x319>
     91c:	05010612 	streq	r0, [r1, #-1554]	; 0xfffff9ee
     920:	12054a0e 	andne	r4, r5, #57344	; 0xe000
     924:	001c0520 	andseq	r0, ip, r0, lsr #10
     928:	22010402 	andcs	r0, r1, #33554432	; 0x2000000
     92c:	02003905 	andeq	r3, r0, #81920	; 0x14000
     930:	053c0204 	ldreq	r0, [ip, #-516]!	; 0xfffffdfc
     934:	052f0607 	streq	r0, [pc, #-1543]!	; 335 <__STACKSEAL_SIZE+0x335>
     938:	05010612 	streq	r0, [r1, #-1554]	; 0xfffff9ee
     93c:	12054a0e 	andne	r4, r5, #57344	; 0xe000
     940:	001b0520 	andseq	r0, fp, r0, lsr #10
     944:	22010402 	andcs	r0, r1, #33554432	; 0x2000000
     948:	2f060705 	svccs	0x00060705
     94c:	01061205 	tsteq	r6, r5, lsl #4
     950:	204a0e05 	subcs	r0, sl, r5, lsl #28
     954:	03060a05 	movweq	r0, #27141	; 0x6a05
     958:	0d05200b 	stceq	0, cr2, [r5, #-44]	; 0xffffffd4
     95c:	07050106 	streq	r0, [r5, -r6, lsl #2]
     960:	12053d06 	andne	r3, r5, #384	; 0x180
     964:	0e050106 	adfeqs	f0, f5, f6
     968:	0a05204a 	beq	148a98 <__RAM_SIZE+0x48a98>
     96c:	0d052206 	sfmeq	f2, 4, [r5, #-24]	; 0xffffffe8
     970:	07050106 	streq	r0, [r5, -r6, lsl #2]
     974:	12053d06 	andne	r3, r5, #384	; 0x180
     978:	0e050106 	adfeqs	f0, f5, f6
     97c:	0102204a 	tsteq	r2, sl, asr #32
     980:	05010100 	streq	r0, [r1, #-256]	; 0xffffff00
     984:	02050001 	andeq	r0, r5, #1
     988:	10000b7c 	andne	r0, r0, ip, ror fp
     98c:	01029903 	tsteq	r2, r3, lsl #18
     990:	03050106 	movweq	r0, #20742	; 0x5106
     994:	15135906 	ldrne	r5, [r3, #-2310]	; 0xfffff6fa
     998:	01060605 	tsteq	r6, r5, lsl #12
     99c:	21060505 	tstcs	r6, r5, lsl #10
     9a0:	01060b05 	tsteq	r6, r5, lsl #22
     9a4:	32060305 	andcc	r0, r6, #335544320	; 0x14000000
     9a8:	01060605 	tsteq	r6, r5, lsl #12
     9ac:	02002205 	andeq	r2, r0, #1342177280	; 0x50000000
     9b0:	053c0104 	ldreq	r0, [ip, #-260]!	; 0xfffffefc
     9b4:	04020012 	streq	r0, [r2], #-18	; 0xffffffee
     9b8:	02004d01 	andeq	r4, r0, #1, 26	; 0x40
     9bc:	052e0104 	streq	r0, [lr, #-260]!	; 0xfffffefc
     9c0:	0402000e 	streq	r0, [r2], #-14
     9c4:	12052e08 	andne	r2, r5, #8, 28	; 0x80
     9c8:	08040200 	stmdaeq	r4, {r9}
     9cc:	0007052e 	andeq	r0, r7, lr, lsr #10
     9d0:	06080402 	streq	r0, [r8], -r2, lsl #8
     9d4:	000d0559 	andeq	r0, sp, r9, asr r5
     9d8:	06080402 	streq	r0, [r8], -r2, lsl #8
     9dc:	04020001 	streq	r0, [r2], #-1
     9e0:	02002e08 	andeq	r2, r0, #8, 28	; 0x80
     9e4:	13060804 	movwne	r0, #26628	; 0x6804
     9e8:	02000505 	andeq	r0, r0, #20971520	; 0x1400000
     9ec:	01060804 	tsteq	r6, r4, lsl #16
     9f0:	02001405 	andeq	r1, r0, #83886080	; 0x5000000
     9f4:	052e0104 	streq	r0, [lr, #-260]!	; 0xfffffefc
     9f8:	0d052c0e 	stceq	12, cr2, [r5, #-56]	; 0xffffffc8
     9fc:	05052021 	streq	r2, [r5, #-33]	; 0xffffffdf
     a00:	07050f06 	streq	r0, [r5, -r6, lsl #30]
     a04:	06270513 			; <UNDEFINED> instruction: 0x06270513
     a08:	4a120501 	bmi	481e14 <__RAM_SIZE+0x381e14>
     a0c:	2f060705 	svccs	0x00060705
     a10:	01061205 	tsteq	r6, r5, lsl #4
     a14:	02005505 	andeq	r5, r0, #20971520	; 0x1400000
     a18:	3c3c0204 	lfmcc	f0, 4, [ip], #-16
     a1c:	07040200 	streq	r0, [r4, -r0, lsl #4]
     a20:	04020020 	streq	r0, [r2], #-32	; 0xffffffe0
     a24:	12052007 	andne	r2, r5, #7
     a28:	07040200 	streq	r0, [r4, -r0, lsl #4]
     a2c:	5855052e 	ldmdapl	r5, {r1, r2, r3, r5, r8, sl}^
     a30:	030a052e 	movweq	r0, #42286	; 0xa52e
     a34:	03050175 	movweq	r0, #20853	; 0x5175
     a38:	20100306 	andscs	r0, r0, r6, lsl #6
     a3c:	01060a05 	tsteq	r6, r5, lsl #20
     a40:	2ed70105 	cdpcs	1, 13, cr0, cr7, cr5, {0}
     a44:	05010100 	streq	r0, [r1, #-256]	; 0xffffff00
     a48:	02050001 	andeq	r0, r5, #1
     a4c:	10000c10 	andne	r0, r0, r0, lsl ip
     a50:	0102b203 	tsteq	r2, r3, lsl #4
     a54:	03050106 	movweq	r0, #20742	; 0x5106
     a58:	1513d706 	ldrne	sp, [r3, #-1798]	; 0xfffff8fa
     a5c:	01060605 	tsteq	r6, r5, lsl #12
     a60:	0605052e 	streq	r0, [r5], -lr, lsr #10
     a64:	060b0521 	streq	r0, [fp], -r1, lsr #10
     a68:	06030501 	streq	r0, [r3], -r1, lsl #10
     a6c:	06060532 			; <UNDEFINED> instruction: 0x06060532
     a70:	00220501 	eoreq	r0, r2, r1, lsl #10
     a74:	3c010402 	cfstrscc	mvf0, [r1], {2}
     a78:	02001205 	andeq	r1, r0, #1342177280	; 0x50000000
     a7c:	055b0104 	ldrbeq	r0, [fp, #-260]	; 0xfffffefc
     a80:	0402000e 	streq	r0, [r2], #-14
     a84:	12053c08 	andne	r3, r5, #8, 24	; 0x800
     a88:	08040200 	stmdaeq	r4, {r9}
     a8c:	0402002e 	streq	r0, [r2], #-46	; 0xffffffd2
     a90:	07052e08 	streq	r2, [r5, -r8, lsl #28]
     a94:	08040200 	stmdaeq	r4, {r9}
     a98:	0d054b06 	vstreq	d4, [r5, #-24]	; 0xffffffe8
     a9c:	08040200 	stmdaeq	r4, {r9}
     aa0:	02000106 	andeq	r0, r0, #-2147483647	; 0x80000001
     aa4:	00660804 	rsbeq	r0, r6, r4, lsl #16
     aa8:	06080402 	streq	r0, [r8], -r2, lsl #8
     aac:	00050513 	andeq	r0, r5, r3, lsl r5
     ab0:	06080402 	streq	r0, [r8], -r2, lsl #8
     ab4:	00140501 	andseq	r0, r4, r1, lsl #10
     ab8:	4a010402 	bmi	41ac8 <__HEAP_SIZE+0x40ac8>
     abc:	053a0e05 	ldreq	r0, [sl, #-3589]!	; 0xfffff1fb
     ac0:	052e210d 	streq	r2, [lr, #-269]!	; 0xfffffef3
     ac4:	050f0605 	streq	r0, [pc, #-1541]	; 4c7 <__STACKSEAL_SIZE+0x4c7>
     ac8:	27051307 	strcs	r1, [r5, -r7, lsl #6]
     acc:	12050106 	andne	r0, r5, #-2147483647	; 0x80000001
     ad0:	06070566 	streq	r0, [r7], -r6, ror #10
     ad4:	06120521 	ldreq	r0, [r2], -r1, lsr #10
     ad8:	00550501 	subseq	r0, r5, r1, lsl #10
     adc:	2e020402 	cdpcs	4, 0, cr0, cr2, cr2, {0}
     ae0:	0402003c 	streq	r0, [r2], #-60	; 0xffffffc4
     ae4:	12052007 	andne	r2, r5, #7
     ae8:	07040200 	streq	r0, [r4, -r0, lsl #4]
     aec:	3c55052e 	cfldr64cc	mvdx0, [r5], {46}	; 0x2e
     af0:	030a052e 	movweq	r0, #42286	; 0xa52e
     af4:	03050175 	movweq	r0, #20853	; 0x5175
     af8:	2e100306 	cdpcs	3, 1, cr0, cr0, cr6, {0}
     afc:	01060a05 	tsteq	r6, r5, lsl #20
     b00:	3d080105 	stfccs	f0, [r8, #-20]	; 0xffffffec
     b04:	0101003c 	tsteq	r1, ip, lsr r0
     b08:	05000105 	streq	r0, [r0, #-261]	; 0xfffffefb
     b0c:	000cd802 	andeq	sp, ip, r2, lsl #16
     b10:	03d30310 	bicseq	r0, r3, #16, 6	; 0x40000000
     b14:	05010601 	streq	r0, [r1, #-1537]	; 0xfffff9ff
     b18:	05920603 	ldreq	r0, [r2, #1539]	; 0x603
     b1c:	2e010606 	cfmadd32cs	mvax0, mvfx0, mvfx1, mvfx6
     b20:	052e2020 	streq	r2, [lr, #-32]!	; 0xffffffe0
     b24:	04020018 	streq	r0, [r2], #-24	; 0xffffffe8
     b28:	2d053c01 	stccs	12, cr3, [r5, #-4]
     b2c:	02040200 	andeq	r0, r4, #0, 4
     b30:	0603059e 			; <UNDEFINED> instruction: 0x0603059e
     b34:	060513b1 			; <UNDEFINED> instruction: 0x060513b1
     b38:	03050106 	movweq	r0, #20742	; 0x5106
     b3c:	0605cd06 	streq	ip, [r5], -r6, lsl #26
     b40:	0a050106 	beq	140f60 <__RAM_SIZE+0x40f60>
     b44:	06030559 			; <UNDEFINED> instruction: 0x06030559
     b48:	05131733 	ldreq	r1, [r3, #-1843]	; 0xfffff8cd
     b4c:	053c060e 	ldreq	r0, [ip, #-1550]!	; 0xfffff9f2
     b50:	052f0603 	streq	r0, [pc, #-1539]!	; 555 <__STACKSEAL_SIZE+0x555>
     b54:	05010614 	streq	r0, [r1, #-1556]	; 0xfffff9ec
     b58:	03052e2c 	movweq	r2, #24108	; 0x5e2c
     b5c:	2d055a06 	vstrcs	s10, [r5, #-24]	; 0xffffffe8
     b60:	2e2e0106 	sufcse	f0, f6, f6
     b64:	05582605 	ldrbeq	r2, [r8, #-1541]	; 0xfffff9fb
     b68:	5205744b 	andpl	r7, r5, #1258291200	; 0x4b000000
     b6c:	74410566 	strbvc	r0, [r1], #-1382	; 0xfffffa9a
     b70:	054a0705 	strbeq	r0, [sl, #-1797]	; 0xfffff8fb
     b74:	053e0603 	ldreq	r0, [lr, #-1539]!	; 0xfffff9fd
     b78:	2e010617 	mcrcs	6, 0, r0, cr1, cr7, {0}
     b7c:	05742b05 	ldrbeq	r2, [r4, #-2821]!	; 0xfffff4fb
     b80:	03054a08 	movweq	r4, #23048	; 0x5a08
     b84:	1c053d06 	stcne	13, cr3, [r5], {6}
     b88:	054a0106 	strbeq	r0, [sl, #-262]	; 0xfffffefa
     b8c:	10055837 	andne	r5, r5, r7, lsr r8
     b90:	0603059e 			; <UNDEFINED> instruction: 0x0603059e
     b94:	06100567 	ldreq	r0, [r0], -r7, ror #10
     b98:	06030501 	streq	r0, [r3], -r1, lsl #10
     b9c:	061c0567 	ldreq	r0, [ip], -r7, ror #10
     ba0:	2e240501 	cfsh64cs	mvdx0, mvdx4, #1
     ba4:	84060305 	strhi	r0, [r6], #-773	; 0xfffffcfb
     ba8:	01061305 	tsteq	r6, r5, lsl #6
     bac:	581c053c 	ldmdapl	ip, {r2, r3, r4, r5, r8, sl}
     bb0:	203c0582 	eorscs	r0, ip, r2, lsl #11
     bb4:	05663705 	strbeq	r3, [r6, #-1797]!	; 0xfffff8fb
     bb8:	2b056631 	blcs	15a484 <__RAM_SIZE+0x5a484>
     bbc:	6626054a 	strtvs	r0, [r6], -sl, asr #10
     bc0:	05662005 	strbeq	r2, [r6, #-5]!
     bc4:	0f056617 	svceq	0x00056617
     bc8:	4a0a054a 	bmi	2820f8 <__RAM_SIZE+0x1820f8>
     bcc:	84060305 	strhi	r0, [r6], #-773	; 0xfffffcfb
     bd0:	01060605 	tsteq	r6, r5, lsl #12
     bd4:	59060505 	stmdbpl	r6, {r0, r2, r8, sl}
     bd8:	01060b05 	tsteq	r6, r5, lsl #22
     bdc:	21060505 	tstcs	r6, r5, lsl #10
     be0:	01060c05 	tsteq	r6, r5, lsl #24
     be4:	86060305 	strhi	r0, [r6], -r5, lsl #6
     be8:	01062b05 	tsteq	r6, r5, lsl #22
     bec:	2e2e4405 	cdpcs	4, 2, cr4, cr14, cr5, {0}
     bf0:	02000305 	andeq	r0, r0, #335544320	; 0x14000000
     bf4:	23060404 	movwcs	r0, #25604	; 0x6404
     bf8:	02000605 	andeq	r0, r0, #5242880	; 0x500000
     bfc:	01060404 	tsteq	r6, r4, lsl #8
     c00:	4c060505 	cfstr32mi	mvfx0, [r6], {5}
     c04:	01060805 	tsteq	r6, r5, lsl #16
     c08:	02001905 	andeq	r1, r0, #81920	; 0x14000
     c0c:	05ac0104 	streq	r0, [ip, #260]!	; 0x104
     c10:	05910607 	ldreq	r0, [r1, #1543]	; 0x607
     c14:	0501060a 	streq	r0, [r1, #-1546]	; 0xfffff9f6
     c18:	053d0609 	ldreq	r0, [sp, #-1545]!	; 0xfffff9f7
     c1c:	05010625 	streq	r0, [r1, #-1573]	; 0xfffff9db
     c20:	052e202e 	streq	r2, [lr, #-46]!	; 0xffffffd2
     c24:	51030605 	tstpl	r3, r5, lsl #12
     c28:	060c0520 	streq	r0, [ip], -r0, lsr #10
     c2c:	03010501 	movweq	r0, #5377	; 0x1501
     c30:	3cf200e4 	ldclcc	0, cr0, [r2], #912	; 0x390
     c34:	03060505 	movweq	r0, #25861	; 0x6505
     c38:	052e7fa2 	streq	r7, [lr, #-4002]!	; 0xfffff05e
     c3c:	9e01060b 	cfmadd32ls	mvax0, mvfx0, mvfx1, mvfx11
     c40:	22034405 	andcs	r4, r3, #83886080	; 0x5000000
     c44:	0e052020 	cdpeq	0, 0, cr2, cr5, cr0, {1}
     c48:	05200a03 	streq	r0, [r0, #-2563]!	; 0xfffff5fd
     c4c:	05300607 	ldreq	r0, [r0, #-1543]!	; 0xfffff9f9
     c50:	0501060d 	streq	r0, [r1, #-1549]	; 0xfffff9f3
     c54:	134c0607 	movtne	r0, #50695	; 0xc607
     c58:	11061005 	tstne	r6, r5
     c5c:	06030521 	streq	r0, [r3], -r1, lsr #10
     c60:	13200b03 			; <UNDEFINED> instruction: 0x13200b03
     c64:	01060605 	tsteq	r6, r5, lsl #12
     c68:	3e060505 	cfsh32cc	mvfx0, mvfx6, #5
     c6c:	01060c05 	tsteq	r6, r5, lsl #24
     c70:	0607052e 	streq	r0, [r7], -lr, lsr #10
     c74:	05207603 	streq	r7, [r0, #-1539]!	; 0xfffff9fd
     c78:	0501060a 	streq	r0, [r1, #-1546]	; 0xfffff9f6
     c7c:	04020016 	streq	r0, [r2], #-22	; 0xffffffea
     c80:	09053c01 	stmdbeq	r5, {r0, sl, fp, ip, sp}
     c84:	3c063d06 	stccc	13, cr3, [r6], {6}
     c88:	0c030c05 	stceq	12, cr0, [r3], {5}
     c8c:	05013402 	streq	r3, [r1, #-1026]	; 0xfffffbfe
     c90:	05300603 	ldreq	r0, [r0, #-1539]!	; 0xfffff9fd
     c94:	05010606 	streq	r0, [r1, #-1542]	; 0xfffff9fa
     c98:	0402001c 	streq	r0, [r2], #-28	; 0xffffffe4
     c9c:	0c054a01 			; <UNDEFINED> instruction: 0x0c054a01
     ca0:	06030522 	streq	r0, [r3], -r2, lsr #10
     ca4:	06060532 			; <UNDEFINED> instruction: 0x06060532
     ca8:	06050501 	streq	r0, [r5], -r1, lsl #10
     cac:	06120521 	ldreq	r0, [r2], -r1, lsr #10
     cb0:	2e0b0501 	cfsh32cs	mvfx0, mvfx11, #1
     cb4:	6a060305 	bvs	1818d0 <__RAM_SIZE+0x818d0>
     cb8:	06090513 			; <UNDEFINED> instruction: 0x06090513
     cbc:	04020001 	streq	r0, [r2], #-1
     cc0:	03058204 	movweq	r8, #20996	; 0x5204
     cc4:	04040200 	streq	r0, [r4], #-512	; 0xfffffe00
     cc8:	05230806 	streq	r0, [r3, #-2054]!	; 0xfffff7fa
     ccc:	04020006 	streq	r0, [r2], #-6
     cd0:	05010604 	streq	r0, [r1, #-1540]	; 0xfffff9fc
     cd4:	003e0605 	eorseq	r0, lr, r5, lsl #12
     cd8:	06040402 	streq	r0, [r4], -r2, lsl #8
     cdc:	04020066 	streq	r0, [r2], #-102	; 0xffffff9a
     ce0:	02002e04 	andeq	r2, r0, #4, 28	; 0x40
     ce4:	5a060404 	bpl	181cfc <__RAM_SIZE+0x81cfc>
     ce8:	02004705 	andeq	r4, r0, #1310720	; 0x140000
     cec:	01060404 	tsteq	r6, r4, lsl #8
     cf0:	02000b05 	andeq	r0, r0, #5120	; 0x1400
     cf4:	004a0404 	subeq	r0, sl, r4, lsl #8
     cf8:	3c040402 	cfstrscc	mvf0, [r4], {2}
     cfc:	02000505 	andeq	r0, r0, #20971520	; 0x1400000
     d00:	d8060404 	stmdale	r6, {r2, sl}
     d04:	02000805 	andeq	r0, r0, #327680	; 0x50000
     d08:	01060404 	tsteq	r6, r4, lsl #8
     d0c:	04040200 	streq	r0, [r4], #-512	; 0xfffffe00
     d10:	00090566 	andeq	r0, r9, r6, ror #10
     d14:	03010402 	movweq	r0, #5122	; 0x1402
     d18:	02002077 	andeq	r2, r0, #119	; 0x77
     d1c:	05740104 	ldrbeq	r0, [r4, #-260]!	; 0xfffffefc
     d20:	27052505 	strcs	r2, [r5, -r5, lsl #10]
     d24:	02040200 	andeq	r0, r4, #0, 4
     d28:	02004106 	andeq	r4, r0, #-2147483647	; 0x80000001
     d2c:	20060204 	andcs	r0, r6, r4, lsl #4
     d30:	02000d05 	andeq	r0, r0, #320	; 0x140
     d34:	58060104 	stmdapl	r6, {r2, r8}
     d38:	02001205 	andeq	r1, r0, #1342177280	; 0x50000000
     d3c:	01060104 	tsteq	r6, r4, lsl #2
     d40:	02000d05 	andeq	r0, r0, #320	; 0x140
     d44:	002e0104 	eoreq	r0, lr, r4, lsl #2
     d48:	2e010402 	cdpcs	4, 0, cr0, cr1, cr2, {0}
     d4c:	01000202 	tsteq	r0, r2, lsl #4
     d50:	00010501 	andeq	r0, r1, r1, lsl #10
     d54:	10c80205 	sbcne	r0, r8, r5, lsl #4
     d58:	d3031000 	movwle	r1, #12288	; 0x3000
     d5c:	01060102 	tsteq	r6, r2, lsl #2
     d60:	bb060305 	bllt	18197c <__RAM_SIZE+0x8197c>
     d64:	15151313 	ldrne	r1, [r5, #-787]	; 0xfffffced
     d68:	01060605 	tsteq	r6, r5, lsl #12
     d6c:	20202020 	eorcs	r2, r0, r0, lsr #32
     d70:	4c060305 	stcmi	3, cr0, [r6], {5}
     d74:	01060605 	tsteq	r6, r5, lsl #12
     d78:	a0060305 	andge	r0, r6, r5, lsl #6
     d7c:	01060605 	tsteq	r6, r5, lsl #12
     d80:	95060305 	strls	r0, [r6, #-773]	; 0xfffffcfb
     d84:	01060605 	tsteq	r6, r5, lsl #12
     d88:	02002205 	andeq	r2, r0, #1342177280	; 0x50000000
     d8c:	05900104 	ldreq	r0, [r0, #260]	; 0x104
     d90:	09030603 	stmdbeq	r3, {r0, r1, r9, sl}
     d94:	06051390 			; <UNDEFINED> instruction: 0x06051390
     d98:	08050106 	stmdaeq	r5, {r1, r2, r8}
     d9c:	06030581 	streq	r0, [r3], -r1, lsl #11
     da0:	06060535 			; <UNDEFINED> instruction: 0x06060535
     da4:	4b0a0501 	blmi	2821b0 <__RAM_SIZE+0x1821b0>
     da8:	23060905 	movwcs	r0, #26885	; 0x6905
     dac:	02002a05 	andeq	r2, r0, #20480	; 0x5000
     db0:	2e060104 	adfcss	f0, f6, f4
     db4:	2f060505 	svccs	0x00060505
     db8:	01061005 	tsteq	r6, r5
     dbc:	67060505 	strvs	r0, [r6, -r5, lsl #10]
     dc0:	01060905 	tsteq	r6, r5, lsl #18
     dc4:	201f0c05 	andscs	r0, pc, r5, lsl #24
     dc8:	03060505 	movweq	r0, #25861	; 0x6505
     dcc:	0c052063 	stceq	0, cr2, [r5], {99}	; 0x63
     dd0:	05050106 	streq	r0, [r5, #-262]	; 0xfffffefa
     dd4:	0c05e606 	stceq	6, cr14, [r5], {6}
     dd8:	05050106 	streq	r0, [r5, #-262]	; 0xfffffefa
     ddc:	0c05e606 	stceq	6, cr14, [r5], {6}
     de0:	02000106 	andeq	r0, r0, #-2147483647	; 0x80000001
     de4:	20580404 	subscs	r0, r8, r4, lsl #8
     de8:	08040200 	stmdaeq	r4, {r9}
     dec:	0505c820 	streq	ip, [r5, #-2080]	; 0xfffff7e0
     df0:	0c055006 	stceq	0, cr5, [r5], {6}
     df4:	05050106 	streq	r0, [r5, #-262]	; 0xfffffefa
     df8:	d6090306 	strle	r0, [r9], -r6, lsl #6
     dfc:	060b0513 			; <UNDEFINED> instruction: 0x060b0513
     e00:	810e0501 	tsthi	lr, r1, lsl #10
     e04:	05420a05 	strbeq	r0, [r2, #-2565]	; 0xfffff5fb
     e08:	05360603 	ldreq	r0, [r6, #-1539]!	; 0xfffff9fd
     e0c:	05010607 	streq	r0, [r1, #-1543]	; 0xfffff9f9
     e10:	05590603 	ldrbeq	r0, [r9, #-1539]	; 0xfffff9fd
     e14:	2e010617 	mcrcs	6, 0, r0, cr1, cr7, {0}
     e18:	05662705 	strbeq	r2, [r6, #-1797]!	; 0xfffff8fb
     e1c:	0305580a 	movweq	r5, #22538	; 0x580a
     e20:	11058306 	tstne	r5, r6, lsl #6
     e24:	052e0106 	streq	r0, [lr, #-262]!	; 0xfffffefa
     e28:	05210603 	streq	r0, [r1, #-1539]!	; 0xfffff9fd
     e2c:	2e01060e 	cfmadd32cs	mvax0, mvfx0, mvfx1, mvfx14
     e30:	052e0805 	streq	r0, [lr, #-2053]!	; 0xfffff7fb
     e34:	05840603 	streq	r0, [r4, #1539]	; 0x603
     e38:	20010606 	andcs	r0, r1, r6, lsl #12
     e3c:	4b060505 	blmi	182258 <__RAM_SIZE+0x82258>
     e40:	060e0522 	streq	r0, [lr], -r2, lsr #10
     e44:	58080501 	stmdapl	r8, {r0, r8, sl}
     e48:	59060705 	stmdbpl	r6, {r0, r2, r8, r9, sl}
     e4c:	060c0513 			; <UNDEFINED> instruction: 0x060c0513
     e50:	0603051f 			; <UNDEFINED> instruction: 0x0603051f
     e54:	05200b03 	streq	r0, [r0, #-2819]!	; 0xfffff4fd
     e58:	05010606 	streq	r0, [r1, #-1542]	; 0xfffff9fa
     e5c:	05210605 	streq	r0, [r1, #-1541]!	; 0xfffff9fb
     e60:	05010614 	streq	r0, [r1, #-1556]	; 0xfffff9ec
     e64:	0558580a 	ldrbeq	r5, [r8, #-2058]	; 0xfffff7f6
     e68:	05210605 	streq	r0, [r1, #-1541]!	; 0xfffff9fb
     e6c:	05010608 	streq	r0, [r1, #-1544]	; 0xfffff9f8
     e70:	04020018 	streq	r0, [r2], #-24	; 0xffffffe8
     e74:	29055802 	stmdbcs	r5, {r1, fp, ip, lr}
     e78:	03040200 	movweq	r0, #16896	; 0x4200
     e7c:	06070582 	streq	r0, [r7], -r2, lsl #11
     e80:	0520063f 	streq	r0, [r0, #-1599]!	; 0xfffff9c1
     e84:	74030608 	strvc	r0, [r3], #-1544	; 0xfffff9f8
     e88:	060b0520 	streq	r0, [fp], -r0, lsr #10
     e8c:	06080501 	streq	r0, [r8], -r1, lsl #10
     e90:	060b0584 	streq	r0, [fp], -r4, lsl #11
     e94:	00190501 	andseq	r0, r9, r1, lsl #10
     e98:	20010402 	andcs	r0, r1, r2, lsl #8
     e9c:	3e060505 	cfsh32cc	mvfx0, mvfx6, #5
     ea0:	0b052006 	bleq	148ec0 <__RAM_SIZE+0x48ec0>
     ea4:	200e0306 	andcs	r0, lr, r6, lsl #6
     ea8:	212f0705 			; <UNDEFINED> instruction: 0x212f0705
     eac:	01062705 	tsteq	r6, r5, lsl #14
     eb0:	05900e05 	ldreq	r0, [r0, #3589]	; 0xe05
     eb4:	12052014 	andne	r2, r5, #20
     eb8:	06070520 	streq	r0, [r7], -r0, lsr #10
     ebc:	060a0567 	streq	r0, [sl], -r7, ror #10
     ec0:	2e120501 	cfmul32cs	mvfx0, mvfx2, mvfx1
     ec4:	2e1f0e05 	cdpcs	14, 1, cr0, cr15, cr5, {0}
     ec8:	26060b05 	strcs	r0, [r6], -r5, lsl #22
     ecc:	02003505 	andeq	r3, r0, #20971520	; 0x1400000
     ed0:	2e060104 	adfcss	f0, f6, f4
     ed4:	02002c05 	andeq	r2, r0, #1280	; 0x500
     ed8:	05200104 	streq	r0, [r0, #-260]!	; 0xfffffefc
     edc:	05210607 	streq	r0, [r1, #-1543]!	; 0xfffff9f9
     ee0:	05010612 	streq	r0, [r1, #-1554]	; 0xfffff9ee
     ee4:	0e056535 	mcreq	5, 0, r6, cr5, cr5, {1}
     ee8:	05052021 	streq	r2, [r5, #-33]	; 0xffffffdf
     eec:	08052206 	stmdaeq	r5, {r1, r2, r9, sp}
     ef0:	07050106 	streq	r0, [r5, -r6, lsl #2]
     ef4:	12053006 	andne	r3, r5, #6
     ef8:	0e050106 	adfeqs	f0, f5, f6
     efc:	09052066 	stmdbeq	r5, {r1, r2, r5, r6, sp}
     f00:	05051706 	streq	r1, [r5, #-1798]	; 0xfffff8fa
     f04:	0625052f 	strteq	r0, [r5], -pc, lsr #10
     f08:	ac0c0501 	cfstr32ge	mvfx0, [ip], {1}
     f0c:	05201205 	streq	r1, [r0, #-517]!	; 0xfffffdfb
     f10:	05052010 	streq	r2, [r5, #-16]
     f14:	11056706 	tstne	r5, r6, lsl #14
     f18:	08050106 	stmdaeq	r5, {r1, r2, r8}
     f1c:	1f0c0520 	svcne	0x000c0520
     f20:	0305c808 	movweq	ip, #22536	; 0x5808
     f24:	1d052706 	stcne	7, cr2, [r5, #-24]	; 0xffffffe8
     f28:	06050106 	streq	r0, [r5], -r6, lsl #2
     f2c:	0603053c 			; <UNDEFINED> instruction: 0x0603053c
     f30:	052e0903 	streq	r0, [lr, #-2307]!	; 0xfffff6fd
     f34:	05010606 	streq	r0, [r1, #-1542]	; 0xfffff9fa
     f38:	052f0605 	streq	r0, [pc, #-1541]!	; 93b <__Vectors_Size+0x17b>
     f3c:	05010608 	streq	r0, [r1, #-1544]	; 0xfffff9f8
     f40:	053d0607 	ldreq	r0, [sp, #-1543]!	; 0xfffff9f9
     f44:	05010612 	streq	r0, [r1, #-1554]	; 0xfffff9ee
     f48:	0305660e 	movweq	r6, #22030	; 0x560e
     f4c:	200a0306 	andcs	r0, sl, r6, lsl #6
     f50:	01060a05 	tsteq	r6, r5, lsl #20
     f54:	05c90105 	strbeq	r0, [r9, #261]	; 0x105
     f58:	6b030605 	blvs	c2774 <__HEAP_SIZE+0xc1774>
     f5c:	06080558 			; <UNDEFINED> instruction: 0x06080558
     f60:	000f0501 	andeq	r0, pc, r1, lsl #10
     f64:	2e010402 	cdpcs	4, 0, cr0, cr1, cr2, {0}
     f68:	02001c05 	andeq	r1, r0, #1280	; 0x500
     f6c:	052e0204 	streq	r0, [lr, #-516]!	; 0xfffffdfc
     f70:	054b0607 	strbeq	r0, [fp, #-1543]	; 0xfffff9f9
     f74:	3c01060c 	stccc	6, cr0, [r1], {12}
     f78:	31060705 	tstcc	r6, r5, lsl #14
     f7c:	01061205 	tsteq	r6, r5, lsl #4
     f80:	05660e05 	strbeq	r0, [r6, #-3589]!	; 0xfffff1fb
     f84:	051f060b 	ldreq	r0, [pc, #-1547]	; 981 <__Vectors_Size+0x1c1>
     f88:	0402001a 	streq	r0, [r2], #-26	; 0xffffffe6
     f8c:	002e0601 	eoreq	r0, lr, r1, lsl #12
     f90:	3c010402 	cfstrscc	mvf0, [r1], {2}
     f94:	03060a05 	movweq	r0, #27141	; 0x6a05
     f98:	0d054a09 	vstreq	s8, [r5, #-36]	; 0xffffffdc
     f9c:	07050106 	streq	r0, [r5, -r6, lsl #2]
     fa0:	12054b06 	andne	r4, r5, #6144	; 0x1800
     fa4:	0e050106 	adfeqs	f0, f5, f6
     fa8:	0a052066 	beq	149148 <__RAM_SIZE+0x49148>
     fac:	0d052206 	sfmeq	f2, 4, [r5, #-24]	; 0xffffffe8
     fb0:	07050106 	streq	r0, [r5, -r6, lsl #2]
     fb4:	12054b06 	andne	r4, r5, #6144	; 0x1800
     fb8:	0e050106 	adfeqs	f0, f5, f6
     fbc:	01022066 	tsteq	r2, r6, rrx
     fc0:	05010100 	streq	r0, [r1, #-256]	; 0xffffff00
     fc4:	02050001 	andeq	r0, r5, #1
     fc8:	10001460 	andne	r1, r0, r0, ror #8
     fcc:	0104c103 	tsteq	r4, r3, lsl #2
     fd0:	03050106 	movweq	r0, #20742	; 0x5106
     fd4:	14136706 	ldrne	r6, [r3], #-1798	; 0xfffff8fa
     fd8:	01060605 	tsteq	r6, r5, lsl #12
     fdc:	d3030905 	movwle	r0, #14597	; 0x3905
     fe0:	06204a01 	strteq	r4, [r0], -r1, lsl #20
     fe4:	017eb203 	cmneq	lr, r3, lsl #4
     fe8:	01060a05 	tsteq	r6, r5, lsl #20
     fec:	052e0905 	streq	r0, [lr, #-2309]!	; 0xfffff6fb
     ff0:	053f0605 	ldreq	r0, [pc, #-1541]!	; 9f3 <__Vectors_Size+0x233>
     ff4:	05010608 	streq	r0, [r1, #-1544]	; 0xfffff9f8
     ff8:	06300607 	ldrteq	r0, [r0], -r7, lsl #12
     ffc:	054b0620 	strbeq	r0, [fp, #-1568]	; 0xfffff9e0
    1000:	0501060d 	streq	r0, [r1, #-1549]	; 0xfffff9f3
    1004:	063d0607 	ldrteq	r0, [sp], -r7, lsl #12
    1008:	24062210 	strcs	r2, [r6], #-528	; 0xfffffdf0
    100c:	01060d05 	tsteq	r6, r5, lsl #26
    1010:	32060505 	andcc	r0, r6, #20971520	; 0x1400000
    1014:	01060b05 	tsteq	r6, r5, lsl #22
    1018:	21060505 	tstcs	r6, r5, lsl #10
    101c:	05130705 	ldreq	r0, [r3, #-1797]	; 0xfffff8fb
    1020:	0501060f 	streq	r0, [r1, #-1551]	; 0xfffff9f1
    1024:	0d052e07 	stceq	14, cr2, [r5, #-28]	; 0xffffffe4
    1028:	0505ec06 	streq	lr, [r5, #-3078]	; 0xfffff3fa
    102c:	14051315 	strne	r1, [r5], #-789	; 0xfffffceb
    1030:	017ccd03 	cmneq	ip, r3, lsl #26
    1034:	05140305 	ldreq	r0, [r4, #-773]	; 0xfffffcfb
    1038:	3c010616 	stccc	6, cr0, [r1], {22}
    103c:	b1030805 	tstlt	r3, r5, lsl #16
    1040:	0a050103 	beq	141454 <__RAM_SIZE+0x41454>
    1044:	0d053106 	stfeqs	f3, [r5, #-24]	; 0xffffffe8
    1048:	0b050106 	bleq	141468 <__RAM_SIZE+0x41468>
    104c:	0605052a 	streq	r0, [r5], -sl, lsr #10
    1050:	132e1103 			; <UNDEFINED> instruction: 0x132e1103
    1054:	01060905 	tsteq	r6, r5, lsl #18
    1058:	052e0805 	streq	r0, [lr, #-2053]!	; 0xfffff7fb
    105c:	05052d0f 	streq	r2, [r5, #-3343]	; 0xfffff2f1
    1060:	2e0f0306 	cdpcs	3, 0, cr0, cr15, cr6, {0}
    1064:	01060d05 	tsteq	r6, r5, lsl #26
    1068:	052e0505 	streq	r0, [lr, #-1285]!	; 0xfffffafb
    106c:	56030613 			; <UNDEFINED> instruction: 0x56030613
    1070:	061905e4 	ldreq	r0, [r9], -r4, ror #11
    1074:	062b0501 	strteq	r0, [fp], -r1, lsl #10
    1078:	0631052e 	ldrteq	r0, [r1], -lr, lsr #10
    107c:	06350501 	ldrteq	r0, [r5], -r1, lsl #10
    1080:	013d052e 	teqeq	sp, lr, lsr #10
    1084:	05190d05 	ldreq	r0, [r9, #-3333]	; 0xfffff2fb
    1088:	207a0313 	rsbscs	r0, sl, r3, lsl r3
    108c:	01061905 	tsteq	r6, r5, lsl #18
    1090:	2e062b05 	vmlacs.f64	d2, d6, d5
    1094:	01063105 	tsteq	r6, r5, lsl #2
    1098:	2e063505 	cfsh32cs	mvfx3, mvfx6, #5
    109c:	05013d05 	streq	r3, [r1, #-3333]	; 0xfffff2fb
    10a0:	1305180d 	movwne	r1, #22541	; 0x580d
    10a4:	0619051b 			; <UNDEFINED> instruction: 0x0619051b
    10a8:	062b0501 	strteq	r0, [fp], -r1, lsl #10
    10ac:	0631052e 	ldrteq	r0, [r1], -lr, lsr #10
    10b0:	06350501 	ldrteq	r0, [r5], -r1, lsl #10
    10b4:	013d052e 	teqeq	sp, lr, lsr #10
    10b8:	05170d05 	ldreq	r0, [r7, #-3333]	; 0xfffff2fb
    10bc:	19051c13 	stmdbne	r5, {r0, r1, r4, sl, fp, ip}
    10c0:	2b050106 	blcs	1414e0 <__RAM_SIZE+0x414e0>
    10c4:	31052e06 	tstcc	r5, r6, lsl #28
    10c8:	35050106 	strcc	r0, [r5, #-262]	; 0xfffffefa
    10cc:	3d052e06 	stccc	14, cr2, [r5, #-24]	; 0xffffffe8
    10d0:	160d0501 	strne	r0, [sp], -r1, lsl #10
    10d4:	051d1305 	ldreq	r1, [sp, #-773]	; 0xfffffcfb
    10d8:	05010619 	streq	r0, [r1, #-1561]	; 0xfffff9e7
    10dc:	052e062b 	streq	r0, [lr, #-1579]!	; 0xfffff9d5
    10e0:	05010631 	streq	r0, [r1, #-1585]	; 0xfffff9cf
    10e4:	052e0635 	streq	r0, [lr, #-1589]!	; 0xfffff9cb
    10e8:	0d05013d 	stfeqs	f0, [r5, #-244]	; 0xffffff0c
    10ec:	25070515 	strcs	r0, [r7, #-1301]	; 0xfffffaeb
    10f0:	01060f05 	tsteq	r6, r5, lsl #30
    10f4:	0607054a 	streq	r0, [r7], -sl, asr #10
    10f8:	06110523 	ldreq	r0, [r1], -r3, lsr #10
    10fc:	06070501 	streq	r0, [r7], -r1, lsl #10
    1100:	060a054b 	streq	r0, [sl], -fp, asr #10
    1104:	06090501 	streq	r0, [r9], -r1, lsl #10
    1108:	060f0533 			; <UNDEFINED> instruction: 0x060f0533
    110c:	06070501 	streq	r0, [r7], -r1, lsl #10
    1110:	060d0522 	streq	r0, [sp], -r2, lsr #10
    1114:	06090501 	streq	r0, [r9], -r1, lsl #10
    1118:	054a7a03 	strbeq	r7, [sl, #-2563]	; 0xfffff5fd
    111c:	0501060f 	streq	r0, [r1, #-1551]	; 0xfffff9f1
    1120:	052f0609 	streq	r0, [pc, #-1545]!	; b1f <__Vectors_Size+0x35f>
    1124:	2e01061f 	mcrcs	6, 0, r0, cr1, cr15, {0}
    1128:	06070520 	streq	r0, [r7], -r0, lsr #10
    112c:	05010b03 	streq	r0, [r1, #-2819]	; 0xfffff4fd
    1130:	0501060d 	streq	r0, [r1, #-1549]	; 0xfffff9f3
    1134:	052f0607 	streq	r0, [pc, #-1543]!	; b35 <__Vectors_Size+0x375>
    1138:	0501060d 	streq	r0, [r1, #-1549]	; 0xfffff9f3
    113c:	052f0607 	streq	r0, [pc, #-1543]!	; b3d <__Vectors_Size+0x37d>
    1140:	0501060b 	streq	r0, [r1, #-1547]	; 0xfffff9f5
    1144:	b9030614 	stmdblt	r3, {r2, r4, r9, sl}
    1148:	0305207c 	movweq	r2, #20604	; 0x507c
    114c:	06160514 			; <UNDEFINED> instruction: 0x06160514
    1150:	0a053c01 	beq	15015c <__RAM_SIZE+0x5015c>
    1154:	0103c503 	tsteq	r3, r3, lsl #10
    1158:	31060c05 	tstcc	r6, r5, lsl #24
    115c:	01060f05 	tsteq	r6, r5, lsl #30
    1160:	052e7903 	streq	r7, [lr, #-2307]!	; 0xfffff6fd
    1164:	05410609 	strbeq	r0, [r1, #-1545]	; 0xfffff9f7
    1168:	4a010615 	bmi	429c4 <__HEAP_SIZE+0x419c4>
    116c:	23060905 	movwcs	r0, #26885	; 0x6905
    1170:	01061305 	tsteq	r6, r5, lsl #6
    1174:	4b060905 	blmi	183590 <__RAM_SIZE+0x83590>
    1178:	01063305 	tsteq	r6, r5, lsl #6
    117c:	2f060905 	svccs	0x00060905
    1180:	01060f05 	tsteq	r6, r5, lsl #30
    1184:	0609054a 	streq	r0, [r9], -sl, asr #10
    1188:	060f0519 			; <UNDEFINED> instruction: 0x060f0519
    118c:	06090501 	streq	r0, [r9], -r1, lsl #10
    1190:	060f052f 	streq	r0, [pc], -pc, lsr #10
    1194:	06090501 	streq	r0, [r9], -r1, lsl #10
    1198:	060d052f 	streq	r0, [sp], -pc, lsr #10
    119c:	200c0501 	andcs	r0, ip, r1, lsl #10
    11a0:	052c0f05 	streq	r0, [ip, #-3845]!	; 0xfffff0fb
    11a4:	0531060b 	ldreq	r0, [r1, #-1547]!	; 0xfffff9f5
    11a8:	05010611 	streq	r0, [r1, #-1553]	; 0xfffff9ef
    11ac:	052f060b 	streq	r0, [pc, #-1547]!	; ba9 <__Vectors_Size+0x3e9>
    11b0:	05010611 	streq	r0, [r1, #-1553]	; 0xfffff9ef
    11b4:	05400609 	strbeq	r0, [r0, #-1545]	; 0xfffff9f7
    11b8:	0501060f 	streq	r0, [r1, #-1551]	; 0xfffff9f1
    11bc:	052f0609 	streq	r0, [pc, #-1545]!	; bbb <__Vectors_Size+0x3fb>
    11c0:	0501060f 	streq	r0, [r1, #-1551]	; 0xfffff9f1
    11c4:	052f0609 	streq	r0, [pc, #-1545]!	; bc3 <__Vectors_Size+0x403>
    11c8:	0501060d 	streq	r0, [r1, #-1549]	; 0xfffff9f3
    11cc:	0f05200c 	svceq	0x0005200c
    11d0:	060b052c 	streq	r0, [fp], -ip, lsr #10
    11d4:	06110531 			; <UNDEFINED> instruction: 0x06110531
    11d8:	060b0501 	streq	r0, [fp], -r1, lsl #10
    11dc:	0611052f 	ldreq	r0, [r1], -pc, lsr #10
    11e0:	06090501 	streq	r0, [r9], -r1, lsl #10
    11e4:	060f0541 	streq	r0, [pc], -r1, asr #10
    11e8:	06090501 	streq	r0, [r9], -r1, lsl #10
    11ec:	060f052f 	streq	r0, [pc], -pc, lsr #10
    11f0:	06090501 	streq	r0, [r9], -r1, lsl #10
    11f4:	0305052f 	movweq	r0, #21807	; 0x552f
    11f8:	0d05010f 	stfeqs	f0, [r5, #-60]	; 0xffffffc4
    11fc:	05050106 	streq	r0, [r5, #-262]	; 0xfffffefa
    1200:	0609052e 	streq	r0, [r9], -lr, lsr #10
    1204:	5b027403 	blpl	9e218 <__HEAP_SIZE+0x9d218>
    1208:	060f0501 	streq	r0, [pc], -r1, lsl #10
    120c:	06090501 	streq	r0, [r9], -r1, lsl #10
    1210:	060f052f 	streq	r0, [pc], -pc, lsr #10
    1214:	06090501 	streq	r0, [r9], -r1, lsl #10
    1218:	0f05222f 	svceq	0x0005222f
    121c:	09050106 	stmdbeq	r5, {r1, r2, r8}
    1220:	0f052f06 	svceq	0x00052f06
    1224:	09050106 	stmdbeq	r5, {r1, r2, r8}
    1228:	0f032f06 	svceq	0x00032f06
    122c:	0c051320 	stceq	3, cr1, [r5], {32}
    1230:	1c050106 	stfnes	f0, [r5], {6}
    1234:	01040200 	mrseq	r0, R12_usr
    1238:	060e052e 	streq	r0, [lr], -lr, lsr #10
    123c:	06110531 			; <UNDEFINED> instruction: 0x06110531
    1240:	060e0501 	streq	r0, [lr], -r1, lsl #10
    1244:	06110531 			; <UNDEFINED> instruction: 0x06110531
    1248:	060b0501 	streq	r0, [fp], -r1, lsl #10
    124c:	11051332 	tstne	r5, r2, lsr r3
    1250:	10050106 	andne	r0, r5, r6, lsl #2
    1254:	2e77032d 	cdpcs	3, 7, cr0, cr7, cr13, {1}
    1258:	03060905 	movweq	r0, #26885	; 0x6905
    125c:	0c05200d 	stceq	0, cr2, [r5], {13}
    1260:	09050106 	stmdbeq	r5, {r1, r2, r8}
    1264:	0c053306 	stceq	3, cr3, [r5], {6}
    1268:	1e050106 	adfnes	f0, f5, f6
    126c:	01040200 	mrseq	r0, R12_usr
    1270:	060b052e 	streq	r0, [fp], -lr, lsr #10
    1274:	0611052f 	ldreq	r0, [r1], -pc, lsr #10
    1278:	06090501 	streq	r0, [r9], -r1, lsl #10
    127c:	060c0532 			; <UNDEFINED> instruction: 0x060c0532
    1280:	060b0501 	streq	r0, [fp], -r1, lsl #10
    1284:	0611053d 			; <UNDEFINED> instruction: 0x0611053d
    1288:	06090501 	streq	r0, [r9], -r1, lsl #10
    128c:	060c0532 			; <UNDEFINED> instruction: 0x060c0532
    1290:	001e0501 	andseq	r0, lr, r1, lsl #10
    1294:	2e010402 	cdpcs	4, 0, cr0, cr1, cr2, {0}
    1298:	03060b05 	movweq	r0, #27397	; 0x6b05
    129c:	0e052e13 	mcreq	14, 0, r2, cr5, cr3, {0}
    12a0:	10050106 	andne	r0, r5, r6, lsl #2
    12a4:	13054f06 	movwne	r4, #24326	; 0x5f06
    12a8:	0d050106 	stfeqs	f0, [r5, #-24]	; 0xffffffe8
    12ac:	67054e06 	strvs	r4, [r5, -r6, lsl #28]
    12b0:	4e050106 	adfmis	f0, f5, f6
    12b4:	000d054a 	andeq	r0, sp, sl, asr #10
    12b8:	06080402 	streq	r0, [r8], -r2, lsl #8
    12bc:	0013054b 	andseq	r0, r3, fp, asr #10
    12c0:	06080402 	streq	r0, [r8], -r2, lsl #8
    12c4:	04020001 	streq	r0, [r2], #-1
    12c8:	02007408 	andeq	r7, r0, #8, 8	; 0x8000000
    12cc:	004a0804 	subeq	r0, sl, r4, lsl #16
    12d0:	4a080402 	bmi	2022e0 <__RAM_SIZE+0x1022e0>
    12d4:	08040200 	stmdaeq	r4, {r9}
    12d8:	04020020 	streq	r0, [r2], #-32	; 0xffffffe0
    12dc:	10052008 	andne	r2, r5, r8
    12e0:	31014703 	tstcc	r1, r3, lsl #14
    12e4:	060b0531 			; <UNDEFINED> instruction: 0x060b0531
    12e8:	06110536 			; <UNDEFINED> instruction: 0x06110536
    12ec:	0b052e01 	bleq	14caf8 <__RAM_SIZE+0x4caf8>
    12f0:	20100306 	andscs	r0, r0, r6, lsl #6
    12f4:	01060e05 	tsteq	r6, r5, lsl #28
    12f8:	42061005 	andmi	r1, r6, #5
    12fc:	01061305 	tsteq	r6, r5, lsl #6
    1300:	41060d05 	tstmi	r6, r5, lsl #26
    1304:	01064c05 	tsteq	r6, r5, lsl #24
    1308:	053c3c05 	ldreq	r3, [ip, #-3077]!	; 0xfffff3fb
    130c:	0402000d 	streq	r0, [r2], #-13
    1310:	054b0608 	strbeq	r0, [fp, #-1544]	; 0xfffff9f8
    1314:	04020038 	streq	r0, [r2], #-56	; 0xffffffc8
    1318:	05010608 	streq	r0, [r1, #-1544]	; 0xfffff9f8
    131c:	04020013 	streq	r0, [r2], #-19	; 0xffffffed
    1320:	02004a08 	andeq	r4, r0, #8, 20	; 0x8000
    1324:	00740804 	rsbseq	r0, r4, r4, lsl #16
    1328:	3c080402 	cfstrscc	mvf0, [r8], {2}
    132c:	08040200 	stmdaeq	r4, {r9}
    1330:	04020058 	streq	r0, [r2], #-88	; 0xffffffa8
    1334:	09052008 	stmdbeq	r5, {r3, sp}
    1338:	01120306 	tsteq	r2, r6, lsl #6
    133c:	01060f05 	tsteq	r6, r5, lsl #30
    1340:	3d060905 	vstrcc.16	s0, [r6, #-10]	; <UNPREDICTABLE>
    1344:	63030d05 	movwvs	r0, #15621	; 0x3d05
    1348:	061d0520 	ldreq	r0, [sp], -r0, lsr #10
    134c:	060d0501 	streq	r0, [sp], -r1, lsl #10
    1350:	063d0583 	ldrteq	r0, [sp], -r3, lsl #11
    1354:	4a130501 	bmi	4c2760 <__RAM_SIZE+0x3c2760>
    1358:	20ac582e 	adccs	r5, ip, lr, lsr #16
    135c:	05203d05 	streq	r3, [r0, #-3333]!	; 0xfffff2fb
    1360:	054e060d 	strbeq	r0, [lr, #-1549]	; 0xfffff9f3
    1364:	05010618 	streq	r0, [r1, #-1560]	; 0xfffff9e8
    1368:	054b060d 	strbeq	r0, [fp, #-1549]	; 0xfffff9f3
    136c:	05010638 	streq	r0, [r1, #-1592]	; 0xfffff9c8
    1370:	589e4a13 	ldmpl	lr, {r0, r1, r4, r9, fp, lr}
    1374:	01810520 	orreq	r0, r1, r0, lsr #10
    1378:	02040200 	andeq	r0, r4, #0, 4
    137c:	3c710523 	cfldr64cc	mvdx0, [r1], #-140	; 0xffffff74
    1380:	053c6605 	ldreq	r6, [ip, #-1541]!	; 0xfffff9fb
    1384:	583c0181 	ldmdapl	ip!, {r0, r7, r8}
    1388:	1a060d05 	bne	1847a4 <__RAM_SIZE+0x847a4>
    138c:	01061305 	tsteq	r6, r5, lsl #6
    1390:	20584a08 	subscs	r4, r8, r8, lsl #20
    1394:	24060d05 	strcs	r0, [r6], #-3333	; 0xfffff2fb
    1398:	01061305 	tsteq	r6, r5, lsl #6
    139c:	0520909e 	streq	r9, [r0, #-158]!	; 0xffffff62
    13a0:	020001ae 	andeq	r0, r0, #-2147483605	; 0x8000002b
    13a4:	05230204 	streq	r0, [r3, #-516]!	; 0xfffffdfc
    13a8:	053c0195 	ldreq	r0, [ip, #-405]!	; 0xfffffe6b
    13ac:	585801ae 	ldmdapl	r8, {r1, r2, r3, r5, r7, r8}^
    13b0:	03060905 	movweq	r0, #26885	; 0x6905
    13b4:	0c05010a 	stfeqs	f0, [r5], {10}
    13b8:	09050106 	stmdbeq	r5, {r1, r2, r8}
    13bc:	0f052f06 	svceq	0x00052f06
    13c0:	09050106 	stmdbeq	r5, {r1, r2, r8}
    13c4:	05670806 	strbeq	r0, [r7, #-2054]!	; 0xfffff7fa
    13c8:	0501060f 	streq	r0, [r1, #-1551]	; 0xfffff9f1
    13cc:	053d0609 	ldreq	r0, [sp, #-1545]!	; 0xfffff9f7
    13d0:	0402001d 	streq	r0, [r2], #-29	; 0xffffffe3
    13d4:	23051d01 	movwcs	r1, #23809	; 0x5d01
    13d8:	01040200 	mrseq	r0, R12_usr
    13dc:	02000106 	andeq	r0, r0, #-2147483647	; 0x80000001
    13e0:	052e0104 	streq	r0, [lr, #-260]!	; 0xfffffefc
    13e4:	09030609 	stmdbeq	r3, {r0, r3, r9, sl}
    13e8:	060c0520 	streq	r0, [ip], -r0, lsr #10
    13ec:	001d0501 	andseq	r0, sp, r1, lsl #10
    13f0:	2e020402 	cdpcs	4, 0, cr0, cr2, cr2, {0}
    13f4:	02003105 	andeq	r3, r0, #1073741825	; 0x40000001
    13f8:	2e060304 	cdpcs	3, 0, cr0, cr6, cr4, {0}
    13fc:	02003705 	andeq	r3, r0, #1310720	; 0x140000
    1400:	01060304 	tsteq	r6, r4, lsl #6
    1404:	2f060905 	svccs	0x00060905
    1408:	01060c05 	tsteq	r6, r5, lsl #24
    140c:	02001d05 	andeq	r1, r0, #320	; 0x140
    1410:	052e0204 	streq	r0, [lr, #-516]!	; 0xfffffdfc
    1414:	04020031 	streq	r0, [r2], #-49	; 0xffffffcf
    1418:	052e0603 	streq	r0, [lr, #-1539]!	; 0xfffff9fd
    141c:	04020037 	streq	r0, [r2], #-55	; 0xffffffc9
    1420:	05010603 	streq	r0, [r1, #-1539]	; 0xfffff9fd
    1424:	052f0609 	streq	r0, [pc, #-1545]!	; e23 <__Vectors_Size+0x663>
    1428:	0501060f 	streq	r0, [r1, #-1551]	; 0xfffff9f1
    142c:	67080609 	strvs	r0, [r8, -r9, lsl #12]
    1430:	01060f05 	tsteq	r6, r5, lsl #30
    1434:	3d060905 	vstrcc.16	s0, [r6, #-10]	; <UNPREDICTABLE>
    1438:	0c051424 	cfstrseq	mvf1, [r5], {36}	; 0x24
    143c:	052e0106 	streq	r0, [lr, #-262]!	; 0xfffffefa
    1440:	09051e16 	stmdbeq	r5, {r1, r2, r4, r9, sl, fp, ip}
    1444:	13053606 	movwne	r3, #22022	; 0x5606
    1448:	09050106 	stmdbeq	r5, {r1, r2, r8}
    144c:	5a062e3c 	bpl	18cd44 <__RAM_SIZE+0x8cd44>
    1450:	01060c05 	tsteq	r6, r5, lsl #24
    1454:	25060905 	strcs	r0, [r6, #-2309]	; 0xfffff6fb
    1458:	01060f05 	tsteq	r6, r5, lsl #30
    145c:	3d060905 	vstrcc.16	s0, [r6, #-10]	; <UNPREDICTABLE>
    1460:	74030d05 	strvc	r0, [r3], #-3333	; 0xfffff2fb
    1464:	052e062e 	streq	r0, [lr, #-1582]!	; 0xfffff9d2
    1468:	0d054913 	vstreq.16	s8, [r5, #-38]	; 0xffffffda	; <UNPREDICTABLE>
    146c:	06110521 	ldreq	r0, [r1], -r1, lsr #10
    1470:	0613051f 			; <UNDEFINED> instruction: 0x0613051f
    1474:	2e110501 	cfmul32cs	mvfx0, mvfx1, mvfx1
    1478:	2b16052e 	blcs	582938 <__RAM_SIZE+0x482938>
    147c:	053c2e3c 	ldreq	r2, [ip, #-3644]!	; 0xfffff1c4
    1480:	0c03060d 	stceq	6, cr0, [r3], {13}
    1484:	05200620 	streq	r0, [r0, #-1568]!	; 0xfffff9e0
    1488:	0d054913 	vstreq.16	s8, [r5, #-38]	; 0xffffffda	; <UNPREDICTABLE>
    148c:	06110521 	ldreq	r0, [r1], -r1, lsr #10
    1490:	0613051f 			; <UNDEFINED> instruction: 0x0613051f
    1494:	2e110501 	cfmul32cs	mvfx0, mvfx1, mvfx1
    1498:	09052e2e 	stmdbeq	r5, {r1, r2, r3, r5, r9, sl, fp, sp}
    149c:	01090306 	tsteq	r9, r6, lsl #6
    14a0:	01061505 	tsteq	r6, r5, lsl #10
    14a4:	59060905 	stmdbpl	r6, {r0, r2, r8, fp}
    14a8:	01061a05 	tsteq	r6, r5, lsl #20
    14ac:	03062605 	movweq	r2, #26117	; 0x6605
    14b0:	05747b90 	ldrbeq	r7, [r4, #-2960]!	; 0xfffff470
    14b4:	1e050122 	adfnesp	f0, f5, f2
    14b8:	11052e06 	tstne	r5, r6, lsl #28
    14bc:	03052006 	movweq	r2, #20486	; 0x5006
    14c0:	1e052e06 	cdpne	14, 0, cr2, cr5, cr6, {0}
    14c4:	20140520 	andscs	r0, r4, r0, lsr #10
    14c8:	2f060305 	svccs	0x00060305
    14cc:	01061b05 	tsteq	r6, r5, lsl #22
    14d0:	0609052e 	streq	r0, [r9], -lr, lsr #10
    14d4:	0104f103 	tsteq	r4, r3, lsl #2	; <UNPREDICTABLE>
    14d8:	01060c05 	tsteq	r6, r5, lsl #24
    14dc:	4b060b05 	blmi	1840f8 <__RAM_SIZE+0x840f8>
    14e0:	01060d05 	tsteq	r6, r5, lsl #26
    14e4:	3e060905 	vmlacc.f16	s0, s12, s10	; <UNPREDICTABLE>
    14e8:	01060c05 	tsteq	r6, r5, lsl #24
    14ec:	20202e4a 	eorcs	r2, r0, sl, asr #28
    14f0:	2e1b1a05 	vnmlscs.f32	s2, s22, s10
    14f4:	060d052e 	streq	r0, [sp], -lr, lsr #10
    14f8:	052e0635 	streq	r0, [lr, #-1589]!	; 0xfffff9cb
    14fc:	0d054913 	vstreq.16	s8, [r5, #-38]	; 0xffffffda	; <UNPREDICTABLE>
    1500:	06110521 	ldreq	r0, [r1], -r1, lsr #10
    1504:	0613051f 			; <UNDEFINED> instruction: 0x0613051f
    1508:	20110501 	andscs	r0, r1, r1, lsl #10
    150c:	3c2e1305 	stccc	3, cr1, [lr], #-20	; 0xffffffec
    1510:	25450520 	strbcs	r0, [r5, #-1312]	; 0xfffffae0
    1514:	21060b05 	tstcs	r6, r5, lsl #22
    1518:	01061205 	tsteq	r6, r5, lsl #4
    151c:	202e0b05 	eorcs	r0, lr, r5, lsl #22
    1520:	49060f05 	stmdbmi	r6, {r0, r2, r8, r9, sl, fp}
    1524:	01061105 	tsteq	r6, r5, lsl #2
    1528:	052e0f05 	streq	r0, [lr, #-3845]!	; 0xfffff0fb
    152c:	0402001a 	streq	r0, [r2], #-26	; 0xffffffe6
    1530:	45052001 	strmi	r2, [r5, #-1]
    1534:	02040200 	andeq	r0, r4, #0, 4
    1538:	0039052e 	eorseq	r0, r9, lr, lsr #10
    153c:	20020402 	andcs	r0, r2, r2, lsl #8
    1540:	05320c05 	ldreq	r0, [r2, #-3077]!	; 0xfffff3fb
    1544:	052e0609 	streq	r0, [lr, #-1545]!	; 0xfffff9f7
    1548:	0501060c 	streq	r0, [r1, #-1548]	; 0xfffff9f4
    154c:	05330609 	ldreq	r0, [r3, #-1545]!	; 0xfffff9f7
    1550:	0501060f 	streq	r0, [r1, #-1551]	; 0xfffff9f1
    1554:	063d0609 	ldrteq	r0, [sp], -r9, lsl #12
    1558:	0d052e20 	stceq	14, cr2, [r5, #-128]	; 0xffffff80
    155c:	20061c06 	andcs	r1, r6, r6, lsl #24
    1560:	05491305 	strbeq	r1, [r9, #-773]	; 0xfffffcfb
    1564:	1105210d 	tstne	r5, sp, lsl #2
    1568:	13051f06 	movwne	r1, #24326	; 0x5f06
    156c:	11050106 	tstne	r5, r6, lsl #2
    1570:	20202e2e 	eorcs	r2, r0, lr, lsr #28
    1574:	03060905 	movweq	r0, #26885	; 0x6905
    1578:	05130109 	ldreq	r0, [r3, #-265]	; 0xfffffef7
    157c:	0501060f 	streq	r0, [r1, #-1551]	; 0xfffff9f1
    1580:	13300609 	teqne	r0, #9437184	; 0x900000
    1584:	05170b05 	ldreq	r0, [r7, #-2821]	; 0xfffff4fb
    1588:	05010651 	streq	r0, [r1, #-1617]	; 0xfffff9af
    158c:	09054a11 	stmdbeq	r5, {r0, r4, r9, fp, lr}
    1590:	05160806 	ldreq	r0, [r6, #-2054]	; 0xfffff7fa
    1594:	0501060f 	streq	r0, [r1, #-1551]	; 0xfffff9f1
    1598:	063d0609 	ldrteq	r0, [sp], -r9, lsl #12
    159c:	06160620 	ldreq	r0, [r6], -r0, lsr #12
    15a0:	05590620 	ldrbeq	r0, [r9, #-1568]	; 0xfffff9e0
    15a4:	0501060f 	streq	r0, [r1, #-1551]	; 0xfffff9f1
    15a8:	063d0609 	ldrteq	r0, [sp], -r9, lsl #12
    15ac:	23062210 	movwcs	r2, #25104	; 0x6210
    15b0:	4b062006 	blmi	1895d0 <__RAM_SIZE+0x895d0>
    15b4:	01060f05 	tsteq	r6, r5, lsl #30
    15b8:	3d060905 	vstrcc.16	s0, [r6, #-10]	; <UNPREDICTABLE>
    15bc:	03221006 			; <UNDEFINED> instruction: 0x03221006
    15c0:	05207df8 	streq	r7, [r0, #-3576]!	; 0xfffff208
    15c4:	8d030603 	stchi	6, cr0, [r3, #-12]
    15c8:	02002e02 	andeq	r2, r0, #2, 28
    15cc:	2e060104 	adfcss	f0, f6, f4
    15d0:	0402002e 	streq	r0, [r2], #-46	; 0xffffffd2
    15d4:	02002004 	andeq	r2, r0, #4
    15d8:	4d060404 	cfstrsmi	mvf0, [r6, #-16]
    15dc:	02000105 	andeq	r0, r0, #1073741825	; 0x40000001
    15e0:	13060404 	movwne	r0, #25604	; 0x6404
    15e4:	04040200 	streq	r0, [r4], #-512	; 0xfffffe00
    15e8:	0003024a 	andeq	r0, r3, sl, asr #4
    15ec:	01050101 	tsteq	r5, r1, lsl #2
    15f0:	e0020500 	and	r0, r2, r0, lsl #10
    15f4:	0310001a 	tsteq	r0, #26
    15f8:	05010195 	streq	r0, [r1, #-405]	; 0xfffffe6b
    15fc:	11051303 	tstne	r5, r3, lsl #6
    1600:	011c0501 	tsteq	ip, r1, lsl #10
    1604:	05130305 	ldreq	r0, [r3, #-773]	; 0xfffffcfb
    1608:	05010606 	streq	r0, [r1, #-1542]	; 0xfffff9fa
    160c:	05052c01 	streq	r2, [r5, #-3073]	; 0xfffff3ff
    1610:	01052306 	tsteq	r5, r6, lsl #6
    1614:	01023006 	tsteq	r2, r6
    1618:	05010100 	streq	r0, [r1, #-256]	; 0xffffff00
    161c:	02050001 	andeq	r0, r5, #1
    1620:	10001aec 	andne	r1, r0, ip, ror #21
    1624:	0106de03 	tsteq	r6, r3, lsl #28
    1628:	03050106 	movweq	r0, #20742	; 0x5106
    162c:	21136706 	tstcs	r3, r6, lsl #14
    1630:	06130513 			; <UNDEFINED> instruction: 0x06130513
    1634:	06030501 	streq	r0, [r3], -r1, lsl #10
    1638:	01051375 	tsteq	r5, r5, ror r3
    163c:	08021306 	stmdaeq	r2, {r1, r2, r8, r9, ip}
    1640:	05010100 	streq	r0, [r1, #-256]	; 0xffffff00
    1644:	02050001 	andeq	r0, r5, #1
    1648:	00000000 	andeq	r0, r0, r0
    164c:	0106e903 	tsteq	r6, r3, lsl #18
    1650:	03050106 	movweq	r0, #20742	; 0x5106
    1654:	21137506 	tstcs	r3, r6, lsl #10
    1658:	01061305 	tsteq	r6, r5, lsl #6
    165c:	0603054a 	streq	r0, [r3], -sl, asr #10
    1660:	0105132f 	tsteq	r5, pc, lsr #6
    1664:	08021306 	stmdaeq	r2, {r1, r2, r8, r9, ip}
    1668:	05010100 	streq	r0, [r1, #-256]	; 0xffffff00
    166c:	02050001 	andeq	r0, r5, #1
    1670:	00000000 	andeq	r0, r0, r0
    1674:	0106f303 	tsteq	r6, r3, lsl #6	; <UNPREDICTABLE>
    1678:	03050106 	movweq	r0, #20742	; 0x5106
    167c:	21137506 	tstcs	r3, r6, lsl #10
    1680:	01061305 	tsteq	r6, r5, lsl #6
    1684:	0305202e 	movweq	r2, #20526	; 0x502e
    1688:	05132f06 	ldreq	r2, [r3, #-3846]	; 0xfffff0fa
    168c:	02130601 	andseq	r0, r3, #1048576	; 0x100000
    1690:	01010007 	tsteq	r1, r7
    1694:	05000105 	streq	r0, [r0, #-261]	; 0xfffffefb
    1698:	00000002 	andeq	r0, r0, r2
    169c:	06fd0300 	ldrbteq	r0, [sp], r0, lsl #6
    16a0:	05010601 	streq	r0, [r1, #-1537]	; 0xfffff9ff
    16a4:	133d0603 	teqne	sp, #3145728	; 0x300000
    16a8:	01060a05 	tsteq	r6, r5, lsl #20
    16ac:	0105204a 	tsteq	r5, sl, asr #32
    16b0:	0006022f 	andeq	r0, r6, pc, lsr #4
    16b4:	01050101 	tsteq	r5, r1, lsl #2
    16b8:	00020500 	andeq	r0, r2, r0, lsl #10
    16bc:	03000000 	movweq	r0, #0
    16c0:	06010784 	streq	r0, [r1], -r4, lsl #15
    16c4:	06030501 	streq	r0, [r3], -r1, lsl #10
    16c8:	060a052f 	streq	r0, [sl], -pc, lsr #10
    16cc:	20202e01 	eorcs	r2, r0, r1, lsl #28
    16d0:	2f010520 	svccs	0x00010520
    16d4:	01000502 	tsteq	r0, r2, lsl #10
    16d8:	00010501 	andeq	r0, r1, r1, lsl #10
    16dc:	00000205 	andeq	r0, r0, r5, lsl #4
    16e0:	8a030000 	bhi	c16e8 <__HEAP_SIZE+0xc06e8>
    16e4:	01060107 	tsteq	r6, r7, lsl #2
    16e8:	67060305 	strvs	r0, [r6, -r5, lsl #6]
    16ec:	1b052113 	blne	149b40 <__RAM_SIZE+0x49b40>
    16f0:	03050106 	movweq	r0, #20742	; 0x5106
    16f4:	13052f06 	movwne	r2, #24326	; 0x5f06
    16f8:	05580106 	ldrbeq	r0, [r8, #-262]	; 0xfffffefa
    16fc:	132f0603 			; <UNDEFINED> instruction: 0x132f0603
    1700:	13060105 	movwne	r0, #24837	; 0x6105
    1704:	01000802 	tsteq	r0, r2, lsl #16
    1708:	0002d201 	andeq	sp, r2, r1, lsl #4
    170c:	64000300 	strvs	r0, [r0], #-768	; 0xfffffd00
    1710:	02000001 	andeq	r0, r0, #1
    1714:	0d0efb01 	vstreq	d15, [lr, #-4]
    1718:	01010100 	mrseq	r0, (UNDEF: 17)
    171c:	00000001 	andeq	r0, r0, r1
    1720:	01000001 	tsteq	r0, r1
    1724:	432f2e2e 			; <UNDEFINED> instruction: 0x432f2e2e
    1728:	2f65726f 	svccs	0x0065726f
    172c:	00637253 	rsbeq	r7, r3, r3, asr r2
    1730:	74706f2f 	ldrbtvc	r6, [r0], #-3887	; 0xfffff0d1
    1734:	6363672f 	cmnvs	r3, #12320768	; 0xbc0000
    1738:	6d72612d 	ldfvse	f6, [r2, #-180]!	; 0xffffff4c
    173c:	6e6f6e2d 	cdpvs	14, 6, cr6, cr15, cr13, {1}
    1740:	61652d65 	cmnvs	r5, r5, ror #26
    1744:	312d6962 			; <UNDEFINED> instruction: 0x312d6962
    1748:	2d332e30 	ldccs	14, cr2, [r3, #-192]!	; 0xffffff40
    174c:	31323032 	teqcc	r2, r2, lsr r0
    1750:	2f30312e 	svccs	0x0030312e
    1754:	2d6d7261 	sfmcs	f7, 2, [sp, #-388]!	; 0xfffffe7c
    1758:	656e6f6e 	strbvs	r6, [lr, #-3950]!	; 0xfffff092
    175c:	6261652d 	rsbvs	r6, r1, #188743680	; 0xb400000
    1760:	6e692f69 	cdpvs	15, 6, cr2, cr9, cr9, {3}
    1764:	64756c63 	ldrbtvs	r6, [r5], #-3171	; 0xfffff39d
    1768:	616d2f65 	cmnvs	sp, r5, ror #30
    176c:	6e696863 	cdpvs	8, 6, cr6, cr9, cr3, {3}
    1770:	6f2f0065 	svcvs	0x002f0065
    1774:	672f7470 			; <UNDEFINED> instruction: 0x672f7470
    1778:	612d6363 			; <UNDEFINED> instruction: 0x612d6363
    177c:	6e2d6d72 	mcrvs	13, 1, r6, cr13, cr2, {3}
    1780:	2d656e6f 	stclcs	14, cr6, [r5, #-444]!	; 0xfffffe44
    1784:	69626165 	stmdbvs	r2!, {r0, r2, r5, r6, r8, sp, lr}^
    1788:	2e30312d 	rsfcssp	f3, f0, #5.0
    178c:	30322d33 	eorscc	r2, r2, r3, lsr sp
    1790:	312e3132 			; <UNDEFINED> instruction: 0x312e3132
    1794:	696c2f30 	stmdbvs	ip!, {r4, r5, r8, r9, sl, fp, sp}^
    1798:	63672f62 	cmnvs	r7, #392	; 0x188
    179c:	72612f63 	rsbvc	r2, r1, #396	; 0x18c
    17a0:	6f6e2d6d 	svcvs	0x006e2d6d
    17a4:	652d656e 	strvs	r6, [sp, #-1390]!	; 0xfffffa92
    17a8:	2f696261 	svccs	0x00696261
    17ac:	332e3031 			; <UNDEFINED> instruction: 0x332e3031
    17b0:	692f312e 	stmdbvs	pc!, {r1, r2, r3, r5, r8, ip, sp}	; <UNPREDICTABLE>
    17b4:	756c636e 	strbvc	r6, [ip, #-878]!	; 0xfffffc92
    17b8:	2f006564 	svccs	0x00006564
    17bc:	2f74706f 	svccs	0x0074706f
    17c0:	2d636367 	stclcs	3, cr6, [r3, #-412]!	; 0xfffffe64
    17c4:	2d6d7261 	sfmcs	f7, 2, [sp, #-388]!	; 0xfffffe7c
    17c8:	656e6f6e 	strbvs	r6, [lr, #-3950]!	; 0xfffff092
    17cc:	6261652d 	rsbvs	r6, r1, #188743680	; 0xb400000
    17d0:	30312d69 	eorscc	r2, r1, r9, ror #26
    17d4:	322d332e 	eorcc	r3, sp, #-1207959552	; 0xb8000000
    17d8:	2e313230 	mrccs	2, 1, r3, cr1, cr0, {1}
    17dc:	612f3031 			; <UNDEFINED> instruction: 0x612f3031
    17e0:	6e2d6d72 	mcrvs	13, 1, r6, cr13, cr2, {3}
    17e4:	2d656e6f 	stclcs	14, cr6, [r5, #-444]!	; 0xfffffe44
    17e8:	69626165 	stmdbvs	r2!, {r0, r2, r5, r6, r8, sp, lr}^
    17ec:	636e692f 	cmnvs	lr, #770048	; 0xbc000
    17f0:	6564756c 	strbvs	r7, [r4, #-1388]!	; 0xfffffa94
    17f4:	7379732f 	cmnvc	r9, #-1140850688	; 0xbc000000
    17f8:	706f2f00 	rsbvc	r2, pc, r0, lsl #30
    17fc:	63672f74 	cmnvs	r7, #116, 30	; 0x1d0
    1800:	72612d63 	rsbvc	r2, r1, #6336	; 0x18c0
    1804:	6f6e2d6d 	svcvs	0x006e2d6d
    1808:	652d656e 	strvs	r6, [sp, #-1390]!	; 0xfffffa92
    180c:	2d696261 	sfmcs	f6, 2, [r9, #-388]!	; 0xfffffe7c
    1810:	332e3031 			; <UNDEFINED> instruction: 0x332e3031
    1814:	3230322d 	eorscc	r3, r0, #-805306366	; 0xd0000002
    1818:	30312e31 	eorscc	r2, r1, r1, lsr lr
    181c:	6d72612f 	ldfvse	f6, [r2, #-188]!	; 0xffffff44
    1820:	6e6f6e2d 	cdpvs	14, 6, cr6, cr15, cr13, {1}
    1824:	61652d65 	cmnvs	r5, r5, ror #26
    1828:	692f6962 	stmdbvs	pc!, {r1, r5, r6, r8, fp, sp, lr}	; <UNPREDICTABLE>
    182c:	756c636e 	strbvc	r6, [ip, #-878]!	; 0xfffffc92
    1830:	00006564 	andeq	r6, r0, r4, ror #10
    1834:	74726175 	ldrbtvc	r6, [r2], #-373	; 0xfffffe8b
    1838:	0100632e 	tsteq	r0, lr, lsr #6
    183c:	645f0000 	ldrbvs	r0, [pc], #-0	; 1844 <__HEAP_SIZE+0x844>
    1840:	75616665 	strbvc	r6, [r1, #-1637]!	; 0xfffff99b
    1844:	745f746c 	ldrbvc	r7, [pc], #-1132	; 184c <__HEAP_SIZE+0x84c>
    1848:	73657079 	cmnvc	r5, #121	; 0x79
    184c:	0200682e 	andeq	r6, r0, #3014656	; 0x2e0000
    1850:	74730000 	ldrbtvc	r0, [r3], #-0
    1854:	66656464 	strbtvs	r6, [r5], -r4, ror #8
    1858:	0300682e 	movweq	r6, #2094	; 0x82e
    185c:	735f0000 	cmpvc	pc, #0
    1860:	6e696474 	mcrvs	4, 3, r6, cr9, cr4, {3}
    1864:	00682e74 	rsbeq	r2, r8, r4, ror lr
    1868:	73000004 	movwvc	r0, #4
    186c:	6f696474 	svcvs	0x00696474
    1870:	0500682e 	streq	r6, [r0, #-2094]	; 0xfffff7d2
    1874:	05000000 	streq	r0, [r0, #-0]
    1878:	02050013 	andeq	r0, r5, #19
    187c:	10001b18 	andne	r1, r0, r8, lsl fp
    1880:	05012403 	streq	r2, [r1, #-1027]	; 0xfffffbfd
    1884:	04020024 	streq	r0, [r2], #-36	; 0xffffffdc
    1888:	0b051301 	bleq	146494 <__RAM_SIZE+0x46494>
    188c:	01040200 	mrseq	r0, R12_usr
    1890:	000c0501 	andeq	r0, ip, r1, lsl #10
    1894:	06010402 	streq	r0, [r1], -r2, lsl #8
    1898:	000b0501 	andeq	r0, fp, r1, lsl #10
    189c:	2e010402 	cdpcs	4, 0, cr0, cr1, cr2, {0}
    18a0:	3d060505 	cfstr32cc	mvfx0, [r6, #-20]	; 0xffffffec
    18a4:	01061605 	tsteq	r6, r5, lsl #12
    18a8:	2f060505 	svccs	0x00060505
    18ac:	13060105 	movwne	r0, #24837	; 0x6105
    18b0:	01000302 	tsteq	r0, r2, lsl #6
    18b4:	00130501 	andseq	r0, r3, r1, lsl #10
    18b8:	00000205 	andeq	r0, r0, r5, lsl #4
    18bc:	2a030000 	bcs	c18c4 <__HEAP_SIZE+0xc08c4>
    18c0:	002b0501 	eoreq	r0, fp, r1, lsl #10
    18c4:	13010402 	movwne	r0, #5122	; 0x1402
    18c8:	02000b05 	andeq	r0, r0, #5120	; 0x1400
    18cc:	05010104 	streq	r0, [r1, #-260]	; 0xfffffefc
    18d0:	0402000d 	streq	r0, [r2], #-13
    18d4:	05010601 	streq	r0, [r1, #-1537]	; 0xfffff9ff
    18d8:	0402000b 	streq	r0, [r2], #-11
    18dc:	05052e01 	streq	r2, [r5, #-3585]	; 0xfffff1ff
    18e0:	0c053d06 	stceq	13, cr3, [r5], {6}
    18e4:	01050106 	tsteq	r5, r6, lsl #2
    18e8:	0003022f 	andeq	r0, r3, pc, lsr #4
    18ec:	1e050101 	adfnes	f0, f5, f1
    18f0:	2c020500 	cfstr32cs	mvfx0, [r2], {-0}
    18f4:	0310001b 	tsteq	r0, #27
    18f8:	0106012f 	tsteq	r6, pc, lsr #2
    18fc:	2f060505 	svccs	0x00060505
    1900:	06090513 			; <UNDEFINED> instruction: 0x06090513
    1904:	210b0511 	tstcs	fp, r1, lsl r5
    1908:	21060905 	tstcs	r6, r5, lsl #18
    190c:	060e052f 	streq	r0, [lr], -pc, lsr #10
    1910:	060b0501 	streq	r0, [fp], -r1, lsl #10
    1914:	0612051e 			; <UNDEFINED> instruction: 0x0612051e
    1918:	200b0501 	andcs	r0, fp, r1, lsl #10
    191c:	32060505 	andcc	r0, r6, #20971520	; 0x1400000
    1920:	0601053d 			; <UNDEFINED> instruction: 0x0601053d
    1924:	01002e13 	tsteq	r0, r3, lsl lr
    1928:	00160501 	andseq	r0, r6, r1, lsl #10
    192c:	1b4c0205 	blne	1302148 <__RAM_SIZE+0x1202148>
    1930:	39031000 	stmdbcc	r3, {ip}
    1934:	13050501 	movwne	r0, #21761	; 0x5501
    1938:	01061605 	tsteq	r6, r5, lsl #12
    193c:	3d060505 	cfstr32cc	mvfx0, [r6, #-20]	; 0xffffffec
    1940:	01061605 	tsteq	r6, r5, lsl #12
    1944:	2f060505 	svccs	0x00060505
    1948:	01061605 	tsteq	r6, r5, lsl #12
    194c:	2f060505 	svccs	0x00060505
    1950:	01061605 	tsteq	r6, r5, lsl #12
    1954:	3d060505 	cfstr32cc	mvfx0, [r6, #-20]	; 0xffffffec
    1958:	01061605 	tsteq	r6, r5, lsl #12
    195c:	2f060505 	svccs	0x00060505
    1960:	01061605 	tsteq	r6, r5, lsl #12
    1964:	022f0105 	eoreq	r0, pc, #1073741825	; 0x40000001
    1968:	01010004 	tsteq	r1, r4
    196c:	05002405 	streq	r2, [r0, #-1029]	; 0xfffffbfb
    1970:	00000002 	andeq	r0, r0, r2
    1974:	00c20300 	sbceq	r0, r2, r0, lsl #6
    1978:	05010601 	streq	r0, [r1, #-1537]	; 0xfffff9ff
    197c:	05210605 	streq	r0, [r1, #-1541]!	; 0xfffff9fb
    1980:	022f0601 	eoreq	r0, pc, #1048576	; 0x100000
    1984:	01010001 	tsteq	r1, r1
    1988:	05003005 	streq	r3, [r0, #-5]
    198c:	00000002 	andeq	r0, r0, r2
    1990:	00c60300 	sbceq	r0, r6, r0, lsl #6
    1994:	05010601 	streq	r0, [r1, #-1537]	; 0xfffff9ff
    1998:	133d0605 	teqne	sp, #5242880	; 0x500000
    199c:	01060c05 	tsteq	r6, r5, lsl #24
    19a0:	34060905 	strcc	r0, [r6], #-2309	; 0xfffff6fb
    19a4:	01061405 	tsteq	r6, r5, lsl #8
    19a8:	21060905 	tstcs	r6, r5, lsl #18
    19ac:	01060c05 	tsteq	r6, r5, lsl #24
    19b0:	03060b05 	movweq	r0, #27397	; 0x6b05
    19b4:	0505207a 	streq	r2, [r5, #-122]	; 0xffffff86
    19b8:	13090501 	movwne	r0, #38145	; 0x9501
    19bc:	01060e05 	tsteq	r6, r5, lsl #28
    19c0:	052e0c05 	streq	r0, [lr, #-3077]!	; 0xfffff3fb
    19c4:	05210609 	streq	r0, [r1, #-1545]!	; 0xfffff9f7
    19c8:	0501060b 	streq	r0, [r1, #-1547]	; 0xfffff9f5
    19cc:	04020017 	streq	r0, [r2], #-23	; 0xffffffe9
    19d0:	05052e01 	streq	r2, [r5, #-3585]	; 0xfffff1ff
    19d4:	01053406 	tsteq	r5, r6, lsl #8
    19d8:	20201306 	eorcs	r1, r0, r6, lsl #6
    19dc:	3c010100 	stfccs	f0, [r1], {-0}
    19e0:	03000005 	movweq	r0, #5
    19e4:	0001f300 	andeq	pc, r1, r0, lsl #6
    19e8:	fb010200 	blx	421f2 <__HEAP_SIZE+0x411f2>
    19ec:	01000d0e 	tsteq	r0, lr, lsl #26
    19f0:	00010101 	andeq	r0, r1, r1, lsl #2
    19f4:	00010000 	andeq	r0, r1, r0
    19f8:	2e2e0100 	sufcse	f0, f6, f0
    19fc:	2f2e2e2f 	svccs	0x002e2e2f
    1a00:	6c2f2e2e 	stcvs	14, cr2, [pc], #-184	; 1950 <__HEAP_SIZE+0x950>
    1a04:	74756269 	ldrbtvc	r6, [r5], #-617	; 0xfffffd97
    1a08:	2f736c69 	svccs	0x00736c69
    1a0c:	6c756166 	ldfvse	f6, [r5], #-408	; 0xfffffe68
    1a10:	75642d74 	strbvc	r2, [r4, #-3444]!	; 0xfffff28c
    1a14:	732f706d 			; <UNDEFINED> instruction: 0x732f706d
    1a18:	2e006372 	mcrcs	3, 0, r6, cr0, cr2, {3}
    1a1c:	72442f2e 	subvc	r2, r4, #46, 30	; 0xb8
    1a20:	72657669 	rsbvc	r7, r5, #110100480	; 0x6900000
    1a24:	4d432f73 	stclmi	15, cr2, [r3, #-460]	; 0xfffffe34
    1a28:	5f534953 	svcpl	0x00534953
    1a2c:	4d432f35 	stclmi	15, cr2, [r3, #-212]	; 0xffffff2c
    1a30:	2f534953 	svccs	0x00534953
    1a34:	65726f43 	ldrbvs	r6, [r2, #-3907]!	; 0xfffff0bd
    1a38:	636e492f 	cmnvs	lr, #770048	; 0xbc000
    1a3c:	6564756c 	strbvs	r7, [r4, #-1388]!	; 0xfffffa94
    1a40:	706f2f00 	rsbvc	r2, pc, r0, lsl #30
    1a44:	63672f74 	cmnvs	r7, #116, 30	; 0x1d0
    1a48:	72612d63 	rsbvc	r2, r1, #6336	; 0x18c0
    1a4c:	6f6e2d6d 	svcvs	0x006e2d6d
    1a50:	652d656e 	strvs	r6, [sp, #-1390]!	; 0xfffffa92
    1a54:	2d696261 	sfmcs	f6, 2, [r9, #-388]!	; 0xfffffe7c
    1a58:	332e3031 			; <UNDEFINED> instruction: 0x332e3031
    1a5c:	3230322d 	eorscc	r3, r0, #-805306366	; 0xd0000002
    1a60:	30312e31 	eorscc	r2, r1, r1, lsr lr
    1a64:	6d72612f 	ldfvse	f6, [r2, #-188]!	; 0xffffff44
    1a68:	6e6f6e2d 	cdpvs	14, 6, cr6, cr15, cr13, {1}
    1a6c:	61652d65 	cmnvs	r5, r5, ror #26
    1a70:	692f6962 	stmdbvs	pc!, {r1, r5, r6, r8, fp, sp, lr}	; <UNPREDICTABLE>
    1a74:	756c636e 	strbvc	r6, [ip, #-878]!	; 0xfffffc92
    1a78:	6d2f6564 	cfstr32vs	mvfx6, [pc, #-400]!	; 18f0 <__HEAP_SIZE+0x8f0>
    1a7c:	69686361 	stmdbvs	r8!, {r0, r5, r6, r8, r9, sp, lr}^
    1a80:	2f00656e 	svccs	0x0000656e
    1a84:	2f74706f 	svccs	0x0074706f
    1a88:	2d636367 	stclcs	3, cr6, [r3, #-412]!	; 0xfffffe64
    1a8c:	2d6d7261 	sfmcs	f7, 2, [sp, #-388]!	; 0xfffffe7c
    1a90:	656e6f6e 	strbvs	r6, [lr, #-3950]!	; 0xfffff092
    1a94:	6261652d 	rsbvs	r6, r1, #188743680	; 0xb400000
    1a98:	30312d69 	eorscc	r2, r1, r9, ror #26
    1a9c:	322d332e 	eorcc	r3, sp, #-1207959552	; 0xb8000000
    1aa0:	2e313230 	mrccs	2, 1, r3, cr1, cr0, {1}
    1aa4:	6c2f3031 	stcvs	0, cr3, [pc], #-196	; 19e8 <__HEAP_SIZE+0x9e8>
    1aa8:	672f6269 	strvs	r6, [pc, -r9, ror #4]!
    1aac:	612f6363 			; <UNDEFINED> instruction: 0x612f6363
    1ab0:	6e2d6d72 	mcrvs	13, 1, r6, cr13, cr2, {3}
    1ab4:	2d656e6f 	stclcs	14, cr6, [r5, #-444]!	; 0xfffffe44
    1ab8:	69626165 	stmdbvs	r2!, {r0, r2, r5, r6, r8, sp, lr}^
    1abc:	2e30312f 	rsfcssp	f3, f0, #10.0
    1ac0:	2f312e33 	svccs	0x00312e33
    1ac4:	6c636e69 	stclvs	14, cr6, [r3], #-420	; 0xfffffe5c
    1ac8:	00656475 	rsbeq	r6, r5, r5, ror r4
    1acc:	74706f2f 	ldrbtvc	r6, [r0], #-3887	; 0xfffff0d1
    1ad0:	6363672f 	cmnvs	r3, #12320768	; 0xbc0000
    1ad4:	6d72612d 	ldfvse	f6, [r2, #-180]!	; 0xffffff4c
    1ad8:	6e6f6e2d 	cdpvs	14, 6, cr6, cr15, cr13, {1}
    1adc:	61652d65 	cmnvs	r5, r5, ror #26
    1ae0:	312d6962 			; <UNDEFINED> instruction: 0x312d6962
    1ae4:	2d332e30 	ldccs	14, cr2, [r3, #-192]!	; 0xffffff40
    1ae8:	31323032 	teqcc	r2, r2, lsr r0
    1aec:	2f30312e 	svccs	0x0030312e
    1af0:	2d6d7261 	sfmcs	f7, 2, [sp, #-388]!	; 0xfffffe7c
    1af4:	656e6f6e 	strbvs	r6, [lr, #-3950]!	; 0xfffff092
    1af8:	6261652d 	rsbvs	r6, r1, #188743680	; 0xb400000
    1afc:	6e692f69 	cdpvs	15, 6, cr2, cr9, cr9, {3}
    1b00:	64756c63 	ldrbtvs	r6, [r5], #-3171	; 0xfffff39d
    1b04:	79732f65 	ldmdbvc	r3!, {r0, r2, r5, r6, r8, r9, sl, fp, sp}^
    1b08:	2e2e0073 	mcrcs	0, 1, r0, cr14, cr3, {3}
    1b0c:	2f2e2e2f 	svccs	0x002e2e2f
    1b10:	6c2f2e2e 	stcvs	14, cr2, [pc], #-184	; 1a60 <__HEAP_SIZE+0xa60>
    1b14:	74756269 	ldrbtvc	r6, [r5], #-617	; 0xfffffd97
    1b18:	2f736c69 	svccs	0x00736c69
    1b1c:	6c756166 	ldfvse	f6, [r5], #-408	; 0xfffffe68
    1b20:	75642d74 	strbvc	r2, [r4, #-3444]!	; 0xfffff28c
    1b24:	692f706d 	stmdbvs	pc!, {r0, r2, r3, r5, r6, ip, sp, lr}	; <UNPREDICTABLE>
    1b28:	2f00636e 	svccs	0x0000636e
    1b2c:	2f74706f 	svccs	0x0074706f
    1b30:	2d636367 	stclcs	3, cr6, [r3, #-412]!	; 0xfffffe64
    1b34:	2d6d7261 	sfmcs	f7, 2, [sp, #-388]!	; 0xfffffe7c
    1b38:	656e6f6e 	strbvs	r6, [lr, #-3950]!	; 0xfffff092
    1b3c:	6261652d 	rsbvs	r6, r1, #188743680	; 0xb400000
    1b40:	30312d69 	eorscc	r2, r1, r9, ror #26
    1b44:	322d332e 	eorcc	r3, sp, #-1207959552	; 0xb8000000
    1b48:	2e313230 	mrccs	2, 1, r3, cr1, cr0, {1}
    1b4c:	612f3031 			; <UNDEFINED> instruction: 0x612f3031
    1b50:	6e2d6d72 	mcrvs	13, 1, r6, cr13, cr2, {3}
    1b54:	2d656e6f 	stclcs	14, cr6, [r5, #-444]!	; 0xfffffe44
    1b58:	69626165 	stmdbvs	r2!, {r0, r2, r5, r6, r8, sp, lr}^
    1b5c:	636e692f 	cmnvs	lr, #770048	; 0xbc000
    1b60:	6564756c 	strbvs	r7, [r4, #-1388]!	; 0xfffffa94
    1b64:	61660000 	cmnvs	r6, r0
    1b68:	2d746c75 	ldclcs	12, cr6, [r4, #-468]!	; 0xfffffe2c
    1b6c:	706d7564 	rsbvc	r7, sp, r4, ror #10
    1b70:	0100632e 	tsteq	r0, lr, lsr #6
    1b74:	6d630000 	stclvs	0, cr0, [r3, #-0]
    1b78:	5f736973 	svcpl	0x00736973
    1b7c:	2e636367 	cdpcs	3, 6, cr6, cr3, cr7, {3}
    1b80:	00020068 	andeq	r0, r2, r8, rrx
    1b84:	65645f00 	strbvs	r5, [r4, #-3840]!	; 0xfffff100
    1b88:	6c756166 	ldfvse	f6, [r5], #-408	; 0xfffffe68
    1b8c:	79745f74 	ldmdbvc	r4!, {r2, r4, r5, r6, r8, r9, sl, fp, ip, lr}^
    1b90:	2e736570 	mrccs	5, 3, r6, cr3, cr0, {3}
    1b94:	00030068 	andeq	r0, r3, r8, rrx
    1b98:	64747300 	ldrbtvs	r7, [r4], #-768	; 0xfffffd00
    1b9c:	2e666564 	cdpcs	5, 6, cr6, cr6, cr4, {3}
    1ba0:	00040068 	andeq	r0, r4, r8, rrx
    1ba4:	74735f00 	ldrbtvc	r5, [r3], #-3840	; 0xfffff100
    1ba8:	746e6964 	strbtvc	r6, [lr], #-2404	; 0xfffff69c
    1bac:	0500682e 	streq	r6, [r0, #-2094]	; 0xfffff7d2
    1bb0:	61660000 	cmnvs	r6, r0
    1bb4:	2d746c75 	ldclcs	12, cr6, [r4, #-468]!	; 0xfffffe2c
    1bb8:	706d7564 	rsbvc	r7, sp, r4, ror #10
    1bbc:	0600682e 	streq	r6, [r0], -lr, lsr #16
    1bc0:	74730000 	ldrbtvc	r0, [r3], #-0
    1bc4:	2e6f6964 	vnmulcs.f16	s13, s30, s9	; <UNPREDICTABLE>
    1bc8:	00070068 	andeq	r0, r7, r8, rrx
    1bcc:	75623c00 	strbvc	r3, [r2, #-3072]!	; 0xfffff400
    1bd0:	2d746c69 	ldclcs	12, cr6, [r4, #-420]!	; 0xfffffe5c
    1bd4:	003e6e69 	eorseq	r6, lr, r9, ror #28
    1bd8:	00000000 	andeq	r0, r0, r0
    1bdc:	05003805 	streq	r3, [r0, #-2053]	; 0xfffff7fb
    1be0:	001b7002 	andseq	r7, fp, r2
    1be4:	00fe0310 	rscseq	r0, lr, r0, lsl r3
    1be8:	05010601 	streq	r0, [r1, #-1537]	; 0xfffff9ff
    1bec:	05210605 	streq	r0, [r1, #-1541]!	; 0xfffff9fb
    1bf0:	0501060e 	streq	r0, [r1, #-1550]	; 0xfffff9f2
    1bf4:	132f0605 			; <UNDEFINED> instruction: 0x132f0605
    1bf8:	05010a05 	streq	r0, [r1, #-2565]	; 0xfffff5fb
    1bfc:	05010605 	streq	r0, [r1, #-1541]	; 0xfffff9fb
    1c00:	04020009 	streq	r0, [r2], #-9
    1c04:	05210603 	streq	r0, [r1, #-1539]!	; 0xfffff9fd
    1c08:	04020014 	streq	r0, [r2], #-20	; 0xffffffec
    1c0c:	05010603 	streq	r0, [r1, #-1539]	; 0xfffff9fd
    1c10:	04020012 	streq	r0, [r2], #-18	; 0xffffffee
    1c14:	3d052e03 	stccc	14, cr2, [r5, #-12]
    1c18:	03040200 	movweq	r0, #16896	; 0x4200
    1c1c:	3e055706 	cdpcc	7, 0, cr5, cr5, cr6, {0}
    1c20:	03040200 	movweq	r0, #16896	; 0x4200
    1c24:	15050106 	strne	r0, [r5, #-262]	; 0xfffffefa
    1c28:	01040200 	mrseq	r0, R12_usr
    1c2c:	05052006 	streq	r2, [r5, #-6]
    1c30:	01040200 	mrseq	r0, R12_usr
    1c34:	31060106 	tstcc	r6, r6, lsl #2
    1c38:	01062205 	tsteq	r6, r5, lsl #4
    1c3c:	0605052f 	streq	r0, [r5], -pc, lsr #10
    1c40:	0601052f 	streq	r0, [r1], -pc, lsr #10
    1c44:	02022e13 	andeq	r2, r2, #304	; 0x130
    1c48:	05010100 	streq	r0, [r1, #-256]	; 0xffffff00
    1c4c:	02050033 	andeq	r0, r5, #51	; 0x33
    1c50:	10001b9c 	mulne	r0, ip, fp
    1c54:	01018903 	tsteq	r1, r3, lsl #18
    1c58:	05160505 	ldreq	r0, [r6, #-1285]	; 0xfffffafb
    1c5c:	0501060e 	streq	r0, [r1, #-1550]	; 0xfffff9f2
    1c60:	052f0605 	streq	r0, [pc, #-1541]!	; 1663 <__HEAP_SIZE+0x663>
    1c64:	05010632 	streq	r0, [r1, #-1586]	; 0xfffff9ce
    1c68:	0505200e 	streq	r2, [r5, #-14]
    1c6c:	08052f06 	stmdaeq	r5, {r1, r2, r8, r9, sl, fp, sp}
    1c70:	26050106 	strcs	r0, [r5], -r6, lsl #2
    1c74:	01040200 	mrseq	r0, R12_usr
    1c78:	0605053c 			; <UNDEFINED> instruction: 0x0605053c
    1c7c:	0608053f 			; <UNDEFINED> instruction: 0x0608053f
    1c80:	00260501 	eoreq	r0, r6, r1, lsl #10
    1c84:	3c010402 	cfstrscc	mvf0, [r1], {2}
    1c88:	203f0c05 	eorscs	r0, pc, r5, lsl #24
    1c8c:	201b1005 	andscs	r1, fp, r5
    1c90:	20232020 	eorcs	r2, r3, r0, lsr #32
    1c94:	23010520 	movwcs	r0, #5408	; 0x1520
    1c98:	01000102 	tsteq	r0, r2, lsl #2
    1c9c:	00360501 	eorseq	r0, r6, r1, lsl #10
    1ca0:	1bd40205 	blne	ff5024bc <__StackTop+0xc74024bc>
    1ca4:	98031000 	stmdals	r3, {ip}
    1ca8:	01060101 	tsteq	r6, r1, lsl #2
    1cac:	2f060505 	svccs	0x00060505
    1cb0:	30062e06 	andcc	r2, r6, r6, lsl #28
    1cb4:	06010513 			; <UNDEFINED> instruction: 0x06010513
    1cb8:	0202203e 	andeq	r2, r2, #62	; 0x3e
    1cbc:	05010100 	streq	r0, [r1, #-256]	; 0xffffff00
    1cc0:	0205001c 	andeq	r0, r5, #28
    1cc4:	10001bec 	andne	r1, r0, ip, ror #23
    1cc8:	0100f303 	tsteq	r0, r3, lsl #6	; <UNPREDICTABLE>
    1ccc:	05210505 	streq	r0, [r1, #-1285]!	; 0xfffffafb
    1cd0:	0501061a 	streq	r0, [r1, #-1562]	; 0xfffff9e6
    1cd4:	05052018 	streq	r2, [r5, #-24]	; 0xffffffe8
    1cd8:	1a052f06 	bne	14d8f8 <__RAM_SIZE+0x4d8f8>
    1cdc:	18050106 	stmdane	r5, {r1, r2, r8}
    1ce0:	06050520 	streq	r0, [r5], -r0, lsr #10
    1ce4:	05684c2f 	strbeq	r4, [r8, #-3119]!	; 0xfffff3d1
    1ce8:	024c0601 	subeq	r0, ip, #1048576	; 0x100000
    1cec:	01010013 	tsteq	r1, r3, lsl r0
    1cf0:	05007305 	streq	r7, [r0, #-773]	; 0xfffffcfb
    1cf4:	001c3c02 	andseq	r3, ip, r2, lsl #24
    1cf8:	01db0310 	bicseq	r0, fp, r0, lsl r3
    1cfc:	05010601 	streq	r0, [r1, #-1537]	; 0xfffff9ff
    1d00:	132f0605 			; <UNDEFINED> instruction: 0x132f0605
    1d04:	06080513 			; <UNDEFINED> instruction: 0x06080513
    1d08:	001a0501 	andseq	r0, sl, r1, lsl #10
    1d0c:	58010402 	stmdapl	r1, {r1, sl}
    1d10:	23060505 	movwcs	r0, #25861	; 0x6505
    1d14:	01040200 	mrseq	r0, R12_usr
    1d18:	09052006 	stmdbeq	r5, {r1, r2, sp}
    1d1c:	00050529 	andeq	r0, r5, r9, lsr #10
    1d20:	06020402 	streq	r0, [r2], -r2, lsl #8
    1d24:	04020036 	streq	r0, [r2], #-54	; 0xffffffca
    1d28:	02002001 	andeq	r2, r0, #1
    1d2c:	20060304 	andcs	r0, r6, r4, lsl #6
    1d30:	30060905 	andcc	r0, r6, r5, lsl #18
    1d34:	01060c05 	tsteq	r6, r5, lsl #24
    1d38:	22060905 	andcs	r0, r6, #81920	; 0x14000
    1d3c:	01061305 	tsteq	r6, r5, lsl #6
    1d40:	05200c05 	streq	r0, [r0, #-3077]!	; 0xfffff3fb
    1d44:	0402002f 	streq	r0, [r2], #-47	; 0xffffffd1
    1d48:	26052e01 	strcs	r2, [r5], -r1, lsl #28
    1d4c:	01040200 	mrseq	r0, R12_usr
    1d50:	06090520 	streq	r0, [r9], -r0, lsr #10
    1d54:	060c0532 			; <UNDEFINED> instruction: 0x060c0532
    1d58:	06090501 	streq	r0, [r9], -r1, lsl #10
    1d5c:	0c051440 	cfstrseq	mvf1, [r5], {64}	; 0x40
    1d60:	09050106 	stmdbeq	r5, {r1, r2, r8}
    1d64:	0c053006 	stceq	0, cr3, [r5], {6}
    1d68:	09050106 	stmdbeq	r5, {r1, r2, r8}
    1d6c:	0e052406 	cdpeq	4, 0, cr2, cr5, cr6, {0}
    1d70:	09050106 	stmdbeq	r5, {r1, r2, r8}
    1d74:	0e053e06 	cdpeq	14, 0, cr3, cr5, cr6, {0}
    1d78:	0c050106 	stfeqs	f0, [r5], {6}
    1d7c:	0609052e 	streq	r0, [r9], -lr, lsr #10
    1d80:	06170532 			; <UNDEFINED> instruction: 0x06170532
    1d84:	06090501 	streq	r0, [r9], -r1, lsl #10
    1d88:	060f052f 	streq	r0, [pc], -pc, lsr #10
    1d8c:	06090501 	streq	r0, [r9], -r1, lsl #10
    1d90:	060c0521 	streq	r0, [ip], -r1, lsr #10
    1d94:	33010501 	movwcc	r0, #5377	; 0x1501
    1d98:	5a031005 	bpl	c5db4 <__HEAP_SIZE+0xc4db4>
    1d9c:	583f3c3c 	ldmdapl	pc!, {r2, r3, r4, r5, sl, fp, ip, sp}	; <UNPREDICTABLE>
    1da0:	01000602 	tsteq	r0, r2, lsl #12
    1da4:	00430501 	subeq	r0, r3, r1, lsl #10
    1da8:	1cb80205 	lfmne	f0, 4, [r8], #20
    1dac:	a0031000 	andge	r1, r3, r0
    1db0:	01060101 	tsteq	r6, r1, lsl #2
    1db4:	3d060505 	cfstr32cc	mvfx0, [r6, #-20]	; 0xffffffec
    1db8:	14131313 	ldrne	r1, [r3], #-787	; 0xfffffced
    1dbc:	01061805 	tsteq	r6, r5, lsl #16
    1dc0:	05201605 	streq	r1, [r0, #-1541]!	; 0xfffff9fb
    1dc4:	052f0605 	streq	r0, [pc, #-1541]!	; 17c7 <__HEAP_SIZE+0x7c7>
    1dc8:	05010618 	streq	r0, [r1, #-1560]	; 0xfffff9e8
    1dcc:	05052016 	streq	r2, [r5, #-22]	; 0xffffffea
    1dd0:	18052106 	stmdane	r5, {r1, r2, r8, sp}
    1dd4:	16050106 	strne	r0, [r5], -r6, lsl #2
    1dd8:	06050520 	streq	r0, [r5], -r0, lsr #10
    1ddc:	06180521 	ldreq	r0, [r8], -r1, lsr #10
    1de0:	20160501 	andscs	r0, r6, r1, lsl #10
    1de4:	21060505 	tstcs	r6, r5, lsl #10
    1de8:	01061805 	tsteq	r6, r5, lsl #16
    1dec:	05201605 	streq	r1, [r0, #-1541]!	; 0xfffff9fb
    1df0:	05210605 	streq	r0, [r1, #-1541]!	; 0xfffff9fb
    1df4:	05010618 	streq	r0, [r1, #-1560]	; 0xfffff9e8
    1df8:	05052016 	streq	r2, [r5, #-22]	; 0xffffffea
    1dfc:	18052106 	stmdane	r5, {r1, r2, r8, sp}
    1e00:	16050106 	strne	r0, [r5], -r6, lsl #2
    1e04:	06050520 	streq	r0, [r5], -r0, lsr #10
    1e08:	06180521 	ldreq	r0, [r8], -r1, lsr #10
    1e0c:	20160501 	andscs	r0, r6, r1, lsl #10
    1e10:	21060505 	tstcs	r6, r5, lsl #10
    1e14:	01061805 	tsteq	r6, r5, lsl #16
    1e18:	05201605 	streq	r1, [r0, #-1541]!	; 0xfffff9fb
    1e1c:	05210605 	streq	r0, [r1, #-1541]!	; 0xfffff9fb
    1e20:	05010618 	streq	r0, [r1, #-1560]	; 0xfffff9e8
    1e24:	05052016 	streq	r2, [r5, #-22]	; 0xffffffea
    1e28:	18052106 	stmdane	r5, {r1, r2, r8, sp}
    1e2c:	16050106 	strne	r0, [r5], -r6, lsl #2
    1e30:	06050520 	streq	r0, [r5], -r0, lsr #10
    1e34:	06180521 	ldreq	r0, [r8], -r1, lsr #10
    1e38:	20160501 	andscs	r0, r6, r1, lsl #10
    1e3c:	21060505 	tstcs	r6, r5, lsl #10
    1e40:	01061805 	tsteq	r6, r5, lsl #16
    1e44:	05201605 	streq	r1, [r0, #-1541]!	; 0xfffff9fb
    1e48:	05210605 	streq	r0, [r1, #-1541]!	; 0xfffff9fb
    1e4c:	05010618 	streq	r0, [r1, #-1560]	; 0xfffff9e8
    1e50:	05052016 	streq	r2, [r5, #-22]	; 0xffffffea
    1e54:	18052106 	stmdane	r5, {r1, r2, r8, sp}
    1e58:	16050106 	strne	r0, [r5], -r6, lsl #2
    1e5c:	06050520 	streq	r0, [r5], -r0, lsr #10
    1e60:	06180521 	ldreq	r0, [r8], -r1, lsr #10
    1e64:	20160501 	andscs	r0, r6, r1, lsl #10
    1e68:	22060505 	andcs	r0, r6, #20971520	; 0x1400000
    1e6c:	2f062e06 	svccs	0x00062e06
    1e70:	4b4b3d3d 	blmi	12d136c <__RAM_SIZE+0x11d136c>
    1e74:	4b4b4b4b 	blmi	12d4ba8 <__RAM_SIZE+0x11d4ba8>
    1e78:	4b4b4b4b 	blmi	12d4bac <__RAM_SIZE+0x11d4bac>
    1e7c:	4b4b4b4b 	blmi	12d4bb0 <__RAM_SIZE+0x11d4bb0>
    1e80:	3e3d4b4b 	vsubcc.f64	d4, d13, d11
    1e84:	060d0513 			; <UNDEFINED> instruction: 0x060d0513
    1e88:	06050501 	streq	r0, [r5], -r1, lsl #10
    1e8c:	06200686 	strteq	r0, [r0], -r6, lsl #13
    1e90:	10054b2f 	andne	r4, r5, pc, lsr #22
    1e94:	05050106 	streq	r0, [r5, #-262]	; 0xfffffefa
    1e98:	00090520 	andeq	r0, r9, r0, lsr #10
    1e9c:	06030402 	streq	r0, [r3], -r2, lsl #8
    1ea0:	00240521 	eoreq	r0, r4, r1, lsr #10
    1ea4:	65030402 	strvs	r0, [r3, #-1026]	; 0xfffffbfe
    1ea8:	02002905 	andeq	r2, r0, #81920	; 0x14000
    1eac:	01060304 	tsteq	r6, r4, lsl #6
    1eb0:	02001505 	andeq	r1, r0, #20971520	; 0x1400000
    1eb4:	20060104 	andcs	r0, r6, r4, lsl #2
    1eb8:	02000505 	andeq	r0, r0, #20971520	; 0x1400000
    1ebc:	01060104 	tsteq	r6, r4, lsl #2
    1ec0:	02003106 	andeq	r3, r0, #-2147483647	; 0x80000001
    1ec4:	053d0104 	ldreq	r0, [sp, #-260]!	; 0xfffffefc
    1ec8:	0402000e 	streq	r0, [r2], #-14
    1ecc:	0b050101 	bleq	1422d8 <__RAM_SIZE+0x422d8>
    1ed0:	01040200 	mrseq	r0, R12_usr
    1ed4:	00310201 	eorseq	r0, r1, r1, lsl #4
    1ed8:	2e050101 	adfcss	f0, f5, f1
    1edc:	3c020500 	cfstr32cc	mvfx0, [r2], {-0}
    1ee0:	0310001e 	tsteq	r0, #30
    1ee4:	05010287 	streq	r0, [r1, #-647]	; 0xfffffd79
    1ee8:	02041305 	andeq	r1, r4, #335544320	; 0x14000000
    1eec:	da031f05 	ble	c9b08 <__HEAP_SIZE+0xc8b08>
    1ef0:	03050106 	movweq	r0, #20742	; 0x5106
    1ef4:	062f1414 			; <UNDEFINED> instruction: 0x062f1414
    1ef8:	05010401 	streq	r0, [r1, #-1025]	; 0xfffffbff
    1efc:	79a20301 	stmibvc	r2!, {r0, r8, r9}
    1f00:	00010201 	andeq	r0, r1, r1, lsl #4
    1f04:	2e050101 	adfcss	f0, f5, f1
    1f08:	44020500 	strmi	r0, [r2], #-1280	; 0xfffffb00
    1f0c:	0310001e 	tsteq	r0, #30
    1f10:	0501028b 	streq	r0, [r1, #-651]	; 0xfffffd75
    1f14:	01051305 	tsteq	r5, r5, lsl #6
    1f18:	04021306 	streq	r1, [r2], #-774	; 0xfffffcfa
    1f1c:	19010100 	stmdbne	r1, {r8}
    1f20:	03000001 	movweq	r0, #1
    1f24:	0000a100 	andeq	sl, r0, r0, lsl #2
    1f28:	fb010200 	blx	42732 <__HEAP_SIZE+0x41732>
    1f2c:	01000d0e 	tsteq	r0, lr, lsl #26
    1f30:	00010101 	andeq	r0, r1, r1, lsl #2
    1f34:	00010000 	andeq	r0, r1, r0
    1f38:	2e2e0100 	sufcse	f0, f6, f0
    1f3c:	2f2e2e2f 	svccs	0x002e2e2f
    1f40:	6c2f2e2e 	stcvs	14, cr2, [pc], #-184	; 1e90 <__HEAP_SIZE+0xe90>
    1f44:	74756269 	ldrbtvc	r6, [r5], #-617	; 0xfffffd97
    1f48:	2f736c69 	svccs	0x00736c69
    1f4c:	6c756166 	ldfvse	f6, [r5], #-408	; 0xfffffe68
    1f50:	75642d74 	strbvc	r2, [r4, #-3444]!	; 0xfffff28c
    1f54:	632f706d 			; <UNDEFINED> instruction: 0x632f706d
    1f58:	632f7570 			; <UNDEFINED> instruction: 0x632f7570
    1f5c:	6574726f 	ldrbvs	r7, [r4, #-623]!	; 0xfffffd91
    1f60:	336d2d78 	cmncc	sp, #120, 26	; 0x1e00
    1f64:	6f2f0033 	svcvs	0x002f0033
    1f68:	672f7470 			; <UNDEFINED> instruction: 0x672f7470
    1f6c:	612d6363 			; <UNDEFINED> instruction: 0x612d6363
    1f70:	6e2d6d72 	mcrvs	13, 1, r6, cr13, cr2, {3}
    1f74:	2d656e6f 	stclcs	14, cr6, [r5, #-444]!	; 0xfffffe44
    1f78:	69626165 	stmdbvs	r2!, {r0, r2, r5, r6, r8, sp, lr}^
    1f7c:	2e30312d 	rsfcssp	f3, f0, #5.0
    1f80:	30322d33 	eorscc	r2, r2, r3, lsr sp
    1f84:	312e3132 			; <UNDEFINED> instruction: 0x312e3132
    1f88:	72612f30 	rsbvc	r2, r1, #48, 30	; 0xc0
    1f8c:	6f6e2d6d 	svcvs	0x006e2d6d
    1f90:	652d656e 	strvs	r6, [sp, #-1390]!	; 0xfffffa92
    1f94:	2f696261 	svccs	0x00696261
    1f98:	6c636e69 	stclvs	14, cr6, [r3], #-420	; 0xfffffe5c
    1f9c:	00656475 	rsbeq	r6, r5, r5, ror r4
    1fa0:	75616600 	strbvc	r6, [r1, #-1536]!	; 0xfffffa00
    1fa4:	682d746c 	stmdavs	sp!, {r2, r3, r5, r6, sl, ip, sp, lr}
    1fa8:	632e6c61 			; <UNDEFINED> instruction: 0x632e6c61
    1fac:	00000100 	andeq	r0, r0, r0, lsl #2
    1fb0:	6975623c 	ldmdbvs	r5!, {r2, r3, r4, r5, r9, sp, lr}^
    1fb4:	692d746c 	pushvs	{r2, r3, r5, r6, sl, ip, sp, lr}
    1fb8:	00003e6e 	andeq	r3, r0, lr, ror #28
    1fbc:	74730000 	ldrbtvc	r0, [r3], #-0
    1fc0:	2e6f6964 	vnmulcs.f16	s13, s30, s9	; <UNPREDICTABLE>
    1fc4:	00020068 	andeq	r0, r2, r8, rrx
    1fc8:	35050000 	strcc	r0, [r5, #-0]
    1fcc:	4c020500 	cfstr32mi	mvfx0, [r2], {-0}
    1fd0:	0310001e 	tsteq	r0, #30
    1fd4:	0106010e 	tsteq	r6, lr, lsl #2
    1fd8:	2f060505 	svccs	0x00060505
    1fdc:	2f062006 	svccs	0x00062006
    1fe0:	0608053d 			; <UNDEFINED> instruction: 0x0608053d
    1fe4:	06090501 	streq	r0, [r9], -r1, lsl #10
    1fe8:	4005053d 	andmi	r0, r5, sp, lsr r5
    1fec:	0608053d 			; <UNDEFINED> instruction: 0x0608053d
    1ff0:	06090501 	streq	r0, [r9], -r1, lsl #10
    1ff4:	4005053d 	andmi	r0, r5, sp, lsr r5
    1ff8:	0608053d 			; <UNDEFINED> instruction: 0x0608053d
    1ffc:	06090501 	streq	r0, [r9], -r1, lsl #10
    2000:	4005053d 	andmi	r0, r5, sp, lsr r5
    2004:	0608053d 			; <UNDEFINED> instruction: 0x0608053d
    2008:	06090501 	streq	r0, [r9], -r1, lsl #10
    200c:	4005053d 	andmi	r0, r5, sp, lsr r5
    2010:	0608053d 			; <UNDEFINED> instruction: 0x0608053d
    2014:	06090501 	streq	r0, [r9], -r1, lsl #10
    2018:	4005053d 	andmi	r0, r5, sp, lsr r5
    201c:	0608053d 			; <UNDEFINED> instruction: 0x0608053d
    2020:	06090501 	streq	r0, [r9], -r1, lsl #10
    2024:	4005053d 	andmi	r0, r5, sp, lsr r5
    2028:	3d060105 	stfccs	f0, [r6, #-20]	; 0xffffffec
    202c:	03060905 	movweq	r0, #26885	; 0x6905
    2030:	5050205f 	subspl	r2, r0, pc, asr r0
    2034:	02505050 	subseq	r5, r0, #80	; 0x50
    2038:	0101002b 	tsteq	r1, fp, lsr #32
    203c:	00000082 	andeq	r0, r0, r2, lsl #1
    2040:	00360003 	eorseq	r0, r6, r3
    2044:	01020000 	mrseq	r0, (UNDEF: 2)
    2048:	000d0efb 	strdeq	r0, [sp], -fp
    204c:	01010101 	tsteq	r1, r1, lsl #2
    2050:	01000000 	mrseq	r0, (UNDEF: 0)
    2054:	2e010000 	cdpcs	0, 0, cr0, cr1, cr0, {0}
    2058:	6174732f 	cmnvs	r4, pc, lsr #6
    205c:	70757472 	rsbsvc	r7, r5, r2, ror r4
    2060:	6363672f 	cmnvs	r3, #12320768	; 0xbc0000
    2064:	74730000 	ldrbtvc	r0, [r3], #-0
    2068:	75747261 	ldrbvc	r7, [r4, #-609]!	; 0xfffffd9f
    206c:	52415f70 	subpl	r5, r1, #112, 30	; 0x1c0
    2070:	334d434d 	movtcc	r4, #54093	; 0xd34d
    2074:	00732e33 	rsbseq	r2, r3, r3, lsr lr
    2078:	00000001 	andeq	r0, r0, r1
    207c:	68020500 	stmdavs	r2, {r8, sl}
    2080:	0310001f 	tsteq	r0, #31
    2084:	210100d3 	ldrdcs	r0, [r1, -r3]
    2088:	362f2130 			; <UNDEFINED> instruction: 0x362f2130
    208c:	21232130 			; <UNDEFINED> instruction: 0x21232130
    2090:	21212121 			; <UNDEFINED> instruction: 0x21212121
    2094:	21212123 			; <UNDEFINED> instruction: 0x21212123
    2098:	23212221 			; <UNDEFINED> instruction: 0x23212221
    209c:	21212321 			; <UNDEFINED> instruction: 0x21212321
    20a0:	23212121 			; <UNDEFINED> instruction: 0x23212121
    20a4:	22212121 	eorcs	r2, r1, #1073741832	; 0x40000008
    20a8:	0e032321 	cdpeq	3, 0, cr2, cr3, cr1, {1}
    20ac:	2009032e 	andcs	r0, r9, lr, lsr #6
    20b0:	2e7faf03 	cdpcs	15, 7, cr10, cr15, cr3, {0}
    20b4:	2e0c0331 	mcrcs	3, 0, r0, cr12, cr1, {1}
    20b8:	2e15032f 	cdpcs	3, 1, cr0, cr5, cr15, {1}
    20bc:	0002022f 	andeq	r0, r2, pc, lsr #4
    20c0:	007f0101 	rsbseq	r0, pc, r1, lsl #2
    20c4:	00030000 	andeq	r0, r3, r0
    20c8:	0000004e 	andeq	r0, r0, lr, asr #32
    20cc:	0efb0102 	cdpeq	1, 15, cr0, cr11, cr2, {0}
    20d0:	0101000d 	tsteq	r1, sp
    20d4:	00000101 	andeq	r0, r0, r1, lsl #2
    20d8:	00000100 	andeq	r0, r0, r0, lsl #2
    20dc:	2f2e2e01 	svccs	0x002e2e01
    20e0:	2e2f2e2e 	cdpcs	14, 2, cr2, cr15, cr14, {1}
    20e4:	696c2f2e 	stmdbvs	ip!, {r1, r2, r3, r5, r8, r9, sl, fp, sp}^
    20e8:	69747562 	ldmdbvs	r4!, {r1, r5, r6, r8, sl, ip, sp, lr}^
    20ec:	662f736c 	strtvs	r7, [pc], -ip, ror #6
    20f0:	746c7561 	strbtvc	r7, [ip], #-1377	; 0xfffffa9f
    20f4:	6d75642d 	cfldrdvs	mvd6, [r5, #-180]!	; 0xffffff4c
    20f8:	70632f70 	rsbvc	r2, r3, r0, ror pc
    20fc:	6f632f75 	svcvs	0x00632f75
    2100:	78657472 	stmdavc	r5!, {r1, r4, r5, r6, sl, ip, sp, lr}^
    2104:	33336d2d 	teqcc	r3, #2880	; 0xb40
    2108:	61660000 	cmnvs	r6, r0
    210c:	2d746c75 	ldclcs	12, cr6, [r4, #-468]!	; 0xfffffe2c
    2110:	2e636367 	cdpcs	3, 6, cr6, cr3, cr7, {3}
    2114:	00010073 	andeq	r0, r1, r3, ror r0
    2118:	05000000 	streq	r0, [r0, #-0]
    211c:	001fd802 	andseq	sp, pc, r2, lsl #16
    2120:	01190310 	tsteq	r9, r0, lsl r3
    2124:	21212121 			; <UNDEFINED> instruction: 0x21212121
    2128:	2f222f22 	svccs	0x00222f22
    212c:	23212121 			; <UNDEFINED> instruction: 0x23212121
    2130:	2f212f30 	svccs	0x00212f30
    2134:	2f212131 	svccs	0x00212131
    2138:	2e650321 	cdpcs	3, 6, cr0, cr5, cr1, {1}
    213c:	2e160330 	mrccs	3, 0, r0, cr6, cr0, {1}
    2140:	01000202 	tsteq	r0, r2, lsl #4
    2144:	Address 0x0000000000002144 is out of bounds.


Disassembly of section .debug_str:

00000000 <.debug_str>:
  SystemCoreClock = SYSTEM_CLOCK;
   0:	53434344 	movtpl	r4, #13124	; 0x3344
   4:	5f5f0057 	svcpl	0x005f0057
}
   8:	6c697562 	cfstr64vs	mvdx7, [r9], #-392	; 0xfffffe78
   c:	5f6e6974 	svcpl	0x006e6974
    printf("c = %d\r\n", c);
  10:	73747570 	cmnvc	r4, #112, 10	; 0x1c000000
}
  14:	64646100 	strbtvs	r6, [r4], #-256	; 0xffffff00
  18:	4d4d0072 	stclmi	0, cr0, [sp, #-456]	; 0xfffffe38
  1c:	00524146 	subseq	r4, r2, r6, asr #2
  20:	726f6873 	rsbvc	r6, pc, #7536640	; 0x730000
  24:	6e692074 	mcrvs	0, 3, r2, cr9, cr4, {3}
  28:	564d0074 			; <UNDEFINED> instruction: 0x564d0074
  2c:	00315246 	eorseq	r5, r1, r6, asr #4
  30:	505f4449 	subspl	r4, pc, r9, asr #8
  34:	75005246 	strvc	r5, [r0, #-582]	; 0xfffffdba
  38:	5f747261 	svcpl	0x00747261
  3c:	74696e69 	strbtvc	r6, [r9], #-3689	; 0xfffff197
  40:	69616d00 	stmdbvs	r1!, {r8, sl, fp, sp, lr}^
  44:	6f6c006e 	svcvs	0x006c006e
  48:	6420676e 	strtvs	r6, [r0], #-1902	; 0xfffff892
  4c:	6c62756f 	cfstr64vs	mvdx7, [r2], #-444	; 0xfffffe44
  50:	5f5f0065 	svcpl	0x005f0065
  54:	746e6975 	strbtvc	r6, [lr], #-2421	; 0xfffff68b
  58:	745f3233 	ldrbvc	r3, [pc], #-563	; 60 <__STACKSEAL_SIZE+0x60>
  5c:	43434400 	movtmi	r4, #13312	; 0x3400
  60:	41564d49 	cmpmi	r6, r9, asr #26
  64:	44490043 	strbmi	r0, [r9], #-67	; 0xffffffbd
  68:	464d4d5f 			; <UNDEFINED> instruction: 0x464d4d5f
  6c:	50430052 	subpl	r0, r3, r2, asr r0
  70:	00444955 	subeq	r4, r4, r5, asr r9
  74:	5246564d 	subpl	r5, r6, #80740352	; 0x4d00000
  78:	61760030 	cmnvs	r6, r0, lsr r0
  7c:	0065756c 	rsbeq	r7, r5, ip, ror #10
  80:	75625f5f 	strbvc	r5, [r2, #-3935]!	; 0xfffff0a1
  84:	69746c69 	ldmdbvs	r4!, {r0, r3, r5, r6, sl, fp, sp, lr}^
  88:	656d5f6e 	strbvs	r5, [sp, #-3950]!	; 0xfffff092
  8c:	7465736d 	strbtvc	r7, [r5], #-877	; 0xfffffc93
  90:	75616600 	strbvc	r6, [r1, #-1536]!	; 0xfffffa00
  94:	645f746c 	ldrbvs	r7, [pc], #-1132	; 9c <__STACKSEAL_SIZE+0x9c>
  98:	5f706d75 	svcpl	0x00706d75
  9c:	735f6d62 	cmpvc	pc, #6272	; 0x1880
  a0:	6b636174 	blvs	18d8678 <__RAM_SIZE+0x17d8678>
  a4:	6174735f 	cmnvs	r4, pc, asr r3
  a8:	52007472 	andpl	r7, r0, #1912602624	; 0x72000000
  ac:	52455345 	subpl	r5, r5, #335544321	; 0x14000001
  b0:	36444556 			; <UNDEFINED> instruction: 0x36444556
  b4:	73657400 	cmnvc	r5, #0, 8
  b8:	74003174 	strvc	r3, [r0], #-372	; 0xfffffe8c
  bc:	32747365 	rsbscc	r7, r4, #-1811939327	; 0x94000001
  c0:	73657400 	cmnvc	r5, #0, 8
  c4:	53003374 	movwpl	r3, #884	; 0x374
  c8:	00524954 	subseq	r4, r2, r4, asr r9
  cc:	415f4449 	cmpmi	pc, r9, asr #8
  d0:	66005246 	strvs	r5, [r0], -r6, asr #4
  d4:	746c7561 	strbtvc	r7, [ip], #-1377	; 0xfffffa9f
  d8:	6d75645f 	cfldrdvs	mvd6, [r5, #-380]!	; 0xfffffe84
  dc:	6d625f70 	stclvs	15, cr5, [r2, #-448]!	; 0xfffffe40
  e0:	6174735f 	cmnvs	r4, pc, asr r3
  e4:	705f6b63 	subsvc	r6, pc, r3, ror #22
  e8:	746e696f 	strbtvc	r6, [lr], #-2415	; 0xfffff691
  ec:	49434400 	stmdbmi	r3, {sl, lr}^
  f0:	48005753 	stmdami	r0, {r0, r1, r4, r6, r8, r9, sl, ip, lr}
  f4:	46647261 	strbtmi	r7, [r4], -r1, ror #4
  f8:	746c7561 	strbtvc	r7, [ip], #-1377	; 0xfffffa9f
  fc:	6e61485f 	mcrvs	8, 3, r4, cr1, cr15, {2}
 100:	72656c64 	rsbvc	r6, r5, #100, 24	; 0x6400
 104:	67654c5f 			; <UNDEFINED> instruction: 0x67654c5f
 108:	79636e65 	stmdbvc	r3!, {r0, r2, r5, r6, r9, sl, fp, sp, lr}^
 10c:	46564d00 	ldrbmi	r4, [r6], -r0, lsl #26
 110:	6c003252 	sfmvs	f3, 4, [r0], {82}	; 0x52
 114:	20676e6f 	rsbcs	r6, r7, pc, ror #28
 118:	676e6f6c 	strbvs	r6, [lr, -ip, ror #30]!
 11c:	746e6920 	strbtvc	r6, [lr], #-2336	; 0xfffff6e0
 120:	41464200 	mrsmi	r4, (UNDEF: 102)
 124:	2f2e0052 	svccs	0x002e0052
 128:	6c707061 	ldclvs	0, cr7, [r0], #-388	; 0xfffffe7c
 12c:	74616369 	strbtvc	r6, [r1], #-873	; 0xfffffc97
 130:	2f6e6f69 	svccs	0x006e6f69
 134:	6e69616d 	powvsez	f6, f1, #5.0
 138:	4300632e 	movwmi	r6, #814	; 0x32e
 13c:	44495343 	strbmi	r5, [r9], #-835	; 0xfffffcbd
 140:	5f5f0052 	svcpl	0x005f0052
 144:	746e6975 	strbtvc	r6, [lr], #-2421	; 0xfffff68b
 148:	00745f38 	rsbseq	r5, r4, r8, lsr pc
 14c:	20554e47 	subscs	r4, r5, r7, asr #28
 150:	20373143 	eorscs	r3, r7, r3, asr #2
 154:	332e3031 			; <UNDEFINED> instruction: 0x332e3031
 158:	3220312e 	eorcc	r3, r0, #-2147483637	; 0x8000000b
 15c:	30313230 	eorscc	r3, r1, r0, lsr r2
 160:	20343238 	eorscs	r3, r4, r8, lsr r2
 164:	6c657228 	sfmvs	f7, 2, [r5], #-160	; 0xffffff60
 168:	65736165 	ldrbvs	r6, [r3, #-357]!	; 0xfffffe9b
 16c:	6d2d2029 	stcvs	0, cr2, [sp, #-164]!	; 0xffffff5c
 170:	3d757063 	ldclcc	0, cr7, [r5, #-396]!	; 0xfffffe74
 174:	74726f63 	ldrbtvc	r6, [r2], #-3939	; 0xfffff09d
 178:	6d2d7865 	stcvs	8, cr7, [sp, #-404]!	; 0xfffffe6c
 17c:	2d203333 	stccs	3, cr3, [r0, #-204]!	; 0xffffff34
 180:	7570666d 	ldrbvc	r6, [r0, #-1645]!	; 0xfffff993
 184:	7670663d 			; <UNDEFINED> instruction: 0x7670663d
 188:	70732d35 	rsbsvc	r2, r3, r5, lsr sp
 18c:	3631642d 	ldrtcc	r6, [r1], -sp, lsr #8
 190:	666d2d20 	strbtvs	r2, [sp], -r0, lsr #26
 194:	74616f6c 	strbtvc	r6, [r1], #-3948	; 0xfffff094
 198:	6962612d 	stmdbvs	r2!, {r0, r2, r3, r5, r8, sp, lr}^
 19c:	7261683d 	rsbvc	r6, r1, #3997696	; 0x3d0000
 1a0:	6d2d2064 	stcvs	0, cr2, [sp, #-400]!	; 0xfffffe70
 1a4:	6d756874 	ldclvs	8, cr6, [r5, #-464]!	; 0xfffffe30
 1a8:	6d2d2062 	stcvs	0, cr2, [sp, #-392]!	; 0xfffffe78
 1ac:	68637261 	stmdavs	r3!, {r0, r5, r6, r9, ip, sp, lr}^
 1b0:	6d72613d 	ldfvse	f6, [r2, #-244]!	; 0xffffff0c
 1b4:	6d2d3876 	stcvs	8, cr3, [sp, #-472]!	; 0xfffffe28
 1b8:	69616d2e 	stmdbvs	r1!, {r1, r2, r3, r5, r8, sl, fp, sp, lr}^
 1bc:	73642b6e 	cmnvc	r4, #112640	; 0x1b800
 1c0:	70662b70 	rsbvc	r2, r6, r0, ror fp
 1c4:	20672d20 	rsbcs	r2, r7, r0, lsr #26
 1c8:	7764672d 	strbvc	r6, [r4, -sp, lsr #14]!
 1cc:	2d667261 	sfmcs	f7, 2, [r6, #-388]!	; 0xfffffe7c
 1d0:	4f2d2032 	svcmi	0x002d2032
 1d4:	662d2067 	strtvs	r2, [sp], -r7, rrx
 1d8:	61746164 	cmnvs	r4, r4, ror #2
 1dc:	6365732d 	cmnvs	r5, #-1275068416	; 0xb4000000
 1e0:	6e6f6974 			; <UNDEFINED> instruction: 0x6e6f6974
 1e4:	662d2073 			; <UNDEFINED> instruction: 0x662d2073
 1e8:	636e7566 	cmnvs	lr, #427819008	; 0x19800000
 1ec:	6e6f6974 			; <UNDEFINED> instruction: 0x6e6f6974
 1f0:	6365732d 	cmnvs	r5, #-1275068416	; 0xb4000000
 1f4:	6e6f6974 			; <UNDEFINED> instruction: 0x6e6f6974
 1f8:	662d2073 			; <UNDEFINED> instruction: 0x662d2073
 1fc:	652d6f6e 	strvs	r6, [sp, #-3950]!	; 0xfffff092
 200:	70656378 	rsbvc	r6, r5, r8, ror r3
 204:	6e6f6974 			; <UNDEFINED> instruction: 0x6e6f6974
 208:	61660073 	smcvs	24579	; 0x6003
 20c:	5f746c75 	svcpl	0x00746c75
 210:	706d7564 	rsbvc	r7, sp, r4, ror #10
 214:	6c61635f 	stclvs	3, cr6, [r1], #-380	; 0xfffffe84
 218:	6174736c 	cmnvs	r4, ip, ror #6
 21c:	43006b63 	movwmi	r6, #2915	; 0xb63
 220:	00525346 	subseq	r5, r2, r6, asr #6
 224:	41494349 	cmpmi	r9, r9, asr #6
 228:	00554c4c 	subseq	r4, r5, ip, asr #24
 22c:	4d494344 	stclmi	3, cr4, [r9, #-272]	; 0xfffffef0
 230:	00434156 	subeq	r4, r3, r6, asr r1
 234:	69736e75 	ldmdbvs	r3!, {r0, r2, r4, r5, r6, r9, sl, fp, sp, lr}^
 238:	64656e67 	strbtvs	r6, [r5], #-3687	; 0xfffff199
 23c:	61686320 	cmnvs	r8, r0, lsr #6
 240:	43490072 	movtmi	r0, #36978	; 0x9072
 244:	41564d49 	cmpmi	r6, r9, asr #26
 248:	44490055 	strbmi	r0, [r9], #-85	; 0xffffffab
 24c:	4153495f 	cmpmi	r3, pc, asr r9
 250:	61660052 	qdsubvs	r0, r2, r6
 254:	5f746c75 	svcpl	0x00746c75
 258:	706d7564 	rsbvc	r7, sp, r4, ror #10
 25c:	696e695f 	stmdbvs	lr!, {r0, r1, r2, r3, r4, r6, r8, fp, sp, lr}^
 260:	43530074 	cmpmi	r3, #116	; 0x74
 264:	79545f42 	ldmdbvc	r4, {r1, r6, r8, r9, sl, fp, ip, lr}^
 268:	53006570 	movwpl	r6, #1392	; 0x570
 26c:	00525048 	subseq	r5, r2, r8, asr #32
 270:	676e6f6c 	strbvs	r6, [lr, -ip, ror #30]!
 274:	6e6f6c20 	cdpvs	12, 6, cr6, cr15, cr0, {1}
 278:	6e752067 	cdpvs	0, 7, cr2, cr5, cr7, {3}
 27c:	6e676973 			; <UNDEFINED> instruction: 0x6e676973
 280:	69206465 	stmdbvs	r0!, {r0, r2, r5, r6, sl, sp, lr}
 284:	6600746e 	strvs	r7, [r0], -lr, ror #8
 288:	746c7561 	strbtvc	r7, [ip], #-1377	; 0xfffffa9f
 28c:	616e755f 	cmnvs	lr, pc, asr r5
 290:	6e67696c 	vnmulvs.f16	s13, s14, s25	; <UNPREDICTABLE>
 294:	6972745f 	ldmdbvs	r2!, {r0, r1, r2, r3, r4, r6, sl, ip, sp, lr}^
 298:	72656767 	rsbvc	r6, r5, #27000832	; 0x19c0000
 29c:	53465300 	movtpl	r5, #25344	; 0x6300
 2a0:	48530052 	ldmdami	r3, {r1, r4, r6}^
 2a4:	00525343 	subseq	r5, r2, r3, asr #6
 2a8:	4d434344 	stclmi	3, cr4, [r3, #-272]	; 0xfffffef0
 2ac:	00434156 	subeq	r4, r3, r6, asr r1
 2b0:	4341534e 	movtmi	r5, #4942	; 0x134e
 2b4:	5f5f0052 	svcpl	0x005f0052
 2b8:	636e7566 	cmnvs	lr, #427819008	; 0x19800000
 2bc:	43005f5f 	movwmi	r5, #3935	; 0xf5f
 2c0:	4c455353 	mcrrmi	3, 5, r5, r5, cr3
 2c4:	68730052 	ldmdavs	r3!, {r1, r4, r6}^
 2c8:	2074726f 	rsbscs	r7, r4, pc, ror #4
 2cc:	69736e75 	ldmdbvs	r3!, {r0, r2, r4, r5, r6, r9, sl, fp, sp, lr}^
 2d0:	64656e67 	strbtvs	r6, [r5], #-3687	; 0xfffff199
 2d4:	746e6920 	strbtvc	r6, [lr], #-2336	; 0xfffff6e0
 2d8:	43434400 	movtmi	r4, #13312	; 0x3400
 2dc:	5541564d 	strbpl	r5, [r1, #-1613]	; 0xfffff9b3
 2e0:	66654400 	strbtvs	r4, [r5], -r0, lsl #8
 2e4:	746c7561 	strbtvc	r7, [ip], #-1377	; 0xfffffa9f
 2e8:	6e61485f 	mcrvs	8, 3, r4, cr1, cr15, {2}
 2ec:	72656c64 	rsbvc	r6, r5, #100, 24	; 0x6400
 2f0:	4f545600 	svcmi	0x00545600
 2f4:	46440052 			; <UNDEFINED> instruction: 0x46440052
 2f8:	48005253 	stmdami	r0, {r0, r1, r4, r6, r9, ip, lr}
 2fc:	00525346 	subseq	r5, r2, r6, asr #6
 300:	45534552 	ldrbmi	r4, [r3, #-1362]	; 0xfffffaae
 304:	44455652 	strbmi	r5, [r5], #-1618	; 0xfffff9ae
 308:	45520033 	ldrbmi	r0, [r2, #-51]	; 0xffffffcd
 30c:	56524553 			; <UNDEFINED> instruction: 0x56524553
 310:	00344445 	eorseq	r4, r4, r5, asr #8
 314:	45534552 	ldrbmi	r4, [r3, #-1362]	; 0xfffffaae
 318:	44455652 	strbmi	r5, [r5], #-1618	; 0xfffff9ae
 31c:	46530035 			; <UNDEFINED> instruction: 0x46530035
 320:	66005241 	strvs	r5, [r0], -r1, asr #4
 324:	746c7561 	strbtvc	r7, [ip], #-1377	; 0xfffffa9f
 328:	7669645f 			; <UNDEFINED> instruction: 0x7669645f
 32c:	72657a5f 	rsbvc	r7, r5, #389120	; 0x5f000
 330:	72745f6f 	rsbsvc	r5, r4, #444	; 0x1bc
 334:	65676769 	strbvs	r6, [r7, #-1897]!	; 0xfffff897
 338:	43440072 	movtmi	r0, #16498	; 0x4072
 33c:	57534943 	ldrbpl	r4, [r3, -r3, asr #18]
 340:	6f682f00 	svcvs	0x00682f00
 344:	782f656d 	stmdavc	pc!, {r0, r2, r3, r5, r6, r8, sl, sp, lr}	; <UNPREDICTABLE>
 348:	632f7864 			; <UNDEFINED> instruction: 0x632f7864
 34c:	2f65646f 	svccs	0x0065646f
 350:	756d6571 	strbvc	r6, [sp, #-1393]!	; 0xfffffa8f
 354:	6d69732d 	stclvs	3, cr7, [r9, #-180]!	; 0xffffff4c
 358:	74616c75 	strbtvc	r6, [r1], #-3189	; 0xfffff38b
 35c:	622f726f 	eorvs	r7, pc, #-268435450	; 0xf0000006
 360:	6472616f 	ldrbtvs	r6, [r2], #-367	; 0xfffffe91
 364:	706d2f73 	rsbvc	r2, sp, r3, ror pc
 368:	612d3273 			; <UNDEFINED> instruction: 0x612d3273
 36c:	3530356e 	ldrcc	r3, [r0, #-1390]!	; 0xfffffa92
 370:	7261422f 	rsbvc	r4, r1, #-268435454	; 0xf0000002
 374:	74654d65 	strbtvc	r4, [r5], #-3429	; 0xfffff29b
 378:	52006c61 	andpl	r6, r0, #24832	; 0x6100
 37c:	52455345 	subpl	r5, r5, #335544321	; 0x14000001
 380:	37444556 	smlsldcc	r4, r4, r6, r5	; <UNPREDICTABLE>
 384:	494c4300 	stmdbmi	ip, {r8, r9, lr}^
 388:	63005244 	movwvs	r5, #580	; 0x244
 38c:	746e756f 	strbtvc	r7, [lr], #-1391	; 0xfffffa91
 390:	73657400 	cmnvc	r5, #0, 8
 394:	74003074 	strvc	r3, [r0], #-116	; 0xffffff8c
 398:	34747365 	ldrbtcc	r7, [r4], #-869	; 0xfffffc9b
 39c:	73657400 	cmnvc	r5, #0, 8
 3a0:	41003574 	tstmi	r0, r4, ror r5
 3a4:	00525346 	subseq	r5, r2, r6, asr #6
 3a8:	41495042 	cmpmi	r9, r2, asr #32
 3ac:	49004c4c 	stmdbmi	r0, {r2, r3, r6, sl, fp, lr}
 3b0:	46445f44 	strbmi	r5, [r4], -r4, asr #30
 3b4:	43490052 	movtmi	r0, #36946	; 0x9052
 3b8:	43005253 	movwmi	r5, #595	; 0x253
 3bc:	52434150 	subpl	r4, r3, #80, 2
 3c0:	52494100 	subpl	r4, r9, #0, 2
 3c4:	53005243 	movwpl	r5, #579	; 0x243
 3c8:	65747379 	ldrbvs	r7, [r4, #-889]!	; 0xfffffc87
 3cc:	726f436d 	rsbvc	r4, pc, #-1275068415	; 0xb4000001
 3d0:	6f6c4365 	svcvs	0x006c4365
 3d4:	70556b63 	subsvc	r6, r5, r3, ror #22
 3d8:	65746164 	ldrbvs	r6, [r4, #-356]!	; 0xfffffe9c
 3dc:	73795300 	cmnvc	r9, #0, 6
 3e0:	436d6574 	cmnmi	sp, #116, 10	; 0x1d000000
 3e4:	4365726f 	cmnmi	r5, #-268435450	; 0xf0000006
 3e8:	6b636f6c 	blvs	18dc1a0 <__RAM_SIZE+0x17dc1a0>
 3ec:	565f5f00 	ldrbpl	r5, [pc], -r0, lsl #30
 3f0:	6f746365 	svcvs	0x00746365
 3f4:	2e007372 	mcrcs	3, 0, r7, cr0, cr2, {3}
 3f8:	6174732f 	cmnvs	r4, pc, lsr #6
 3fc:	70757472 	rsbsvc	r7, r5, r2, ror r4
 400:	6363672f 	cmnvs	r3, #12320768	; 0xbc0000
 404:	7379732f 	cmnvc	r9, #-1140850688	; 0xbc000000
 408:	5f6d6574 	svcpl	0x006d6574
 40c:	434d5241 	movtmi	r5, #53825	; 0xd241
 410:	2e33334d 	cdpcs	3, 3, cr3, cr3, cr13, {2}
 414:	79530063 	ldmdbvc	r3, {r0, r1, r5, r6}^
 418:	6d657473 	cfstrdvs	mvd7, [r5, #-460]!	; 0xfffffe34
 41c:	74696e49 	strbtvc	r6, [r9], #-3657	; 0xfffff1b7
 420:	43455600 	movtmi	r5, #22016	; 0x5600
 424:	5f524f54 	svcpl	0x00524f54
 428:	4c424154 	stfmie	f4, [r2], {84}	; 0x54
 42c:	79545f45 	ldmdbvc	r4, {r0, r2, r6, r8, r9, sl, fp, ip, lr}^
 430:	70006570 	andvc	r6, r0, r0, ror r5
 434:	68637475 	stmdavs	r3!, {r0, r2, r4, r5, r6, sl, ip, sp, lr}^
 438:	5f007261 	svcpl	0x00007261
 43c:	6165615f 	cmnvs	r5, pc, asr r1
 440:	695f6962 	ldmdbvs	pc, {r1, r5, r6, r8, fp, sp, lr}^	; <UNPREDICTABLE>
 444:	70006432 	andvc	r6, r0, r2, lsr r4
 448:	3031776f 	eorscc	r7, r1, pc, ror #14
 44c:	70786500 	rsbsvc	r6, r8, r0, lsl #10
 450:	756f0032 	strbvc	r0, [pc, #-50]!	; 426 <__STACKSEAL_SIZE+0x426>
 454:	63665f74 	cmnvs	r6, #116, 30	; 0x1d0
 458:	72775f74 	rsbsvc	r5, r7, #116, 30	; 0x1d0
 45c:	65007061 	strvs	r7, [r0, #-97]	; 0xffffff9f
 460:	61767078 	cmnvs	r6, r8, ror r0
 464:	6f5f006c 	svcvs	0x005f006c
 468:	625f7475 	subsvs	r7, pc, #1962934272	; 0x75000000
 46c:	65666675 	strbvs	r6, [r6, #-1653]!	; 0xfffff98b
 470:	70760072 	rsbsvc	r0, r6, r2, ror r0
 474:	746e6972 	strbtvc	r6, [lr], #-2418	; 0xfffff68e
 478:	69730066 	ldmdbvs	r3!, {r1, r2, r5, r6}^
 47c:	745f657a 	ldrbvc	r6, [pc], #-1402	; 484 <__STACKSEAL_SIZE+0x484>
 480:	6e696d00 	cdpvs	13, 6, cr6, cr9, cr0, {0}
 484:	74646977 	strbtvc	r6, [r4], #-2423	; 0xfffff689
 488:	5f5f0068 	svcpl	0x005f0068
 48c:	62616561 	rsbvs	r6, r1, #406847488	; 0x18400000
 490:	64645f69 	strbtvs	r5, [r4], #-3945	; 0xfffff097
 494:	5f007669 	svcpl	0x00007669
 498:	616f7465 	cmnvs	pc, r5, ror #8
 49c:	756f5f00 	strbvc	r5, [pc, #-3840]!	; fffff5a4 <__StackTop+0xc7eff5a4>
 4a0:	68635f74 	stmdavs	r3!, {r2, r4, r5, r6, r8, r9, sl, fp, ip, lr}^
 4a4:	6d007261 	sfmvs	f7, 4, [r0, #-388]	; 0xfffffe7c
 4a8:	69737861 	ldmdbvs	r3!, {r0, r5, r6, fp, ip, sp, lr}^
 4ac:	7700657a 	smlsdxvc	r0, sl, r5, r6
 4b0:	656c6f68 	strbvs	r6, [ip, #-3944]!	; 0xfffff098
 4b4:	615f5f00 	cmpvs	pc, r0, lsl #30
 4b8:	69626165 	stmdbvs	r2!, {r0, r2, r5, r6, r8, sp, lr}^
 4bc:	6932645f 	ldmdbvs	r2!, {r0, r1, r2, r3, r4, r6, sl, sp, lr}
 4c0:	7266007a 	rsbvc	r0, r6, #122	; 0x7a
 4c4:	5f006361 	svcpl	0x00006361
 4c8:	5f74756f 	svcpl	0x0074756f
 4cc:	00746366 	rsbseq	r6, r4, r6, ror #6
 4d0:	65615f5f 	strbvs	r5, [r1, #-3935]!	; 0xfffff0a1
 4d4:	5f696261 	svcpl	0x00696261
 4d8:	69753264 	ldmdbvs	r5!, {r2, r5, r6, r9, ip, sp}^
 4dc:	7473007a 	ldrbtvc	r0, [r3], #-122	; 0xffffff86
 4e0:	5f747261 	svcpl	0x00747261
 4e4:	00786469 	rsbseq	r6, r8, r9, ror #8
 4e8:	70746366 	rsbsvc	r6, r4, r6, ror #6
 4ec:	746e6972 	strbtvc	r6, [lr], #-2418	; 0xfffff68e
 4f0:	656e0066 	strbvs	r0, [lr, #-102]!	; 0xffffff9a
 4f4:	69746167 	ldmdbvs	r4!, {r0, r1, r2, r5, r6, r8, sp, lr}^
 4f8:	5f006576 	svcpl	0x00006576
 4fc:	6165615f 	cmnvs	r5, pc, asr r1
 500:	645f6962 	ldrbvs	r6, [pc], #-2402	; 508 <__STACKSEAL_SIZE+0x508>
 504:	00646461 	rsbeq	r6, r4, r1, ror #8
 508:	61765f5f 	cmnvs	r6, pc, asr pc
 50c:	73696c5f 	cmnvc	r9, #24320	; 0x5f00
 510:	2e2e0074 	mcrcs	0, 1, r0, cr14, cr4, {3}
 514:	726f432f 	rsbvc	r4, pc, #-1140850688	; 0xbc000000
 518:	72532f65 	subsvc	r2, r3, #404	; 0x194
 51c:	72702f63 	rsbsvc	r2, r0, #396	; 0x18c
 520:	66746e69 	ldrbtvs	r6, [r4], -r9, ror #28
 524:	5f00632e 	svcpl	0x0000632e
 528:	616f746e 	cmnvs	pc, lr, ror #8
 52c:	726f665f 	rsbvc	r6, pc, #99614720	; 0x5f00000
 530:	0074616d 	rsbseq	r6, r4, sp, ror #2
 534:	6f74665f 	svcvs	0x0074665f
 538:	765f0061 	ldrbvc	r0, [pc], -r1, rrx
 53c:	72706e73 	rsbsvc	r6, r0, #1840	; 0x730
 540:	66746e69 	ldrbtvs	r6, [r4], -r9, ror #28
 544:	756f5f00 	strbvc	r5, [pc, #-3840]!	; fffff64c <__StackTop+0xc7eff64c>
 548:	756e5f74 	strbvc	r5, [lr, #-3956]!	; 0xfffff08c
 54c:	6f006c6c 	svcvs	0x00006c6c
 550:	665f7475 			; <UNDEFINED> instruction: 0x665f7475
 554:	745f7463 	ldrbvc	r7, [pc], #-1123	; 55c <__STACKSEAL_SIZE+0x55c>
 558:	00657079 	rsbeq	r7, r5, r9, ror r0
 55c:	65615f5f 	strbvs	r5, [r1, #-3935]!	; 0xfffff0a1
 560:	5f696261 	svcpl	0x00696261
 564:	706d6364 	rsbvc	r6, sp, r4, ror #6
 568:	5f006567 	svcpl	0x00006567
 56c:	616f746e 	cmnvs	pc, lr, ror #8
 570:	6e6f6c5f 	mcrvs	12, 3, r6, cr15, cr15, {2}
 574:	70730067 	rsbsvc	r0, r3, r7, rrx
 578:	746e6972 	strbtvc	r6, [lr], #-2418	; 0xfffff68e
 57c:	5f5f0066 	svcpl	0x005f0066
 580:	62616561 	rsbvs	r6, r1, #406847488	; 0x18400000
 584:	69755f69 	ldmdbvs	r5!, {r0, r3, r5, r6, r8, r9, sl, fp, ip, lr}^
 588:	66006432 			; <UNDEFINED> instruction: 0x66006432
 58c:	7367616c 	cmnvc	r7, #108, 2
 590:	615f5f00 	cmpvs	pc, r0, lsl #30
 594:	69626165 	stmdbvs	r2!, {r0, r2, r5, r6, r8, sp, lr}^
 598:	6d63645f 	cfstrdvs	mvd6, [r3, #-380]!	; 0xfffffe84
 59c:	00746770 	rsbseq	r6, r4, r0, ror r7
 5a0:	6c78616d 	ldfvse	f6, [r8], #-436	; 0xfffffe4c
 5a4:	5f006e65 	svcpl	0x00006e65
 5a8:	696f7461 	stmdbvs	pc!, {r0, r5, r6, sl, ip, sp, lr}^	; <UNPREDICTABLE>
 5ac:	74735f00 	ldrbtvc	r5, [r3], #-3840	; 0xfffff100
 5b0:	656c6e72 	strbvs	r6, [ip, #-3698]!	; 0xfffff18e
 5b4:	00735f6e 	rsbseq	r5, r3, lr, ror #30
 5b8:	70615f5f 	rsbvc	r5, r1, pc, asr pc
 5bc:	615f5f00 	cmpvs	pc, r0, lsl #30
 5c0:	69626165 	stmdbvs	r2!, {r0, r2, r5, r6, r8, sp, lr}^
 5c4:	756d645f 	strbvc	r6, [sp, #-1119]!	; 0xfffffba1
 5c8:	425f006c 	subsmi	r0, pc, #108	; 0x6c
 5cc:	006c6f6f 	rsbeq	r6, ip, pc, ror #30
 5d0:	69755f5f 	ldmdbvs	r5!, {r0, r1, r2, r3, r4, r6, r8, r9, sl, fp, ip, lr}^
 5d4:	3436746e 	ldrtcc	r7, [r6], #-1134	; 0xfffffb92
 5d8:	5f00745f 	svcpl	0x0000745f
 5dc:	645f7369 	ldrbvs	r7, [pc], #-873	; 5e4 <__STACKSEAL_SIZE+0x5e4>
 5e0:	74696769 	strbtvc	r6, [r9], #-1897	; 0xfffff897
 5e4:	6e6f6300 	cdpvs	3, 6, cr6, cr15, cr0, {0}
 5e8:	5f5f0076 	svcpl	0x005f0076
 5ec:	62616561 	rsbvs	r6, r1, #406847488	; 0x18400000
 5f0:	63645f69 	cmnvs	r4, #420	; 0x1a4
 5f4:	7165706d 	cmnvc	r5, sp, rrx
 5f8:	755f5f00 	ldrbvc	r5, [pc, #-3840]	; fffff700 <__StackTop+0xc7eff700>
 5fc:	70746e69 	rsbsvc	r6, r4, r9, ror #28
 600:	745f7274 	ldrbvc	r7, [pc], #-628	; 608 <__STACKSEAL_SIZE+0x608>
 604:	61686300 	cmnvs	r8, r0, lsl #6
 608:	74636172 	strbtvc	r6, [r3], #-370	; 0xfffffe8e
 60c:	5f007265 	svcpl	0x00007265
 610:	5f74756f 	svcpl	0x0074756f
 614:	00766572 	rsbseq	r6, r6, r2, ror r5
 618:	65615f5f 	strbvs	r5, [r1, #-3935]!	; 0xfffff0a1
 61c:	5f696261 	svcpl	0x00696261
 620:	62757364 	rsbsvs	r7, r5, #100, 6	; 0x90000001
 624:	615f5f00 	cmpvs	pc, r0, lsl #30
 628:	69626165 	stmdbvs	r2!, {r0, r2, r5, r6, r8, sp, lr}^
 62c:	646c755f 	strbtvs	r7, [ip], #-1375	; 0xfffffaa1
 630:	6f6d7669 	svcvs	0x006d7669
 634:	5f5f0064 	svcpl	0x005f0064
 638:	62616561 	rsbvs	r6, r1, #406847488	; 0x18400000
 63c:	63645f69 	cmnvs	r4, #420	; 0x1a4
 640:	656c706d 	strbvs	r7, [ip, #-109]!	; 0xffffff93
 644:	74756f00 	ldrbtvc	r6, [r5], #-3840	; 0xfffff100
 648:	7463665f 	strbtvc	r6, [r3], #-1631	; 0xfffff9a1
 64c:	6172775f 	cmnvs	r2, pc, asr r7
 650:	79745f70 	ldmdbvc	r4!, {r4, r5, r6, r8, r9, sl, fp, ip, lr}^
 654:	70006570 	andvc	r6, r0, r0, ror r5
 658:	00636572 	rsbeq	r6, r3, r2, ror r5
 65c:	64697766 	strbtvs	r7, [r9], #-1894	; 0xfffff89a
 660:	5f006874 	svcpl	0x00006874
 664:	756e675f 	strbvc	r6, [lr, #-1887]!	; 0xfffff8a1
 668:	61765f63 	cmnvs	r6, r3, ror #30
 66c:	73696c5f 	cmnvc	r9, #24320	; 0x5f00
 670:	5f5f0074 	svcpl	0x005f0074
 674:	62616561 	rsbvs	r6, r1, #406847488	; 0x18400000
 678:	63645f69 	cmnvs	r4, #420	; 0x1a4
 67c:	746c706d 	strbtvc	r7, [ip], #-109	; 0xffffff93
 680:	746e5f00 	strbtvc	r5, [lr], #-3840	; 0xfffff100
 684:	6c5f616f 	ldfvse	f6, [pc], {111}	; 0x6f
 688:	5f676e6f 	svcpl	0x00676e6f
 68c:	676e6f6c 	strbvs	r6, [lr, -ip, ror #30]!
 690:	5f736900 	svcpl	0x00736900
 694:	70006c6c 	andvc	r6, r0, ip, ror #24
 698:	69636572 	stmdbvs	r3!, {r1, r4, r5, r6, r8, sl, sp, lr}^
 69c:	6e6f6973 			; <UNDEFINED> instruction: 0x6e6f6973
 6a0:	66696400 	strbtvs	r6, [r9], -r0, lsl #8
 6a4:	2e2e0066 	cdpcs	0, 2, cr0, cr14, cr6, {3}
 6a8:	726f432f 	rsbvc	r4, pc, #-1140850688	; 0xbc000000
 6ac:	72532f65 	subsvc	r2, r3, #404	; 0x194
 6b0:	61752f63 	cmnvs	r5, r3, ror #30
 6b4:	632e7472 			; <UNDEFINED> instruction: 0x632e7472
 6b8:	72747300 	rsbsvc	r7, r4, #0, 6
 6bc:	00676e69 	rsbeq	r6, r7, r9, ror #28
 6c0:	74726175 	ldrbtvc	r6, [r2], #-373	; 0xfffffe8b
 6c4:	6365725f 	cmnvs	r5, #-268435451	; 0xf0000005
 6c8:	65670076 	strbvs	r0, [r7, #-118]!	; 0xffffff8a
 6cc:	61686374 	smcvs	34356	; 0x8634
 6d0:	6e690072 	mcrvs	0, 3, r0, cr9, cr2, {3}
 6d4:	00786564 	rsbseq	r6, r8, r4, ror #10
 6d8:	74726175 	ldrbtvc	r6, [r2], #-373	; 0xfffffe8b
 6dc:	6e65735f 	mcrvs	3, 3, r7, cr5, cr15, {2}
 6e0:	706f0064 	rsbvc	r0, pc, r4, rrx
 6e4:	65646f63 	strbvs	r6, [r4, #-3939]!	; 0xfffff09d
 6e8:	5f73695f 	svcpl	0x0073695f
 6ec:	6f5f6c62 	svcvs	0x005f6c62
 6f0:	6c625f72 	stclvs	15, cr5, [r2], #-456	; 0xfffffe38
 6f4:	74730078 	ldrbtvc	r0, [r3], #-120	; 0xffffff88
 6f8:	5f6b6361 	svcpl	0x006b6361
 6fc:	6d617266 	sfmvs	f7, 2, [r1, #-408]!	; 0xfffffe68
 700:	00745f65 	rsbseq	r5, r4, r5, ror #30
 704:	6d5f6466 	cfldrdvs	mvd6, [pc, #-408]	; 574 <__STACKSEAL_SIZE+0x574>
 708:	5f6e6961 	svcpl	0x006e6961
 70c:	63617473 	cmnvs	r1, #1929379840	; 0x73000000
 710:	75665f6b 	strbvc	r5, [r6, #-3947]!	; 0xfffff095
 714:	5f006c6c 	svcpl	0x00006c6c
 718:	6e69755f 	mcrvs	5, 3, r7, cr9, cr15, {2}
 71c:	5f363174 	svcpl	0x00363174
 720:	735f0074 	cmpvc	pc, #116	; 0x74
 724:	63617473 	cmnvs	r1, #1929379840	; 0x73000000
 728:	6166006b 	cmnvs	r6, fp, rrx
 72c:	5f746c75 	svcpl	0x00746c75
 730:	706d7564 	rsbvc	r7, sp, r4, ror #10
 734:	63706f5f 	cmnvs	r0, #380	; 0x17c
 738:	0065646f 	rsbeq	r6, r5, pc, ror #8
 73c:	7473655f 	ldrbtvc	r6, [r3], #-1375	; 0xfffffaa1
 740:	006b6361 	rsbeq	r6, fp, r1, ror #6
 744:	75736572 	ldrbvc	r6, [r3, #-1394]!	; 0xfffffa8e
 748:	6c00746c 	cfstrsvs	mvf7, [r0], {108}	; 0x6c
 74c:	656b6e69 	strbvs	r6, [fp, #-3689]!	; 0xfffff197
 750:	74730072 	ldrbtvc	r0, [r3], #-114	; 0xffffff8e
 754:	5f6b6361 	svcpl	0x006b6361
 758:	6d617266 	sfmvs	f7, 2, [r1, #-408]!	; 0xfffffe68
 75c:	616d5f65 	cmnvs	sp, r5, ror #30
 760:	6c61756e 	cfstr64vs	mvdx7, [r1], #-440	; 0xfffffe48
 764:	6f00745f 	svcvs	0x0000745f
 768:	646f6370 	strbtvs	r6, [pc], #-880	; 770 <__STACKSEAL_SIZE+0x770>
 76c:	6f003165 	svcvs	0x00003165
 770:	646f6370 	strbtvs	r6, [pc], #-880	; 778 <__STACKSEAL_SIZE+0x778>
 774:	73003265 	movwvc	r3, #613	; 0x265
 778:	6b636174 	blvs	18d8d50 <__RAM_SIZE+0x17d8d50>
 77c:	6172665f 	cmnvs	r2, pc, asr r6
 780:	6d5f656d 	cfldr64vs	mvdx6, [pc, #-436]	; 5d4 <__STACKSEAL_SIZE+0x5d4>
 784:	61756e61 	cmnvs	r5, r1, ror #28
 788:	7473006c 	ldrbtvc	r0, [r3], #-108	; 0xffffff94
 78c:	5f6b6361 	svcpl	0x006b6361
 790:	6d617266 	sfmvs	f7, 2, [r1, #-408]!	; 0xfffffe68
 794:	74730065 	ldrbtvc	r0, [r3], #-101	; 0xffffff9b
 798:	5f6b6361 	svcpl	0x006b6361
 79c:	6d617266 	sfmvs	f7, 2, [r1, #-408]!	; 0xfffffe68
 7a0:	78655f65 	stmdavc	r5!, {r0, r2, r5, r6, r8, r9, sl, fp, ip, lr}^
 7a4:	74706563 	ldrbtvc	r6, [r0], #-1379	; 0xfffffa9d
 7a8:	6600745f 			; <UNDEFINED> instruction: 0x6600745f
 7ac:	616d5f64 	cmnvs	sp, r4, ror #30
 7b0:	735f6e69 	cmpvc	pc, #1680	; 0x690
 7b4:	6b636174 	blvs	18d8d8c <__RAM_SIZE+0x17d8d8c>
 7b8:	7361625f 	cmnvc	r1, #-268435451	; 0xf0000005
 7bc:	2e2e0065 	cdpcs	0, 2, cr0, cr14, cr5, {3}
 7c0:	2f2e2e2f 	svccs	0x002e2e2f
 7c4:	6c2f2e2e 	stcvs	14, cr2, [pc], #-184	; 714 <__STACKSEAL_SIZE+0x714>
 7c8:	74756269 	ldrbtvc	r6, [r5], #-617	; 0xfffffd97
 7cc:	2f736c69 	svccs	0x00736c69
 7d0:	6c756166 	ldfvse	f6, [r5], #-408	; 0xfffffe68
 7d4:	75642d74 	strbvc	r2, [r4, #-3444]!	; 0xfffff28c
 7d8:	732f706d 			; <UNDEFINED> instruction: 0x732f706d
 7dc:	662f6372 			; <UNDEFINED> instruction: 0x662f6372
 7e0:	746c7561 	strbtvc	r7, [ip], #-1377	; 0xfffffa9f
 7e4:	6d75642d 	cfldrdvs	mvd6, [r5, #-180]!	; 0xffffff4c
 7e8:	00632e70 	rsbeq	r2, r3, r0, ror lr
 7ec:	6c756166 	ldfvse	f6, [r5], #-408	; 0xfffffe68
 7f0:	75645f74 	strbvc	r5, [r4, #-3956]!	; 0xfffff08c
 7f4:	685f706d 	ldmdavs	pc, {r0, r2, r3, r5, r6, ip, sp, lr}^	; <UNPREDICTABLE>
 7f8:	6c646e61 	stclvs	14, cr6, [r4], #-388	; 0xfffffe7c
 7fc:	66007265 	strvs	r7, [r0], -r5, ror #4
 800:	746c7561 	strbtvc	r7, [ip], #-1377	; 0xfffffa9f
 804:	6d75645f 	cfldrdvs	mvd6, [r5, #-380]!	; 0xfffffe84
 808:	78655f70 	stmdavc	r5!, {r4, r5, r6, r8, r9, sl, fp, ip, lr}^
 80c:	65725f63 	ldrbvs	r5, [r2, #-3939]!	; 0xfffff09d
 810:	6e727574 	mrcvs	5, 3, r7, cr2, cr4, {3}
 814:	74735f00 	ldrbtvc	r5, [r3], #-3840	; 0xfffff100
 818:	00747865 	rsbseq	r7, r4, r5, ror #16
 81c:	65675f5f 	strbvs	r5, [r7, #-3935]!	; 0xfffff0a1
 820:	534d5f74 	movtpl	r5, #57204	; 0xdf74
 824:	74730050 	ldrbtvc	r0, [r3], #-80	; 0xffffffb0
 828:	5f6b6361 	svcpl	0x006b6361
 82c:	6d617266 	sfmvs	f7, 2, [r1, #-408]!	; 0xfffffe68
 830:	78655f65 	stmdavc	r5!, {r0, r2, r5, r6, r8, r9, sl, fp, ip, lr}^
 834:	74706563 	ldrbtvc	r6, [r0], #-1379	; 0xfffffa9d
 838:	74655f00 	strbtvc	r5, [r5], #-3840	; 0xfffff100
 83c:	00747865 	rsbseq	r7, r4, r5, ror #16
 840:	2e2f2e2e 	cdpcs	14, 2, cr2, cr15, cr14, {1}
 844:	2e2e2f2e 	cdpcs	15, 2, cr2, cr14, cr14, {1}
 848:	62696c2f 	rsbvs	r6, r9, #12032	; 0x2f00
 84c:	6c697475 	cfstrdvs	mvd7, [r9], #-468	; 0xfffffe2c
 850:	61662f73 	smcvs	25331	; 0x62f3
 854:	2d746c75 	ldclcs	12, cr6, [r4, #-468]!	; 0xfffffe2c
 858:	706d7564 	rsbvc	r7, sp, r4, ror #10
 85c:	7570632f 	ldrbvc	r6, [r0, #-815]!	; 0xfffffcd1
 860:	726f632f 	rsbvc	r6, pc, #-1140850688	; 0xbc000000
 864:	2d786574 	cfldr64cs	mvdx6, [r8, #-464]!	; 0xfffffe30
 868:	2f33336d 	svccs	0x0033336d
 86c:	6c756166 	ldfvse	f6, [r5], #-408	; 0xfffffe68
 870:	61682d74 	smcvs	33492	; 0x82d4
 874:	00632e6c 	rsbeq	r2, r3, ip, ror #28
 878:	74732f2e 	ldrbtvc	r2, [r3], #-3886	; 0xfffff0d2
 87c:	75747261 	ldrbvc	r7, [r4, #-609]!	; 0xfffffd9f
 880:	63672f70 	cmnvs	r7, #112, 30	; 0x1c0
 884:	74732f63 	ldrbtvc	r2, [r3], #-3939	; 0xfffff09d
 888:	75747261 	ldrbvc	r7, [r4, #-609]!	; 0xfffffd9f
 88c:	52415f70 	subpl	r5, r1, #112, 30	; 0x1c0
 890:	334d434d 	movtcc	r4, #54093	; 0xd34d
 894:	00732e33 	rsbseq	r2, r3, r3, lsr lr
 898:	20554e47 	subscs	r4, r5, r7, asr #28
 89c:	32205341 	eorcc	r5, r0, #67108865	; 0x4000001
 8a0:	2e36332e 	cdpcs	3, 3, cr3, cr6, cr14, {1}
 8a4:	2e2e0031 	mcrcs	0, 1, r0, cr14, cr1, {1}
 8a8:	2f2e2e2f 	svccs	0x002e2e2f
 8ac:	6c2f2e2e 	stcvs	14, cr2, [pc], #-184	; 7fc <__Vectors_Size+0x3c>
 8b0:	74756269 	ldrbtvc	r6, [r5], #-617	; 0xfffffd97
 8b4:	2f736c69 	svccs	0x00736c69
 8b8:	6c756166 	ldfvse	f6, [r5], #-408	; 0xfffffe68
 8bc:	75642d74 	strbvc	r2, [r4, #-3444]!	; 0xfffff28c
 8c0:	632f706d 			; <UNDEFINED> instruction: 0x632f706d
 8c4:	632f7570 			; <UNDEFINED> instruction: 0x632f7570
 8c8:	6574726f 	ldrbvs	r7, [r4, #-623]!	; 0xfffffd91
 8cc:	336d2d78 	cmncc	sp, #120, 26	; 0x1e00
 8d0:	61662f33 	cmnvs	r6, r3, lsr pc
 8d4:	2d746c75 	ldclcs	12, cr6, [r4, #-468]!	; 0xfffffe2c
 8d8:	2e636367 	cdpcs	3, 6, cr6, cr3, cr7, {3}
 8dc:	Address 0x00000000000008dc is out of bounds.


Disassembly of section .debug_frame:

00000000 <.debug_frame>:
  SystemCoreClock = SYSTEM_CLOCK;
   0:	0000000c 	andeq	r0, r0, ip
   4:	ffffffff 			; <UNDEFINED> instruction: 0xffffffff
}
   8:	7c020001 	stcvc	0, cr0, [r2], {1}
   c:	000d0c0e 	andeq	r0, sp, lr, lsl #24
    printf("c = %d\r\n", c);
  10:	00000014 	andeq	r0, r0, r4, lsl r0
	...
}
  1c:	00000010 	andeq	r0, r0, r0, lsl r0
  20:	83080e41 	movwhi	r0, #36417	; 0x8e41
  24:	00018e02 	andeq	r8, r1, r2, lsl #28
  28:	00000014 	andeq	r0, r0, r4, lsl r0
	...
  34:	00000010 	andeq	r0, r0, r0, lsl r0
  38:	83080e41 	movwhi	r0, #36417	; 0x8e41
  3c:	00018e02 	andeq	r8, r1, r2, lsl #28
  40:	00000014 	andeq	r0, r0, r4, lsl r0
	...
  4c:	00000020 	andeq	r0, r0, r0, lsr #32
  50:	83080e41 	movwhi	r0, #36417	; 0x8e41
  54:	00018e02 	andeq	r8, r1, r2, lsl #28
  58:	0000001c 	andeq	r0, r0, ip, lsl r0
  5c:	00000000 	andeq	r0, r0, r0
  60:	10000800 	andne	r0, r0, r0, lsl #16
  64:	0000004c 	andeq	r0, r0, ip, asr #32
  68:	840c0e41 	strhi	r0, [ip], #-3649	; 0xfffff1bf
  6c:	8e028503 	cfsh32hi	mvfx8, mvfx2, #3
  70:	180e4101 	stmdane	lr, {r0, r8, lr}
  74:	000c0e5f 	andeq	r0, ip, pc, asr lr
  78:	0000001c 	andeq	r0, r0, ip, lsl r0
  7c:	00000000 	andeq	r0, r0, r0
  80:	1000084c 	andne	r0, r0, ip, asr #16
  84:	00000068 	andeq	r0, r0, r8, rrx
  88:	840c0e41 	strhi	r0, [ip], #-3649	; 0xfffff1bf
  8c:	8e028503 	cfsh32hi	mvfx8, mvfx2, #3
  90:	900e4101 	andls	r4, lr, r1, lsl #2
  94:	0c0e6902 			; <UNDEFINED> instruction: 0x0c0e6902
  98:	00000014 	andeq	r0, r0, r4, lsl r0
  9c:	00000000 	andeq	r0, r0, r0
  a0:	100008b4 			; <UNDEFINED> instruction: 0x100008b4
  a4:	0000001c 	andeq	r0, r0, ip, lsl r0
  a8:	83080e41 	movwhi	r0, #36417	; 0x8e41
  ac:	00018e02 	andeq	r8, r1, r2, lsl #28
  b0:	00000014 	andeq	r0, r0, r4, lsl r0
  b4:	00000000 	andeq	r0, r0, r0
  b8:	100008d0 	ldrdne	r0, [r0], -r0	; <UNPREDICTABLE>
  bc:	00000018 	andeq	r0, r0, r8, lsl r0
  c0:	83080e41 	movwhi	r0, #36417	; 0x8e41
  c4:	00018e02 	andeq	r8, r1, r2, lsl #28
  c8:	00000014 	andeq	r0, r0, r4, lsl r0
  cc:	00000000 	andeq	r0, r0, r0
  d0:	100008e8 	andne	r0, r0, r8, ror #17
  d4:	00000018 	andeq	r0, r0, r8, lsl r0
  d8:	83080e41 	movwhi	r0, #36417	; 0x8e41
  dc:	00018e02 	andeq	r8, r1, r2, lsl #28
  e0:	00000014 	andeq	r0, r0, r4, lsl r0
  e4:	00000000 	andeq	r0, r0, r0
  e8:	10000900 	andne	r0, r0, r0, lsl #18
  ec:	00000018 	andeq	r0, r0, r8, lsl r0
  f0:	83080e41 	movwhi	r0, #36417	; 0x8e41
  f4:	00018e02 	andeq	r8, r1, r2, lsl #28
  f8:	00000014 	andeq	r0, r0, r4, lsl r0
  fc:	00000000 	andeq	r0, r0, r0
 100:	10000918 	andne	r0, r0, r8, lsl r9
 104:	00000018 	andeq	r0, r0, r8, lsl r0
 108:	83080e41 	movwhi	r0, #36417	; 0x8e41
 10c:	00018e02 	andeq	r8, r1, r2, lsl #28
 110:	00000014 	andeq	r0, r0, r4, lsl r0
 114:	00000000 	andeq	r0, r0, r0
 118:	10000930 	andne	r0, r0, r0, lsr r9
 11c:	00000018 	andeq	r0, r0, r8, lsl r0
 120:	83080e41 	movwhi	r0, #36417	; 0x8e41
 124:	00018e02 	andeq	r8, r1, r2, lsl #28
 128:	00000014 	andeq	r0, r0, r4, lsl r0
 12c:	00000000 	andeq	r0, r0, r0
 130:	10000948 	andne	r0, r0, r8, asr #18
 134:	0000002c 	andeq	r0, r0, ip, lsr #32
 138:	84080e41 	strhi	r0, [r8], #-3649	; 0xfffff1bf
 13c:	00018e02 	andeq	r8, r1, r2, lsl #28
 140:	0000000c 	andeq	r0, r0, ip
 144:	ffffffff 			; <UNDEFINED> instruction: 0xffffffff
 148:	7c020001 	stcvc	0, cr0, [r2], {1}
 14c:	000d0c0e 	andeq	r0, sp, lr, lsl #24
 150:	0000000c 	andeq	r0, r0, ip
 154:	00000140 	andeq	r0, r0, r0, asr #2
 158:	00000000 	andeq	r0, r0, r0
 15c:	00000010 	andeq	r0, r0, r0, lsl r0
 160:	0000000c 	andeq	r0, r0, ip
 164:	00000140 	andeq	r0, r0, r0, asr #2
 168:	10000974 	andne	r0, r0, r4, ror r9
 16c:	0000002c 	andeq	r0, r0, ip, lsr #32
 170:	0000000c 	andeq	r0, r0, ip
 174:	ffffffff 			; <UNDEFINED> instruction: 0xffffffff
 178:	7c020001 	stcvc	0, cr0, [r2], {1}
 17c:	000d0c0e 	andeq	r0, sp, lr, lsl #24
 180:	0000000c 	andeq	r0, r0, ip
 184:	00000170 	andeq	r0, r0, r0, ror r1
 188:	00000000 	andeq	r0, r0, r0
 18c:	00000008 	andeq	r0, r0, r8
 190:	0000000c 	andeq	r0, r0, ip
 194:	00000170 	andeq	r0, r0, r0, ror r1
 198:	100009a0 	andne	r0, r0, r0, lsr #19
 19c:	00000002 	andeq	r0, r0, r2
 1a0:	00000018 	andeq	r0, r0, r8, lsl r0
 1a4:	00000170 	andeq	r0, r0, r0, ror r1
 1a8:	00000000 	andeq	r0, r0, r0
 1ac:	0000000e 	andeq	r0, r0, lr
 1b0:	83080e42 	movwhi	r0, #36418	; 0x8e42
 1b4:	44018e02 	strmi	r8, [r1], #-3586	; 0xfffff1fe
 1b8:	cec3000e 	cdpgt	0, 12, cr0, cr3, cr14, {0}
 1bc:	0000000c 	andeq	r0, r0, ip
 1c0:	00000170 	andeq	r0, r0, r0, ror r1
 1c4:	100009a2 	andne	r0, r0, r2, lsr #19
 1c8:	00000024 	andeq	r0, r0, r4, lsr #32
 1cc:	0000002c 	andeq	r0, r0, ip, lsr #32
 1d0:	00000170 	andeq	r0, r0, r0, ror r1
 1d4:	100009c6 	andne	r0, r0, r6, asr #19
 1d8:	0000007e 	andeq	r0, r0, lr, ror r0
 1dc:	84240e42 	strthi	r0, [r4], #-3650	; 0xfffff1be
 1e0:	86088509 	strhi	r8, [r8], -r9, lsl #10
 1e4:	88068707 	stmdahi	r6, {r0, r1, r2, r8, r9, sl, pc}
 1e8:	8a048905 	bhi	122604 <__RAM_SIZE+0x22604>
 1ec:	8e028b03 	vmlahi.f64	d8, d2, d3
 1f0:	300e4101 	andcc	r4, lr, r1, lsl #2
 1f4:	240e0a6f 	strcs	r0, [lr], #-2671	; 0xfffff591
 1f8:	00000b42 	andeq	r0, r0, r2, asr #22
 1fc:	00000028 	andeq	r0, r0, r8, lsr #32
 200:	00000170 	andeq	r0, r0, r0, ror r1
 204:	10000a44 	andne	r0, r0, r4, asr #20
 208:	00000138 	andeq	r0, r0, r8, lsr r1
 20c:	841c0e42 	ldrhi	r0, [ip], #-3650	; 0xfffff1be
 210:	86068507 	strhi	r8, [r6], -r7, lsl #10
 214:	88048705 	stmdahi	r4, {r0, r2, r8, r9, sl, pc}
 218:	8e028903 	vmlahi.f16	s16, s4, s6	; <UNPREDICTABLE>
 21c:	300e4101 	andcc	r4, lr, r1, lsl #2
 220:	0e0a5b02 	vmlaeq.f64	d5, d10, d2
 224:	000b421c 	andeq	r4, fp, ip, lsl r2
 228:	00000020 	andeq	r0, r0, r0, lsr #32
 22c:	00000170 	andeq	r0, r0, r0, ror r1
 230:	10000b7c 	andne	r0, r0, ip, ror fp
 234:	00000094 	muleq	r0, r4, r0
 238:	84140e41 	ldrhi	r0, [r4], #-3649	; 0xfffff1bf
 23c:	86048505 	strhi	r8, [r4], -r5, lsl #10
 240:	8e028703 	cdphi	7, 0, cr8, cr2, cr3, {0}
 244:	580e4101 	stmdapl	lr, {r0, r8, lr}
 248:	140e4702 	strne	r4, [lr], #-1794	; 0xfffff8fe
 24c:	00000028 	andeq	r0, r0, r8, lsr #32
 250:	00000170 	andeq	r0, r0, r0, ror r1
 254:	10000c10 	andne	r0, r0, r0, lsl ip
 258:	000000c6 	andeq	r0, r0, r6, asr #1
 25c:	84240e42 	strthi	r0, [r4], #-3650	; 0xfffff1be
 260:	86088509 	strhi	r8, [r8], -r9, lsl #10
 264:	88068707 	stmdahi	r6, {r0, r1, r2, r8, r9, sl, pc}
 268:	8a048905 	bhi	122684 <__RAM_SIZE+0x22684>
 26c:	8e028b03 	vmlahi.f64	d8, d2, d3
 270:	780e4101 	stmdavc	lr, {r0, r8, lr}
 274:	240e5e02 	strcs	r5, [lr], #-3586	; 0xfffff1fe
 278:	0000003c 	andeq	r0, r0, ip, lsr r0
 27c:	00000170 	andeq	r0, r0, r0, ror r1
 280:	10000cd8 	ldrdne	r0, [r0], -r8
 284:	000003ea 	andeq	r0, r0, sl, ror #7
 288:	84240e42 	strthi	r0, [r4], #-3650	; 0xfffff1be
 28c:	86088509 	strhi	r8, [r8], -r9, lsl #10
 290:	88068707 	stmdahi	r6, {r0, r1, r2, r8, r9, sl, pc}
 294:	8a048905 	bhi	1226b0 <__RAM_SIZE+0x226b0>
 298:	8e028b03 	vmlahi.f64	d8, d2, d3
 29c:	2c0e4201 	sfmcs	f4, 4, [lr], {1}
 2a0:	050b5005 	streq	r5, [fp, #-5]
 2a4:	0e410a51 			; <UNDEFINED> instruction: 0x0e410a51
 2a8:	01250370 			; <UNDEFINED> instruction: 0x01250370
 2ac:	422c0e0a 	eormi	r0, ip, #10, 28	; 0xa0
 2b0:	51065006 	tstpl	r6, r6
 2b4:	0b42240e 	bleq	10892f4 <__RAM_SIZE+0xf892f4>
 2b8:	00000040 	andeq	r0, r0, r0, asr #32
 2bc:	00000170 	andeq	r0, r0, r0, ror r1
 2c0:	100010c8 	andne	r1, r0, r8, asr #1
 2c4:	00000396 	muleq	r0, r6, r3
 2c8:	84240e42 	strthi	r0, [r4], #-3650	; 0xfffff1be
 2cc:	86088509 	strhi	r8, [r8], -r9, lsl #10
 2d0:	88068707 	stmdahi	r6, {r0, r1, r2, r8, r9, sl, pc}
 2d4:	8a048905 	bhi	1226f0 <__RAM_SIZE+0x226f0>
 2d8:	8e028b03 	vmlahi.f64	d8, d2, d3
 2dc:	2c0e4201 	sfmcs	f4, 4, [lr], {1}
 2e0:	050b5005 	streq	r5, [fp, #-5]
 2e4:	0e410a51 			; <UNDEFINED> instruction: 0x0e410a51
 2e8:	8d030180 	stfhis	f0, [r3, #-512]	; 0xfffffe00
 2ec:	2c0e0a01 			; <UNDEFINED> instruction: 0x2c0e0a01
 2f0:	06500642 	ldrbeq	r0, [r0], -r2, asr #12
 2f4:	42240e51 	eormi	r0, r4, #1296	; 0x510
 2f8:	0000000b 	andeq	r0, r0, fp
 2fc:	0000002c 	andeq	r0, r0, ip, lsr #32
 300:	00000170 	andeq	r0, r0, r0, ror r1
 304:	10001460 	andne	r1, r0, r0, ror #8
 308:	00000680 	andeq	r0, r0, r0, lsl #13
 30c:	84240e42 	strthi	r0, [r4], #-3650	; 0xfffff1be
 310:	86088509 	strhi	r8, [r8], -r9, lsl #10
 314:	88068707 	stmdahi	r6, {r0, r1, r2, r8, r9, sl, pc}
 318:	8a048905 	bhi	122734 <__RAM_SIZE+0x22734>
 31c:	8e028b03 	vmlahi.f64	d8, d2, d3
 320:	600e4101 	andvs	r4, lr, r1, lsl #2
 324:	0e033803 	cdpeq	8, 0, cr3, cr3, cr3, {0}
 328:	00000024 	andeq	r0, r0, r4, lsr #32
 32c:	00000014 	andeq	r0, r0, r4, lsl r0
 330:	00000170 	andeq	r0, r0, r0, ror r1
 334:	10001ae0 	andne	r1, r0, r0, ror #21
 338:	0000000c 	andeq	r0, r0, ip
 33c:	83080e43 	movwhi	r0, #36419	; 0x8e43
 340:	00018e02 	andeq	r8, r1, r2, lsl #28
 344:	00000030 	andeq	r0, r0, r0, lsr r0
 348:	00000170 	andeq	r0, r0, r0, ror r1
 34c:	10001aec 	andne	r1, r0, ip, ror #21
 350:	0000002c 	andeq	r0, r0, ip, lsr #32
 354:	80100e41 	andshi	r0, r0, r1, asr #28
 358:	82038104 	andhi	r8, r3, #4, 2
 35c:	41018302 	tstmi	r1, r2, lsl #6
 360:	058e140e 	streq	r1, [lr, #1038]	; 0x40e
 364:	4c280e41 	stcmi	14, cr0, [r8], #-260	; 0xfffffefc
 368:	ce42140e 	cdpgt	4, 4, cr1, cr2, cr14, {0}
 36c:	c341100e 	movtgt	r1, #4110	; 0x100e
 370:	0ec0c1c2 	acseqdm	f4, f2
 374:	00000000 	andeq	r0, r0, r0
 378:	0000002c 	andeq	r0, r0, ip, lsr #32
 37c:	00000170 	andeq	r0, r0, r0, ror r1
 380:	00000000 	andeq	r0, r0, r0
 384:	0000002c 	andeq	r0, r0, ip, lsr #32
 388:	810c0e41 	tsthi	ip, r1, asr #28
 38c:	83028203 	movwhi	r8, #8707	; 0x2203
 390:	100e4101 	andne	r4, lr, r1, lsl #2
 394:	0e41048e 	cdpeq	4, 4, cr0, cr1, cr14, {4}
 398:	100e4c20 	andne	r4, lr, r0, lsr #24
 39c:	0c0ece42 	stceq	14, cr12, [lr], {66}	; 0x42
 3a0:	c1c2c341 	bicgt	ip, r2, r1, asr #6
 3a4:	0000000e 	andeq	r0, r0, lr
 3a8:	0000002c 	andeq	r0, r0, ip, lsr #32
 3ac:	00000170 	andeq	r0, r0, r0, ror r1
 3b0:	00000000 	andeq	r0, r0, r0
 3b4:	00000028 	andeq	r0, r0, r8, lsr #32
 3b8:	82080e41 	andhi	r0, r8, #1040	; 0x410
 3bc:	41018302 	tstmi	r1, r2, lsl #6
 3c0:	0484100e 	streq	r1, [r4], #14
 3c4:	0e41038e 	cdpeq	3, 4, cr0, cr1, cr14, {4}
 3c8:	100e4b20 	andne	r4, lr, r0, lsr #22
 3cc:	0ec4ce42 	cdpeq	14, 12, cr12, cr4, cr2, {2}
 3d0:	c2c34108 	sbcgt	r4, r3, #8, 2
 3d4:	0000000e 	andeq	r0, r0, lr
 3d8:	00000018 	andeq	r0, r0, r8, lsl r0
 3dc:	00000170 	andeq	r0, r0, r0, ror r1
 3e0:	00000000 	andeq	r0, r0, r0
 3e4:	00000020 	andeq	r0, r0, r0, lsr #32
 3e8:	8e040e41 	cdphi	14, 0, cr0, cr4, cr1, {2}
 3ec:	180e4101 	stmdane	lr, {r0, r8, lr}
 3f0:	00040e49 	andeq	r0, r4, r9, asr #28
 3f4:	00000018 	andeq	r0, r0, r8, lsl r0
 3f8:	00000170 	andeq	r0, r0, r0, ror r1
 3fc:	00000000 	andeq	r0, r0, r0
 400:	0000001c 	andeq	r0, r0, ip, lsl r0
 404:	8e040e41 	cdphi	14, 0, cr0, cr4, cr1, {2}
 408:	100e4101 	andne	r4, lr, r1, lsl #2
 40c:	00040e48 	andeq	r0, r4, r8, asr #28
 410:	00000028 	andeq	r0, r0, r8, lsr #32
 414:	00000170 	andeq	r0, r0, r0, ror r1
 418:	00000000 	andeq	r0, r0, r0
 41c:	00000030 	andeq	r0, r0, r0, lsr r0
 420:	82080e41 	andhi	r0, r8, #1040	; 0x410
 424:	41018302 	tstmi	r1, r2, lsl #6
 428:	038e0c0e 	orreq	r0, lr, #3584	; 0xe00
 42c:	4e280e41 	cdpmi	14, 2, cr0, cr8, cr1, {2}
 430:	ce420c0e 	cdpgt	12, 4, cr0, cr2, cr14, {0}
 434:	c341080e 	movtgt	r0, #6158	; 0x180e
 438:	00000ec2 	andeq	r0, r0, r2, asr #29
 43c:	0000000c 	andeq	r0, r0, ip
 440:	ffffffff 			; <UNDEFINED> instruction: 0xffffffff
 444:	7c020001 	stcvc	0, cr0, [r2], {1}
 448:	000d0c0e 	andeq	r0, sp, lr, lsl #24
 44c:	0000000c 	andeq	r0, r0, ip
 450:	0000043c 	andeq	r0, r0, ip, lsr r4
 454:	10001b18 	andne	r1, r0, r8, lsl fp
 458:	00000014 	andeq	r0, r0, r4, lsl r0
 45c:	0000000c 	andeq	r0, r0, ip
 460:	0000043c 	andeq	r0, r0, ip, lsr r4
 464:	00000000 	andeq	r0, r0, r0
 468:	00000014 	andeq	r0, r0, r4, lsl r0
 46c:	00000018 	andeq	r0, r0, r8, lsl r0
 470:	0000043c 	andeq	r0, r0, ip, lsr r4
 474:	10001b2c 	andne	r1, r0, ip, lsr #22
 478:	0000001e 	andeq	r0, r0, lr, lsl r0
 47c:	83100e41 	tsthi	r0, #1040	; 0x410
 480:	85038404 	strhi	r8, [r3, #-1028]	; 0xfffffbfc
 484:	00018e02 	andeq	r8, r1, r2, lsl #28
 488:	0000000c 	andeq	r0, r0, ip
 48c:	0000043c 	andeq	r0, r0, ip, lsr r4
 490:	10001b4c 	andne	r1, r0, ip, asr #22
 494:	00000024 	andeq	r0, r0, r4, lsr #32
 498:	00000014 	andeq	r0, r0, r4, lsl r0
 49c:	0000043c 	andeq	r0, r0, ip, lsr r4
 4a0:	00000000 	andeq	r0, r0, r0
 4a4:	00000008 	andeq	r0, r0, r8
 4a8:	83080e41 	movwhi	r0, #36417	; 0x8e41
 4ac:	00018e02 	andeq	r8, r1, r2, lsl #28
 4b0:	00000018 	andeq	r0, r0, r8, lsl r0
 4b4:	0000043c 	andeq	r0, r0, ip, lsr r4
 4b8:	00000000 	andeq	r0, r0, r0
 4bc:	00000020 	andeq	r0, r0, r0, lsr #32
 4c0:	84100e41 	ldrhi	r0, [r0], #-3649	; 0xfffff1bf
 4c4:	86038504 	strhi	r8, [r3], -r4, lsl #10
 4c8:	00018e02 	andeq	r8, r1, r2, lsl #28
 4cc:	0000000c 	andeq	r0, r0, ip
 4d0:	ffffffff 			; <UNDEFINED> instruction: 0xffffffff
 4d4:	7c020001 	stcvc	0, cr0, [r2], {1}
 4d8:	000d0c0e 	andeq	r0, sp, lr, lsl #24
 4dc:	00000014 	andeq	r0, r0, r4, lsl r0
 4e0:	000004cc 	andeq	r0, r0, ip, asr #9
 4e4:	10001b70 	andne	r1, r0, r0, ror fp
 4e8:	0000002c 	andeq	r0, r0, ip, lsr #32
 4ec:	54080e41 	strpl	r0, [r8], #-3649	; 0xfffff1bf
 4f0:	0000000e 	andeq	r0, r0, lr
 4f4:	0000000c 	andeq	r0, r0, ip
 4f8:	000004cc 	andeq	r0, r0, ip, asr #9
 4fc:	10001b9c 	mulne	r0, ip, fp
 500:	00000036 	andeq	r0, r0, r6, lsr r0
 504:	00000014 	andeq	r0, r0, r4, lsl r0
 508:	000004cc 	andeq	r0, r0, ip, asr #9
 50c:	10001bd4 	ldrdne	r1, [r0], -r4
 510:	00000018 	andeq	r0, r0, r8, lsl r0
 514:	84080e41 	strhi	r0, [r8], #-3649	; 0xfffff1bf
 518:	00018e02 	andeq	r8, r1, r2, lsl #28
 51c:	00000014 	andeq	r0, r0, r4, lsl r0
 520:	000004cc 	andeq	r0, r0, ip, asr #9
 524:	10001bec 	andne	r1, r0, ip, ror #23
 528:	00000050 	andeq	r0, r0, r0, asr r0
 52c:	83080e41 	movwhi	r0, #36417	; 0x8e41
 530:	00018e02 	andeq	r8, r1, r2, lsl #28
 534:	00000020 	andeq	r0, r0, r0, lsr #32
 538:	000004cc 	andeq	r0, r0, ip, asr #9
 53c:	10001c3c 	andne	r1, r0, ip, lsr ip
 540:	0000007c 	andeq	r0, r0, ip, ror r0
 544:	83200e42 			; <UNDEFINED> instruction: 0x83200e42
 548:	85078408 	strhi	r8, [r7, #-1032]	; 0xfffffbf8
 54c:	87058606 	strhi	r8, [r5, -r6, lsl #12]
 550:	89038804 	stmdbhi	r3, {r2, fp, pc}
 554:	00018e02 	andeq	r8, r1, r2, lsl #28
 558:	0000001c 	andeq	r0, r0, ip, lsl r0
 55c:	000004cc 	andeq	r0, r0, ip, asr #9
 560:	10001cb8 			; <UNDEFINED> instruction: 0x10001cb8
 564:	00000184 	andeq	r0, r0, r4, lsl #3
 568:	83180e41 	tsthi	r8, #1040	; 0x410
 56c:	85058406 	strhi	r8, [r5, #-1030]	; 0xfffffbfa
 570:	87038604 	strhi	r8, [r3, -r4, lsl #12]
 574:	00018e02 	andeq	r8, r1, r2, lsl #28
 578:	0000000c 	andeq	r0, r0, ip
 57c:	000004cc 	andeq	r0, r0, ip, asr #9
 580:	10001e3c 	andne	r1, r0, ip, lsr lr
 584:	00000006 	andeq	r0, r0, r6
 588:	0000000c 	andeq	r0, r0, ip
 58c:	000004cc 	andeq	r0, r0, ip, asr #9
 590:	10001e44 	andne	r1, r0, r4, asr #28
 594:	00000008 	andeq	r0, r0, r8
 598:	0000000c 	andeq	r0, r0, ip
 59c:	ffffffff 			; <UNDEFINED> instruction: 0xffffffff
 5a0:	7c020001 	stcvc	0, cr0, [r2], {1}
 5a4:	000d0c0e 	andeq	r0, sp, lr, lsl #24
 5a8:	00000014 	andeq	r0, r0, r4, lsl r0
 5ac:	00000598 	muleq	r0, r8, r5
 5b0:	10001e4c 	andne	r1, r0, ip, asr #28
 5b4:	000000fc 	strdeq	r0, [r0], -ip
 5b8:	84080e41 	strhi	r0, [r8], #-3649	; 0xfffff1bf
 5bc:	00018e02 	andeq	r8, r1, r2, lsl #28
 5c0:	0000000c 	andeq	r0, r0, ip
 5c4:	ffffffff 			; <UNDEFINED> instruction: 0xffffffff
 5c8:	7c020001 	stcvc	0, cr0, [r2], {1}
 5cc:	000d0c0e 	andeq	r0, sp, lr, lsl #24
 5d0:	0000000c 	andeq	r0, r0, ip
 5d4:	000005c0 	andeq	r0, r0, r0, asr #11
 5d8:	10002020 	andne	r2, r0, r0, lsr #32
 5dc:	0000000c 	andeq	r0, r0, ip
 5e0:	0000000c 	andeq	r0, r0, ip
 5e4:	ffffffff 			; <UNDEFINED> instruction: 0xffffffff
 5e8:	7c020001 	stcvc	0, cr0, [r2], {1}
 5ec:	000d0c0e 	andeq	r0, sp, lr, lsl #24
 5f0:	00000018 	andeq	r0, r0, r8, lsl r0
 5f4:	000005e0 	andeq	r0, r0, r0, ror #11
 5f8:	1000202c 	andne	r2, r0, ip, lsr #32
 5fc:	000000a4 	andeq	r0, r0, r4, lsr #1
 600:	84100e41 	ldrhi	r0, [r0], #-3649	; 0xfffff1bf
 604:	86038504 	strhi	r8, [r3], -r4, lsl #10
 608:	00018e02 	andeq	r8, r1, r2, lsl #28
 60c:	0000000c 	andeq	r0, r0, ip
 610:	ffffffff 			; <UNDEFINED> instruction: 0xffffffff
 614:	7c020001 	stcvc	0, cr0, [r2], {1}
 618:	000d0c0e 	andeq	r0, sp, lr, lsl #24
 61c:	0000000c 	andeq	r0, r0, ip
 620:	0000060c 	andeq	r0, r0, ip, lsl #12
 624:	100020d0 	ldrdne	r2, [r0], -r0
 628:	00000014 	andeq	r0, r0, r4, lsl r0
 62c:	00000044 	andeq	r0, r0, r4, asr #32
 630:	0000060c 	andeq	r0, r0, ip, lsl #12
 634:	00000000 	andeq	r0, r0, r0
 638:	000000c8 	andeq	r0, r0, r8, asr #1
 63c:	83280e42 			; <UNDEFINED> instruction: 0x83280e42
 640:	8509840a 	strhi	r8, [r9, #-1034]	; 0xfffffbf6
 644:	87078608 	strhi	r8, [r7, -r8, lsl #12]
 648:	89058806 	stmdbhi	r5, {r1, r2, fp, pc}
 64c:	8b038a04 	blhi	e2e64 <__HEAP_SIZE+0xe1e64>
 650:	46018e02 	strmi	r8, [r1], -r2, lsl #28
 654:	5005300e 	andpl	r3, r5, lr
 658:	0b51050c 	bleq	1441a90 <__RAM_SIZE+0x1341a90>
 65c:	50060a60 	andpl	r0, r6, r0, ror #20
 660:	280e5106 	stmdacs	lr, {r1, r2, r8, ip, lr}
 664:	cacbce43 	bgt	ff2f3f78 <__StackTop+0xc71f3f78>
 668:	c6c7c8c9 	strbgt	ip, [r7], r9, asr #17
 66c:	0ec3c4c5 	cdpeq	4, 12, cr12, cr3, cr5, {6}
 670:	000b4200 	andeq	r4, fp, r0, lsl #4
 674:	0000000c 	andeq	r0, r0, ip
 678:	ffffffff 			; <UNDEFINED> instruction: 0xffffffff
 67c:	7c020001 	stcvc	0, cr0, [r2], {1}
 680:	000d0c0e 	andeq	r0, sp, lr, lsl #24
 684:	0000000c 	andeq	r0, r0, ip
 688:	00000674 	andeq	r0, r0, r4, ror r6
 68c:	100020e4 	andne	r2, r0, r4, ror #1
 690:	0000000c 	andeq	r0, r0, ip
 694:	0000000c 	andeq	r0, r0, ip
 698:	ffffffff 			; <UNDEFINED> instruction: 0xffffffff
 69c:	7c020001 	stcvc	0, cr0, [r2], {1}
 6a0:	000d0c0e 	andeq	r0, sp, lr, lsl #24
 6a4:	00000020 	andeq	r0, r0, r0, lsr #32
 6a8:	00000694 	muleq	r0, r4, r6
 6ac:	100020f0 	strdne	r2, [r0], -r0
 6b0:	0000002c 	andeq	r0, r0, ip, lsr #32
 6b4:	83100e41 	tsthi	r0, #1040	; 0x410
 6b8:	85038404 	strhi	r8, [r3, #-1028]	; 0xfffffbfc
 6bc:	4f018e02 	svcmi	0x00018e02
 6c0:	c3c4c5ce 	bicgt	ip, r4, #864026624	; 0x33800000
 6c4:	0000000e 	andeq	r0, r0, lr
 6c8:	0000000c 	andeq	r0, r0, ip
 6cc:	ffffffff 			; <UNDEFINED> instruction: 0xffffffff
 6d0:	7c020001 	stcvc	0, cr0, [r2], {1}
 6d4:	000d0c0e 	andeq	r0, sp, lr, lsl #24
 6d8:	0000000c 	andeq	r0, r0, ip
 6dc:	000006c8 	andeq	r0, r0, r8, asr #13
 6e0:	00000000 	andeq	r0, r0, r0
 6e4:	00000002 	andeq	r0, r0, r2
 6e8:	0000000c 	andeq	r0, r0, ip
 6ec:	000006c8 	andeq	r0, r0, r8, asr #13
 6f0:	00000000 	andeq	r0, r0, r0
 6f4:	00000002 	andeq	r0, r0, r2
 6f8:	0000000c 	andeq	r0, r0, ip
 6fc:	000006c8 	andeq	r0, r0, r8, asr #13
 700:	00000000 	andeq	r0, r0, r0
 704:	00000002 	andeq	r0, r0, r2
 708:	0000000c 	andeq	r0, r0, ip
 70c:	000006c8 	andeq	r0, r0, r8, asr #13
 710:	00000000 	andeq	r0, r0, r0
 714:	00000002 	andeq	r0, r0, r2
 718:	0000000c 	andeq	r0, r0, ip
 71c:	000006c8 	andeq	r0, r0, r8, asr #13
 720:	00000000 	andeq	r0, r0, r0
 724:	00000002 	andeq	r0, r0, r2
 728:	0000000c 	andeq	r0, r0, ip
 72c:	000006c8 	andeq	r0, r0, r8, asr #13
 730:	1000211c 	andne	r2, r0, ip, lsl r1
 734:	00000002 	andeq	r0, r0, r2
 738:	0000000c 	andeq	r0, r0, ip
 73c:	000006c8 	andeq	r0, r0, r8, asr #13
 740:	00000000 	andeq	r0, r0, r0
 744:	00000004 	andeq	r0, r0, r4
 748:	0000000c 	andeq	r0, r0, ip
 74c:	000006c8 	andeq	r0, r0, r8, asr #13
 750:	00000000 	andeq	r0, r0, r0
 754:	00000004 	andeq	r0, r0, r4
 758:	0000000c 	andeq	r0, r0, ip
 75c:	000006c8 	andeq	r0, r0, r8, asr #13
 760:	00000000 	andeq	r0, r0, r0
 764:	00000002 	andeq	r0, r0, r2
 768:	0000000c 	andeq	r0, r0, ip
 76c:	000006c8 	andeq	r0, r0, r8, asr #13
 770:	10002120 	andne	r2, r0, r0, lsr #2
 774:	00000002 	andeq	r0, r0, r2
 778:	0000000c 	andeq	r0, r0, ip
 77c:	ffffffff 			; <UNDEFINED> instruction: 0xffffffff
 780:	7c020001 	stcvc	0, cr0, [r2], {1}
 784:	000d0c0e 	andeq	r0, sp, lr, lsl #24
 788:	00000020 	andeq	r0, r0, r0, lsr #32
 78c:	00000778 	andeq	r0, r0, r8, ror r7
 790:	10002124 	andne	r2, r0, r4, lsr #2
 794:	00000090 	muleq	r0, r0, r0
 798:	84200e42 	strthi	r0, [r0], #-3650	; 0xfffff1be
 79c:	86078508 	strhi	r8, [r7], -r8, lsl #10
 7a0:	88058706 	stmdahi	r5, {r1, r2, r8, r9, sl, pc}
 7a4:	8a038904 	bhi	e2bbc <__HEAP_SIZE+0xe1bbc>
 7a8:	00018e02 	andeq	r8, r1, r2, lsl #28
 7ac:	0000000c 	andeq	r0, r0, ip
 7b0:	ffffffff 			; <UNDEFINED> instruction: 0xffffffff
 7b4:	7c020001 	stcvc	0, cr0, [r2], {1}
 7b8:	000d0c0e 	andeq	r0, sp, lr, lsl #24
 7bc:	0000001c 	andeq	r0, r0, ip, lsl r0
 7c0:	000007ac 	andeq	r0, r0, ip, lsr #15
 7c4:	100021b4 			; <UNDEFINED> instruction: 0x100021b4
 7c8:	00000282 	andeq	r0, r0, r2, lsl #5
 7cc:	0c0e470a 	stceq	7, cr4, [lr], {10}
 7d0:	02850384 	addeq	r0, r5, #132, 6	; 0x10000002
 7d4:	3a03018e 	bcc	c0e14 <__HEAP_SIZE+0xbfe14>
 7d8:	00000b01 	andeq	r0, r0, r1, lsl #22
 7dc:	00000018 	andeq	r0, r0, r8, lsl r0
 7e0:	000007ac 	andeq	r0, r0, ip, lsr #15
 7e4:	10002438 	andne	r2, r0, r8, lsr r4
 7e8:	0000001e 	andeq	r0, r0, lr, lsl r0
 7ec:	0c0e460a 	stceq	6, cr4, [lr], {10}
 7f0:	02850384 	addeq	r0, r5, #132, 6	; 0x10000002
 7f4:	0b49018e 	bleq	1240e34 <__RAM_SIZE+0x1140e34>
 7f8:	00000018 	andeq	r0, r0, r8, lsl r0
 7fc:	000007ac 	andeq	r0, r0, ip, lsr #15
 800:	10002458 	andne	r2, r0, r8, asr r4
 804:	00000022 	andeq	r0, r0, r2, lsr #32
 808:	0c0e460a 	stceq	6, cr4, [lr], {10}
 80c:	02850384 	addeq	r0, r5, #132, 6	; 0x10000002
 810:	0b4b018e 	bleq	12c0e50 <__RAM_SIZE+0x11c0e50>
 814:	00000018 	andeq	r0, r0, r8, lsl r0
 818:	000007ac 	andeq	r0, r0, ip, lsr #15
 81c:	1000247c 	andne	r2, r0, ip, ror r4
 820:	00000042 	andeq	r0, r0, r2, asr #32
 824:	0c0e5a0a 			; <UNDEFINED> instruction: 0x0c0e5a0a
 828:	02850384 	addeq	r0, r5, #132, 6	; 0x10000002
 82c:	0b47018e 	bleq	11c0e6c <__RAM_SIZE+0x10c0e6c>
 830:	00000024 	andeq	r0, r0, r4, lsr #32
 834:	000007ac 	andeq	r0, r0, ip, lsr #15
 838:	100024c0 	andne	r2, r0, r0, asr #9
 83c:	0000006a 	andeq	r0, r0, sl, rrx
 840:	0e450a0a 	vmlaeq.f32	s1, s10, s20
 844:	8503840c 	strhi	r8, [r3, #-1036]	; 0xfffffbf4
 848:	43018e02 	movwmi	r8, #7682	; 0x1e02
 84c:	0c0e450b 	cfstr32eq	mvfx4, [lr], {11}
 850:	02850384 	addeq	r0, r5, #132, 6	; 0x10000002
 854:	0b68018e 	bleq	1a00e94 <__RAM_SIZE+0x1900e94>
 858:	0000000c 	andeq	r0, r0, ip
 85c:	ffffffff 			; <UNDEFINED> instruction: 0xffffffff
 860:	7c020001 	stcvc	0, cr0, [r2], {1}
 864:	000d0c0e 	andeq	r0, sp, lr, lsl #24
 868:	0000001c 	andeq	r0, r0, ip, lsl r0
 86c:	00000858 	andeq	r0, r0, r8, asr r8
 870:	1000252c 	andne	r2, r0, ip, lsr #10
 874:	00000254 	andeq	r0, r0, r4, asr r2
 878:	100e410a 	andne	r4, lr, sl, lsl #2
 87c:	03850484 	orreq	r0, r5, #132, 8	; 0x84000000
 880:	018e0286 	orreq	r0, lr, r6, lsl #5
 884:	0b012903 	bleq	4ac98 <__HEAP_SIZE+0x49c98>
 888:	0000001c 	andeq	r0, r0, ip, lsl r0
 88c:	00000858 	andeq	r0, r0, r8, asr r8
 890:	10002780 	andne	r2, r0, r0, lsl #15
 894:	000001d0 	ldrdeq	r0, [r0], -r0	; <UNPREDICTABLE>
 898:	100e410a 	andne	r4, lr, sl, lsl #2
 89c:	03850484 	orreq	r0, r5, #132, 8	; 0x84000000
 8a0:	018e0286 	orreq	r0, lr, r6, lsl #5
 8a4:	000be702 	andeq	lr, fp, r2, lsl #14
 8a8:	0000000c 	andeq	r0, r0, ip
 8ac:	ffffffff 			; <UNDEFINED> instruction: 0xffffffff
 8b0:	7c020001 	stcvc	0, cr0, [r2], {1}
 8b4:	000d0c0e 	andeq	r0, sp, lr, lsl #24
 8b8:	0000001c 	andeq	r0, r0, ip, lsl r0
 8bc:	000008a8 	andeq	r0, r0, r8, lsr #17
 8c0:	10002950 	andne	r2, r0, r0, asr r9
 8c4:	0000008a 	andeq	r0, r0, sl, lsl #1
 8c8:	040e4c0a 	streq	r4, [lr], #-3082	; 0xfffff3f6
 8cc:	0e410a4a 	vmlseq.f32	s1, s2, s20
 8d0:	520b5b00 	andpl	r5, fp, #0, 22
 8d4:	0b41000e 	bleq	1040914 <__RAM_SIZE+0xf40914>
 8d8:	00000018 	andeq	r0, r0, r8, lsl r0
 8dc:	000008a8 	andeq	r0, r0, r8, lsr #17
 8e0:	100029dc 	ldrdne	r2, [r0], -ip
 8e4:	00000020 	andeq	r0, r0, r0, lsr #32
 8e8:	080e490a 	stmdaeq	lr, {r1, r3, r8, fp, lr}
 8ec:	018e0280 	orreq	r0, lr, r0, lsl #5
 8f0:	00000b47 	andeq	r0, r0, r7, asr #22
 8f4:	00000014 	andeq	r0, r0, r4, lsl r0
 8f8:	000008a8 	andeq	r0, r0, r8, lsr #17
 8fc:	100029fc 	strdne	r2, [r0], -ip
 900:	00000012 	andeq	r0, r0, r2, lsl r0
 904:	080e420a 	stmdaeq	lr, {r1, r3, r9, lr}
 908:	0b47028e 	bleq	11c1348 <__RAM_SIZE+0x10c1348>
 90c:	00000014 	andeq	r0, r0, r4, lsl r0
 910:	000008a8 	andeq	r0, r0, r8, lsr #17
 914:	10002a10 	andne	r2, r0, r0, lsl sl
 918:	00000012 	andeq	r0, r0, r2, lsl r0
 91c:	080e420a 	stmdaeq	lr, {r1, r3, r9, lr}
 920:	0b47028e 	bleq	11c1360 <__RAM_SIZE+0x10c1360>
 924:	00000014 	andeq	r0, r0, r4, lsl r0
 928:	000008a8 	andeq	r0, r0, r8, lsr #17
 92c:	10002a24 	andne	r2, r0, r4, lsr #20
 930:	00000012 	andeq	r0, r0, r2, lsl r0
 934:	080e420a 	stmdaeq	lr, {r1, r3, r9, lr}
 938:	0b47028e 	bleq	11c1378 <__RAM_SIZE+0x10c1378>
 93c:	00000014 	andeq	r0, r0, r4, lsl r0
 940:	000008a8 	andeq	r0, r0, r8, lsr #17
 944:	10002a38 	andne	r2, r0, r8, lsr sl
 948:	00000012 	andeq	r0, r0, r2, lsl r0
 94c:	080e420a 	stmdaeq	lr, {r1, r3, r9, lr}
 950:	0b47028e 	bleq	11c1390 <__RAM_SIZE+0x10c1390>
 954:	00000014 	andeq	r0, r0, r4, lsl r0
 958:	000008a8 	andeq	r0, r0, r8, lsr #17
 95c:	10002a4c 	andne	r2, r0, ip, asr #20
 960:	00000012 	andeq	r0, r0, r2, lsl r0
 964:	080e420a 	stmdaeq	lr, {r1, r3, r9, lr}
 968:	0b47028e 	bleq	11c13a8 <__RAM_SIZE+0x10c13a8>
 96c:	0000000c 	andeq	r0, r0, ip
 970:	ffffffff 			; <UNDEFINED> instruction: 0xffffffff
 974:	7c020001 	stcvc	0, cr0, [r2], {1}
 978:	000d0c0e 	andeq	r0, sp, lr, lsl #24
 97c:	00000010 	andeq	r0, r0, r0, lsl r0
 980:	0000096c 	andeq	r0, r0, ip, ror #18
 984:	10002a60 	andne	r2, r0, r0, ror #20
 988:	0000004e 	andeq	r0, r0, lr, asr #32
 98c:	000b670a 	andeq	r6, fp, sl, lsl #14
 990:	0000000c 	andeq	r0, r0, ip
 994:	ffffffff 			; <UNDEFINED> instruction: 0xffffffff
 998:	7c020001 	stcvc	0, cr0, [r2], {1}
 99c:	000d0c0e 	andeq	r0, sp, lr, lsl #24
 9a0:	00000010 	andeq	r0, r0, r0, lsl r0
 9a4:	00000990 	muleq	r0, r0, r9
 9a8:	10002ab0 			; <UNDEFINED> instruction: 0x10002ab0
 9ac:	00000040 	andeq	r0, r0, r0, asr #32
 9b0:	000b600a 	andeq	r6, fp, sl
 9b4:	0000000c 	andeq	r0, r0, ip
 9b8:	ffffffff 			; <UNDEFINED> instruction: 0xffffffff
 9bc:	7c020001 	stcvc	0, cr0, [r2], {1}
 9c0:	000d0c0e 	andeq	r0, sp, lr, lsl #24
 9c4:	00000018 	andeq	r0, r0, r8, lsl r0
 9c8:	000009b4 			; <UNDEFINED> instruction: 0x000009b4
 9cc:	10002af0 	strdne	r2, [r0], -r0
 9d0:	00000030 	andeq	r0, r0, r0, lsr r0
 9d4:	8e100e50 	mrchi	14, 0, r0, cr0, cr0, {2}
 9d8:	0ece4703 	cdpeq	7, 12, cr4, cr14, cr3, {0}
 9dc:	00000010 	andeq	r0, r0, r0, lsl r0
 9e0:	0000000c 	andeq	r0, r0, ip
 9e4:	ffffffff 			; <UNDEFINED> instruction: 0xffffffff
 9e8:	7c020001 	stcvc	0, cr0, [r2], {1}
 9ec:	000d0c0e 	andeq	r0, sp, lr, lsl #24
 9f0:	00000024 	andeq	r0, r0, r4, lsr #32
 9f4:	000009e0 	andeq	r0, r0, r0, ror #19
 9f8:	10002b20 	andne	r2, r0, r0, lsr #22
 9fc:	000002ec 	andeq	r0, r0, ip, ror #5
 a00:	84240e42 	strthi	r0, [r4], #-3650	; 0xfffff1be
 a04:	86088509 	strhi	r8, [r8], -r9, lsl #10
 a08:	88068707 	stmdahi	r6, {r0, r1, r2, r8, r9, sl, pc}
 a0c:	8a048905 	bhi	122e28 <__RAM_SIZE+0x22e28>
 a10:	8e028b03 	vmlahi.f64	d8, d2, d3
 a14:	00000001 	andeq	r0, r0, r1
 a18:	0000000c 	andeq	r0, r0, ip
 a1c:	ffffffff 			; <UNDEFINED> instruction: 0xffffffff
 a20:	7c020001 	stcvc	0, cr0, [r2], {1}
 a24:	000d0c0e 	andeq	r0, sp, lr, lsl #24
 a28:	0000000c 	andeq	r0, r0, ip
 a2c:	00000a18 	andeq	r0, r0, r8, lsl sl
 a30:	10002e0c 	andne	r2, r0, ip, lsl #28
 a34:	00000012 	andeq	r0, r0, r2, lsl r0
 a38:	00000020 	andeq	r0, r0, r0, lsr #32
 a3c:	00000a18 	andeq	r0, r0, r8, lsl sl
 a40:	10002e20 	andne	r2, r0, r0, lsr #28
 a44:	00000060 	andeq	r0, r0, r0, rrx
 a48:	84200e42 	strthi	r0, [r0], #-3650	; 0xfffff1be
 a4c:	86078508 	strhi	r8, [r7], -r8, lsl #10
 a50:	88058706 	stmdahi	r5, {r1, r2, r8, r9, sl, pc}
 a54:	8a038904 	bhi	e2e6c <__HEAP_SIZE+0xe1e6c>
 a58:	00018e02 	andeq	r8, r1, r2, lsl #28
 a5c:	0000000c 	andeq	r0, r0, ip
 a60:	00000a18 	andeq	r0, r0, r8, lsl sl
 a64:	10002e80 	andne	r2, r0, r0, lsl #29
 a68:	00000028 	andeq	r0, r0, r8, lsr #32
 a6c:	0000002c 	andeq	r0, r0, ip, lsr #32
 a70:	00000a18 	andeq	r0, r0, r8, lsl sl
 a74:	10002ea8 	andne	r2, r0, r8, lsr #29
 a78:	0000009c 	muleq	r0, ip, r0
 a7c:	840c0e42 	strhi	r0, [ip], #-3650	; 0xfffff1be
 a80:	8e028503 	cfsh32hi	mvfx8, mvfx2, #3
 a84:	180e4201 	stmdane	lr, {r0, r9, lr}
 a88:	0c0e0a65 			; <UNDEFINED> instruction: 0x0c0e0a65
 a8c:	0a440b41 	beq	1103798 <__RAM_SIZE+0x1003798>
 a90:	0b410c0e 	bleq	1043ad0 <__RAM_SIZE+0xf43ad0>
 a94:	0c0e0a50 			; <UNDEFINED> instruction: 0x0c0e0a50
 a98:	00000b41 	andeq	r0, r0, r1, asr #22
 a9c:	00000018 	andeq	r0, r0, r8, lsl r0
 aa0:	00000a18 	andeq	r0, r0, r8, lsl sl
 aa4:	10002f44 	andne	r2, r0, r4, asr #30
 aa8:	00000058 	andeq	r0, r0, r8, asr r0
 aac:	84080e43 	strhi	r0, [r8], #-3651	; 0xfffff1bd
 ab0:	67018e02 	strvs	r8, [r1, -r2, lsl #28]
 ab4:	000ec4ce 	andeq	ip, lr, lr, asr #9
 ab8:	0000000c 	andeq	r0, r0, ip
 abc:	00000a18 	andeq	r0, r0, r8, lsl sl
 ac0:	10002f9c 	mulne	r0, ip, pc	; <UNPREDICTABLE>
 ac4:	00000004 	andeq	r0, r0, r4
 ac8:	0000000c 	andeq	r0, r0, ip
 acc:	00000a18 	andeq	r0, r0, r8, lsl sl
 ad0:	10002fa0 	andne	r2, r0, r0, lsr #31
 ad4:	0000000a 	andeq	r0, r0, sl
 ad8:	0000000c 	andeq	r0, r0, ip
 adc:	00000a18 	andeq	r0, r0, r8, lsl sl
 ae0:	10002fac 	andne	r2, r0, ip, lsr #31
 ae4:	00000002 	andeq	r0, r0, r2
 ae8:	00000018 	andeq	r0, r0, r8, lsl r0
 aec:	00000a18 	andeq	r0, r0, r8, lsl sl
 af0:	10002fb0 			; <UNDEFINED> instruction: 0x10002fb0
 af4:	0000003e 	andeq	r0, r0, lr, lsr r0
 af8:	84100e41 	ldrhi	r0, [r0], #-3649	; 0xfffff1bf
 afc:	86038504 	strhi	r8, [r3], -r4, lsl #10
 b00:	00018e02 	andeq	r8, r1, r2, lsl #28
 b04:	0000002c 	andeq	r0, r0, ip, lsr #32
 b08:	00000a18 	andeq	r0, r0, r8, lsl sl
 b0c:	10002ff0 	strdne	r2, [r0], -r0
 b10:	000000da 	ldrdeq	r0, [r0], -sl
 b14:	84200e42 	strthi	r0, [r0], #-3650	; 0xfffff1be
 b18:	86078508 	strhi	r8, [r7], -r8, lsl #10
 b1c:	88058706 	stmdahi	r5, {r1, r2, r8, r9, sl, pc}
 b20:	8a038904 	bhi	e2f38 <__HEAP_SIZE+0xe1f38>
 b24:	44018e02 	strmi	r8, [r1], #-3586	; 0xfffff1fe
 b28:	0207f00e 	andeq	pc, r7, #14
 b2c:	200e0a5b 	andcs	r0, lr, fp, asr sl
 b30:	00000b42 	andeq	r0, r0, r2, asr #22
 b34:	0000000c 	andeq	r0, r0, ip
 b38:	00000a18 	andeq	r0, r0, r8, lsl sl
 b3c:	100030cc 	andne	r3, r0, ip, asr #1
 b40:	00000004 	andeq	r0, r0, r4
 b44:	00000024 	andeq	r0, r0, r4, lsr #32
 b48:	00000a18 	andeq	r0, r0, r8, lsl sl
 b4c:	100030d0 	ldrdne	r3, [r0], -r0
 b50:	00000066 	andeq	r0, r0, r6, rrx
 b54:	84140e41 	ldrhi	r0, [r4], #-3649	; 0xfffff1bf
 b58:	86048505 	strhi	r8, [r4], -r5, lsl #10
 b5c:	8e028703 	cdphi	7, 0, cr8, cr2, cr3, {0}
 b60:	f80e4201 			; <UNDEFINED> instruction: 0xf80e4201
 b64:	0e0a6603 	cfmadd32eq	mvax0, mvfx6, mvfx10, mvfx3
 b68:	000b4114 	andeq	r4, fp, r4, lsl r1
 b6c:	00000018 	andeq	r0, r0, r8, lsl r0
 b70:	00000a18 	andeq	r0, r0, r8, lsl sl
 b74:	10003138 	andne	r3, r0, r8, lsr r1
 b78:	00000012 	andeq	r0, r0, r2, lsl r0
 b7c:	84040e41 	strhi	r0, [r4], #-3649	; 0xfffff1bf
 b80:	0ec44701 	cdpeq	7, 12, cr4, cr4, cr1, {0}
 b84:	00000000 	andeq	r0, r0, r0
 b88:	00000018 	andeq	r0, r0, r8, lsl r0
 b8c:	00000a18 	andeq	r0, r0, r8, lsl sl
 b90:	1000314c 	andne	r3, r0, ip, asr #2
 b94:	00000044 	andeq	r0, r0, r4, asr #32
 b98:	84100e41 	ldrhi	r0, [r0], #-3649	; 0xfffff1bf
 b9c:	86038504 	strhi	r8, [r3], -r4, lsl #10
 ba0:	00018e02 	andeq	r8, r1, r2, lsl #28
 ba4:	0000000c 	andeq	r0, r0, ip
 ba8:	00000a18 	andeq	r0, r0, r8, lsl sl
 bac:	10003190 	mulne	r0, r0, r1
 bb0:	00000012 	andeq	r0, r0, r2, lsl r0
 bb4:	0000000c 	andeq	r0, r0, ip
 bb8:	00000a18 	andeq	r0, r0, r8, lsl sl
 bbc:	100031a4 	andne	r3, r0, r4, lsr #3
 bc0:	00000002 	andeq	r0, r0, r2
 bc4:	0000000c 	andeq	r0, r0, ip
 bc8:	00000a18 	andeq	r0, r0, r8, lsl sl
 bcc:	100031a8 	andne	r3, r0, r8, lsr #3
 bd0:	0000000c 	andeq	r0, r0, ip
 bd4:	0000000c 	andeq	r0, r0, ip
 bd8:	00000a18 	andeq	r0, r0, r8, lsl sl
 bdc:	100031b4 			; <UNDEFINED> instruction: 0x100031b4
 be0:	00000034 	andeq	r0, r0, r4, lsr r0
 be4:	0000001c 	andeq	r0, r0, ip, lsl r0
 be8:	00000a18 	andeq	r0, r0, r8, lsl sl
 bec:	100031e8 	andne	r3, r0, r8, ror #3
 bf0:	00000018 	andeq	r0, r0, r8, lsl r0
 bf4:	84080e41 	strhi	r0, [r8], #-3649	; 0xfffff1bf
 bf8:	41018e02 	tstmi	r1, r2, lsl #28
 bfc:	0e49180e 	cdpeq	8, 4, cr1, cr9, cr14, {0}
 c00:	00000008 	andeq	r0, r0, r8
 c04:	0000000c 	andeq	r0, r0, ip
 c08:	00000a18 	andeq	r0, r0, r8, lsl sl
 c0c:	10003200 	andne	r3, r0, r0, lsl #4
 c10:	00000034 	andeq	r0, r0, r4, lsr r0
 c14:	0000001c 	andeq	r0, r0, ip, lsl r0
 c18:	00000a18 	andeq	r0, r0, r8, lsl sl
 c1c:	10003234 	andne	r3, r0, r4, lsr r2
 c20:	00000018 	andeq	r0, r0, r8, lsl r0
 c24:	84080e41 	strhi	r0, [r8], #-3649	; 0xfffff1bf
 c28:	41018e02 	tstmi	r1, r2, lsl #28
 c2c:	0e49180e 	cdpeq	8, 4, cr1, cr9, cr14, {0}
 c30:	00000008 	andeq	r0, r0, r8
 c34:	00000020 	andeq	r0, r0, r0, lsr #32
 c38:	00000a18 	andeq	r0, r0, r8, lsl sl
 c3c:	1000324c 	andne	r3, r0, ip, asr #4
 c40:	0000007c 	andeq	r0, r0, ip, ror r0
 c44:	84140e41 	ldrhi	r0, [r4], #-3649	; 0xfffff1bf
 c48:	86048505 	strhi	r8, [r4], -r5, lsl #10
 c4c:	8e028703 	cdphi	7, 0, cr8, cr2, cr3, {0}
 c50:	d00e4301 	andle	r4, lr, r1, lsl #6
 c54:	140e7904 	strne	r7, [lr], #-2308	; 0xfffff6fc
 c58:	00000030 	andeq	r0, r0, r0, lsr r0
 c5c:	00000a18 	andeq	r0, r0, r8, lsl sl
 c60:	100032c8 	andne	r3, r0, r8, asr #5
 c64:	000002c8 	andeq	r0, r0, r8, asr #5
 c68:	84240e42 	strthi	r0, [r4], #-3650	; 0xfffff1be
 c6c:	86088509 	strhi	r8, [r8], -r9, lsl #10
 c70:	88068707 	stmdahi	r6, {r0, r1, r2, r8, r9, sl, pc}
 c74:	8a048905 	bhi	123090 <__RAM_SIZE+0x23090>
 c78:	8e028b03 	vmlahi.f64	d8, d2, d3
 c7c:	480e4201 	stmdami	lr, {r0, r9, lr}
 c80:	240e0a64 	strcs	r0, [lr], #-2660	; 0xfffff59c
 c84:	0a710b42 	beq	1c43994 <__RAM_SIZE+0x1b43994>
 c88:	0b42240e 	bleq	1089cc8 <__RAM_SIZE+0xf89cc8>
 c8c:	0000000c 	andeq	r0, r0, ip
 c90:	00000a18 	andeq	r0, r0, r8, lsl sl
 c94:	10003590 	mulne	r0, r0, r5
 c98:	00000004 	andeq	r0, r0, r4
 c9c:	0000000c 	andeq	r0, r0, ip
 ca0:	00000a18 	andeq	r0, r0, r8, lsl sl
 ca4:	10003594 	mulne	r0, r4, r5
 ca8:	00000004 	andeq	r0, r0, r4
 cac:	0000000c 	andeq	r0, r0, ip
 cb0:	00000a18 	andeq	r0, r0, r8, lsl sl
 cb4:	10003598 	mulne	r0, r8, r5
 cb8:	00000004 	andeq	r0, r0, r4
 cbc:	0000003c 	andeq	r0, r0, ip, lsr r0
 cc0:	00000a18 	andeq	r0, r0, r8, lsl sl
 cc4:	1000359c 	mulne	r0, ip, r5
 cc8:	000002b4 			; <UNDEFINED> instruction: 0x000002b4
 ccc:	841c0e42 	ldrhi	r0, [ip], #-3650	; 0xfffff1be
 cd0:	86068507 	strhi	r8, [r6], -r7, lsl #10
 cd4:	88048705 	stmdahi	r4, {r0, r2, r8, r9, sl, pc}
 cd8:	8e028903 	vmlahi.f16	s16, s4, s6	; <UNPREDICTABLE>
 cdc:	a80e4201 	stmdage	lr, {r0, r9, lr}
 ce0:	0e0a7102 	adfeqe	f7, f2, f2
 ce4:	6b0b421c 	blvs	2d155c <__RAM_SIZE+0x1d155c>
 ce8:	421c0e0a 	andsmi	r0, ip, #10, 28	; 0xa0
 cec:	0a48020b 	beq	1201520 <__RAM_SIZE+0x1101520>
 cf0:	0b421c0e 	bleq	1087d30 <__RAM_SIZE+0xf87d30>
 cf4:	1c0e0a5f 			; <UNDEFINED> instruction: 0x1c0e0a5f
 cf8:	00000b42 	andeq	r0, r0, r2, asr #22
 cfc:	0000000c 	andeq	r0, r0, ip
 d00:	ffffffff 			; <UNDEFINED> instruction: 0xffffffff
 d04:	7c020001 	stcvc	0, cr0, [r2], {1}
 d08:	000d0c0e 	andeq	r0, sp, lr, lsl #24
 d0c:	00000018 	andeq	r0, r0, r8, lsl r0
 d10:	00000cfc 	strdeq	r0, [r0], -ip
 d14:	100039fc 	strdne	r3, [r0], -ip
 d18:	0000003c 	andeq	r0, r0, ip, lsr r0
 d1c:	84040e4a 	strhi	r0, [r4], #-3658	; 0xfffff1b6
 d20:	0ec44901 	vdiveq.f16	s9, s8, s2	; <UNPREDICTABLE>
 d24:	00000000 	andeq	r0, r0, r0
 d28:	0000001c 	andeq	r0, r0, ip, lsl r0
 d2c:	00000cfc 	strdeq	r0, [r0], -ip
 d30:	10003a38 	andne	r3, r0, r8, lsr sl
 d34:	00000018 	andeq	r0, r0, r8, lsl r0
 d38:	84080e41 	strhi	r0, [r8], #-3649	; 0xfffff1bf
 d3c:	41018e02 	tstmi	r1, r2, lsl #28
 d40:	0e49180e 	cdpeq	8, 4, cr1, cr9, cr14, {0}
 d44:	00000008 	andeq	r0, r0, r8
 d48:	0000000c 	andeq	r0, r0, ip
 d4c:	00000cfc 	strdeq	r0, [r0], -ip
 d50:	10003a50 	andne	r3, r0, r0, asr sl
 d54:	00000002 	andeq	r0, r0, r2
 d58:	00000028 	andeq	r0, r0, r8, lsr #32
 d5c:	00000cfc 	strdeq	r0, [r0], -ip
 d60:	10003a54 	andne	r3, r0, r4, asr sl
 d64:	000002ca 	andeq	r0, r0, sl, asr #5
 d68:	841c0e42 	ldrhi	r0, [ip], #-3650	; 0xfffff1be
 d6c:	86068507 	strhi	r8, [r6], -r7, lsl #10
 d70:	88048705 	stmdahi	r4, {r0, r2, r8, r9, sl, pc}
 d74:	8e028903 	vmlahi.f16	s16, s4, s6	; <UNPREDICTABLE>
 d78:	300e4301 	andcc	r4, lr, r1, lsl #6
 d7c:	1c0e0a6a 			; <UNDEFINED> instruction: 0x1c0e0a6a
 d80:	00000b42 	andeq	r0, r0, r2, asr #22
 d84:	00000018 	andeq	r0, r0, r8, lsl r0
 d88:	00000cfc 	strdeq	r0, [r0], -ip
 d8c:	10003d20 	andne	r3, r0, r0, lsr #26
 d90:	00000030 	andeq	r0, r0, r0, lsr r0
 d94:	8e040e49 	cdphi	14, 0, cr0, cr4, cr9, {2}
 d98:	180e4101 	stmdane	lr, {r0, r8, lr}
 d9c:	00040e4c 	andeq	r0, r4, ip, asr #28
 da0:	00000014 	andeq	r0, r0, r4, lsl r0
 da4:	00000cfc 	strdeq	r0, [r0], -ip
 da8:	10003d50 	andne	r3, r0, r0, asr sp
 dac:	0000000a 	andeq	r0, r0, sl
 db0:	83080e41 	movwhi	r0, #36417	; 0x8e41
 db4:	00018e02 	andeq	r8, r1, r2, lsl #28
 db8:	00000014 	andeq	r0, r0, r4, lsl r0
 dbc:	00000cfc 	strdeq	r0, [r0], -ip
 dc0:	10003d5c 	andne	r3, r0, ip, asr sp
 dc4:	00000012 	andeq	r0, r0, r2, lsl r0
 dc8:	83080e41 	movwhi	r0, #36417	; 0x8e41
 dcc:	00018e02 	andeq	r8, r1, r2, lsl #28
 dd0:	00000014 	andeq	r0, r0, r4, lsl r0
 dd4:	00000cfc 	strdeq	r0, [r0], -ip
 dd8:	00000000 	andeq	r0, r0, r0
 ddc:	00000006 	andeq	r0, r0, r6
 de0:	83080e41 	movwhi	r0, #36417	; 0x8e41
 de4:	00018e02 	andeq	r8, r1, r2, lsl #28
 de8:	00000014 	andeq	r0, r0, r4, lsl r0
 dec:	00000cfc 	strdeq	r0, [r0], -ip
 df0:	00000000 	andeq	r0, r0, r0
 df4:	00000006 	andeq	r0, r0, r6
 df8:	83080e41 	movwhi	r0, #36417	; 0x8e41
 dfc:	00018e02 	andeq	r8, r1, r2, lsl #28
 e00:	0000000c 	andeq	r0, r0, ip
 e04:	ffffffff 			; <UNDEFINED> instruction: 0xffffffff
 e08:	7c020001 	stcvc	0, cr0, [r2], {1}
 e0c:	000d0c0e 	andeq	r0, sp, lr, lsl #24
 e10:	00000014 	andeq	r0, r0, r4, lsl r0
 e14:	00000e00 	andeq	r0, r0, r0, lsl #28
 e18:	10003d74 	andne	r3, r0, r4, ror sp
 e1c:	0000000e 	andeq	r0, r0, lr
 e20:	83080e42 	movwhi	r0, #36418	; 0x8e42
 e24:	00018e02 	andeq	r8, r1, r2, lsl #28
 e28:	0000000c 	andeq	r0, r0, ip
 e2c:	ffffffff 			; <UNDEFINED> instruction: 0xffffffff
 e30:	7c020001 	stcvc	0, cr0, [r2], {1}
 e34:	000d0c0e 	andeq	r0, sp, lr, lsl #24
 e38:	00000018 	andeq	r0, r0, r8, lsl r0
 e3c:	00000e28 	andeq	r0, r0, r8, lsr #28
 e40:	00000000 	andeq	r0, r0, r0
 e44:	00000030 	andeq	r0, r0, r0, lsr r0
 e48:	83100e41 	tsthi	r0, #1040	; 0x410
 e4c:	85038404 	strhi	r8, [r3, #-1028]	; 0xfffffbfc
 e50:	00018e02 	andeq	r8, r1, r2, lsl #28
 e54:	0000001c 	andeq	r0, r0, ip, lsl r0
 e58:	00000e28 	andeq	r0, r0, r8, lsr #28
 e5c:	00000000 	andeq	r0, r0, r0
 e60:	0000004c 	andeq	r0, r0, ip, asr #32
 e64:	83180e42 	tsthi	r8, #1056	; 0x420
 e68:	85058406 	strhi	r8, [r5, #-1030]	; 0xfffffbfa
 e6c:	87038604 	strhi	r8, [r3, -r4, lsl #12]
 e70:	00018e02 	andeq	r8, r1, r2, lsl #28
 e74:	00000024 	andeq	r0, r0, r4, lsr #32
 e78:	00000e28 	andeq	r0, r0, r8, lsr #28
 e7c:	00000000 	andeq	r0, r0, r0
 e80:	00000056 	andeq	r0, r0, r6, asr r0
 e84:	83100e42 	tsthi	r0, #1056	; 0x420
 e88:	85038404 	strhi	r8, [r3, #-1028]	; 0xfffffbfc
 e8c:	5c018e02 	stcpl	14, cr8, [r1], {2}
 e90:	c4c5ce0a 	strbgt	ip, [r5], #3594	; 0xe0a
 e94:	42000ec3 	andmi	r0, r0, #3120	; 0xc30
 e98:	0000000b 	andeq	r0, r0, fp
 e9c:	00000020 	andeq	r0, r0, r0, lsr #32
 ea0:	00000e28 	andeq	r0, r0, r8, lsr #28
 ea4:	00000000 	andeq	r0, r0, r0
 ea8:	00000064 	andeq	r0, r0, r4, rrx
 eac:	83100e45 	tsthi	r0, #1104	; 0x450
 eb0:	85038404 	strhi	r8, [r3, #-1028]	; 0xfffffbfc
 eb4:	6a018e02 	bvs	646c4 <__HEAP_SIZE+0x636c4>
 eb8:	c4c3000e 	strbgt	r0, [r3], #14
 ebc:	0000cec5 	andeq	ip, r0, r5, asr #29
 ec0:	00000024 	andeq	r0, r0, r4, lsr #32
 ec4:	00000e28 	andeq	r0, r0, r8, lsr #28
 ec8:	10003e70 	andne	r3, r0, r0, ror lr
 ecc:	0000005c 	andeq	r0, r0, ip, asr r0
 ed0:	83100e41 	tsthi	r0, #1040	; 0x410
 ed4:	85038404 	strhi	r8, [r3, #-1028]	; 0xfffffbfc
 ed8:	5d018e02 	stcpl	14, cr8, [r1, #-8]
 edc:	c4c5ce0a 	strbgt	ip, [r5], #3594	; 0xe0a
 ee0:	42000ec3 	andmi	r0, r0, #3120	; 0xc30
 ee4:	0000000b 	andeq	r0, r0, fp
 ee8:	00000018 	andeq	r0, r0, r8, lsl r0
 eec:	00000e28 	andeq	r0, r0, r8, lsr #28
 ef0:	00000000 	andeq	r0, r0, r0
 ef4:	00000054 	andeq	r0, r0, r4, asr r0
 ef8:	84100e43 	ldrhi	r0, [r0], #-3651	; 0xfffff1bd
 efc:	86038504 	strhi	r8, [r3], -r4, lsl #10
 f00:	00018e02 	andeq	r8, r1, r2, lsl #28
 f04:	00000018 	andeq	r0, r0, r8, lsl r0
 f08:	00000e28 	andeq	r0, r0, r8, lsr #28
 f0c:	00000000 	andeq	r0, r0, r0
 f10:	00000038 	andeq	r0, r0, r8, lsr r0
 f14:	83100e41 	tsthi	r0, #1040	; 0x410
 f18:	85038404 	strhi	r8, [r3, #-1028]	; 0xfffffbfc
 f1c:	00018e02 	andeq	r8, r1, r2, lsl #28
 f20:	00000018 	andeq	r0, r0, r8, lsl r0
 f24:	00000e28 	andeq	r0, r0, r8, lsr #28
 f28:	00000000 	andeq	r0, r0, r0
 f2c:	00000068 	andeq	r0, r0, r8, rrx
 f30:	83100e41 	tsthi	r0, #1040	; 0x410
 f34:	85038404 	strhi	r8, [r3, #-1028]	; 0xfffffbfc
 f38:	00018e02 	andeq	r8, r1, r2, lsl #28
 f3c:	0000000c 	andeq	r0, r0, ip
 f40:	ffffffff 			; <UNDEFINED> instruction: 0xffffffff
 f44:	7c020001 	stcvc	0, cr0, [r2], {1}
 f48:	000d0c0e 	andeq	r0, sp, lr, lsl #24
 f4c:	00000018 	andeq	r0, r0, r8, lsl r0
 f50:	00000f3c 	andeq	r0, r0, ip, lsr pc
 f54:	10003ecc 	andne	r3, r0, ip, asr #29
 f58:	0000002c 	andeq	r0, r0, ip, lsr #32
 f5c:	84100e41 	ldrhi	r0, [r0], #-3649	; 0xfffff1bf
 f60:	86038504 	strhi	r8, [r3], -r4, lsl #10
 f64:	00018e02 	andeq	r8, r1, r2, lsl #28
 f68:	0000000c 	andeq	r0, r0, ip
 f6c:	00000f3c 	andeq	r0, r0, ip, lsr pc
 f70:	10003ef8 	strdne	r3, [r0], -r8
 f74:	00000004 	andeq	r0, r0, r4
 f78:	0000000c 	andeq	r0, r0, ip
 f7c:	ffffffff 			; <UNDEFINED> instruction: 0xffffffff
 f80:	7c020001 	stcvc	0, cr0, [r2], {1}
 f84:	000d0c0e 	andeq	r0, sp, lr, lsl #24
 f88:	00000024 	andeq	r0, r0, r4, lsr #32
 f8c:	00000f78 	andeq	r0, r0, r8, ror pc
 f90:	00000000 	andeq	r0, r0, r0
 f94:	00000048 	andeq	r0, r0, r8, asr #32
 f98:	84180e42 	ldrhi	r0, [r8], #-3650	; 0xfffff1be
 f9c:	86058506 	strhi	r8, [r5], -r6, lsl #10
 fa0:	88038704 	stmdahi	r3, {r2, r8, r9, sl, pc}
 fa4:	60018e02 	andvs	r8, r1, r2, lsl #28
 fa8:	c6c7c8ce 	strbgt	ip, [r7], lr, asr #17
 fac:	000ec4c5 	andeq	ip, lr, r5, asr #9
 fb0:	00000028 	andeq	r0, r0, r8, lsr #32
 fb4:	00000f78 	andeq	r0, r0, r8, ror pc
 fb8:	00000000 	andeq	r0, r0, r0
 fbc:	00000090 	muleq	r0, r0, r0
 fc0:	84100e46 	ldrhi	r0, [r0], #-3654	; 0xfffff1ba
 fc4:	86038504 	strhi	r8, [r3], -r4, lsl #10
 fc8:	7c018e02 	stcvc	14, cr8, [r1], {2}
 fcc:	c5c6ce0a 	strbgt	ip, [r6, #3594]	; 0xe0a
 fd0:	42000ec4 	andmi	r0, r0, #196, 28	; 0xc40
 fd4:	000e410b 	andeq	r4, lr, fp, lsl #2
 fd8:	cec6c5c4 	cdpgt	5, 12, cr12, cr6, cr4, {6}
