
build/an505-qemu.elf:     file format elf32-littlearm


Disassembly of section .text:

10000000 <__Vectors>:
10000000:	38100000 	ldmdacc	r0, {}	; <UNPREDICTABLE>
10000004:	10001e25 	andne	r1, r0, r5, lsr #28
10000008:	10001e79 	andne	r1, r0, r9, ror lr
1000000c:	10001e95 	mulne	r0, r5, lr
10000010:	10001e79 	andne	r1, r0, r9, ror lr
10000014:	10001e79 	andne	r1, r0, r9, ror lr
10000018:	10001e79 	andne	r1, r0, r9, ror lr
1000001c:	10001e79 	andne	r1, r0, r9, ror lr
	...
1000002c:	10001e79 	andne	r1, r0, r9, ror lr
10000030:	10001e79 	andne	r1, r0, r9, ror lr
10000034:	00000000 	andeq	r0, r0, r0
10000038:	10001e79 	andne	r1, r0, r9, ror lr
1000003c:	10001e79 	andne	r1, r0, r9, ror lr
10000040:	10001e79 	andne	r1, r0, r9, ror lr
10000044:	10001e79 	andne	r1, r0, r9, ror lr
10000048:	10001e79 	andne	r1, r0, r9, ror lr
1000004c:	10001e79 	andne	r1, r0, r9, ror lr
10000050:	10001e79 	andne	r1, r0, r9, ror lr
10000054:	10001e79 	andne	r1, r0, r9, ror lr
10000058:	10001e79 	andne	r1, r0, r9, ror lr
1000005c:	10001e79 	andne	r1, r0, r9, ror lr
10000060:	10001e79 	andne	r1, r0, r9, ror lr
10000064:	10001e79 	andne	r1, r0, r9, ror lr
	...

100007c0 <__do_global_dtors_aux>:
100007c0:	b510      	push	{r4, lr}
100007c2:	4c05      	ldr	r4, [pc, #20]	; (100007d8 <__do_global_dtors_aux+0x18>)
100007c4:	7823      	ldrb	r3, [r4, #0]
100007c6:	b933      	cbnz	r3, 100007d6 <__do_global_dtors_aux+0x16>
100007c8:	4b04      	ldr	r3, [pc, #16]	; (100007dc <__do_global_dtors_aux+0x1c>)
100007ca:	b113      	cbz	r3, 100007d2 <__do_global_dtors_aux+0x12>
100007cc:	4804      	ldr	r0, [pc, #16]	; (100007e0 <__do_global_dtors_aux+0x20>)
100007ce:	e000      	b.n	100007d2 <__do_global_dtors_aux+0x12>
100007d0:	bf00      	nop
100007d2:	2301      	movs	r3, #1
100007d4:	7023      	strb	r3, [r4, #0]
100007d6:	bd10      	pop	{r4, pc}
100007d8:	38000070 	stmdacc	r0, {r4, r5, r6}
100007dc:	00000000 	andeq	r0, r0, r0
100007e0:	10003958 	andne	r3, r0, r8, asr r9

100007e4 <frame_dummy>:
100007e4:	b508      	push	{r3, lr}
100007e6:	4b03      	ldr	r3, [pc, #12]	; (100007f4 <frame_dummy+0x10>)
100007e8:	b11b      	cbz	r3, 100007f2 <frame_dummy+0xe>
100007ea:	4903      	ldr	r1, [pc, #12]	; (100007f8 <frame_dummy+0x14>)
100007ec:	4803      	ldr	r0, [pc, #12]	; (100007fc <frame_dummy+0x18>)
100007ee:	e000      	b.n	100007f2 <frame_dummy+0xe>
100007f0:	bf00      	nop
100007f2:	bd08      	pop	{r3, pc}
100007f4:	00000000 	andeq	r0, r0, r0
100007f8:	38000074 	stmdacc	r0, {r2, r4, r5, r6}
100007fc:	10003958 	andne	r3, r0, r8, asr r9

10000800 <__aeabi_unwind_cpp_pr0>:
10000800:	4770      	bx	lr
	...

10000804 <fault_unalign_trigger>:
10000804:	b530      	push	{r4, r5, lr}
10000806:	b083      	sub	sp, #12
10000808:	2400      	movs	r4, #0
1000080a:	9401      	str	r4, [sp, #4]
1000080c:	4a0e      	ldr	r2, [pc, #56]	; (10000848 <fault_unalign_trigger+0x44>)
1000080e:	6953      	ldr	r3, [r2, #20]
10000810:	f043 0308 	orr.w	r3, r3, #8
10000814:	6153      	str	r3, [r2, #20]
10000816:	6823      	ldr	r3, [r4, #0]
10000818:	9301      	str	r3, [sp, #4]
1000081a:	9a01      	ldr	r2, [sp, #4]
1000081c:	4d0b      	ldr	r5, [pc, #44]	; (1000084c <fault_unalign_trigger+0x48>)
1000081e:	4621      	mov	r1, r4
10000820:	4628      	mov	r0, r5
10000822:	f001 f967 	bl	10001af4 <printf>
10000826:	6863      	ldr	r3, [r4, #4]
10000828:	9301      	str	r3, [sp, #4]
1000082a:	9a01      	ldr	r2, [sp, #4]
1000082c:	2104      	movs	r1, #4
1000082e:	4628      	mov	r0, r5
10000830:	f001 f960 	bl	10001af4 <printf>
10000834:	f8d4 3003 	ldr.w	r3, [r4, #3]
10000838:	9301      	str	r3, [sp, #4]
1000083a:	9a01      	ldr	r2, [sp, #4]
1000083c:	2103      	movs	r1, #3
1000083e:	4628      	mov	r0, r5
10000840:	f001 f958 	bl	10001af4 <printf>
10000844:	b003      	add	sp, #12
10000846:	bd30      	pop	{r4, r5, pc}
10000848:	e000ed00 	and	lr, r0, r0, lsl #26
1000084c:	100035d4 	ldrdne	r3, [r0], -r4

10000850 <dump_callstack>:
10000850:	b530      	push	{r4, r5, lr}
10000852:	b0c1      	sub	sp, #260	; 0x104
10000854:	f44f 7280 	mov.w	r2, #256	; 0x100
10000858:	2100      	movs	r1, #0
1000085a:	4668      	mov	r0, sp
1000085c:	f001 fb3c 	bl	10001ed8 <memset>
10000860:	f001 fad8 	bl	10001e14 <fault_dump_bm_stack_point>
10000864:	4604      	mov	r4, r0
10000866:	f001 fad9 	bl	10001e1c <fault_dump_bm_stack_start>
1000086a:	4603      	mov	r3, r0
1000086c:	4622      	mov	r2, r4
1000086e:	2140      	movs	r1, #64	; 0x40
10000870:	4668      	mov	r0, sp
10000872:	f001 f9cb 	bl	10001c0c <fault_dump_callstack>
10000876:	1e05      	subs	r5, r0, #0
10000878:	db04      	blt.n	10000884 <dump_callstack+0x34>
1000087a:	480b      	ldr	r0, [pc, #44]	; (100008a8 <dump_callstack+0x58>)
1000087c:	f001 f93a 	bl	10001af4 <printf>
10000880:	2400      	movs	r4, #0
10000882:	e00a      	b.n	1000089a <dump_callstack+0x4a>
10000884:	4629      	mov	r1, r5
10000886:	4809      	ldr	r0, [pc, #36]	; (100008ac <dump_callstack+0x5c>)
10000888:	f001 f934 	bl	10001af4 <printf>
1000088c:	e00a      	b.n	100008a4 <dump_callstack+0x54>
1000088e:	f85d 1024 	ldr.w	r1, [sp, r4, lsl #2]
10000892:	4807      	ldr	r0, [pc, #28]	; (100008b0 <dump_callstack+0x60>)
10000894:	f001 f92e 	bl	10001af4 <printf>
10000898:	3401      	adds	r4, #1
1000089a:	42ac      	cmp	r4, r5
1000089c:	dbf7      	blt.n	1000088e <dump_callstack+0x3e>
1000089e:	4805      	ldr	r0, [pc, #20]	; (100008b4 <dump_callstack+0x64>)
100008a0:	f001 fb90 	bl	10001fc4 <puts>
100008a4:	b041      	add	sp, #260	; 0x104
100008a6:	bd30      	pop	{r4, r5, pc}
100008a8:	1000360c 	andne	r3, r0, ip, lsl #12
100008ac:	100035f0 	strdne	r3, [r0], -r0
100008b0:	1000361c 	andne	r3, r0, ip, lsl r6
100008b4:	10003624 	andne	r3, r0, r4, lsr #12

100008b8 <test0>:
100008b8:	b508      	push	{r3, lr}
100008ba:	4904      	ldr	r1, [pc, #16]	; (100008cc <test0+0x14>)
100008bc:	4804      	ldr	r0, [pc, #16]	; (100008d0 <test0+0x18>)
100008be:	f001 f919 	bl	10001af4 <printf>
100008c2:	f7ff ffc5 	bl	10000850 <dump_callstack>
100008c6:	f7ff ff9d 	bl	10000804 <fault_unalign_trigger>
100008ca:	bd08      	pop	{r3, pc}
100008cc:	1000367c 	andne	r3, r0, ip, ror r6
100008d0:	10003628 	andne	r3, r0, r8, lsr #12

100008d4 <test1>:
100008d4:	b508      	push	{r3, lr}
100008d6:	4903      	ldr	r1, [pc, #12]	; (100008e4 <test1+0x10>)
100008d8:	4803      	ldr	r0, [pc, #12]	; (100008e8 <test1+0x14>)
100008da:	f001 f90b 	bl	10001af4 <printf>
100008de:	f7ff ffeb 	bl	100008b8 <test0>
100008e2:	bd08      	pop	{r3, pc}
100008e4:	10003674 	andne	r3, r0, r4, ror r6
100008e8:	10003628 	andne	r3, r0, r8, lsr #12

100008ec <test2>:
100008ec:	b508      	push	{r3, lr}
100008ee:	4903      	ldr	r1, [pc, #12]	; (100008fc <test2+0x10>)
100008f0:	4803      	ldr	r0, [pc, #12]	; (10000900 <test2+0x14>)
100008f2:	f001 f8ff 	bl	10001af4 <printf>
100008f6:	f7ff ffed 	bl	100008d4 <test1>
100008fa:	bd08      	pop	{r3, pc}
100008fc:	1000366c 	andne	r3, r0, ip, ror #12
10000900:	10003628 	andne	r3, r0, r8, lsr #12

10000904 <test3>:
10000904:	b508      	push	{r3, lr}
10000906:	4903      	ldr	r1, [pc, #12]	; (10000914 <test3+0x10>)
10000908:	4803      	ldr	r0, [pc, #12]	; (10000918 <test3+0x14>)
1000090a:	f001 f8f3 	bl	10001af4 <printf>
1000090e:	f7ff ffed 	bl	100008ec <test2>
10000912:	bd08      	pop	{r3, pc}
10000914:	10003664 	andne	r3, r0, r4, ror #12
10000918:	10003628 	andne	r3, r0, r8, lsr #12

1000091c <test4>:
1000091c:	b508      	push	{r3, lr}
1000091e:	4903      	ldr	r1, [pc, #12]	; (1000092c <test4+0x10>)
10000920:	4803      	ldr	r0, [pc, #12]	; (10000930 <test4+0x14>)
10000922:	f001 f8e7 	bl	10001af4 <printf>
10000926:	f7ff ffed 	bl	10000904 <test3>
1000092a:	bd08      	pop	{r3, pc}
1000092c:	1000365c 	andne	r3, r0, ip, asr r6
10000930:	10003628 	andne	r3, r0, r8, lsr #12

10000934 <test5>:
10000934:	b508      	push	{r3, lr}
10000936:	4903      	ldr	r1, [pc, #12]	; (10000944 <test5+0x10>)
10000938:	4803      	ldr	r0, [pc, #12]	; (10000948 <test5+0x14>)
1000093a:	f001 f8db 	bl	10001af4 <printf>
1000093e:	f7ff ffed 	bl	1000091c <test4>
10000942:	bd08      	pop	{r3, pc}
10000944:	10003654 	andne	r3, r0, r4, asr r6
10000948:	10003628 	andne	r3, r0, r8, lsr #12

1000094c <main>:
1000094c:	b510      	push	{r4, lr}
1000094e:	f001 f8f1 	bl	10001b34 <uart_init>
10000952:	4807      	ldr	r0, [pc, #28]	; (10000970 <main+0x24>)
10000954:	f001 fb36 	bl	10001fc4 <puts>
10000958:	f001 f930 	bl	10001bbc <fault_dump_init>
1000095c:	f7ff ffea 	bl	10000934 <test5>
10000960:	2100      	movs	r1, #0
10000962:	bf00      	nop
10000964:	1c4c      	adds	r4, r1, #1
10000966:	4803      	ldr	r0, [pc, #12]	; (10000974 <main+0x28>)
10000968:	f001 f8c4 	bl	10001af4 <printf>
1000096c:	4621      	mov	r1, r4
1000096e:	e7f8      	b.n	10000962 <main+0x16>
10000970:	10003638 	andne	r3, r0, r8, lsr r6
10000974:	10003640 	andne	r3, r0, r0, asr #12

10000978 <SystemInit>:
10000978:	4b06      	ldr	r3, [pc, #24]	; (10000994 <SystemInit+0x1c>)
1000097a:	4a07      	ldr	r2, [pc, #28]	; (10000998 <SystemInit+0x20>)
1000097c:	609a      	str	r2, [r3, #8]
1000097e:	f8d3 2088 	ldr.w	r2, [r3, #136]	; 0x88
10000982:	f442 0270 	orr.w	r2, r2, #15728640	; 0xf00000
10000986:	f8c3 2088 	str.w	r2, [r3, #136]	; 0x88
1000098a:	4b04      	ldr	r3, [pc, #16]	; (1000099c <SystemInit+0x24>)
1000098c:	4a04      	ldr	r2, [pc, #16]	; (100009a0 <SystemInit+0x28>)
1000098e:	601a      	str	r2, [r3, #0]
10000990:	4770      	bx	lr
10000992:	bf00      	nop
10000994:	e000ed00 	and	lr, r0, r0, lsl #26
10000998:	10000000 	andne	r0, r0, r0
1000099c:	38000000 	stmdacc	r0, {}	; <UNPREDICTABLE>
100009a0:	017d7840 	cmneq	sp, r0, asr #16

100009a4 <_out_null>:
100009a4:	4770      	bx	lr

100009a6 <_atoi>:
100009a6:	4601      	mov	r1, r0
100009a8:	2000      	movs	r0, #0
100009aa:	e007      	b.n	100009bc <_atoi+0x16>
100009ac:	eb00 0080 	add.w	r0, r0, r0, lsl #2
100009b0:	1c53      	adds	r3, r2, #1
100009b2:	600b      	str	r3, [r1, #0]
100009b4:	7813      	ldrb	r3, [r2, #0]
100009b6:	eb03 0040 	add.w	r0, r3, r0, lsl #1
100009ba:	3830      	subs	r0, #48	; 0x30
100009bc:	680a      	ldr	r2, [r1, #0]
100009be:	7813      	ldrb	r3, [r2, #0]
100009c0:	3b30      	subs	r3, #48	; 0x30
100009c2:	b2db      	uxtb	r3, r3
100009c4:	2b09      	cmp	r3, #9
100009c6:	d9f1      	bls.n	100009ac <_atoi+0x6>
100009c8:	4770      	bx	lr

100009ca <_out_rev>:
100009ca:	e92d 4ff0 	stmdb	sp!, {r4, r5, r6, r7, r8, r9, sl, fp, lr}
100009ce:	b083      	sub	sp, #12
100009d0:	4605      	mov	r5, r0
100009d2:	460e      	mov	r6, r1
100009d4:	4693      	mov	fp, r2
100009d6:	461f      	mov	r7, r3
100009d8:	f8dd a030 	ldr.w	sl, [sp, #48]	; 0x30
100009dc:	9c0d      	ldr	r4, [sp, #52]	; 0x34
100009de:	f8dd 9038 	ldr.w	r9, [sp, #56]	; 0x38
100009e2:	9b0f      	ldr	r3, [sp, #60]	; 0x3c
100009e4:	f013 0f03 	tst.w	r3, #3
100009e8:	d119      	bne.n	10000a1e <_out_rev+0x54>
100009ea:	46a0      	mov	r8, r4
100009ec:	9201      	str	r2, [sp, #4]
100009ee:	45c8      	cmp	r8, r9
100009f0:	d209      	bcs.n	10000a06 <_out_rev+0x3c>
100009f2:	f102 0b01 	add.w	fp, r2, #1
100009f6:	463b      	mov	r3, r7
100009f8:	4631      	mov	r1, r6
100009fa:	2020      	movs	r0, #32
100009fc:	47a8      	blx	r5
100009fe:	f108 0801 	add.w	r8, r8, #1
10000a02:	465a      	mov	r2, fp
10000a04:	e7f3      	b.n	100009ee <_out_rev+0x24>
10000a06:	f8dd b004 	ldr.w	fp, [sp, #4]
10000a0a:	e008      	b.n	10000a1e <_out_rev+0x54>
10000a0c:	3c01      	subs	r4, #1
10000a0e:	f102 0801 	add.w	r8, r2, #1
10000a12:	463b      	mov	r3, r7
10000a14:	4631      	mov	r1, r6
10000a16:	f81a 0004 	ldrb.w	r0, [sl, r4]
10000a1a:	47a8      	blx	r5
10000a1c:	4642      	mov	r2, r8
10000a1e:	2c00      	cmp	r4, #0
10000a20:	d1f4      	bne.n	10000a0c <_out_rev+0x42>
10000a22:	9b0f      	ldr	r3, [sp, #60]	; 0x3c
10000a24:	f013 0f02 	tst.w	r3, #2
10000a28:	d103      	bne.n	10000a32 <_out_rev+0x68>
10000a2a:	4610      	mov	r0, r2
10000a2c:	b003      	add	sp, #12
10000a2e:	e8bd 8ff0 	ldmia.w	sp!, {r4, r5, r6, r7, r8, r9, sl, fp, pc}
10000a32:	eba2 030b 	sub.w	r3, r2, fp
10000a36:	454b      	cmp	r3, r9
10000a38:	d2f7      	bcs.n	10000a2a <_out_rev+0x60>
10000a3a:	1c54      	adds	r4, r2, #1
10000a3c:	463b      	mov	r3, r7
10000a3e:	4631      	mov	r1, r6
10000a40:	2020      	movs	r0, #32
10000a42:	47a8      	blx	r5
10000a44:	4622      	mov	r2, r4
10000a46:	e7f4      	b.n	10000a32 <_out_rev+0x68>

10000a48 <_ntoa_format>:
10000a48:	e92d 43f0 	stmdb	sp!, {r4, r5, r6, r7, r8, r9, lr}
10000a4c:	b085      	sub	sp, #20
10000a4e:	9d0c      	ldr	r5, [sp, #48]	; 0x30
10000a50:	9c0d      	ldr	r4, [sp, #52]	; 0x34
10000a52:	f89d 9038 	ldrb.w	r9, [sp, #56]	; 0x38
10000a56:	f8dd 803c 	ldr.w	r8, [sp, #60]	; 0x3c
10000a5a:	f8dd e040 	ldr.w	lr, [sp, #64]	; 0x40
10000a5e:	9f11      	ldr	r7, [sp, #68]	; 0x44
10000a60:	9e12      	ldr	r6, [sp, #72]	; 0x48
10000a62:	f016 0f02 	tst.w	r6, #2
10000a66:	d121      	bne.n	10000aac <_ntoa_format+0x64>
10000a68:	b17f      	cbz	r7, 10000a8a <_ntoa_format+0x42>
10000a6a:	f016 0f01 	tst.w	r6, #1
10000a6e:	d00c      	beq.n	10000a8a <_ntoa_format+0x42>
10000a70:	f1b9 0f00 	cmp.w	r9, #0
10000a74:	d102      	bne.n	10000a7c <_ntoa_format+0x34>
10000a76:	f016 0f0c 	tst.w	r6, #12
10000a7a:	d006      	beq.n	10000a8a <_ntoa_format+0x42>
10000a7c:	3f01      	subs	r7, #1
10000a7e:	e004      	b.n	10000a8a <_ntoa_format+0x42>
10000a80:	f04f 0c30 	mov.w	ip, #48	; 0x30
10000a84:	f805 c004 	strb.w	ip, [r5, r4]
10000a88:	3401      	adds	r4, #1
10000a8a:	4574      	cmp	r4, lr
10000a8c:	d201      	bcs.n	10000a92 <_ntoa_format+0x4a>
10000a8e:	2c1f      	cmp	r4, #31
10000a90:	d9f6      	bls.n	10000a80 <_ntoa_format+0x38>
10000a92:	f016 0f01 	tst.w	r6, #1
10000a96:	d009      	beq.n	10000aac <_ntoa_format+0x64>
10000a98:	42bc      	cmp	r4, r7
10000a9a:	d207      	bcs.n	10000aac <_ntoa_format+0x64>
10000a9c:	2c1f      	cmp	r4, #31
10000a9e:	d805      	bhi.n	10000aac <_ntoa_format+0x64>
10000aa0:	f04f 0c30 	mov.w	ip, #48	; 0x30
10000aa4:	f805 c004 	strb.w	ip, [r5, r4]
10000aa8:	3401      	adds	r4, #1
10000aaa:	e7f2      	b.n	10000a92 <_ntoa_format+0x4a>
10000aac:	f016 0f10 	tst.w	r6, #16
10000ab0:	d017      	beq.n	10000ae2 <_ntoa_format+0x9a>
10000ab2:	f416 6f80 	tst.w	r6, #1024	; 0x400
10000ab6:	d104      	bne.n	10000ac2 <_ntoa_format+0x7a>
10000ab8:	b11c      	cbz	r4, 10000ac2 <_ntoa_format+0x7a>
10000aba:	4574      	cmp	r4, lr
10000abc:	d024      	beq.n	10000b08 <_ntoa_format+0xc0>
10000abe:	42bc      	cmp	r4, r7
10000ac0:	d022      	beq.n	10000b08 <_ntoa_format+0xc0>
10000ac2:	f1b8 0f10 	cmp.w	r8, #16
10000ac6:	d02b      	beq.n	10000b20 <_ntoa_format+0xd8>
10000ac8:	f1b8 0f10 	cmp.w	r8, #16
10000acc:	d033      	beq.n	10000b36 <_ntoa_format+0xee>
10000ace:	f1b8 0f02 	cmp.w	r8, #2
10000ad2:	d03b      	beq.n	10000b4c <_ntoa_format+0x104>
10000ad4:	2c1f      	cmp	r4, #31
10000ad6:	d804      	bhi.n	10000ae2 <_ntoa_format+0x9a>
10000ad8:	f04f 0c30 	mov.w	ip, #48	; 0x30
10000adc:	f805 c004 	strb.w	ip, [r5, r4]
10000ae0:	3401      	adds	r4, #1
10000ae2:	2c1f      	cmp	r4, #31
10000ae4:	d807      	bhi.n	10000af6 <_ntoa_format+0xae>
10000ae6:	f1b9 0f00 	cmp.w	r9, #0
10000aea:	d037      	beq.n	10000b5c <_ntoa_format+0x114>
10000aec:	f04f 0c2d 	mov.w	ip, #45	; 0x2d
10000af0:	f805 c004 	strb.w	ip, [r5, r4]
10000af4:	3401      	adds	r4, #1
10000af6:	9603      	str	r6, [sp, #12]
10000af8:	9702      	str	r7, [sp, #8]
10000afa:	9401      	str	r4, [sp, #4]
10000afc:	9500      	str	r5, [sp, #0]
10000afe:	f7ff ff64 	bl	100009ca <_out_rev>
10000b02:	b005      	add	sp, #20
10000b04:	e8bd 83f0 	ldmia.w	sp!, {r4, r5, r6, r7, r8, r9, pc}
10000b08:	f1b4 0c01 	subs.w	ip, r4, #1
10000b0c:	d006      	beq.n	10000b1c <_ntoa_format+0xd4>
10000b0e:	f1b8 0f10 	cmp.w	r8, #16
10000b12:	d001      	beq.n	10000b18 <_ntoa_format+0xd0>
10000b14:	4664      	mov	r4, ip
10000b16:	e7d4      	b.n	10000ac2 <_ntoa_format+0x7a>
10000b18:	3c02      	subs	r4, #2
10000b1a:	e7d2      	b.n	10000ac2 <_ntoa_format+0x7a>
10000b1c:	4664      	mov	r4, ip
10000b1e:	e7d0      	b.n	10000ac2 <_ntoa_format+0x7a>
10000b20:	f016 0f20 	tst.w	r6, #32
10000b24:	d1d0      	bne.n	10000ac8 <_ntoa_format+0x80>
10000b26:	2c1f      	cmp	r4, #31
10000b28:	d8ce      	bhi.n	10000ac8 <_ntoa_format+0x80>
10000b2a:	f04f 0c78 	mov.w	ip, #120	; 0x78
10000b2e:	f805 c004 	strb.w	ip, [r5, r4]
10000b32:	3401      	adds	r4, #1
10000b34:	e7ce      	b.n	10000ad4 <_ntoa_format+0x8c>
10000b36:	f016 0f20 	tst.w	r6, #32
10000b3a:	d0c8      	beq.n	10000ace <_ntoa_format+0x86>
10000b3c:	2c1f      	cmp	r4, #31
10000b3e:	d8c6      	bhi.n	10000ace <_ntoa_format+0x86>
10000b40:	f04f 0c58 	mov.w	ip, #88	; 0x58
10000b44:	f805 c004 	strb.w	ip, [r5, r4]
10000b48:	3401      	adds	r4, #1
10000b4a:	e7c3      	b.n	10000ad4 <_ntoa_format+0x8c>
10000b4c:	2c1f      	cmp	r4, #31
10000b4e:	d8c1      	bhi.n	10000ad4 <_ntoa_format+0x8c>
10000b50:	f04f 0c62 	mov.w	ip, #98	; 0x62
10000b54:	f805 c004 	strb.w	ip, [r5, r4]
10000b58:	3401      	adds	r4, #1
10000b5a:	e7bb      	b.n	10000ad4 <_ntoa_format+0x8c>
10000b5c:	f016 0f04 	tst.w	r6, #4
10000b60:	d005      	beq.n	10000b6e <_ntoa_format+0x126>
10000b62:	f04f 0c2b 	mov.w	ip, #43	; 0x2b
10000b66:	f805 c004 	strb.w	ip, [r5, r4]
10000b6a:	3401      	adds	r4, #1
10000b6c:	e7c3      	b.n	10000af6 <_ntoa_format+0xae>
10000b6e:	f016 0f08 	tst.w	r6, #8
10000b72:	d0c0      	beq.n	10000af6 <_ntoa_format+0xae>
10000b74:	f04f 0c20 	mov.w	ip, #32
10000b78:	f805 c004 	strb.w	ip, [r5, r4]
10000b7c:	3401      	adds	r4, #1
10000b7e:	e7ba      	b.n	10000af6 <_ntoa_format+0xae>

10000b80 <_ntoa_long>:
10000b80:	b5f0      	push	{r4, r5, r6, r7, lr}
10000b82:	b091      	sub	sp, #68	; 0x44
10000b84:	9c16      	ldr	r4, [sp, #88]	; 0x58
10000b86:	9d18      	ldr	r5, [sp, #96]	; 0x60
10000b88:	9e1b      	ldr	r6, [sp, #108]	; 0x6c
10000b8a:	b90c      	cbnz	r4, 10000b90 <_ntoa_long+0x10>
10000b8c:	f026 0610 	bic.w	r6, r6, #16
10000b90:	f416 6e80 	ands.w	lr, r6, #1024	; 0x400
10000b94:	d016      	beq.n	10000bc4 <_ntoa_long+0x44>
10000b96:	b364      	cbz	r4, 10000bf2 <_ntoa_long+0x72>
10000b98:	f04f 0e00 	mov.w	lr, #0
10000b9c:	e012      	b.n	10000bc4 <_ntoa_long+0x44>
10000b9e:	f10c 0c30 	add.w	ip, ip, #48	; 0x30
10000ba2:	fa5f fc8c 	uxtb.w	ip, ip
10000ba6:	f10e 0701 	add.w	r7, lr, #1
10000baa:	f10e 0e40 	add.w	lr, lr, #64	; 0x40
10000bae:	44ee      	add	lr, sp
10000bb0:	f80e cc20 	strb.w	ip, [lr, #-32]
10000bb4:	fbb4 fcf5 	udiv	ip, r4, r5
10000bb8:	42ac      	cmp	r4, r5
10000bba:	d31b      	bcc.n	10000bf4 <_ntoa_long+0x74>
10000bbc:	2f1f      	cmp	r7, #31
10000bbe:	d819      	bhi.n	10000bf4 <_ntoa_long+0x74>
10000bc0:	46be      	mov	lr, r7
10000bc2:	4664      	mov	r4, ip
10000bc4:	fbb4 fcf5 	udiv	ip, r4, r5
10000bc8:	fb05 4c1c 	mls	ip, r5, ip, r4
10000bcc:	fa5f fc8c 	uxtb.w	ip, ip
10000bd0:	f1bc 0f09 	cmp.w	ip, #9
10000bd4:	d9e3      	bls.n	10000b9e <_ntoa_long+0x1e>
10000bd6:	f016 0f20 	tst.w	r6, #32
10000bda:	d008      	beq.n	10000bee <_ntoa_long+0x6e>
10000bdc:	2741      	movs	r7, #65	; 0x41
10000bde:	44bc      	add	ip, r7
10000be0:	fa5f fc8c 	uxtb.w	ip, ip
10000be4:	f1ac 0c0a 	sub.w	ip, ip, #10
10000be8:	fa5f fc8c 	uxtb.w	ip, ip
10000bec:	e7db      	b.n	10000ba6 <_ntoa_long+0x26>
10000bee:	2761      	movs	r7, #97	; 0x61
10000bf0:	e7f5      	b.n	10000bde <_ntoa_long+0x5e>
10000bf2:	4627      	mov	r7, r4
10000bf4:	9606      	str	r6, [sp, #24]
10000bf6:	9c1a      	ldr	r4, [sp, #104]	; 0x68
10000bf8:	9405      	str	r4, [sp, #20]
10000bfa:	9c19      	ldr	r4, [sp, #100]	; 0x64
10000bfc:	9404      	str	r4, [sp, #16]
10000bfe:	9503      	str	r5, [sp, #12]
10000c00:	f89d 405c 	ldrb.w	r4, [sp, #92]	; 0x5c
10000c04:	9402      	str	r4, [sp, #8]
10000c06:	9701      	str	r7, [sp, #4]
10000c08:	ac08      	add	r4, sp, #32
10000c0a:	9400      	str	r4, [sp, #0]
10000c0c:	f7ff ff1c 	bl	10000a48 <_ntoa_format>
10000c10:	b011      	add	sp, #68	; 0x44
10000c12:	bdf0      	pop	{r4, r5, r6, r7, pc}

10000c14 <_ntoa_long_long>:
10000c14:	e92d 4ff0 	stmdb	sp!, {r4, r5, r6, r7, r8, r9, sl, fp, lr}
10000c18:	b095      	sub	sp, #84	; 0x54
10000c1a:	9009      	str	r0, [sp, #36]	; 0x24
10000c1c:	910a      	str	r1, [sp, #40]	; 0x28
10000c1e:	920b      	str	r2, [sp, #44]	; 0x2c
10000c20:	469b      	mov	fp, r3
10000c22:	9d1e      	ldr	r5, [sp, #120]	; 0x78
10000c24:	9e1f      	ldr	r6, [sp, #124]	; 0x7c
10000c26:	9f22      	ldr	r7, [sp, #136]	; 0x88
10000c28:	f8dd 808c 	ldr.w	r8, [sp, #140]	; 0x8c
10000c2c:	f8dd a098 	ldr.w	sl, [sp, #152]	; 0x98
10000c30:	ea55 0306 	orrs.w	r3, r5, r6
10000c34:	d101      	bne.n	10000c3a <_ntoa_long_long+0x26>
10000c36:	f02a 0a10 	bic.w	sl, sl, #16
10000c3a:	f41a 6480 	ands.w	r4, sl, #1024	; 0x400
10000c3e:	d01f      	beq.n	10000c80 <_ntoa_long_long+0x6c>
10000c40:	ea55 0306 	orrs.w	r3, r5, r6
10000c44:	d030      	beq.n	10000ca8 <_ntoa_long_long+0x94>
10000c46:	2400      	movs	r4, #0
10000c48:	e01a      	b.n	10000c80 <_ntoa_long_long+0x6c>
10000c4a:	f103 0230 	add.w	r2, r3, #48	; 0x30
10000c4e:	b2d2      	uxtb	r2, r2
10000c50:	f104 0901 	add.w	r9, r4, #1
10000c54:	f104 0350 	add.w	r3, r4, #80	; 0x50
10000c58:	eb0d 0403 	add.w	r4, sp, r3
10000c5c:	f804 2c20 	strb.w	r2, [r4, #-32]
10000c60:	463a      	mov	r2, r7
10000c62:	4643      	mov	r3, r8
10000c64:	4628      	mov	r0, r5
10000c66:	4631      	mov	r1, r6
10000c68:	f002 fb18 	bl	1000329c <__aeabi_uldivmod>
10000c6c:	42bd      	cmp	r5, r7
10000c6e:	eb76 0308 	sbcs.w	r3, r6, r8
10000c72:	d31b      	bcc.n	10000cac <_ntoa_long_long+0x98>
10000c74:	f1b9 0f1f 	cmp.w	r9, #31
10000c78:	d818      	bhi.n	10000cac <_ntoa_long_long+0x98>
10000c7a:	464c      	mov	r4, r9
10000c7c:	4605      	mov	r5, r0
10000c7e:	460e      	mov	r6, r1
10000c80:	463a      	mov	r2, r7
10000c82:	4643      	mov	r3, r8
10000c84:	4628      	mov	r0, r5
10000c86:	4631      	mov	r1, r6
10000c88:	f002 fb08 	bl	1000329c <__aeabi_uldivmod>
10000c8c:	b2d3      	uxtb	r3, r2
10000c8e:	2b09      	cmp	r3, #9
10000c90:	d9db      	bls.n	10000c4a <_ntoa_long_long+0x36>
10000c92:	f01a 0f20 	tst.w	sl, #32
10000c96:	d005      	beq.n	10000ca4 <_ntoa_long_long+0x90>
10000c98:	2241      	movs	r2, #65	; 0x41
10000c9a:	441a      	add	r2, r3
10000c9c:	b2d2      	uxtb	r2, r2
10000c9e:	3a0a      	subs	r2, #10
10000ca0:	b2d2      	uxtb	r2, r2
10000ca2:	e7d5      	b.n	10000c50 <_ntoa_long_long+0x3c>
10000ca4:	2261      	movs	r2, #97	; 0x61
10000ca6:	e7f8      	b.n	10000c9a <_ntoa_long_long+0x86>
10000ca8:	f04f 0900 	mov.w	r9, #0
10000cac:	f8cd a018 	str.w	sl, [sp, #24]
10000cb0:	9b25      	ldr	r3, [sp, #148]	; 0x94
10000cb2:	9305      	str	r3, [sp, #20]
10000cb4:	9b24      	ldr	r3, [sp, #144]	; 0x90
10000cb6:	9304      	str	r3, [sp, #16]
10000cb8:	9703      	str	r7, [sp, #12]
10000cba:	f89d 3080 	ldrb.w	r3, [sp, #128]	; 0x80
10000cbe:	9302      	str	r3, [sp, #8]
10000cc0:	f8cd 9004 	str.w	r9, [sp, #4]
10000cc4:	ab0c      	add	r3, sp, #48	; 0x30
10000cc6:	9300      	str	r3, [sp, #0]
10000cc8:	465b      	mov	r3, fp
10000cca:	9a0b      	ldr	r2, [sp, #44]	; 0x2c
10000ccc:	990a      	ldr	r1, [sp, #40]	; 0x28
10000cce:	9809      	ldr	r0, [sp, #36]	; 0x24
10000cd0:	f7ff feba 	bl	10000a48 <_ntoa_format>
10000cd4:	b015      	add	sp, #84	; 0x54
10000cd6:	e8bd 8ff0 	ldmia.w	sp!, {r4, r5, r6, r7, r8, r9, sl, fp, pc}
10000cda:	0000      	movs	r0, r0
10000cdc:	0000      	movs	r0, r0
	...

10000ce0 <_etoa>:
10000ce0:	e92d 4ff0 	stmdb	sp!, {r4, r5, r6, r7, r8, r9, sl, fp, lr}
10000ce4:	ed2d 8b02 	vpush	{d8}
10000ce8:	b091      	sub	sp, #68	; 0x44
10000cea:	4682      	mov	sl, r0
10000cec:	460c      	mov	r4, r1
10000cee:	4693      	mov	fp, r2
10000cf0:	461d      	mov	r5, r3
10000cf2:	e9dd 231c 	ldrd	r2, r3, [sp, #112]	; 0x70
10000cf6:	4610      	mov	r0, r2
10000cf8:	4619      	mov	r1, r3
10000cfa:	f002 fa55 	bl	100031a8 <__aeabi_dcmpeq>
10000cfe:	2800      	cmp	r0, #0
10000d00:	f000 8107 	beq.w	10000f12 <_etoa+0x232>
10000d04:	f04f 32ff 	mov.w	r2, #4294967295
10000d08:	4bb1      	ldr	r3, [pc, #708]	; (10000fd0 <_etoa+0x2f0>)
10000d0a:	e9dd 011c 	ldrd	r0, r1, [sp, #112]	; 0x70
10000d0e:	f002 fa73 	bl	100031f8 <__aeabi_dcmpgt>
10000d12:	2800      	cmp	r0, #0
10000d14:	f040 80fd 	bne.w	10000f12 <_etoa+0x232>
10000d18:	f04f 32ff 	mov.w	r2, #4294967295
10000d1c:	f46f 1380 	mvn.w	r3, #1048576	; 0x100000
10000d20:	e9dd 011c 	ldrd	r0, r1, [sp, #112]	; 0x70
10000d24:	f002 fa4a 	bl	100031bc <__aeabi_dcmplt>
10000d28:	2800      	cmp	r0, #0
10000d2a:	f040 80f2 	bne.w	10000f12 <_etoa+0x232>
10000d2e:	2200      	movs	r2, #0
10000d30:	2300      	movs	r3, #0
10000d32:	e9dd 011c 	ldrd	r0, r1, [sp, #112]	; 0x70
10000d36:	f002 fa41 	bl	100031bc <__aeabi_dcmplt>
10000d3a:	2800      	cmp	r0, #0
10000d3c:	f040 80fe 	bne.w	10000f3c <_etoa+0x25c>
10000d40:	ed9d 7b1c 	vldr	d7, [sp, #112]	; 0x70
10000d44:	ed8d 7b06 	vstr	d7, [sp, #24]
10000d48:	9b20      	ldr	r3, [sp, #128]	; 0x80
10000d4a:	f413 6380 	ands.w	r3, r3, #1024	; 0x400
10000d4e:	930f      	str	r3, [sp, #60]	; 0x3c
10000d50:	d101      	bne.n	10000d56 <_etoa+0x76>
10000d52:	2306      	movs	r3, #6
10000d54:	931e      	str	r3, [sp, #120]	; 0x78
10000d56:	e9dd 0106 	ldrd	r0, r1, [sp, #24]
10000d5a:	4602      	mov	r2, r0
10000d5c:	f3c1 500a 	ubfx	r0, r1, #20, #11
10000d60:	f3c1 0313 	ubfx	r3, r1, #0, #20
10000d64:	4690      	mov	r8, r2
10000d66:	f043 597f 	orr.w	r9, r3, #1069547520	; 0x3fc00000
10000d6a:	f449 1940 	orr.w	r9, r9, #3145728	; 0x300000
10000d6e:	f2a0 30ff 	subw	r0, r0, #1023	; 0x3ff
10000d72:	f001 ff47 	bl	10002c04 <__aeabi_i2d>
10000d76:	a384      	add	r3, pc, #528	; (adr r3, 10000f88 <_etoa+0x2a8>)
10000d78:	e9d3 2300 	ldrd	r2, r3, [r3]
10000d7c:	f001 ffac 	bl	10002cd8 <__aeabi_dmul>
10000d80:	a383      	add	r3, pc, #524	; (adr r3, 10000f90 <_etoa+0x2b0>)
10000d82:	e9d3 2300 	ldrd	r2, r3, [r3]
10000d86:	f001 fdf1 	bl	1000296c <__adddf3>
10000d8a:	4606      	mov	r6, r0
10000d8c:	460f      	mov	r7, r1
10000d8e:	2200      	movs	r2, #0
10000d90:	4b90      	ldr	r3, [pc, #576]	; (10000fd4 <_etoa+0x2f4>)
10000d92:	4640      	mov	r0, r8
10000d94:	4649      	mov	r1, r9
10000d96:	f001 fde7 	bl	10002968 <__aeabi_dsub>
10000d9a:	a37f      	add	r3, pc, #508	; (adr r3, 10000f98 <_etoa+0x2b8>)
10000d9c:	e9d3 2300 	ldrd	r2, r3, [r3]
10000da0:	f001 ff9a 	bl	10002cd8 <__aeabi_dmul>
10000da4:	4602      	mov	r2, r0
10000da6:	460b      	mov	r3, r1
10000da8:	4630      	mov	r0, r6
10000daa:	4639      	mov	r1, r7
10000dac:	f001 fdde 	bl	1000296c <__adddf3>
10000db0:	f002 fa2c 	bl	1000320c <__aeabi_d2iz>
10000db4:	4606      	mov	r6, r0
10000db6:	f001 ff25 	bl	10002c04 <__aeabi_i2d>
10000dba:	4680      	mov	r8, r0
10000dbc:	4689      	mov	r9, r1
10000dbe:	a378      	add	r3, pc, #480	; (adr r3, 10000fa0 <_etoa+0x2c0>)
10000dc0:	e9d3 2300 	ldrd	r2, r3, [r3]
10000dc4:	f001 ff88 	bl	10002cd8 <__aeabi_dmul>
10000dc8:	2200      	movs	r2, #0
10000dca:	4b83      	ldr	r3, [pc, #524]	; (10000fd8 <_etoa+0x2f8>)
10000dcc:	f001 fdce 	bl	1000296c <__adddf3>
10000dd0:	f002 fa1c 	bl	1000320c <__aeabi_d2iz>
10000dd4:	4607      	mov	r7, r0
10000dd6:	a374      	add	r3, pc, #464	; (adr r3, 10000fa8 <_etoa+0x2c8>)
10000dd8:	e9d3 2300 	ldrd	r2, r3, [r3]
10000ddc:	4640      	mov	r0, r8
10000dde:	4649      	mov	r1, r9
10000de0:	f001 ff7a 	bl	10002cd8 <__aeabi_dmul>
10000de4:	4680      	mov	r8, r0
10000de6:	4689      	mov	r9, r1
10000de8:	4638      	mov	r0, r7
10000dea:	f001 ff0b 	bl	10002c04 <__aeabi_i2d>
10000dee:	a370      	add	r3, pc, #448	; (adr r3, 10000fb0 <_etoa+0x2d0>)
10000df0:	e9d3 2300 	ldrd	r2, r3, [r3]
10000df4:	f001 ff70 	bl	10002cd8 <__aeabi_dmul>
10000df8:	4602      	mov	r2, r0
10000dfa:	460b      	mov	r3, r1
10000dfc:	4640      	mov	r0, r8
10000dfe:	4649      	mov	r1, r9
10000e00:	f001 fdb2 	bl	10002968 <__aeabi_dsub>
10000e04:	4680      	mov	r8, r0
10000e06:	4689      	mov	r9, r1
10000e08:	4602      	mov	r2, r0
10000e0a:	460b      	mov	r3, r1
10000e0c:	f001 ff64 	bl	10002cd8 <__aeabi_dmul>
10000e10:	e9cd 010a 	strd	r0, r1, [sp, #40]	; 0x28
10000e14:	f207 37ff 	addw	r7, r7, #1023	; 0x3ff
10000e18:	2100      	movs	r1, #0
10000e1a:	2200      	movs	r2, #0
10000e1c:	e9cd 1208 	strd	r1, r2, [sp, #32]
10000e20:	053b      	lsls	r3, r7, #20
10000e22:	9309      	str	r3, [sp, #36]	; 0x24
10000e24:	2300      	movs	r3, #0
10000e26:	9308      	str	r3, [sp, #32]
10000e28:	4642      	mov	r2, r8
10000e2a:	464b      	mov	r3, r9
10000e2c:	4640      	mov	r0, r8
10000e2e:	4649      	mov	r1, r9
10000e30:	f001 fd9c 	bl	1000296c <__adddf3>
10000e34:	e9cd 010c 	strd	r0, r1, [sp, #48]	; 0x30
10000e38:	4642      	mov	r2, r8
10000e3a:	464b      	mov	r3, r9
10000e3c:	2000      	movs	r0, #0
10000e3e:	f04f 4180 	mov.w	r1, #1073741824	; 0x40000000
10000e42:	f001 fd91 	bl	10002968 <__aeabi_dsub>
10000e46:	4680      	mov	r8, r0
10000e48:	4689      	mov	r9, r1
10000e4a:	2200      	movs	r2, #0
10000e4c:	4b63      	ldr	r3, [pc, #396]	; (10000fdc <_etoa+0x2fc>)
10000e4e:	e9dd 010a 	ldrd	r0, r1, [sp, #40]	; 0x28
10000e52:	f002 f86b 	bl	10002f2c <__aeabi_ddiv>
10000e56:	2200      	movs	r2, #0
10000e58:	4b61      	ldr	r3, [pc, #388]	; (10000fe0 <_etoa+0x300>)
10000e5a:	f001 fd87 	bl	1000296c <__adddf3>
10000e5e:	4602      	mov	r2, r0
10000e60:	460b      	mov	r3, r1
10000e62:	e9dd 010a 	ldrd	r0, r1, [sp, #40]	; 0x28
10000e66:	f002 f861 	bl	10002f2c <__aeabi_ddiv>
10000e6a:	2200      	movs	r2, #0
10000e6c:	4b5d      	ldr	r3, [pc, #372]	; (10000fe4 <_etoa+0x304>)
10000e6e:	f001 fd7d 	bl	1000296c <__adddf3>
10000e72:	4602      	mov	r2, r0
10000e74:	460b      	mov	r3, r1
10000e76:	e9dd 010a 	ldrd	r0, r1, [sp, #40]	; 0x28
10000e7a:	f002 f857 	bl	10002f2c <__aeabi_ddiv>
10000e7e:	4602      	mov	r2, r0
10000e80:	460b      	mov	r3, r1
10000e82:	4640      	mov	r0, r8
10000e84:	4649      	mov	r1, r9
10000e86:	f001 fd71 	bl	1000296c <__adddf3>
10000e8a:	4602      	mov	r2, r0
10000e8c:	460b      	mov	r3, r1
10000e8e:	e9dd 010c 	ldrd	r0, r1, [sp, #48]	; 0x30
10000e92:	f002 f84b 	bl	10002f2c <__aeabi_ddiv>
10000e96:	2200      	movs	r2, #0
10000e98:	4b53      	ldr	r3, [pc, #332]	; (10000fe8 <_etoa+0x308>)
10000e9a:	f001 fd67 	bl	1000296c <__adddf3>
10000e9e:	e9dd 2308 	ldrd	r2, r3, [sp, #32]
10000ea2:	f001 ff19 	bl	10002cd8 <__aeabi_dmul>
10000ea6:	4680      	mov	r8, r0
10000ea8:	4689      	mov	r9, r1
10000eaa:	ec49 8b18 	vmov	d8, r8, r9
10000eae:	e9dd 2306 	ldrd	r2, r3, [sp, #24]
10000eb2:	f002 f9a1 	bl	100031f8 <__aeabi_dcmpgt>
10000eb6:	b140      	cbz	r0, 10000eca <_etoa+0x1ea>
10000eb8:	3e01      	subs	r6, #1
10000eba:	2200      	movs	r2, #0
10000ebc:	4b48      	ldr	r3, [pc, #288]	; (10000fe0 <_etoa+0x300>)
10000ebe:	4640      	mov	r0, r8
10000ec0:	4649      	mov	r1, r9
10000ec2:	f002 f833 	bl	10002f2c <__aeabi_ddiv>
10000ec6:	ec41 0b18 	vmov	d8, r0, r1
10000eca:	f106 0363 	add.w	r3, r6, #99	; 0x63
10000ece:	2bc6      	cmp	r3, #198	; 0xc6
10000ed0:	d83f      	bhi.n	10000f52 <_etoa+0x272>
10000ed2:	2704      	movs	r7, #4
10000ed4:	9b20      	ldr	r3, [sp, #128]	; 0x80
10000ed6:	f413 6f00 	tst.w	r3, #2048	; 0x800
10000eda:	d044      	beq.n	10000f66 <_etoa+0x286>
10000edc:	a336      	add	r3, pc, #216	; (adr r3, 10000fb8 <_etoa+0x2d8>)
10000ede:	e9d3 2300 	ldrd	r2, r3, [r3]
10000ee2:	e9dd 8906 	ldrd	r8, r9, [sp, #24]
10000ee6:	4640      	mov	r0, r8
10000ee8:	4649      	mov	r1, r9
10000eea:	f002 f97b 	bl	100031e4 <__aeabi_dcmpge>
10000eee:	2800      	cmp	r0, #0
10000ef0:	d03f      	beq.n	10000f72 <_etoa+0x292>
10000ef2:	a333      	add	r3, pc, #204	; (adr r3, 10000fc0 <_etoa+0x2e0>)
10000ef4:	e9d3 2300 	ldrd	r2, r3, [r3]
10000ef8:	4640      	mov	r0, r8
10000efa:	4649      	mov	r1, r9
10000efc:	f002 f95e 	bl	100031bc <__aeabi_dcmplt>
10000f00:	2800      	cmp	r0, #0
10000f02:	d036      	beq.n	10000f72 <_etoa+0x292>
10000f04:	9b1e      	ldr	r3, [sp, #120]	; 0x78
10000f06:	42b3      	cmp	r3, r6
10000f08:	dd25      	ble.n	10000f56 <_etoa+0x276>
10000f0a:	1b9e      	subs	r6, r3, r6
10000f0c:	1e73      	subs	r3, r6, #1
10000f0e:	931e      	str	r3, [sp, #120]	; 0x78
10000f10:	e023      	b.n	10000f5a <_etoa+0x27a>
10000f12:	9b20      	ldr	r3, [sp, #128]	; 0x80
10000f14:	9304      	str	r3, [sp, #16]
10000f16:	9b1f      	ldr	r3, [sp, #124]	; 0x7c
10000f18:	9303      	str	r3, [sp, #12]
10000f1a:	9b1e      	ldr	r3, [sp, #120]	; 0x78
10000f1c:	9302      	str	r3, [sp, #8]
10000f1e:	ed9d 7b1c 	vldr	d7, [sp, #112]	; 0x70
10000f22:	ed8d 7b00 	vstr	d7, [sp]
10000f26:	462b      	mov	r3, r5
10000f28:	465a      	mov	r2, fp
10000f2a:	4621      	mov	r1, r4
10000f2c:	4650      	mov	r0, sl
10000f2e:	f000 f8cf 	bl	100010d0 <_ftoa>
10000f32:	b011      	add	sp, #68	; 0x44
10000f34:	ecbd 8b02 	vpop	{d8}
10000f38:	e8bd 8ff0 	ldmia.w	sp!, {r4, r5, r6, r7, r8, r9, sl, fp, pc}
10000f3c:	ed9f 7b22 	vldr	d7, [pc, #136]	; 10000fc8 <_etoa+0x2e8>
10000f40:	ed8d 7b06 	vstr	d7, [sp, #24]
10000f44:	9b1c      	ldr	r3, [sp, #112]	; 0x70
10000f46:	9306      	str	r3, [sp, #24]
10000f48:	9b1d      	ldr	r3, [sp, #116]	; 0x74
10000f4a:	f103 4300 	add.w	r3, r3, #2147483648	; 0x80000000
10000f4e:	9307      	str	r3, [sp, #28]
10000f50:	e6fa      	b.n	10000d48 <_etoa+0x68>
10000f52:	2705      	movs	r7, #5
10000f54:	e7be      	b.n	10000ed4 <_etoa+0x1f4>
10000f56:	2300      	movs	r3, #0
10000f58:	931e      	str	r3, [sp, #120]	; 0x78
10000f5a:	9b20      	ldr	r3, [sp, #128]	; 0x80
10000f5c:	f443 6380 	orr.w	r3, r3, #1024	; 0x400
10000f60:	9320      	str	r3, [sp, #128]	; 0x80
10000f62:	2700      	movs	r7, #0
10000f64:	463e      	mov	r6, r7
10000f66:	9b1f      	ldr	r3, [sp, #124]	; 0x7c
10000f68:	429f      	cmp	r7, r3
10000f6a:	d23f      	bcs.n	10000fec <_etoa+0x30c>
10000f6c:	eba3 0807 	sub.w	r8, r3, r7
10000f70:	e03e      	b.n	10000ff0 <_etoa+0x310>
10000f72:	9b1e      	ldr	r3, [sp, #120]	; 0x78
10000f74:	2b00      	cmp	r3, #0
10000f76:	d0f6      	beq.n	10000f66 <_etoa+0x286>
10000f78:	9b0f      	ldr	r3, [sp, #60]	; 0x3c
10000f7a:	2b00      	cmp	r3, #0
10000f7c:	d0f3      	beq.n	10000f66 <_etoa+0x286>
10000f7e:	9b1e      	ldr	r3, [sp, #120]	; 0x78
10000f80:	3b01      	subs	r3, #1
10000f82:	931e      	str	r3, [sp, #120]	; 0x78
10000f84:	e7ef      	b.n	10000f66 <_etoa+0x286>
10000f86:	bf00      	nop
10000f88:	509f79fb 			; <UNDEFINED> instruction: 0x509f79fb
10000f8c:	3fd34413 	svccc	0x00d34413
10000f90:	8b60c8b3 	blhi	11833264 <__copy_table_end__+0x182f8ec>
10000f94:	3fc68a28 	svccc	0x00c68a28
10000f98:	636f4361 	cmnvs	pc, #-2080374783	; 0x84000001
10000f9c:	3fd287a7 	svccc	0x00d287a7
10000fa0:	0979a371 	ldmdbeq	r9!, {r0, r4, r5, r6, r8, r9, sp, pc}^
10000fa4:	400a934f 	andmi	r9, sl, pc, asr #6
10000fa8:	bbb55516 	bllt	ed56408 <__RAM_SIZE+0xec56408>
10000fac:	40026bb1 			; <UNDEFINED> instruction: 0x40026bb1
10000fb0:	fefa39ef 			; <UNDEFINED> instruction: 0xfefa39ef
10000fb4:	3fe62e42 	svccc	0x00e62e42
10000fb8:	eb1c432d 	bl	10711c74 <__copy_table_end__+0x70e2fc>
10000fbc:	3f1a36e2 	svccc	0x001a36e2
10000fc0:	00000000 	andeq	r0, r0, r0
10000fc4:	412e8480 	smlawbmi	lr, r0, r4, r8
	...
10000fd0:	7fefffff 	svcvc	0x00efffff
10000fd4:	3ff80000 	svccc	0x00f80000
10000fd8:	3fe00000 	svccc	0x00e00000
10000fdc:	402c0000 	eormi	r0, ip, r0
10000fe0:	40240000 	eormi	r0, r4, r0
10000fe4:	40180000 	andsmi	r0, r8, r0
10000fe8:	3ff00000 	svccc	0x00f00000	; IMB
10000fec:	f04f 0800 	mov.w	r8, #0
10000ff0:	9b20      	ldr	r3, [sp, #128]	; 0x80
10000ff2:	f013 0902 	ands.w	r9, r3, #2
10000ff6:	d002      	beq.n	10000ffe <_etoa+0x31e>
10000ff8:	b10f      	cbz	r7, 10000ffe <_etoa+0x31e>
10000ffa:	f04f 0800 	mov.w	r8, #0
10000ffe:	b13e      	cbz	r6, 10001010 <_etoa+0x330>
10001000:	ec53 2b18 	vmov	r2, r3, d8
10001004:	e9dd 0106 	ldrd	r0, r1, [sp, #24]
10001008:	f001 ff90 	bl	10002f2c <__aeabi_ddiv>
1000100c:	e9cd 0106 	strd	r0, r1, [sp, #24]
10001010:	2200      	movs	r2, #0
10001012:	2300      	movs	r3, #0
10001014:	e9dd 011c 	ldrd	r0, r1, [sp, #112]	; 0x70
10001018:	f002 f8d0 	bl	100031bc <__aeabi_dcmplt>
1000101c:	2800      	cmp	r0, #0
1000101e:	d13d      	bne.n	1000109c <_etoa+0x3bc>
10001020:	9b20      	ldr	r3, [sp, #128]	; 0x80
10001022:	f423 6300 	bic.w	r3, r3, #2048	; 0x800
10001026:	9304      	str	r3, [sp, #16]
10001028:	f8cd 800c 	str.w	r8, [sp, #12]
1000102c:	9b1e      	ldr	r3, [sp, #120]	; 0x78
1000102e:	9302      	str	r3, [sp, #8]
10001030:	ed9d 7b06 	vldr	d7, [sp, #24]
10001034:	ed8d 7b00 	vstr	d7, [sp]
10001038:	462b      	mov	r3, r5
1000103a:	465a      	mov	r2, fp
1000103c:	4621      	mov	r1, r4
1000103e:	4650      	mov	r0, sl
10001040:	f000 f846 	bl	100010d0 <_ftoa>
10001044:	2f00      	cmp	r7, #0
10001046:	f43f af74 	beq.w	10000f32 <_etoa+0x252>
1000104a:	9b20      	ldr	r3, [sp, #128]	; 0x80
1000104c:	f013 0f20 	tst.w	r3, #32
10001050:	d02c      	beq.n	100010ac <_etoa+0x3cc>
10001052:	f04f 0c45 	mov.w	ip, #69	; 0x45
10001056:	f100 0801 	add.w	r8, r0, #1
1000105a:	462b      	mov	r3, r5
1000105c:	4602      	mov	r2, r0
1000105e:	4621      	mov	r1, r4
10001060:	4660      	mov	r0, ip
10001062:	47d0      	blx	sl
10001064:	ea86 73e6 	eor.w	r3, r6, r6, asr #31
10001068:	eba3 73e6 	sub.w	r3, r3, r6, asr #31
1000106c:	2205      	movs	r2, #5
1000106e:	9205      	str	r2, [sp, #20]
10001070:	3f01      	subs	r7, #1
10001072:	9704      	str	r7, [sp, #16]
10001074:	2200      	movs	r2, #0
10001076:	9203      	str	r2, [sp, #12]
10001078:	220a      	movs	r2, #10
1000107a:	9202      	str	r2, [sp, #8]
1000107c:	0ff0      	lsrs	r0, r6, #31
1000107e:	9001      	str	r0, [sp, #4]
10001080:	9300      	str	r3, [sp, #0]
10001082:	462b      	mov	r3, r5
10001084:	4642      	mov	r2, r8
10001086:	4621      	mov	r1, r4
10001088:	4650      	mov	r0, sl
1000108a:	f7ff fd79 	bl	10000b80 <_ntoa_long>
1000108e:	f1b9 0f00 	cmp.w	r9, #0
10001092:	f43f af4e 	beq.w	10000f32 <_etoa+0x252>
10001096:	4602      	mov	r2, r0
10001098:	9f1f      	ldr	r7, [sp, #124]	; 0x7c
1000109a:	e010      	b.n	100010be <_etoa+0x3de>
1000109c:	e9dd 0106 	ldrd	r0, r1, [sp, #24]
100010a0:	4602      	mov	r2, r0
100010a2:	f101 4300 	add.w	r3, r1, #2147483648	; 0x80000000
100010a6:	e9cd 2306 	strd	r2, r3, [sp, #24]
100010aa:	e7b9      	b.n	10001020 <_etoa+0x340>
100010ac:	f04f 0c65 	mov.w	ip, #101	; 0x65
100010b0:	e7d1      	b.n	10001056 <_etoa+0x376>
100010b2:	1c56      	adds	r6, r2, #1
100010b4:	462b      	mov	r3, r5
100010b6:	4621      	mov	r1, r4
100010b8:	2020      	movs	r0, #32
100010ba:	47d0      	blx	sl
100010bc:	4632      	mov	r2, r6
100010be:	eba2 030b 	sub.w	r3, r2, fp
100010c2:	42bb      	cmp	r3, r7
100010c4:	d3f5      	bcc.n	100010b2 <_etoa+0x3d2>
100010c6:	4610      	mov	r0, r2
100010c8:	e733      	b.n	10000f32 <_etoa+0x252>
100010ca:	bf00      	nop
100010cc:	0000      	movs	r0, r0
	...

100010d0 <_ftoa>:
100010d0:	e92d 4ff0 	stmdb	sp!, {r4, r5, r6, r7, r8, r9, sl, fp, lr}
100010d4:	ed2d 8b02 	vpush	{d8}
100010d8:	b095      	sub	sp, #84	; 0x54
100010da:	9007      	str	r0, [sp, #28]
100010dc:	910a      	str	r1, [sp, #40]	; 0x28
100010de:	4692      	mov	sl, r2
100010e0:	469b      	mov	fp, r3
100010e2:	e9dd 8920 	ldrd	r8, r9, [sp, #128]	; 0x80
100010e6:	9d22      	ldr	r5, [sp, #136]	; 0x88
100010e8:	4642      	mov	r2, r8
100010ea:	464b      	mov	r3, r9
100010ec:	4640      	mov	r0, r8
100010ee:	4649      	mov	r1, r9
100010f0:	f002 f85a 	bl	100031a8 <__aeabi_dcmpeq>
100010f4:	2800      	cmp	r0, #0
100010f6:	d040      	beq.n	1000117a <_ftoa+0xaa>
100010f8:	f04f 32ff 	mov.w	r2, #4294967295
100010fc:	f46f 1380 	mvn.w	r3, #1048576	; 0x100000
10001100:	4640      	mov	r0, r8
10001102:	4649      	mov	r1, r9
10001104:	f002 f85a 	bl	100031bc <__aeabi_dcmplt>
10001108:	2800      	cmp	r0, #0
1000110a:	d145      	bne.n	10001198 <_ftoa+0xc8>
1000110c:	f04f 32ff 	mov.w	r2, #4294967295
10001110:	4b9f      	ldr	r3, [pc, #636]	; (10001390 <_ftoa+0x2c0>)
10001112:	4640      	mov	r0, r8
10001114:	4649      	mov	r1, r9
10001116:	f002 f86f 	bl	100031f8 <__aeabi_dcmpgt>
1000111a:	2800      	cmp	r0, #0
1000111c:	d14b      	bne.n	100011b6 <_ftoa+0xe6>
1000111e:	a398      	add	r3, pc, #608	; (adr r3, 10001380 <_ftoa+0x2b0>)
10001120:	e9d3 2300 	ldrd	r2, r3, [r3]
10001124:	4640      	mov	r0, r8
10001126:	4649      	mov	r1, r9
10001128:	f002 f866 	bl	100031f8 <__aeabi_dcmpgt>
1000112c:	2800      	cmp	r0, #0
1000112e:	d15a      	bne.n	100011e6 <_ftoa+0x116>
10001130:	a395      	add	r3, pc, #596	; (adr r3, 10001388 <_ftoa+0x2b8>)
10001132:	e9d3 2300 	ldrd	r2, r3, [r3]
10001136:	4640      	mov	r0, r8
10001138:	4649      	mov	r1, r9
1000113a:	f002 f83f 	bl	100031bc <__aeabi_dcmplt>
1000113e:	2800      	cmp	r0, #0
10001140:	d151      	bne.n	100011e6 <_ftoa+0x116>
10001142:	2200      	movs	r2, #0
10001144:	2300      	movs	r3, #0
10001146:	4640      	mov	r0, r8
10001148:	4649      	mov	r1, r9
1000114a:	f002 f837 	bl	100031bc <__aeabi_dcmplt>
1000114e:	2800      	cmp	r0, #0
10001150:	d157      	bne.n	10001202 <_ftoa+0x132>
10001152:	2300      	movs	r3, #0
10001154:	930b      	str	r3, [sp, #44]	; 0x2c
10001156:	9b24      	ldr	r3, [sp, #144]	; 0x90
10001158:	f413 6f80 	tst.w	r3, #1024	; 0x400
1000115c:	d05c      	beq.n	10001218 <_ftoa+0x148>
1000115e:	2400      	movs	r4, #0
10001160:	2c1f      	cmp	r4, #31
10001162:	d85b      	bhi.n	1000121c <_ftoa+0x14c>
10001164:	2d09      	cmp	r5, #9
10001166:	d959      	bls.n	1000121c <_ftoa+0x14c>
10001168:	f104 0350 	add.w	r3, r4, #80	; 0x50
1000116c:	446b      	add	r3, sp
1000116e:	2230      	movs	r2, #48	; 0x30
10001170:	f803 2c20 	strb.w	r2, [r3, #-32]
10001174:	3d01      	subs	r5, #1
10001176:	3401      	adds	r4, #1
10001178:	e7f2      	b.n	10001160 <_ftoa+0x90>
1000117a:	9b24      	ldr	r3, [sp, #144]	; 0x90
1000117c:	9303      	str	r3, [sp, #12]
1000117e:	9b23      	ldr	r3, [sp, #140]	; 0x8c
10001180:	9302      	str	r3, [sp, #8]
10001182:	2303      	movs	r3, #3
10001184:	9301      	str	r3, [sp, #4]
10001186:	4b83      	ldr	r3, [pc, #524]	; (10001394 <_ftoa+0x2c4>)
10001188:	9300      	str	r3, [sp, #0]
1000118a:	465b      	mov	r3, fp
1000118c:	4652      	mov	r2, sl
1000118e:	990a      	ldr	r1, [sp, #40]	; 0x28
10001190:	9807      	ldr	r0, [sp, #28]
10001192:	f7ff fc1a 	bl	100009ca <_out_rev>
10001196:	e12c      	b.n	100013f2 <_ftoa+0x322>
10001198:	9b24      	ldr	r3, [sp, #144]	; 0x90
1000119a:	9303      	str	r3, [sp, #12]
1000119c:	9b23      	ldr	r3, [sp, #140]	; 0x8c
1000119e:	9302      	str	r3, [sp, #8]
100011a0:	2304      	movs	r3, #4
100011a2:	9301      	str	r3, [sp, #4]
100011a4:	4b7c      	ldr	r3, [pc, #496]	; (10001398 <_ftoa+0x2c8>)
100011a6:	9300      	str	r3, [sp, #0]
100011a8:	465b      	mov	r3, fp
100011aa:	4652      	mov	r2, sl
100011ac:	990a      	ldr	r1, [sp, #40]	; 0x28
100011ae:	9807      	ldr	r0, [sp, #28]
100011b0:	f7ff fc0b 	bl	100009ca <_out_rev>
100011b4:	e11d      	b.n	100013f2 <_ftoa+0x322>
100011b6:	9b24      	ldr	r3, [sp, #144]	; 0x90
100011b8:	f013 0304 	ands.w	r3, r3, #4
100011bc:	d00f      	beq.n	100011de <_ftoa+0x10e>
100011be:	4a77      	ldr	r2, [pc, #476]	; (1000139c <_ftoa+0x2cc>)
100011c0:	b17b      	cbz	r3, 100011e2 <_ftoa+0x112>
100011c2:	2304      	movs	r3, #4
100011c4:	9924      	ldr	r1, [sp, #144]	; 0x90
100011c6:	9103      	str	r1, [sp, #12]
100011c8:	9923      	ldr	r1, [sp, #140]	; 0x8c
100011ca:	9102      	str	r1, [sp, #8]
100011cc:	9301      	str	r3, [sp, #4]
100011ce:	9200      	str	r2, [sp, #0]
100011d0:	465b      	mov	r3, fp
100011d2:	4652      	mov	r2, sl
100011d4:	990a      	ldr	r1, [sp, #40]	; 0x28
100011d6:	9807      	ldr	r0, [sp, #28]
100011d8:	f7ff fbf7 	bl	100009ca <_out_rev>
100011dc:	e109      	b.n	100013f2 <_ftoa+0x322>
100011de:	4a70      	ldr	r2, [pc, #448]	; (100013a0 <_ftoa+0x2d0>)
100011e0:	e7ee      	b.n	100011c0 <_ftoa+0xf0>
100011e2:	2303      	movs	r3, #3
100011e4:	e7ee      	b.n	100011c4 <_ftoa+0xf4>
100011e6:	9b24      	ldr	r3, [sp, #144]	; 0x90
100011e8:	9304      	str	r3, [sp, #16]
100011ea:	9b23      	ldr	r3, [sp, #140]	; 0x8c
100011ec:	9303      	str	r3, [sp, #12]
100011ee:	9502      	str	r5, [sp, #8]
100011f0:	e9cd 8900 	strd	r8, r9, [sp]
100011f4:	465b      	mov	r3, fp
100011f6:	4652      	mov	r2, sl
100011f8:	990a      	ldr	r1, [sp, #40]	; 0x28
100011fa:	9807      	ldr	r0, [sp, #28]
100011fc:	f7ff fd70 	bl	10000ce0 <_etoa>
10001200:	e0f7      	b.n	100013f2 <_ftoa+0x322>
10001202:	4642      	mov	r2, r8
10001204:	464b      	mov	r3, r9
10001206:	2000      	movs	r0, #0
10001208:	2100      	movs	r1, #0
1000120a:	f001 fbad 	bl	10002968 <__aeabi_dsub>
1000120e:	4680      	mov	r8, r0
10001210:	4689      	mov	r9, r1
10001212:	2301      	movs	r3, #1
10001214:	930b      	str	r3, [sp, #44]	; 0x2c
10001216:	e79e      	b.n	10001156 <_ftoa+0x86>
10001218:	2506      	movs	r5, #6
1000121a:	e7a0      	b.n	1000115e <_ftoa+0x8e>
1000121c:	4640      	mov	r0, r8
1000121e:	4649      	mov	r1, r9
10001220:	f001 fff4 	bl	1000320c <__aeabi_d2iz>
10001224:	4606      	mov	r6, r0
10001226:	f001 fced 	bl	10002c04 <__aeabi_i2d>
1000122a:	4602      	mov	r2, r0
1000122c:	460b      	mov	r3, r1
1000122e:	4640      	mov	r0, r8
10001230:	4649      	mov	r1, r9
10001232:	f001 fb99 	bl	10002968 <__aeabi_dsub>
10001236:	4b5b      	ldr	r3, [pc, #364]	; (100013a4 <_ftoa+0x2d4>)
10001238:	eb03 03c5 	add.w	r3, r3, r5, lsl #3
1000123c:	ed93 8b00 	vldr	d8, [r3]
10001240:	ec53 2b18 	vmov	r2, r3, d8
10001244:	f001 fd48 	bl	10002cd8 <__aeabi_dmul>
10001248:	4602      	mov	r2, r0
1000124a:	460b      	mov	r3, r1
1000124c:	e9cd 2308 	strd	r2, r3, [sp, #32]
10001250:	f002 f804 	bl	1000325c <__aeabi_d2uiz>
10001254:	4607      	mov	r7, r0
10001256:	f001 fcc5 	bl	10002be4 <__aeabi_ui2d>
1000125a:	4602      	mov	r2, r0
1000125c:	460b      	mov	r3, r1
1000125e:	e9dd 0108 	ldrd	r0, r1, [sp, #32]
10001262:	f001 fb81 	bl	10002968 <__aeabi_dsub>
10001266:	4602      	mov	r2, r0
10001268:	460b      	mov	r3, r1
1000126a:	e9cd 2308 	strd	r2, r3, [sp, #32]
1000126e:	2200      	movs	r2, #0
10001270:	4b4d      	ldr	r3, [pc, #308]	; (100013a8 <_ftoa+0x2d8>)
10001272:	f001 ffc1 	bl	100031f8 <__aeabi_dcmpgt>
10001276:	b350      	cbz	r0, 100012ce <_ftoa+0x1fe>
10001278:	3701      	adds	r7, #1
1000127a:	4638      	mov	r0, r7
1000127c:	f001 fcb2 	bl	10002be4 <__aeabi_ui2d>
10001280:	4602      	mov	r2, r0
10001282:	460b      	mov	r3, r1
10001284:	ec51 0b18 	vmov	r0, r1, d8
10001288:	f001 ffa2 	bl	100031d0 <__aeabi_dcmple>
1000128c:	b108      	cbz	r0, 10001292 <_ftoa+0x1c2>
1000128e:	3601      	adds	r6, #1
10001290:	2700      	movs	r7, #0
10001292:	bb55      	cbnz	r5, 100012ea <_ftoa+0x21a>
10001294:	4630      	mov	r0, r6
10001296:	f001 fcb5 	bl	10002c04 <__aeabi_i2d>
1000129a:	4602      	mov	r2, r0
1000129c:	460b      	mov	r3, r1
1000129e:	4640      	mov	r0, r8
100012a0:	4649      	mov	r1, r9
100012a2:	f001 fb61 	bl	10002968 <__aeabi_dsub>
100012a6:	4607      	mov	r7, r0
100012a8:	4688      	mov	r8, r1
100012aa:	2200      	movs	r2, #0
100012ac:	4b3e      	ldr	r3, [pc, #248]	; (100013a8 <_ftoa+0x2d8>)
100012ae:	f001 ff85 	bl	100031bc <__aeabi_dcmplt>
100012b2:	b138      	cbz	r0, 100012c4 <_ftoa+0x1f4>
100012b4:	2200      	movs	r2, #0
100012b6:	4b3c      	ldr	r3, [pc, #240]	; (100013a8 <_ftoa+0x2d8>)
100012b8:	4638      	mov	r0, r7
100012ba:	4641      	mov	r1, r8
100012bc:	f001 ff9c 	bl	100031f8 <__aeabi_dcmpgt>
100012c0:	2800      	cmp	r0, #0
100012c2:	d042      	beq.n	1000134a <_ftoa+0x27a>
100012c4:	f016 0f01 	tst.w	r6, #1
100012c8:	d03f      	beq.n	1000134a <_ftoa+0x27a>
100012ca:	3601      	adds	r6, #1
100012cc:	e03d      	b.n	1000134a <_ftoa+0x27a>
100012ce:	2200      	movs	r2, #0
100012d0:	4b35      	ldr	r3, [pc, #212]	; (100013a8 <_ftoa+0x2d8>)
100012d2:	e9dd 0108 	ldrd	r0, r1, [sp, #32]
100012d6:	f001 ff71 	bl	100031bc <__aeabi_dcmplt>
100012da:	2800      	cmp	r0, #0
100012dc:	d1d9      	bne.n	10001292 <_ftoa+0x1c2>
100012de:	b117      	cbz	r7, 100012e6 <_ftoa+0x216>
100012e0:	f017 0f01 	tst.w	r7, #1
100012e4:	d0d5      	beq.n	10001292 <_ftoa+0x1c2>
100012e6:	3701      	adds	r7, #1
100012e8:	e7d3      	b.n	10001292 <_ftoa+0x1c2>
100012ea:	2c1f      	cmp	r4, #31
100012ec:	d817      	bhi.n	1000131e <_ftoa+0x24e>
100012ee:	3d01      	subs	r5, #1
100012f0:	4b2e      	ldr	r3, [pc, #184]	; (100013ac <_ftoa+0x2dc>)
100012f2:	fba3 2307 	umull	r2, r3, r3, r7
100012f6:	08db      	lsrs	r3, r3, #3
100012f8:	4619      	mov	r1, r3
100012fa:	eb03 0383 	add.w	r3, r3, r3, lsl #2
100012fe:	eba7 0343 	sub.w	r3, r7, r3, lsl #1
10001302:	1c62      	adds	r2, r4, #1
10001304:	3330      	adds	r3, #48	; 0x30
10001306:	f104 0050 	add.w	r0, r4, #80	; 0x50
1000130a:	eb0d 0400 	add.w	r4, sp, r0
1000130e:	f804 3c20 	strb.w	r3, [r4, #-32]
10001312:	2f09      	cmp	r7, #9
10001314:	d902      	bls.n	1000131c <_ftoa+0x24c>
10001316:	460f      	mov	r7, r1
10001318:	4614      	mov	r4, r2
1000131a:	e7e6      	b.n	100012ea <_ftoa+0x21a>
1000131c:	4614      	mov	r4, r2
1000131e:	2c1f      	cmp	r4, #31
10001320:	d80a      	bhi.n	10001338 <_ftoa+0x268>
10001322:	1e6b      	subs	r3, r5, #1
10001324:	b145      	cbz	r5, 10001338 <_ftoa+0x268>
10001326:	f104 0250 	add.w	r2, r4, #80	; 0x50
1000132a:	446a      	add	r2, sp
1000132c:	2130      	movs	r1, #48	; 0x30
1000132e:	f802 1c20 	strb.w	r1, [r2, #-32]
10001332:	461d      	mov	r5, r3
10001334:	3401      	adds	r4, #1
10001336:	e7f2      	b.n	1000131e <_ftoa+0x24e>
10001338:	2c1f      	cmp	r4, #31
1000133a:	d806      	bhi.n	1000134a <_ftoa+0x27a>
1000133c:	f104 0350 	add.w	r3, r4, #80	; 0x50
10001340:	446b      	add	r3, sp
10001342:	222e      	movs	r2, #46	; 0x2e
10001344:	f803 2c20 	strb.w	r2, [r3, #-32]
10001348:	3401      	adds	r4, #1
1000134a:	2c1f      	cmp	r4, #31
1000134c:	d833      	bhi.n	100013b6 <_ftoa+0x2e6>
1000134e:	4a18      	ldr	r2, [pc, #96]	; (100013b0 <_ftoa+0x2e0>)
10001350:	fb82 3206 	smull	r3, r2, r2, r6
10001354:	17f3      	asrs	r3, r6, #31
10001356:	ebc3 03a2 	rsb	r3, r3, r2, asr #2
1000135a:	461a      	mov	r2, r3
1000135c:	eb03 0383 	add.w	r3, r3, r3, lsl #2
10001360:	eba6 0343 	sub.w	r3, r6, r3, lsl #1
10001364:	1c61      	adds	r1, r4, #1
10001366:	3330      	adds	r3, #48	; 0x30
10001368:	f104 0050 	add.w	r0, r4, #80	; 0x50
1000136c:	eb0d 0400 	add.w	r4, sp, r0
10001370:	f804 3c20 	strb.w	r3, [r4, #-32]
10001374:	4616      	mov	r6, r2
10001376:	b1ea      	cbz	r2, 100013b4 <_ftoa+0x2e4>
10001378:	460c      	mov	r4, r1
1000137a:	e7e6      	b.n	1000134a <_ftoa+0x27a>
1000137c:	f3af 8000 	nop.w
10001380:	00000000 	andeq	r0, r0, r0
10001384:	41cdcd65 	bicmi	ip, sp, r5, ror #26
10001388:	00000000 	andeq	r0, r0, r0
1000138c:	c1cdcd65 	bicgt	ip, sp, r5, ror #26
10001390:	7fefffff 	svcvc	0x00efffff
10001394:	10003690 	mulne	r0, r0, r6
10001398:	10003694 	mulne	r0, r4, r6
1000139c:	10003688 	andne	r3, r0, r8, lsl #13
100013a0:	10003684 	andne	r3, r0, r4, lsl #13
100013a4:	100036a0 	andne	r3, r0, r0, lsr #13
100013a8:	3fe00000 	svccc	0x00e00000
100013ac:	cccccccd 	stclgt	12, cr12, [ip], {205}	; 0xcd
100013b0:	66666667 	strbtvs	r6, [r6], -r7, ror #12
100013b4:	460c      	mov	r4, r1
100013b6:	9b24      	ldr	r3, [sp, #144]	; 0x90
100013b8:	f003 0303 	and.w	r3, r3, #3
100013bc:	2b01      	cmp	r3, #1
100013be:	d01d      	beq.n	100013fc <_ftoa+0x32c>
100013c0:	2c1f      	cmp	r4, #31
100013c2:	d809      	bhi.n	100013d8 <_ftoa+0x308>
100013c4:	9b0b      	ldr	r3, [sp, #44]	; 0x2c
100013c6:	2b00      	cmp	r3, #0
100013c8:	d035      	beq.n	10001436 <_ftoa+0x366>
100013ca:	f104 0350 	add.w	r3, r4, #80	; 0x50
100013ce:	446b      	add	r3, sp
100013d0:	222d      	movs	r2, #45	; 0x2d
100013d2:	f803 2c20 	strb.w	r2, [r3, #-32]
100013d6:	3401      	adds	r4, #1
100013d8:	9b24      	ldr	r3, [sp, #144]	; 0x90
100013da:	9303      	str	r3, [sp, #12]
100013dc:	9b23      	ldr	r3, [sp, #140]	; 0x8c
100013de:	9302      	str	r3, [sp, #8]
100013e0:	9401      	str	r4, [sp, #4]
100013e2:	ab0c      	add	r3, sp, #48	; 0x30
100013e4:	9300      	str	r3, [sp, #0]
100013e6:	465b      	mov	r3, fp
100013e8:	4652      	mov	r2, sl
100013ea:	990a      	ldr	r1, [sp, #40]	; 0x28
100013ec:	9807      	ldr	r0, [sp, #28]
100013ee:	f7ff faec 	bl	100009ca <_out_rev>
100013f2:	b015      	add	sp, #84	; 0x54
100013f4:	ecbd 8b02 	vpop	{d8}
100013f8:	e8bd 8ff0 	ldmia.w	sp!, {r4, r5, r6, r7, r8, r9, sl, fp, pc}
100013fc:	9b23      	ldr	r3, [sp, #140]	; 0x8c
100013fe:	b1b3      	cbz	r3, 1000142e <_ftoa+0x35e>
10001400:	9b0b      	ldr	r3, [sp, #44]	; 0x2c
10001402:	b91b      	cbnz	r3, 1000140c <_ftoa+0x33c>
10001404:	9b24      	ldr	r3, [sp, #144]	; 0x90
10001406:	f013 0f0c 	tst.w	r3, #12
1000140a:	d012      	beq.n	10001432 <_ftoa+0x362>
1000140c:	9b23      	ldr	r3, [sp, #140]	; 0x8c
1000140e:	3b01      	subs	r3, #1
10001410:	9323      	str	r3, [sp, #140]	; 0x8c
10001412:	4619      	mov	r1, r3
10001414:	e006      	b.n	10001424 <_ftoa+0x354>
10001416:	f104 0350 	add.w	r3, r4, #80	; 0x50
1000141a:	446b      	add	r3, sp
1000141c:	2230      	movs	r2, #48	; 0x30
1000141e:	f803 2c20 	strb.w	r2, [r3, #-32]
10001422:	3401      	adds	r4, #1
10001424:	428c      	cmp	r4, r1
10001426:	d2cb      	bcs.n	100013c0 <_ftoa+0x2f0>
10001428:	2c1f      	cmp	r4, #31
1000142a:	d9f4      	bls.n	10001416 <_ftoa+0x346>
1000142c:	e7c8      	b.n	100013c0 <_ftoa+0x2f0>
1000142e:	9923      	ldr	r1, [sp, #140]	; 0x8c
10001430:	e7f8      	b.n	10001424 <_ftoa+0x354>
10001432:	9923      	ldr	r1, [sp, #140]	; 0x8c
10001434:	e7f6      	b.n	10001424 <_ftoa+0x354>
10001436:	9b24      	ldr	r3, [sp, #144]	; 0x90
10001438:	f013 0f04 	tst.w	r3, #4
1000143c:	d007      	beq.n	1000144e <_ftoa+0x37e>
1000143e:	f104 0350 	add.w	r3, r4, #80	; 0x50
10001442:	446b      	add	r3, sp
10001444:	222b      	movs	r2, #43	; 0x2b
10001446:	f803 2c20 	strb.w	r2, [r3, #-32]
1000144a:	3401      	adds	r4, #1
1000144c:	e7c4      	b.n	100013d8 <_ftoa+0x308>
1000144e:	9b24      	ldr	r3, [sp, #144]	; 0x90
10001450:	f013 0f08 	tst.w	r3, #8
10001454:	d0c0      	beq.n	100013d8 <_ftoa+0x308>
10001456:	f104 0350 	add.w	r3, r4, #80	; 0x50
1000145a:	446b      	add	r3, sp
1000145c:	2220      	movs	r2, #32
1000145e:	f803 2c20 	strb.w	r2, [r3, #-32]
10001462:	3401      	adds	r4, #1
10001464:	e7b8      	b.n	100013d8 <_ftoa+0x308>
10001466:	bf00      	nop

10001468 <_vsnprintf>:
10001468:	e92d 4ff0 	stmdb	sp!, {r4, r5, r6, r7, r8, r9, sl, fp, lr}
1000146c:	b08f      	sub	sp, #60	; 0x3c
1000146e:	4607      	mov	r7, r0
10001470:	4616      	mov	r6, r2
10001472:	930d      	str	r3, [sp, #52]	; 0x34
10001474:	4688      	mov	r8, r1
10001476:	2900      	cmp	r1, #0
10001478:	f000 8324 	beq.w	10001ac4 <_vsnprintf+0x65c>
1000147c:	2400      	movs	r4, #0
1000147e:	9b0d      	ldr	r3, [sp, #52]	; 0x34
10001480:	7818      	ldrb	r0, [r3, #0]
10001482:	2800      	cmp	r0, #0
10001484:	f000 8320 	beq.w	10001ac8 <_vsnprintf+0x660>
10001488:	2825      	cmp	r0, #37	; 0x25
1000148a:	d009      	beq.n	100014a0 <_vsnprintf+0x38>
1000148c:	1c65      	adds	r5, r4, #1
1000148e:	4633      	mov	r3, r6
10001490:	4622      	mov	r2, r4
10001492:	4641      	mov	r1, r8
10001494:	47b8      	blx	r7
10001496:	9b0d      	ldr	r3, [sp, #52]	; 0x34
10001498:	3301      	adds	r3, #1
1000149a:	930d      	str	r3, [sp, #52]	; 0x34
1000149c:	462c      	mov	r4, r5
1000149e:	e7ee      	b.n	1000147e <_vsnprintf+0x16>
100014a0:	3301      	adds	r3, #1
100014a2:	930d      	str	r3, [sp, #52]	; 0x34
100014a4:	2500      	movs	r5, #0
100014a6:	9b0d      	ldr	r3, [sp, #52]	; 0x34
100014a8:	7819      	ldrb	r1, [r3, #0]
100014aa:	f1a1 0220 	sub.w	r2, r1, #32
100014ae:	2a10      	cmp	r2, #16
100014b0:	d80a      	bhi.n	100014c8 <_vsnprintf+0x60>
100014b2:	e8df f002 	tbb	[pc, r2]
100014b6:	3d090938 	vstrcc.16	s0, [r9, #-112]	; 0xffffff90	; <UNPREDICTABLE>
100014ba:	09090909 	stmdbeq	r9, {r0, r3, r8, fp}
100014be:	33090909 	movwcc	r0, #39177	; 0x9909
100014c2:	09092e09 	stmdbeq	r9, {r0, r3, r9, sl, fp, sp}
100014c6:	f1a10029 			; <UNDEFINED> instruction: 0xf1a10029
100014ca:	0330      	lsls	r0, r6, #12
100014cc:	b2db      	uxtb	r3, r3
100014ce:	2b09      	cmp	r3, #9
100014d0:	d933      	bls.n	1000153a <_vsnprintf+0xd2>
100014d2:	292a      	cmp	r1, #42	; 0x2a
100014d4:	d036      	beq.n	10001544 <_vsnprintf+0xdc>
100014d6:	2300      	movs	r3, #0
100014d8:	930a      	str	r3, [sp, #40]	; 0x28
100014da:	9b0d      	ldr	r3, [sp, #52]	; 0x34
100014dc:	781a      	ldrb	r2, [r3, #0]
100014de:	2a2e      	cmp	r2, #46	; 0x2e
100014e0:	d040      	beq.n	10001564 <_vsnprintf+0xfc>
100014e2:	f04f 0b00 	mov.w	fp, #0
100014e6:	9a0d      	ldr	r2, [sp, #52]	; 0x34
100014e8:	7813      	ldrb	r3, [r2, #0]
100014ea:	3b68      	subs	r3, #104	; 0x68
100014ec:	2b12      	cmp	r3, #18
100014ee:	d877      	bhi.n	100015e0 <_vsnprintf+0x178>
100014f0:	e8df f003 	tbb	[pc, r3]
100014f4:	76d37664 	ldrbvc	r7, [r3], r4, ror #12
100014f8:	76767656 			; <UNDEFINED> instruction: 0x76767656
100014fc:	76767676 			; <UNDEFINED> instruction: 0x76767676
10001500:	76767672 			; <UNDEFINED> instruction: 0x76767672
10001504:	00d87676 	sbcseq	r7, r8, r6, ror r6
10001508:	f045 0501 	orr.w	r5, r5, #1
1000150c:	3301      	adds	r3, #1
1000150e:	930d      	str	r3, [sp, #52]	; 0x34
10001510:	e7c9      	b.n	100014a6 <_vsnprintf+0x3e>
10001512:	f045 0502 	orr.w	r5, r5, #2
10001516:	3301      	adds	r3, #1
10001518:	930d      	str	r3, [sp, #52]	; 0x34
1000151a:	e7c4      	b.n	100014a6 <_vsnprintf+0x3e>
1000151c:	f045 0504 	orr.w	r5, r5, #4
10001520:	3301      	adds	r3, #1
10001522:	930d      	str	r3, [sp, #52]	; 0x34
10001524:	e7bf      	b.n	100014a6 <_vsnprintf+0x3e>
10001526:	f045 0508 	orr.w	r5, r5, #8
1000152a:	3301      	adds	r3, #1
1000152c:	930d      	str	r3, [sp, #52]	; 0x34
1000152e:	e7ba      	b.n	100014a6 <_vsnprintf+0x3e>
10001530:	f045 0510 	orr.w	r5, r5, #16
10001534:	3301      	adds	r3, #1
10001536:	930d      	str	r3, [sp, #52]	; 0x34
10001538:	e7b5      	b.n	100014a6 <_vsnprintf+0x3e>
1000153a:	a80d      	add	r0, sp, #52	; 0x34
1000153c:	f7ff fa33 	bl	100009a6 <_atoi>
10001540:	900a      	str	r0, [sp, #40]	; 0x28
10001542:	e7ca      	b.n	100014da <_vsnprintf+0x72>
10001544:	9b18      	ldr	r3, [sp, #96]	; 0x60
10001546:	1d1a      	adds	r2, r3, #4
10001548:	9218      	str	r2, [sp, #96]	; 0x60
1000154a:	6818      	ldr	r0, [r3, #0]
1000154c:	2800      	cmp	r0, #0
1000154e:	db04      	blt.n	1000155a <_vsnprintf+0xf2>
10001550:	900a      	str	r0, [sp, #40]	; 0x28
10001552:	9b0d      	ldr	r3, [sp, #52]	; 0x34
10001554:	3301      	adds	r3, #1
10001556:	930d      	str	r3, [sp, #52]	; 0x34
10001558:	e7bf      	b.n	100014da <_vsnprintf+0x72>
1000155a:	f045 0502 	orr.w	r5, r5, #2
1000155e:	4243      	negs	r3, r0
10001560:	930a      	str	r3, [sp, #40]	; 0x28
10001562:	e7f6      	b.n	10001552 <_vsnprintf+0xea>
10001564:	f445 6580 	orr.w	r5, r5, #1024	; 0x400
10001568:	1c5a      	adds	r2, r3, #1
1000156a:	920d      	str	r2, [sp, #52]	; 0x34
1000156c:	785a      	ldrb	r2, [r3, #1]
1000156e:	f1a2 0330 	sub.w	r3, r2, #48	; 0x30
10001572:	b2db      	uxtb	r3, r3
10001574:	2b09      	cmp	r3, #9
10001576:	d904      	bls.n	10001582 <_vsnprintf+0x11a>
10001578:	2a2a      	cmp	r2, #42	; 0x2a
1000157a:	d007      	beq.n	1000158c <_vsnprintf+0x124>
1000157c:	f04f 0b00 	mov.w	fp, #0
10001580:	e7b1      	b.n	100014e6 <_vsnprintf+0x7e>
10001582:	a80d      	add	r0, sp, #52	; 0x34
10001584:	f7ff fa0f 	bl	100009a6 <_atoi>
10001588:	4683      	mov	fp, r0
1000158a:	e7ac      	b.n	100014e6 <_vsnprintf+0x7e>
1000158c:	9b18      	ldr	r3, [sp, #96]	; 0x60
1000158e:	1d1a      	adds	r2, r3, #4
10001590:	9218      	str	r2, [sp, #96]	; 0x60
10001592:	681b      	ldr	r3, [r3, #0]
10001594:	ea23 7be3 	bic.w	fp, r3, r3, asr #31
10001598:	9b0d      	ldr	r3, [sp, #52]	; 0x34
1000159a:	3301      	adds	r3, #1
1000159c:	930d      	str	r3, [sp, #52]	; 0x34
1000159e:	e7a2      	b.n	100014e6 <_vsnprintf+0x7e>
100015a0:	f445 7180 	orr.w	r1, r5, #256	; 0x100
100015a4:	1c53      	adds	r3, r2, #1
100015a6:	930d      	str	r3, [sp, #52]	; 0x34
100015a8:	7852      	ldrb	r2, [r2, #1]
100015aa:	2a6c      	cmp	r2, #108	; 0x6c
100015ac:	d001      	beq.n	100015b2 <_vsnprintf+0x14a>
100015ae:	460d      	mov	r5, r1
100015b0:	e016      	b.n	100015e0 <_vsnprintf+0x178>
100015b2:	f445 7540 	orr.w	r5, r5, #768	; 0x300
100015b6:	3301      	adds	r3, #1
100015b8:	930d      	str	r3, [sp, #52]	; 0x34
100015ba:	e011      	b.n	100015e0 <_vsnprintf+0x178>
100015bc:	f045 0180 	orr.w	r1, r5, #128	; 0x80
100015c0:	1c53      	adds	r3, r2, #1
100015c2:	930d      	str	r3, [sp, #52]	; 0x34
100015c4:	7852      	ldrb	r2, [r2, #1]
100015c6:	2a68      	cmp	r2, #104	; 0x68
100015c8:	d001      	beq.n	100015ce <_vsnprintf+0x166>
100015ca:	460d      	mov	r5, r1
100015cc:	e008      	b.n	100015e0 <_vsnprintf+0x178>
100015ce:	f045 05c0 	orr.w	r5, r5, #192	; 0xc0
100015d2:	3301      	adds	r3, #1
100015d4:	930d      	str	r3, [sp, #52]	; 0x34
100015d6:	e003      	b.n	100015e0 <_vsnprintf+0x178>
100015d8:	f445 7580 	orr.w	r5, r5, #256	; 0x100
100015dc:	3201      	adds	r2, #1
100015de:	920d      	str	r2, [sp, #52]	; 0x34
100015e0:	9b0d      	ldr	r3, [sp, #52]	; 0x34
100015e2:	7818      	ldrb	r0, [r3, #0]
100015e4:	f1a0 0325 	sub.w	r3, r0, #37	; 0x25
100015e8:	2b53      	cmp	r3, #83	; 0x53
100015ea:	f200 8261 	bhi.w	10001ab0 <_vsnprintf+0x648>
100015ee:	e8df f013 	tbh	[pc, r3, lsl #1]
100015f2:	025f0254 	subseq	r0, pc, #84, 4	; 0x40000005
100015f6:	025f025f 	subseq	r0, pc, #-268435451	; 0xf0000005
100015fa:	025f025f 	subseq	r0, pc, #-268435451	; 0xf0000005
100015fe:	025f025f 	subseq	r0, pc, #-268435451	; 0xf0000005
10001602:	025f025f 	subseq	r0, pc, #-268435451	; 0xf0000005
10001606:	025f025f 	subseq	r0, pc, #-268435451	; 0xf0000005
1000160a:	025f025f 	subseq	r0, pc, #-268435451	; 0xf0000005
1000160e:	025f025f 	subseq	r0, pc, #-268435451	; 0xf0000005
10001612:	025f025f 	subseq	r0, pc, #-268435451	; 0xf0000005
10001616:	025f025f 	subseq	r0, pc, #-268435451	; 0xf0000005
1000161a:	025f025f 	subseq	r0, pc, #-268435451	; 0xf0000005
1000161e:	025f025f 	subseq	r0, pc, #-268435451	; 0xf0000005
10001622:	025f025f 	subseq	r0, pc, #-268435451	; 0xf0000005
10001626:	025f025f 	subseq	r0, pc, #-268435451	; 0xf0000005
1000162a:	025f025f 	subseq	r0, pc, #-268435451	; 0xf0000005
1000162e:	025f025f 	subseq	r0, pc, #-268435451	; 0xf0000005
10001632:	01540174 	cmpeq	r4, r4, ror r1
10001636:	025f0174 	subseq	r0, pc, #116, 2
1000163a:	025f025f 	subseq	r0, pc, #-268435451	; 0xf0000005
1000163e:	025f025f 	subseq	r0, pc, #-268435451	; 0xf0000005
10001642:	025f025f 	subseq	r0, pc, #-268435451	; 0xf0000005
10001646:	025f025f 	subseq	r0, pc, #-268435451	; 0xf0000005
1000164a:	025f025f 	subseq	r0, pc, #-268435451	; 0xf0000005
1000164e:	025f025f 	subseq	r0, pc, #-268435451	; 0xf0000005
10001652:	025f025f 	subseq	r0, pc, #-268435451	; 0xf0000005
10001656:	005e025f 	subseq	r0, lr, pc, asr r2
1000165a:	025f025f 	subseq	r0, pc, #-268435451	; 0xf0000005
1000165e:	025f025f 	subseq	r0, pc, #-268435451	; 0xf0000005
10001662:	025f025f 	subseq	r0, pc, #-268435451	; 0xf0000005
10001666:	025f025f 	subseq	r0, pc, #-268435451	; 0xf0000005
1000166a:	005e025f 	subseq	r0, lr, pc, asr r2
1000166e:	005e019b 			; <UNDEFINED> instruction: 0x005e019b
10001672:	01540174 	cmpeq	r4, r4, ror r1
10001676:	025f0174 	subseq	r0, pc, #116, 2
1000167a:	025f005e 	subseq	r0, pc, #94	; 0x5e
1000167e:	025f025f 	subseq	r0, pc, #-268435451	; 0xf0000005
10001682:	025f025f 	subseq	r0, pc, #-268435451	; 0xf0000005
10001686:	0239005e 	eorseq	r0, r9, #94	; 0x5e
1000168a:	025f025f 	subseq	r0, pc, #-268435451	; 0xf0000005
1000168e:	025f01d4 	subseq	r0, pc, #212, 2	; 0x35
10001692:	025f005e 	subseq	r0, pc, #94	; 0x5e
10001696:	005e025f 	subseq	r0, lr, pc, asr r2
1000169a:	f445 7500 	orr.w	r5, r5, #512	; 0x200
1000169e:	3201      	adds	r2, #1
100016a0:	920d      	str	r2, [sp, #52]	; 0x34
100016a2:	e79d      	b.n	100015e0 <_vsnprintf+0x178>
100016a4:	f445 7580 	orr.w	r5, r5, #256	; 0x100
100016a8:	3201      	adds	r2, #1
100016aa:	920d      	str	r2, [sp, #52]	; 0x34
100016ac:	e798      	b.n	100015e0 <_vsnprintf+0x178>
100016ae:	2878      	cmp	r0, #120	; 0x78
100016b0:	d009      	beq.n	100016c6 <_vsnprintf+0x25e>
100016b2:	2858      	cmp	r0, #88	; 0x58
100016b4:	d03a      	beq.n	1000172c <_vsnprintf+0x2c4>
100016b6:	286f      	cmp	r0, #111	; 0x6f
100016b8:	d03a      	beq.n	10001730 <_vsnprintf+0x2c8>
100016ba:	2862      	cmp	r0, #98	; 0x62
100016bc:	d03a      	beq.n	10001734 <_vsnprintf+0x2cc>
100016be:	f025 0510 	bic.w	r5, r5, #16
100016c2:	230a      	movs	r3, #10
100016c4:	e000      	b.n	100016c8 <_vsnprintf+0x260>
100016c6:	2310      	movs	r3, #16
100016c8:	2858      	cmp	r0, #88	; 0x58
100016ca:	d035      	beq.n	10001738 <_vsnprintf+0x2d0>
100016cc:	2869      	cmp	r0, #105	; 0x69
100016ce:	d003      	beq.n	100016d8 <_vsnprintf+0x270>
100016d0:	2864      	cmp	r0, #100	; 0x64
100016d2:	d001      	beq.n	100016d8 <_vsnprintf+0x270>
100016d4:	f025 050c 	bic.w	r5, r5, #12
100016d8:	f415 6f80 	tst.w	r5, #1024	; 0x400
100016dc:	d001      	beq.n	100016e2 <_vsnprintf+0x27a>
100016de:	f025 0501 	bic.w	r5, r5, #1
100016e2:	2869      	cmp	r0, #105	; 0x69
100016e4:	d02b      	beq.n	1000173e <_vsnprintf+0x2d6>
100016e6:	2864      	cmp	r0, #100	; 0x64
100016e8:	d029      	beq.n	1000173e <_vsnprintf+0x2d6>
100016ea:	f415 7f00 	tst.w	r5, #512	; 0x200
100016ee:	f040 8096 	bne.w	1000181e <_vsnprintf+0x3b6>
100016f2:	f415 7f80 	tst.w	r5, #256	; 0x100
100016f6:	f040 80ae 	bne.w	10001856 <_vsnprintf+0x3ee>
100016fa:	f015 0f40 	tst.w	r5, #64	; 0x40
100016fe:	f000 80bf 	beq.w	10001880 <_vsnprintf+0x418>
10001702:	9a18      	ldr	r2, [sp, #96]	; 0x60
10001704:	1d11      	adds	r1, r2, #4
10001706:	9118      	str	r1, [sp, #96]	; 0x60
10001708:	7812      	ldrb	r2, [r2, #0]
1000170a:	9505      	str	r5, [sp, #20]
1000170c:	990a      	ldr	r1, [sp, #40]	; 0x28
1000170e:	9104      	str	r1, [sp, #16]
10001710:	f8cd b00c 	str.w	fp, [sp, #12]
10001714:	9302      	str	r3, [sp, #8]
10001716:	2300      	movs	r3, #0
10001718:	9301      	str	r3, [sp, #4]
1000171a:	9200      	str	r2, [sp, #0]
1000171c:	4633      	mov	r3, r6
1000171e:	4622      	mov	r2, r4
10001720:	4641      	mov	r1, r8
10001722:	4638      	mov	r0, r7
10001724:	f7ff fa2c 	bl	10000b80 <_ntoa_long>
10001728:	4604      	mov	r4, r0
1000172a:	e029      	b.n	10001780 <_vsnprintf+0x318>
1000172c:	2310      	movs	r3, #16
1000172e:	e7cb      	b.n	100016c8 <_vsnprintf+0x260>
10001730:	2308      	movs	r3, #8
10001732:	e7c9      	b.n	100016c8 <_vsnprintf+0x260>
10001734:	2302      	movs	r3, #2
10001736:	e7c7      	b.n	100016c8 <_vsnprintf+0x260>
10001738:	f045 0520 	orr.w	r5, r5, #32
1000173c:	e7c6      	b.n	100016cc <_vsnprintf+0x264>
1000173e:	f415 7f00 	tst.w	r5, #512	; 0x200
10001742:	d121      	bne.n	10001788 <_vsnprintf+0x320>
10001744:	f415 7f80 	tst.w	r5, #256	; 0x100
10001748:	d142      	bne.n	100017d0 <_vsnprintf+0x368>
1000174a:	f015 0f40 	tst.w	r5, #64	; 0x40
1000174e:	d058      	beq.n	10001802 <_vsnprintf+0x39a>
10001750:	9a18      	ldr	r2, [sp, #96]	; 0x60
10001752:	1d11      	adds	r1, r2, #4
10001754:	9118      	str	r1, [sp, #96]	; 0x60
10001756:	7812      	ldrb	r2, [r2, #0]
10001758:	ea82 71e2 	eor.w	r1, r2, r2, asr #31
1000175c:	eba1 71e2 	sub.w	r1, r1, r2, asr #31
10001760:	9505      	str	r5, [sp, #20]
10001762:	980a      	ldr	r0, [sp, #40]	; 0x28
10001764:	9004      	str	r0, [sp, #16]
10001766:	f8cd b00c 	str.w	fp, [sp, #12]
1000176a:	9302      	str	r3, [sp, #8]
1000176c:	0fd2      	lsrs	r2, r2, #31
1000176e:	9201      	str	r2, [sp, #4]
10001770:	9100      	str	r1, [sp, #0]
10001772:	4633      	mov	r3, r6
10001774:	4622      	mov	r2, r4
10001776:	4641      	mov	r1, r8
10001778:	4638      	mov	r0, r7
1000177a:	f7ff fa01 	bl	10000b80 <_ntoa_long>
1000177e:	4604      	mov	r4, r0
10001780:	9b0d      	ldr	r3, [sp, #52]	; 0x34
10001782:	3301      	adds	r3, #1
10001784:	930d      	str	r3, [sp, #52]	; 0x34
10001786:	e67a      	b.n	1000147e <_vsnprintf+0x16>
10001788:	9a18      	ldr	r2, [sp, #96]	; 0x60
1000178a:	3207      	adds	r2, #7
1000178c:	f022 0207 	bic.w	r2, r2, #7
10001790:	f102 0108 	add.w	r1, r2, #8
10001794:	9118      	str	r1, [sp, #96]	; 0x60
10001796:	6851      	ldr	r1, [r2, #4]
10001798:	6812      	ldr	r2, [r2, #0]
1000179a:	4608      	mov	r0, r1
1000179c:	2900      	cmp	r1, #0
1000179e:	db13      	blt.n	100017c8 <_vsnprintf+0x360>
100017a0:	9508      	str	r5, [sp, #32]
100017a2:	9d0a      	ldr	r5, [sp, #40]	; 0x28
100017a4:	9507      	str	r5, [sp, #28]
100017a6:	f8cd b018 	str.w	fp, [sp, #24]
100017aa:	9304      	str	r3, [sp, #16]
100017ac:	2300      	movs	r3, #0
100017ae:	9305      	str	r3, [sp, #20]
100017b0:	0fc9      	lsrs	r1, r1, #31
100017b2:	9102      	str	r1, [sp, #8]
100017b4:	9200      	str	r2, [sp, #0]
100017b6:	9001      	str	r0, [sp, #4]
100017b8:	4633      	mov	r3, r6
100017ba:	4622      	mov	r2, r4
100017bc:	4641      	mov	r1, r8
100017be:	4638      	mov	r0, r7
100017c0:	f7ff fa28 	bl	10000c14 <_ntoa_long_long>
100017c4:	4604      	mov	r4, r0
100017c6:	e7db      	b.n	10001780 <_vsnprintf+0x318>
100017c8:	4252      	negs	r2, r2
100017ca:	eb61 0041 	sbc.w	r0, r1, r1, lsl #1
100017ce:	e7e7      	b.n	100017a0 <_vsnprintf+0x338>
100017d0:	9a18      	ldr	r2, [sp, #96]	; 0x60
100017d2:	1d11      	adds	r1, r2, #4
100017d4:	9118      	str	r1, [sp, #96]	; 0x60
100017d6:	6812      	ldr	r2, [r2, #0]
100017d8:	ea82 71e2 	eor.w	r1, r2, r2, asr #31
100017dc:	eba1 71e2 	sub.w	r1, r1, r2, asr #31
100017e0:	9505      	str	r5, [sp, #20]
100017e2:	980a      	ldr	r0, [sp, #40]	; 0x28
100017e4:	9004      	str	r0, [sp, #16]
100017e6:	f8cd b00c 	str.w	fp, [sp, #12]
100017ea:	9302      	str	r3, [sp, #8]
100017ec:	0fd2      	lsrs	r2, r2, #31
100017ee:	9201      	str	r2, [sp, #4]
100017f0:	9100      	str	r1, [sp, #0]
100017f2:	4633      	mov	r3, r6
100017f4:	4622      	mov	r2, r4
100017f6:	4641      	mov	r1, r8
100017f8:	4638      	mov	r0, r7
100017fa:	f7ff f9c1 	bl	10000b80 <_ntoa_long>
100017fe:	4604      	mov	r4, r0
10001800:	e7be      	b.n	10001780 <_vsnprintf+0x318>
10001802:	f015 0f80 	tst.w	r5, #128	; 0x80
10001806:	d005      	beq.n	10001814 <_vsnprintf+0x3ac>
10001808:	9a18      	ldr	r2, [sp, #96]	; 0x60
1000180a:	1d11      	adds	r1, r2, #4
1000180c:	9118      	str	r1, [sp, #96]	; 0x60
1000180e:	f9b2 2000 	ldrsh.w	r2, [r2]
10001812:	e7a1      	b.n	10001758 <_vsnprintf+0x2f0>
10001814:	9a18      	ldr	r2, [sp, #96]	; 0x60
10001816:	1d11      	adds	r1, r2, #4
10001818:	9118      	str	r1, [sp, #96]	; 0x60
1000181a:	6812      	ldr	r2, [r2, #0]
1000181c:	e79c      	b.n	10001758 <_vsnprintf+0x2f0>
1000181e:	9a18      	ldr	r2, [sp, #96]	; 0x60
10001820:	3207      	adds	r2, #7
10001822:	f022 0207 	bic.w	r2, r2, #7
10001826:	f102 0108 	add.w	r1, r2, #8
1000182a:	9118      	str	r1, [sp, #96]	; 0x60
1000182c:	9508      	str	r5, [sp, #32]
1000182e:	990a      	ldr	r1, [sp, #40]	; 0x28
10001830:	9107      	str	r1, [sp, #28]
10001832:	f8cd b018 	str.w	fp, [sp, #24]
10001836:	2100      	movs	r1, #0
10001838:	9304      	str	r3, [sp, #16]
1000183a:	9105      	str	r1, [sp, #20]
1000183c:	9102      	str	r1, [sp, #8]
1000183e:	e9d2 2300 	ldrd	r2, r3, [r2]
10001842:	e9cd 2300 	strd	r2, r3, [sp]
10001846:	4633      	mov	r3, r6
10001848:	4622      	mov	r2, r4
1000184a:	4641      	mov	r1, r8
1000184c:	4638      	mov	r0, r7
1000184e:	f7ff f9e1 	bl	10000c14 <_ntoa_long_long>
10001852:	4604      	mov	r4, r0
10001854:	e794      	b.n	10001780 <_vsnprintf+0x318>
10001856:	9a18      	ldr	r2, [sp, #96]	; 0x60
10001858:	1d11      	adds	r1, r2, #4
1000185a:	9118      	str	r1, [sp, #96]	; 0x60
1000185c:	9505      	str	r5, [sp, #20]
1000185e:	990a      	ldr	r1, [sp, #40]	; 0x28
10001860:	9104      	str	r1, [sp, #16]
10001862:	f8cd b00c 	str.w	fp, [sp, #12]
10001866:	9302      	str	r3, [sp, #8]
10001868:	2300      	movs	r3, #0
1000186a:	9301      	str	r3, [sp, #4]
1000186c:	6813      	ldr	r3, [r2, #0]
1000186e:	9300      	str	r3, [sp, #0]
10001870:	4633      	mov	r3, r6
10001872:	4622      	mov	r2, r4
10001874:	4641      	mov	r1, r8
10001876:	4638      	mov	r0, r7
10001878:	f7ff f982 	bl	10000b80 <_ntoa_long>
1000187c:	4604      	mov	r4, r0
1000187e:	e77f      	b.n	10001780 <_vsnprintf+0x318>
10001880:	f015 0f80 	tst.w	r5, #128	; 0x80
10001884:	d004      	beq.n	10001890 <_vsnprintf+0x428>
10001886:	9a18      	ldr	r2, [sp, #96]	; 0x60
10001888:	1d11      	adds	r1, r2, #4
1000188a:	9118      	str	r1, [sp, #96]	; 0x60
1000188c:	8812      	ldrh	r2, [r2, #0]
1000188e:	e73c      	b.n	1000170a <_vsnprintf+0x2a2>
10001890:	9a18      	ldr	r2, [sp, #96]	; 0x60
10001892:	1d11      	adds	r1, r2, #4
10001894:	9118      	str	r1, [sp, #96]	; 0x60
10001896:	6812      	ldr	r2, [r2, #0]
10001898:	e737      	b.n	1000170a <_vsnprintf+0x2a2>
1000189a:	2846      	cmp	r0, #70	; 0x46
1000189c:	d01a      	beq.n	100018d4 <_vsnprintf+0x46c>
1000189e:	9b18      	ldr	r3, [sp, #96]	; 0x60
100018a0:	3307      	adds	r3, #7
100018a2:	f023 0307 	bic.w	r3, r3, #7
100018a6:	f103 0208 	add.w	r2, r3, #8
100018aa:	9218      	str	r2, [sp, #96]	; 0x60
100018ac:	9504      	str	r5, [sp, #16]
100018ae:	9a0a      	ldr	r2, [sp, #40]	; 0x28
100018b0:	9203      	str	r2, [sp, #12]
100018b2:	f8cd b008 	str.w	fp, [sp, #8]
100018b6:	e9d3 2300 	ldrd	r2, r3, [r3]
100018ba:	e9cd 2300 	strd	r2, r3, [sp]
100018be:	4633      	mov	r3, r6
100018c0:	4622      	mov	r2, r4
100018c2:	4641      	mov	r1, r8
100018c4:	4638      	mov	r0, r7
100018c6:	f7ff fc03 	bl	100010d0 <_ftoa>
100018ca:	4604      	mov	r4, r0
100018cc:	9b0d      	ldr	r3, [sp, #52]	; 0x34
100018ce:	3301      	adds	r3, #1
100018d0:	930d      	str	r3, [sp, #52]	; 0x34
100018d2:	e5d4      	b.n	1000147e <_vsnprintf+0x16>
100018d4:	f045 0520 	orr.w	r5, r5, #32
100018d8:	e7e1      	b.n	1000189e <_vsnprintf+0x436>
100018da:	2867      	cmp	r0, #103	; 0x67
100018dc:	d001      	beq.n	100018e2 <_vsnprintf+0x47a>
100018de:	2847      	cmp	r0, #71	; 0x47
100018e0:	d101      	bne.n	100018e6 <_vsnprintf+0x47e>
100018e2:	f445 6500 	orr.w	r5, r5, #2048	; 0x800
100018e6:	2845      	cmp	r0, #69	; 0x45
100018e8:	d001      	beq.n	100018ee <_vsnprintf+0x486>
100018ea:	2847      	cmp	r0, #71	; 0x47
100018ec:	d101      	bne.n	100018f2 <_vsnprintf+0x48a>
100018ee:	f045 0520 	orr.w	r5, r5, #32
100018f2:	9b18      	ldr	r3, [sp, #96]	; 0x60
100018f4:	3307      	adds	r3, #7
100018f6:	f023 0307 	bic.w	r3, r3, #7
100018fa:	f103 0208 	add.w	r2, r3, #8
100018fe:	9218      	str	r2, [sp, #96]	; 0x60
10001900:	9504      	str	r5, [sp, #16]
10001902:	9a0a      	ldr	r2, [sp, #40]	; 0x28
10001904:	9203      	str	r2, [sp, #12]
10001906:	f8cd b008 	str.w	fp, [sp, #8]
1000190a:	e9d3 2300 	ldrd	r2, r3, [r3]
1000190e:	e9cd 2300 	strd	r2, r3, [sp]
10001912:	4633      	mov	r3, r6
10001914:	4622      	mov	r2, r4
10001916:	4641      	mov	r1, r8
10001918:	4638      	mov	r0, r7
1000191a:	f7ff f9e1 	bl	10000ce0 <_etoa>
1000191e:	4604      	mov	r4, r0
10001920:	9b0d      	ldr	r3, [sp, #52]	; 0x34
10001922:	3301      	adds	r3, #1
10001924:	930d      	str	r3, [sp, #52]	; 0x34
10001926:	e5aa      	b.n	1000147e <_vsnprintf+0x16>
10001928:	f015 0502 	ands.w	r5, r5, #2
1000192c:	d01f      	beq.n	1000196e <_vsnprintf+0x506>
1000192e:	f04f 0901 	mov.w	r9, #1
10001932:	9818      	ldr	r0, [sp, #96]	; 0x60
10001934:	1d03      	adds	r3, r0, #4
10001936:	9318      	str	r3, [sp, #96]	; 0x60
10001938:	f104 0a01 	add.w	sl, r4, #1
1000193c:	4633      	mov	r3, r6
1000193e:	4622      	mov	r2, r4
10001940:	4641      	mov	r1, r8
10001942:	7800      	ldrb	r0, [r0, #0]
10001944:	47b8      	blx	r7
10001946:	b9bd      	cbnz	r5, 10001978 <_vsnprintf+0x510>
10001948:	9b0d      	ldr	r3, [sp, #52]	; 0x34
1000194a:	3301      	adds	r3, #1
1000194c:	930d      	str	r3, [sp, #52]	; 0x34
1000194e:	4654      	mov	r4, sl
10001950:	e595      	b.n	1000147e <_vsnprintf+0x16>
10001952:	f102 0a01 	add.w	sl, r2, #1
10001956:	4633      	mov	r3, r6
10001958:	4641      	mov	r1, r8
1000195a:	2020      	movs	r0, #32
1000195c:	47b8      	blx	r7
1000195e:	464b      	mov	r3, r9
10001960:	4652      	mov	r2, sl
10001962:	f103 0901 	add.w	r9, r3, #1
10001966:	459b      	cmp	fp, r3
10001968:	d8f3      	bhi.n	10001952 <_vsnprintf+0x4ea>
1000196a:	4614      	mov	r4, r2
1000196c:	e7e1      	b.n	10001932 <_vsnprintf+0x4ca>
1000196e:	2301      	movs	r3, #1
10001970:	f8dd b028 	ldr.w	fp, [sp, #40]	; 0x28
10001974:	4622      	mov	r2, r4
10001976:	e7f4      	b.n	10001962 <_vsnprintf+0x4fa>
10001978:	4652      	mov	r2, sl
1000197a:	f8dd a028 	ldr.w	sl, [sp, #40]	; 0x28
1000197e:	e006      	b.n	1000198e <_vsnprintf+0x526>
10001980:	1c55      	adds	r5, r2, #1
10001982:	4633      	mov	r3, r6
10001984:	4641      	mov	r1, r8
10001986:	2020      	movs	r0, #32
10001988:	47b8      	blx	r7
1000198a:	46a1      	mov	r9, r4
1000198c:	462a      	mov	r2, r5
1000198e:	f109 0401 	add.w	r4, r9, #1
10001992:	45ca      	cmp	sl, r9
10001994:	d8f4      	bhi.n	10001980 <_vsnprintf+0x518>
10001996:	4692      	mov	sl, r2
10001998:	e7d6      	b.n	10001948 <_vsnprintf+0x4e0>
1000199a:	9b18      	ldr	r3, [sp, #96]	; 0x60
1000199c:	1d1a      	adds	r2, r3, #4
1000199e:	9218      	str	r2, [sp, #96]	; 0x60
100019a0:	f8d3 a000 	ldr.w	sl, [r3]
100019a4:	f1bb 0f00 	cmp.w	fp, #0
100019a8:	d11e      	bne.n	100019e8 <_vsnprintf+0x580>
100019aa:	f04f 33ff 	mov.w	r3, #4294967295
100019ae:	46d1      	mov	r9, sl
100019b0:	e002      	b.n	100019b8 <_vsnprintf+0x550>
100019b2:	f109 0901 	add.w	r9, r9, #1
100019b6:	4613      	mov	r3, r2
100019b8:	f899 2000 	ldrb.w	r2, [r9]
100019bc:	b112      	cbz	r2, 100019c4 <_vsnprintf+0x55c>
100019be:	1e5a      	subs	r2, r3, #1
100019c0:	2b00      	cmp	r3, #0
100019c2:	d1f6      	bne.n	100019b2 <_vsnprintf+0x54a>
100019c4:	eba9 090a 	sub.w	r9, r9, sl
100019c8:	f415 6380 	ands.w	r3, r5, #1024	; 0x400
100019cc:	930b      	str	r3, [sp, #44]	; 0x2c
100019ce:	d002      	beq.n	100019d6 <_vsnprintf+0x56e>
100019d0:	45d9      	cmp	r9, fp
100019d2:	bf28      	it	cs
100019d4:	46d9      	movcs	r9, fp
100019d6:	f015 0302 	ands.w	r3, r5, #2
100019da:	930c      	str	r3, [sp, #48]	; 0x30
100019dc:	d006      	beq.n	100019ec <_vsnprintf+0x584>
100019de:	4622      	mov	r2, r4
100019e0:	465c      	mov	r4, fp
100019e2:	46b3      	mov	fp, r6
100019e4:	9e0b      	ldr	r6, [sp, #44]	; 0x2c
100019e6:	e01d      	b.n	10001a24 <_vsnprintf+0x5bc>
100019e8:	465b      	mov	r3, fp
100019ea:	e7e0      	b.n	100019ae <_vsnprintf+0x546>
100019ec:	4622      	mov	r2, r4
100019ee:	9c0a      	ldr	r4, [sp, #40]	; 0x28
100019f0:	464b      	mov	r3, r9
100019f2:	e007      	b.n	10001a04 <_vsnprintf+0x59c>
100019f4:	f102 0901 	add.w	r9, r2, #1
100019f8:	4633      	mov	r3, r6
100019fa:	4641      	mov	r1, r8
100019fc:	2020      	movs	r0, #32
100019fe:	47b8      	blx	r7
10001a00:	462b      	mov	r3, r5
10001a02:	464a      	mov	r2, r9
10001a04:	1c5d      	adds	r5, r3, #1
10001a06:	429c      	cmp	r4, r3
10001a08:	d8f4      	bhi.n	100019f4 <_vsnprintf+0x58c>
10001a0a:	46a9      	mov	r9, r5
10001a0c:	465c      	mov	r4, fp
10001a0e:	46b3      	mov	fp, r6
10001a10:	9e0b      	ldr	r6, [sp, #44]	; 0x2c
10001a12:	e007      	b.n	10001a24 <_vsnprintf+0x5bc>
10001a14:	461c      	mov	r4, r3
10001a16:	f10a 0a01 	add.w	sl, sl, #1
10001a1a:	1c55      	adds	r5, r2, #1
10001a1c:	465b      	mov	r3, fp
10001a1e:	4641      	mov	r1, r8
10001a20:	47b8      	blx	r7
10001a22:	462a      	mov	r2, r5
10001a24:	f89a 0000 	ldrb.w	r0, [sl]
10001a28:	b120      	cbz	r0, 10001a34 <_vsnprintf+0x5cc>
10001a2a:	2e00      	cmp	r6, #0
10001a2c:	d0f3      	beq.n	10001a16 <_vsnprintf+0x5ae>
10001a2e:	1e63      	subs	r3, r4, #1
10001a30:	2c00      	cmp	r4, #0
10001a32:	d1ef      	bne.n	10001a14 <_vsnprintf+0x5ac>
10001a34:	4614      	mov	r4, r2
10001a36:	465e      	mov	r6, fp
10001a38:	9b0c      	ldr	r3, [sp, #48]	; 0x30
10001a3a:	b91b      	cbnz	r3, 10001a44 <_vsnprintf+0x5dc>
10001a3c:	9b0d      	ldr	r3, [sp, #52]	; 0x34
10001a3e:	3301      	adds	r3, #1
10001a40:	930d      	str	r3, [sp, #52]	; 0x34
10001a42:	e51c      	b.n	1000147e <_vsnprintf+0x16>
10001a44:	f8dd a028 	ldr.w	sl, [sp, #40]	; 0x28
10001a48:	e006      	b.n	10001a58 <_vsnprintf+0x5f0>
10001a4a:	1c55      	adds	r5, r2, #1
10001a4c:	4633      	mov	r3, r6
10001a4e:	4641      	mov	r1, r8
10001a50:	2020      	movs	r0, #32
10001a52:	47b8      	blx	r7
10001a54:	46a1      	mov	r9, r4
10001a56:	462a      	mov	r2, r5
10001a58:	f109 0401 	add.w	r4, r9, #1
10001a5c:	45ca      	cmp	sl, r9
10001a5e:	d8f4      	bhi.n	10001a4a <_vsnprintf+0x5e2>
10001a60:	4614      	mov	r4, r2
10001a62:	e7eb      	b.n	10001a3c <_vsnprintf+0x5d4>
10001a64:	f045 0521 	orr.w	r5, r5, #33	; 0x21
10001a68:	9b18      	ldr	r3, [sp, #96]	; 0x60
10001a6a:	1d1a      	adds	r2, r3, #4
10001a6c:	9218      	str	r2, [sp, #96]	; 0x60
10001a6e:	681b      	ldr	r3, [r3, #0]
10001a70:	9505      	str	r5, [sp, #20]
10001a72:	2208      	movs	r2, #8
10001a74:	9204      	str	r2, [sp, #16]
10001a76:	f8cd b00c 	str.w	fp, [sp, #12]
10001a7a:	2210      	movs	r2, #16
10001a7c:	9202      	str	r2, [sp, #8]
10001a7e:	2200      	movs	r2, #0
10001a80:	9201      	str	r2, [sp, #4]
10001a82:	9300      	str	r3, [sp, #0]
10001a84:	4633      	mov	r3, r6
10001a86:	4622      	mov	r2, r4
10001a88:	4641      	mov	r1, r8
10001a8a:	4638      	mov	r0, r7
10001a8c:	f7ff f878 	bl	10000b80 <_ntoa_long>
10001a90:	4604      	mov	r4, r0
10001a92:	9b0d      	ldr	r3, [sp, #52]	; 0x34
10001a94:	3301      	adds	r3, #1
10001a96:	930d      	str	r3, [sp, #52]	; 0x34
10001a98:	e4f1      	b.n	1000147e <_vsnprintf+0x16>
10001a9a:	1c65      	adds	r5, r4, #1
10001a9c:	4633      	mov	r3, r6
10001a9e:	4622      	mov	r2, r4
10001aa0:	4641      	mov	r1, r8
10001aa2:	2025      	movs	r0, #37	; 0x25
10001aa4:	47b8      	blx	r7
10001aa6:	9b0d      	ldr	r3, [sp, #52]	; 0x34
10001aa8:	3301      	adds	r3, #1
10001aaa:	930d      	str	r3, [sp, #52]	; 0x34
10001aac:	462c      	mov	r4, r5
10001aae:	e4e6      	b.n	1000147e <_vsnprintf+0x16>
10001ab0:	1c65      	adds	r5, r4, #1
10001ab2:	4633      	mov	r3, r6
10001ab4:	4622      	mov	r2, r4
10001ab6:	4641      	mov	r1, r8
10001ab8:	47b8      	blx	r7
10001aba:	9b0d      	ldr	r3, [sp, #52]	; 0x34
10001abc:	3301      	adds	r3, #1
10001abe:	930d      	str	r3, [sp, #52]	; 0x34
10001ac0:	462c      	mov	r4, r5
10001ac2:	e4dc      	b.n	1000147e <_vsnprintf+0x16>
10001ac4:	4f07      	ldr	r7, [pc, #28]	; (10001ae4 <_vsnprintf+0x67c>)
10001ac6:	e4d9      	b.n	1000147c <_vsnprintf+0x14>
10001ac8:	42b4      	cmp	r4, r6
10001aca:	d301      	bcc.n	10001ad0 <_vsnprintf+0x668>
10001acc:	1e72      	subs	r2, r6, #1
10001ace:	e000      	b.n	10001ad2 <_vsnprintf+0x66a>
10001ad0:	4622      	mov	r2, r4
10001ad2:	4633      	mov	r3, r6
10001ad4:	4641      	mov	r1, r8
10001ad6:	2000      	movs	r0, #0
10001ad8:	47b8      	blx	r7
10001ada:	4620      	mov	r0, r4
10001adc:	b00f      	add	sp, #60	; 0x3c
10001ade:	e8bd 8ff0 	ldmia.w	sp!, {r4, r5, r6, r7, r8, r9, sl, fp, pc}
10001ae2:	bf00      	nop
10001ae4:	100009a5 	andne	r0, r0, r5, lsr #19

10001ae8 <_out_char>:
10001ae8:	b900      	cbnz	r0, 10001aec <_out_char+0x4>
10001aea:	4770      	bx	lr
10001aec:	b508      	push	{r3, lr}
10001aee:	f000 f817 	bl	10001b20 <putchar>
10001af2:	bd08      	pop	{r3, pc}

10001af4 <printf>:
10001af4:	b40f      	push	{r0, r1, r2, r3}
10001af6:	b500      	push	{lr}
10001af8:	b085      	sub	sp, #20
10001afa:	aa06      	add	r2, sp, #24
10001afc:	f852 3b04 	ldr.w	r3, [r2], #4
10001b00:	9203      	str	r2, [sp, #12]
10001b02:	9200      	str	r2, [sp, #0]
10001b04:	f04f 32ff 	mov.w	r2, #4294967295
10001b08:	a902      	add	r1, sp, #8
10001b0a:	4804      	ldr	r0, [pc, #16]	; (10001b1c <printf+0x28>)
10001b0c:	f7ff fcac 	bl	10001468 <_vsnprintf>
10001b10:	b005      	add	sp, #20
10001b12:	f85d eb04 	ldr.w	lr, [sp], #4
10001b16:	b004      	add	sp, #16
10001b18:	4770      	bx	lr
10001b1a:	bf00      	nop
10001b1c:	10001ae9 	andne	r1, r0, r9, ror #21

10001b20 <putchar>:
10001b20:	4b03      	ldr	r3, [pc, #12]	; (10001b30 <putchar+0x10>)
10001b22:	699b      	ldr	r3, [r3, #24]
10001b24:	f013 0f20 	tst.w	r3, #32
10001b28:	d1fa      	bne.n	10001b20 <putchar>
10001b2a:	4b01      	ldr	r3, [pc, #4]	; (10001b30 <putchar+0x10>)
10001b2c:	6018      	str	r0, [r3, #0]
10001b2e:	4770      	bx	lr
10001b30:	40200000 	eormi	r0, r0, r0

10001b34 <uart_init>:
10001b34:	4b07      	ldr	r3, [pc, #28]	; (10001b54 <uart_init+0x20>)
10001b36:	2228      	movs	r2, #40	; 0x28
10001b38:	625a      	str	r2, [r3, #36]	; 0x24
10001b3a:	220b      	movs	r2, #11
10001b3c:	629a      	str	r2, [r3, #40]	; 0x28
10001b3e:	2260      	movs	r2, #96	; 0x60
10001b40:	62da      	str	r2, [r3, #44]	; 0x2c
10001b42:	f240 3201 	movw	r2, #769	; 0x301
10001b46:	631a      	str	r2, [r3, #48]	; 0x30
10001b48:	220a      	movs	r2, #10
10001b4a:	605a      	str	r2, [r3, #4]
10001b4c:	2201      	movs	r2, #1
10001b4e:	609a      	str	r2, [r3, #8]
10001b50:	4770      	bx	lr
10001b52:	bf00      	nop
10001b54:	40200000 	eormi	r0, r0, r0

10001b58 <fault_dump_opcode>:
10001b58:	b082      	sub	sp, #8
10001b5a:	2300      	movs	r3, #0
10001b5c:	9301      	str	r3, [sp, #4]
10001b5e:	e007      	b.n	10001b70 <fault_dump_opcode+0x18>
10001b60:	f830 1013 	ldrh.w	r1, [r0, r3, lsl #1]
10001b64:	aa02      	add	r2, sp, #8
10001b66:	eb02 0243 	add.w	r2, r2, r3, lsl #1
10001b6a:	f822 1c04 	strh.w	r1, [r2, #-4]
10001b6e:	3301      	adds	r3, #1
10001b70:	2b01      	cmp	r3, #1
10001b72:	d9f5      	bls.n	10001b60 <fault_dump_opcode+0x8>
10001b74:	f8bd 0006 	ldrh.w	r0, [sp, #6]
10001b78:	f8bd 3004 	ldrh.w	r3, [sp, #4]
10001b7c:	ea43 4000 	orr.w	r0, r3, r0, lsl #16
10001b80:	b002      	add	sp, #8
10001b82:	4770      	bx	lr

10001b84 <opcode_is_bl_or_blx>:
10001b84:	f400 4378 	and.w	r3, r0, #63488	; 0xf800
10001b88:	0c00      	lsrs	r0, r0, #16
10001b8a:	f400 4078 	and.w	r0, r0, #63488	; 0xf800
10001b8e:	f5b3 4f70 	cmp.w	r3, #61440	; 0xf000
10001b92:	d00a      	beq.n	10001baa <opcode_is_bl_or_blx+0x26>
10001b94:	f5b3 4f78 	cmp.w	r3, #63488	; 0xf800
10001b98:	d009      	beq.n	10001bae <opcode_is_bl_or_blx+0x2a>
10001b9a:	f5b0 4f70 	cmp.w	r0, #61440	; 0xf000
10001b9e:	d008      	beq.n	10001bb2 <opcode_is_bl_or_blx+0x2e>
10001ba0:	f5b0 4f78 	cmp.w	r0, #63488	; 0xf800
10001ba4:	d007      	beq.n	10001bb6 <opcode_is_bl_or_blx+0x32>
10001ba6:	2000      	movs	r0, #0
10001ba8:	4770      	bx	lr
10001baa:	2001      	movs	r0, #1
10001bac:	4770      	bx	lr
10001bae:	2001      	movs	r0, #1
10001bb0:	4770      	bx	lr
10001bb2:	2001      	movs	r0, #1
10001bb4:	4770      	bx	lr
10001bb6:	2001      	movs	r0, #1
10001bb8:	4770      	bx	lr
	...

10001bbc <fault_dump_init>:
10001bbc:	b508      	push	{r3, lr}
10001bbe:	490a      	ldr	r1, [pc, #40]	; (10001be8 <fault_dump_init+0x2c>)
10001bc0:	4b0a      	ldr	r3, [pc, #40]	; (10001bec <fault_dump_init+0x30>)
10001bc2:	6019      	str	r1, [r3, #0]
10001bc4:	4a0a      	ldr	r2, [pc, #40]	; (10001bf0 <fault_dump_init+0x34>)
10001bc6:	4b0b      	ldr	r3, [pc, #44]	; (10001bf4 <fault_dump_init+0x38>)
10001bc8:	601a      	str	r2, [r3, #0]
10001bca:	1a53      	subs	r3, r2, r1
10001bcc:	480a      	ldr	r0, [pc, #40]	; (10001bf8 <fault_dump_init+0x3c>)
10001bce:	f7ff ff91 	bl	10001af4 <printf>
10001bd2:	490a      	ldr	r1, [pc, #40]	; (10001bfc <fault_dump_init+0x40>)
10001bd4:	4a0a      	ldr	r2, [pc, #40]	; (10001c00 <fault_dump_init+0x44>)
10001bd6:	1a53      	subs	r3, r2, r1
10001bd8:	480a      	ldr	r0, [pc, #40]	; (10001c04 <fault_dump_init+0x48>)
10001bda:	f7ff ff8b 	bl	10001af4 <printf>
10001bde:	2101      	movs	r1, #1
10001be0:	4809      	ldr	r0, [pc, #36]	; (10001c08 <fault_dump_init+0x4c>)
10001be2:	f7ff ff87 	bl	10001af4 <printf>
10001be6:	bd08      	pop	{r3, pc}
10001be8:	380ff000 	stmdacc	pc, {ip, sp, lr, pc}	; <UNPREDICTABLE>
10001bec:	3800018c 	stmdacc	r0, {r2, r3, r7, r8}
10001bf0:	38100000 	ldmdacc	r0, {}	; <UNPREDICTABLE>
10001bf4:	38000190 	stmdacc	r0, {r4, r7, r8}
10001bf8:	100036f0 	strdne	r3, [r0], -r0
10001bfc:	10000000 	andne	r0, r0, r0
10001c00:	1000395c 	andne	r3, r0, ip, asr r9
10001c04:	10003714 	andne	r3, r0, r4, lsl r7
10001c08:	10003738 	andne	r3, r0, r8, lsr r7

10001c0c <fault_dump_callstack>:
10001c0c:	e92d 43f8 	stmdb	sp!, {r3, r4, r5, r6, r7, r8, r9, lr}
10001c10:	b348      	cbz	r0, 10001c66 <fault_dump_callstack+0x5a>
10001c12:	460f      	mov	r7, r1
10001c14:	4614      	mov	r4, r2
10001c16:	461d      	mov	r5, r3
10001c18:	4680      	mov	r8, r0
10001c1a:	b339      	cbz	r1, 10001c6c <fault_dump_callstack+0x60>
10001c1c:	b34a      	cbz	r2, 10001c72 <fault_dump_callstack+0x66>
10001c1e:	429a      	cmp	r2, r3
10001c20:	d82a      	bhi.n	10001c78 <fault_dump_callstack+0x6c>
10001c22:	2600      	movs	r6, #0
10001c24:	e000      	b.n	10001c28 <fault_dump_callstack+0x1c>
10001c26:	3404      	adds	r4, #4
10001c28:	b1d4      	cbz	r4, 10001c60 <fault_dump_callstack+0x54>
10001c2a:	42ac      	cmp	r4, r5
10001c2c:	d818      	bhi.n	10001c60 <fault_dump_callstack+0x54>
10001c2e:	6822      	ldr	r2, [r4, #0]
10001c30:	4813      	ldr	r0, [pc, #76]	; (10001c80 <fault_dump_callstack+0x74>)
10001c32:	4290      	cmp	r0, r2
10001c34:	d8f7      	bhi.n	10001c26 <fault_dump_callstack+0x1a>
10001c36:	4b13      	ldr	r3, [pc, #76]	; (10001c84 <fault_dump_callstack+0x78>)
10001c38:	4293      	cmp	r3, r2
10001c3a:	d3f4      	bcc.n	10001c26 <fault_dump_callstack+0x1a>
10001c3c:	f012 0f01 	tst.w	r2, #1
10001c40:	d0f1      	beq.n	10001c26 <fault_dump_callstack+0x1a>
10001c42:	f1a2 0905 	sub.w	r9, r2, #5
10001c46:	d0ee      	beq.n	10001c26 <fault_dump_callstack+0x1a>
10001c48:	4648      	mov	r0, r9
10001c4a:	f7ff ff85 	bl	10001b58 <fault_dump_opcode>
10001c4e:	f7ff ff99 	bl	10001b84 <opcode_is_bl_or_blx>
10001c52:	2800      	cmp	r0, #0
10001c54:	d0e7      	beq.n	10001c26 <fault_dump_callstack+0x1a>
10001c56:	f848 9026 	str.w	r9, [r8, r6, lsl #2]
10001c5a:	3601      	adds	r6, #1
10001c5c:	42be      	cmp	r6, r7
10001c5e:	d3e2      	bcc.n	10001c26 <fault_dump_callstack+0x1a>
10001c60:	4630      	mov	r0, r6
10001c62:	e8bd 83f8 	ldmia.w	sp!, {r3, r4, r5, r6, r7, r8, r9, pc}
10001c66:	f06f 0601 	mvn.w	r6, #1
10001c6a:	e7f9      	b.n	10001c60 <fault_dump_callstack+0x54>
10001c6c:	f06f 0601 	mvn.w	r6, #1
10001c70:	e7f6      	b.n	10001c60 <fault_dump_callstack+0x54>
10001c72:	f06f 0602 	mvn.w	r6, #2
10001c76:	e7f3      	b.n	10001c60 <fault_dump_callstack+0x54>
10001c78:	f06f 0602 	mvn.w	r6, #2
10001c7c:	e7f0      	b.n	10001c60 <fault_dump_callstack+0x54>
10001c7e:	bf00      	nop
10001c80:	10000000 	andne	r0, r0, r0
10001c84:	1000395c 	andne	r3, r0, ip, asr r9

10001c88 <fault_dump_handler>:
10001c88:	b5f8      	push	{r3, r4, r5, r6, r7, lr}
10001c8a:	4605      	mov	r5, r0
10001c8c:	460e      	mov	r6, r1
10001c8e:	6803      	ldr	r3, [r0, #0]
10001c90:	4c47      	ldr	r4, [pc, #284]	; (10001db0 <fault_dump_handler+0x128>)
10001c92:	6023      	str	r3, [r4, #0]
10001c94:	6843      	ldr	r3, [r0, #4]
10001c96:	6063      	str	r3, [r4, #4]
10001c98:	6883      	ldr	r3, [r0, #8]
10001c9a:	60a3      	str	r3, [r4, #8]
10001c9c:	68c3      	ldr	r3, [r0, #12]
10001c9e:	60e3      	str	r3, [r4, #12]
10001ca0:	6903      	ldr	r3, [r0, #16]
10001ca2:	6123      	str	r3, [r4, #16]
10001ca4:	6943      	ldr	r3, [r0, #20]
10001ca6:	6163      	str	r3, [r4, #20]
10001ca8:	6983      	ldr	r3, [r0, #24]
10001caa:	61a3      	str	r3, [r4, #24]
10001cac:	69c3      	ldr	r3, [r0, #28]
10001cae:	61e3      	str	r3, [r4, #28]
10001cb0:	6a03      	ldr	r3, [r0, #32]
10001cb2:	6223      	str	r3, [r4, #32]
10001cb4:	6a43      	ldr	r3, [r0, #36]	; 0x24
10001cb6:	6263      	str	r3, [r4, #36]	; 0x24
10001cb8:	6a83      	ldr	r3, [r0, #40]	; 0x28
10001cba:	62a3      	str	r3, [r4, #40]	; 0x28
10001cbc:	6ac3      	ldr	r3, [r0, #44]	; 0x2c
10001cbe:	62e3      	str	r3, [r4, #44]	; 0x2c
10001cc0:	6b03      	ldr	r3, [r0, #48]	; 0x30
10001cc2:	6323      	str	r3, [r4, #48]	; 0x30
10001cc4:	6b43      	ldr	r3, [r0, #52]	; 0x34
10001cc6:	6363      	str	r3, [r4, #52]	; 0x34
10001cc8:	6b83      	ldr	r3, [r0, #56]	; 0x38
10001cca:	63a3      	str	r3, [r4, #56]	; 0x38
10001ccc:	6bc3      	ldr	r3, [r0, #60]	; 0x3c
10001cce:	63e3      	str	r3, [r4, #60]	; 0x3c
10001cd0:	4f38      	ldr	r7, [pc, #224]	; (10001db4 <fault_dump_handler+0x12c>)
10001cd2:	4638      	mov	r0, r7
10001cd4:	f000 f976 	bl	10001fc4 <puts>
10001cd8:	4837      	ldr	r0, [pc, #220]	; (10001db8 <fault_dump_handler+0x130>)
10001cda:	f000 f973 	bl	10001fc4 <puts>
10001cde:	4837      	ldr	r0, [pc, #220]	; (10001dbc <fault_dump_handler+0x134>)
10001ce0:	f000 f970 	bl	10001fc4 <puts>
10001ce4:	6a21      	ldr	r1, [r4, #32]
10001ce6:	4836      	ldr	r0, [pc, #216]	; (10001dc0 <fault_dump_handler+0x138>)
10001ce8:	f7ff ff04 	bl	10001af4 <printf>
10001cec:	6a61      	ldr	r1, [r4, #36]	; 0x24
10001cee:	4835      	ldr	r0, [pc, #212]	; (10001dc4 <fault_dump_handler+0x13c>)
10001cf0:	f7ff ff00 	bl	10001af4 <printf>
10001cf4:	6aa1      	ldr	r1, [r4, #40]	; 0x28
10001cf6:	4834      	ldr	r0, [pc, #208]	; (10001dc8 <fault_dump_handler+0x140>)
10001cf8:	f7ff fefc 	bl	10001af4 <printf>
10001cfc:	6ae1      	ldr	r1, [r4, #44]	; 0x2c
10001cfe:	4833      	ldr	r0, [pc, #204]	; (10001dcc <fault_dump_handler+0x144>)
10001d00:	f7ff fef8 	bl	10001af4 <printf>
10001d04:	6821      	ldr	r1, [r4, #0]
10001d06:	4832      	ldr	r0, [pc, #200]	; (10001dd0 <fault_dump_handler+0x148>)
10001d08:	f7ff fef4 	bl	10001af4 <printf>
10001d0c:	6861      	ldr	r1, [r4, #4]
10001d0e:	4831      	ldr	r0, [pc, #196]	; (10001dd4 <fault_dump_handler+0x14c>)
10001d10:	f7ff fef0 	bl	10001af4 <printf>
10001d14:	68a1      	ldr	r1, [r4, #8]
10001d16:	4830      	ldr	r0, [pc, #192]	; (10001dd8 <fault_dump_handler+0x150>)
10001d18:	f7ff feec 	bl	10001af4 <printf>
10001d1c:	68e1      	ldr	r1, [r4, #12]
10001d1e:	482f      	ldr	r0, [pc, #188]	; (10001ddc <fault_dump_handler+0x154>)
10001d20:	f7ff fee8 	bl	10001af4 <printf>
10001d24:	6921      	ldr	r1, [r4, #16]
10001d26:	482e      	ldr	r0, [pc, #184]	; (10001de0 <fault_dump_handler+0x158>)
10001d28:	f7ff fee4 	bl	10001af4 <printf>
10001d2c:	6961      	ldr	r1, [r4, #20]
10001d2e:	482d      	ldr	r0, [pc, #180]	; (10001de4 <fault_dump_handler+0x15c>)
10001d30:	f7ff fee0 	bl	10001af4 <printf>
10001d34:	69a1      	ldr	r1, [r4, #24]
10001d36:	482c      	ldr	r0, [pc, #176]	; (10001de8 <fault_dump_handler+0x160>)
10001d38:	f7ff fedc 	bl	10001af4 <printf>
10001d3c:	69e1      	ldr	r1, [r4, #28]
10001d3e:	482b      	ldr	r0, [pc, #172]	; (10001dec <fault_dump_handler+0x164>)
10001d40:	f7ff fed8 	bl	10001af4 <printf>
10001d44:	6b21      	ldr	r1, [r4, #48]	; 0x30
10001d46:	482a      	ldr	r0, [pc, #168]	; (10001df0 <fault_dump_handler+0x168>)
10001d48:	f7ff fed4 	bl	10001af4 <printf>
10001d4c:	6b61      	ldr	r1, [r4, #52]	; 0x34
10001d4e:	4829      	ldr	r0, [pc, #164]	; (10001df4 <fault_dump_handler+0x16c>)
10001d50:	f7ff fed0 	bl	10001af4 <printf>
10001d54:	6ba1      	ldr	r1, [r4, #56]	; 0x38
10001d56:	4828      	ldr	r0, [pc, #160]	; (10001df8 <fault_dump_handler+0x170>)
10001d58:	f7ff fecc 	bl	10001af4 <printf>
10001d5c:	6be1      	ldr	r1, [r4, #60]	; 0x3c
10001d5e:	4827      	ldr	r0, [pc, #156]	; (10001dfc <fault_dump_handler+0x174>)
10001d60:	f7ff fec8 	bl	10001af4 <printf>
10001d64:	4638      	mov	r0, r7
10001d66:	f000 f92d 	bl	10001fc4 <puts>
10001d6a:	4631      	mov	r1, r6
10001d6c:	4824      	ldr	r0, [pc, #144]	; (10001e00 <fault_dump_handler+0x178>)
10001d6e:	f7ff fec1 	bl	10001af4 <printf>
10001d72:	4b24      	ldr	r3, [pc, #144]	; (10001e04 <fault_dump_handler+0x17c>)
10001d74:	f105 0240 	add.w	r2, r5, #64	; 0x40
10001d78:	2140      	movs	r1, #64	; 0x40
10001d7a:	4823      	ldr	r0, [pc, #140]	; (10001e08 <fault_dump_handler+0x180>)
10001d7c:	f7ff ff46 	bl	10001c0c <fault_dump_callstack>
10001d80:	4605      	mov	r5, r0
10001d82:	4822      	ldr	r0, [pc, #136]	; (10001e0c <fault_dump_handler+0x184>)
10001d84:	f7ff feb6 	bl	10001af4 <printf>
10001d88:	6ba1      	ldr	r1, [r4, #56]	; 0x38
10001d8a:	4821      	ldr	r0, [pc, #132]	; (10001e10 <fault_dump_handler+0x188>)
10001d8c:	f7ff feb2 	bl	10001af4 <printf>
10001d90:	2400      	movs	r4, #0
10001d92:	e006      	b.n	10001da2 <fault_dump_handler+0x11a>
10001d94:	4b1c      	ldr	r3, [pc, #112]	; (10001e08 <fault_dump_handler+0x180>)
10001d96:	f853 1024 	ldr.w	r1, [r3, r4, lsl #2]
10001d9a:	481d      	ldr	r0, [pc, #116]	; (10001e10 <fault_dump_handler+0x188>)
10001d9c:	f7ff feaa 	bl	10001af4 <printf>
10001da0:	3401      	adds	r4, #1
10001da2:	42ac      	cmp	r4, r5
10001da4:	dbf6      	blt.n	10001d94 <fault_dump_handler+0x10c>
10001da6:	4803      	ldr	r0, [pc, #12]	; (10001db4 <fault_dump_handler+0x12c>)
10001da8:	f000 f90c 	bl	10001fc4 <puts>
10001dac:	e7fe      	b.n	10001dac <fault_dump_handler+0x124>
10001dae:	bf00      	nop
10001db0:	38000194 	stmdacc	r0, {r2, r4, r7, r8}
10001db4:	10003774 	andne	r3, r0, r4, ror r7
10001db8:	10003758 	andne	r3, r0, r8, asr r7
10001dbc:	10003778 	andne	r3, r0, r8, ror r7
10001dc0:	1000378c 	andne	r3, r0, ip, lsl #15
10001dc4:	100037a0 	andne	r3, r0, r0, lsr #15
10001dc8:	100037b4 			; <UNDEFINED> instruction: 0x100037b4
10001dcc:	100037c8 	andne	r3, r0, r8, asr #15
10001dd0:	100037dc 	ldrdne	r3, [r0], -ip
10001dd4:	100037f0 	strdne	r3, [r0], -r0
10001dd8:	10003804 	andne	r3, r0, r4, lsl #16
10001ddc:	10003818 	andne	r3, r0, r8, lsl r8
10001de0:	1000382c 	andne	r3, r0, ip, lsr #16
10001de4:	10003840 	andne	r3, r0, r0, asr #16
10001de8:	10003854 	andne	r3, r0, r4, asr r8
10001dec:	10003868 	andne	r3, r0, r8, ror #16
10001df0:	1000387c 	andne	r3, r0, ip, ror r8
10001df4:	10003890 	mulne	r0, r0, r8
10001df8:	100038a4 	andne	r3, r0, r4, lsr #17
10001dfc:	100038b8 			; <UNDEFINED> instruction: 0x100038b8
10001e00:	100038cc 	andne	r3, r0, ip, asr #17
10001e04:	38100000 	ldmdacc	r0, {}	; <UNPREDICTABLE>
10001e08:	3800008c 	stmdacc	r0, {r2, r3, r7}
10001e0c:	100038e4 	andne	r3, r0, r4, ror #17
10001e10:	1000361c 	andne	r3, r0, ip, lsl r6

10001e14 <fault_dump_bm_stack_point>:
10001e14:	f3ef 8008 	mrs	r0, MSP
10001e18:	4770      	bx	lr
	...

10001e1c <fault_dump_bm_stack_start>:
10001e1c:	4800      	ldr	r0, [pc, #0]	; (10001e20 <fault_dump_bm_stack_start+0x4>)
10001e1e:	4770      	bx	lr
10001e20:	38100000 	ldmdacc	r0, {}	; <UNPREDICTABLE>

10001e24 <Reset_Handler>:
10001e24:	4815      	ldr	r0, [pc, #84]	; (10001e7c <BusFault_Handler+0x4>)
10001e26:	f380 8809 	msr	PSP, r0
10001e2a:	4815      	ldr	r0, [pc, #84]	; (10001e80 <BusFault_Handler+0x8>)
10001e2c:	f380 880a 	msr	MSPLIM, r0
10001e30:	f380 880b 	msr	PSPLIM, r0
10001e34:	f7fe fda0 	bl	10000978 <SystemInit>
10001e38:	4c12      	ldr	r4, [pc, #72]	; (10001e84 <BusFault_Handler+0xc>)
10001e3a:	4d13      	ldr	r5, [pc, #76]	; (10001e88 <BusFault_Handler+0x10>)
10001e3c:	42ac      	cmp	r4, r5
10001e3e:	da0a      	bge.n	10001e56 <Reset_Handler+0x32>
10001e40:	6821      	ldr	r1, [r4, #0]
10001e42:	6862      	ldr	r2, [r4, #4]
10001e44:	68a3      	ldr	r3, [r4, #8]
10001e46:	009b      	lsls	r3, r3, #2
10001e48:	3b04      	subs	r3, #4
10001e4a:	bfa2      	ittt	ge
10001e4c:	58c8      	ldrge	r0, [r1, r3]
10001e4e:	50d0      	strge	r0, [r2, r3]
10001e50:	e7fa      	bge.n	10001e48 <Reset_Handler+0x24>
10001e52:	340c      	adds	r4, #12
10001e54:	e7f2      	b.n	10001e3c <Reset_Handler+0x18>
10001e56:	4b0d      	ldr	r3, [pc, #52]	; (10001e8c <BusFault_Handler+0x14>)
10001e58:	4c0d      	ldr	r4, [pc, #52]	; (10001e90 <BusFault_Handler+0x18>)
10001e5a:	42a3      	cmp	r3, r4
10001e5c:	da09      	bge.n	10001e72 <Reset_Handler+0x4e>
10001e5e:	6819      	ldr	r1, [r3, #0]
10001e60:	685a      	ldr	r2, [r3, #4]
10001e62:	0092      	lsls	r2, r2, #2
10001e64:	2000      	movs	r0, #0
10001e66:	3a04      	subs	r2, #4
10001e68:	bfa4      	itt	ge
10001e6a:	5088      	strge	r0, [r1, r2]
10001e6c:	e7fb      	bge.n	10001e66 <Reset_Handler+0x42>
10001e6e:	3308      	adds	r3, #8
10001e70:	e7f3      	b.n	10001e5a <Reset_Handler+0x36>
10001e72:	f7fe fd6b 	bl	1000094c <main>
10001e76:	e7fe      	b.n	10001e76 <Reset_Handler+0x52>

10001e78 <BusFault_Handler>:
10001e78:	e7fe      	b.n	10001e78 <BusFault_Handler>
10001e7a:	00000000 	andeq	r0, r0, r0
10001e7e:	f0003810 			; <UNDEFINED> instruction: 0xf0003810
10001e82:	396c380f 	stmdbcc	ip!, {r0, r1, r2, r3, fp, ip, sp}^
10001e86:	39781000 	ldmdbcc	r8!, {ip}^
10001e8a:	39781000 	ldmdbcc	r8!, {ip}^
10001e8e:	39781000 	ldmdbcc	r8!, {ip}^
10001e92:	 	blmi	10345e9a <__copy_table_end__+0x342522>

10001e94 <HardFault_Handler>:
10001e94:	4b0d      	ldr	r3, [pc, #52]	; (10001ecc <stack_invalid+0x8>)
10001e96:	6819      	ldr	r1, [r3, #0]
10001e98:	4b0d      	ldr	r3, [pc, #52]	; (10001ed0 <stack_invalid+0xc>)
10001e9a:	681a      	ldr	r2, [r3, #0]
10001e9c:	f01e 0f04 	tst.w	lr, #4
10001ea0:	bf0c      	ite	eq
10001ea2:	f3ef 8008 	mrseq	r0, MSP
10001ea6:	f3ef 8009 	mrsne	r0, PSP
10001eaa:	4288      	cmp	r0, r1
10001eac:	db0a      	blt.n	10001ec4 <stack_invalid>
10001eae:	4290      	cmp	r0, r2
10001eb0:	dc08      	bgt.n	10001ec4 <stack_invalid>
10001eb2:	e92d 0ff0 	stmdb	sp!, {r4, r5, r6, r7, r8, r9, sl, fp}
10001eb6:	f01e 0f04 	tst.w	lr, #4
10001eba:	bf0c      	ite	eq
10001ebc:	f3ef 8008 	mrseq	r0, MSP
10001ec0:	f3ef 8009 	mrsne	r0, PSP

10001ec4 <stack_invalid>:
10001ec4:	4671      	mov	r1, lr
10001ec6:	4a03      	ldr	r2, [pc, #12]	; (10001ed4 <stack_invalid+0x10>)
10001ec8:	4710      	bx	r2
10001eca:	018c0000 	orreq	r0, ip, r0
10001ece:	01903800 	orrseq	r3, r0, r0, lsl #16
10001ed2:	1c893800 	stcne	8, cr3, [r9], {0}
10001ed6:	 	strmi	r1, [r2], #-0

10001ed8 <memset>:
10001ed8:	4402      	add	r2, r0
10001eda:	4603      	mov	r3, r0
10001edc:	4293      	cmp	r3, r2
10001ede:	d100      	bne.n	10001ee2 <memset+0xa>
10001ee0:	4770      	bx	lr
10001ee2:	f803 1b01 	strb.w	r1, [r3], #1
10001ee6:	e7f9      	b.n	10001edc <memset+0x4>

10001ee8 <_puts_r>:
10001ee8:	b570      	push	{r4, r5, r6, lr}
10001eea:	460e      	mov	r6, r1
10001eec:	4605      	mov	r5, r0
10001eee:	b118      	cbz	r0, 10001ef8 <_puts_r+0x10>
10001ef0:	6983      	ldr	r3, [r0, #24]
10001ef2:	b90b      	cbnz	r3, 10001ef8 <_puts_r+0x10>
10001ef4:	f000 fa46 	bl	10002384 <__sinit>
10001ef8:	69ab      	ldr	r3, [r5, #24]
10001efa:	68ac      	ldr	r4, [r5, #8]
10001efc:	b913      	cbnz	r3, 10001f04 <_puts_r+0x1c>
10001efe:	4628      	mov	r0, r5
10001f00:	f000 fa40 	bl	10002384 <__sinit>
10001f04:	4b2c      	ldr	r3, [pc, #176]	; (10001fb8 <_puts_r+0xd0>)
10001f06:	429c      	cmp	r4, r3
10001f08:	d120      	bne.n	10001f4c <_puts_r+0x64>
10001f0a:	686c      	ldr	r4, [r5, #4]
10001f0c:	6e63      	ldr	r3, [r4, #100]	; 0x64
10001f0e:	07db      	lsls	r3, r3, #31
10001f10:	d405      	bmi.n	10001f1e <_puts_r+0x36>
10001f12:	89a3      	ldrh	r3, [r4, #12]
10001f14:	0598      	lsls	r0, r3, #22
10001f16:	d402      	bmi.n	10001f1e <_puts_r+0x36>
10001f18:	6da0      	ldr	r0, [r4, #88]	; 0x58
10001f1a:	f000 fad1 	bl	100024c0 <__retarget_lock_acquire_recursive>
10001f1e:	89a3      	ldrh	r3, [r4, #12]
10001f20:	0719      	lsls	r1, r3, #28
10001f22:	d51d      	bpl.n	10001f60 <_puts_r+0x78>
10001f24:	6923      	ldr	r3, [r4, #16]
10001f26:	b1db      	cbz	r3, 10001f60 <_puts_r+0x78>
10001f28:	3e01      	subs	r6, #1
10001f2a:	68a3      	ldr	r3, [r4, #8]
10001f2c:	f816 1f01 	ldrb.w	r1, [r6, #1]!
10001f30:	3b01      	subs	r3, #1
10001f32:	60a3      	str	r3, [r4, #8]
10001f34:	bb39      	cbnz	r1, 10001f86 <_puts_r+0x9e>
10001f36:	2b00      	cmp	r3, #0
10001f38:	da38      	bge.n	10001fac <_puts_r+0xc4>
10001f3a:	4622      	mov	r2, r4
10001f3c:	210a      	movs	r1, #10
10001f3e:	4628      	mov	r0, r5
10001f40:	f000 f848 	bl	10001fd4 <__swbuf_r>
10001f44:	3001      	adds	r0, #1
10001f46:	d011      	beq.n	10001f6c <_puts_r+0x84>
10001f48:	250a      	movs	r5, #10
10001f4a:	e011      	b.n	10001f70 <_puts_r+0x88>
10001f4c:	4b1b      	ldr	r3, [pc, #108]	; (10001fbc <_puts_r+0xd4>)
10001f4e:	429c      	cmp	r4, r3
10001f50:	d101      	bne.n	10001f56 <_puts_r+0x6e>
10001f52:	68ac      	ldr	r4, [r5, #8]
10001f54:	e7da      	b.n	10001f0c <_puts_r+0x24>
10001f56:	4b1a      	ldr	r3, [pc, #104]	; (10001fc0 <_puts_r+0xd8>)
10001f58:	429c      	cmp	r4, r3
10001f5a:	bf08      	it	eq
10001f5c:	68ec      	ldreq	r4, [r5, #12]
10001f5e:	e7d5      	b.n	10001f0c <_puts_r+0x24>
10001f60:	4621      	mov	r1, r4
10001f62:	4628      	mov	r0, r5
10001f64:	f000 f888 	bl	10002078 <__swsetup_r>
10001f68:	2800      	cmp	r0, #0
10001f6a:	d0dd      	beq.n	10001f28 <_puts_r+0x40>
10001f6c:	f04f 35ff 	mov.w	r5, #4294967295
10001f70:	6e63      	ldr	r3, [r4, #100]	; 0x64
10001f72:	07da      	lsls	r2, r3, #31
10001f74:	d405      	bmi.n	10001f82 <_puts_r+0x9a>
10001f76:	89a3      	ldrh	r3, [r4, #12]
10001f78:	059b      	lsls	r3, r3, #22
10001f7a:	d402      	bmi.n	10001f82 <_puts_r+0x9a>
10001f7c:	6da0      	ldr	r0, [r4, #88]	; 0x58
10001f7e:	f000 faa0 	bl	100024c2 <__retarget_lock_release_recursive>
10001f82:	4628      	mov	r0, r5
10001f84:	bd70      	pop	{r4, r5, r6, pc}
10001f86:	2b00      	cmp	r3, #0
10001f88:	da04      	bge.n	10001f94 <_puts_r+0xac>
10001f8a:	69a2      	ldr	r2, [r4, #24]
10001f8c:	429a      	cmp	r2, r3
10001f8e:	dc06      	bgt.n	10001f9e <_puts_r+0xb6>
10001f90:	290a      	cmp	r1, #10
10001f92:	d004      	beq.n	10001f9e <_puts_r+0xb6>
10001f94:	6823      	ldr	r3, [r4, #0]
10001f96:	1c5a      	adds	r2, r3, #1
10001f98:	6022      	str	r2, [r4, #0]
10001f9a:	7019      	strb	r1, [r3, #0]
10001f9c:	e7c5      	b.n	10001f2a <_puts_r+0x42>
10001f9e:	4622      	mov	r2, r4
10001fa0:	4628      	mov	r0, r5
10001fa2:	f000 f817 	bl	10001fd4 <__swbuf_r>
10001fa6:	3001      	adds	r0, #1
10001fa8:	d1bf      	bne.n	10001f2a <_puts_r+0x42>
10001faa:	e7df      	b.n	10001f6c <_puts_r+0x84>
10001fac:	6823      	ldr	r3, [r4, #0]
10001fae:	250a      	movs	r5, #10
10001fb0:	1c5a      	adds	r2, r3, #1
10001fb2:	6022      	str	r2, [r4, #0]
10001fb4:	701d      	strb	r5, [r3, #0]
10001fb6:	e7db      	b.n	10001f70 <_puts_r+0x88>
10001fb8:	10003918 	andne	r3, r0, r8, lsl r9
10001fbc:	10003938 	andne	r3, r0, r8, lsr r9
10001fc0:	100038f8 	strdne	r3, [r0], -r8

10001fc4 <puts>:
10001fc4:	4b02      	ldr	r3, [pc, #8]	; (10001fd0 <puts+0xc>)
10001fc6:	4601      	mov	r1, r0
10001fc8:	6818      	ldr	r0, [r3, #0]
10001fca:	f7ff bf8d 	b.w	10001ee8 <_puts_r>
10001fce:	bf00      	nop
10001fd0:	38000004 	stmdacc	r0, {r2}

10001fd4 <__swbuf_r>:
10001fd4:	b5f8      	push	{r3, r4, r5, r6, r7, lr}
10001fd6:	460e      	mov	r6, r1
10001fd8:	4614      	mov	r4, r2
10001fda:	4605      	mov	r5, r0
10001fdc:	b118      	cbz	r0, 10001fe6 <__swbuf_r+0x12>
10001fde:	6983      	ldr	r3, [r0, #24]
10001fe0:	b90b      	cbnz	r3, 10001fe6 <__swbuf_r+0x12>
10001fe2:	f000 f9cf 	bl	10002384 <__sinit>
10001fe6:	4b21      	ldr	r3, [pc, #132]	; (1000206c <__swbuf_r+0x98>)
10001fe8:	429c      	cmp	r4, r3
10001fea:	d12b      	bne.n	10002044 <__swbuf_r+0x70>
10001fec:	686c      	ldr	r4, [r5, #4]
10001fee:	69a3      	ldr	r3, [r4, #24]
10001ff0:	60a3      	str	r3, [r4, #8]
10001ff2:	89a3      	ldrh	r3, [r4, #12]
10001ff4:	071a      	lsls	r2, r3, #28
10001ff6:	d52f      	bpl.n	10002058 <__swbuf_r+0x84>
10001ff8:	6923      	ldr	r3, [r4, #16]
10001ffa:	b36b      	cbz	r3, 10002058 <__swbuf_r+0x84>
10001ffc:	6923      	ldr	r3, [r4, #16]
10001ffe:	b2f6      	uxtb	r6, r6
10002000:	6820      	ldr	r0, [r4, #0]
10002002:	4637      	mov	r7, r6
10002004:	1ac0      	subs	r0, r0, r3
10002006:	6963      	ldr	r3, [r4, #20]
10002008:	4283      	cmp	r3, r0
1000200a:	dc04      	bgt.n	10002016 <__swbuf_r+0x42>
1000200c:	4621      	mov	r1, r4
1000200e:	4628      	mov	r0, r5
10002010:	f000 f924 	bl	1000225c <_fflush_r>
10002014:	bb30      	cbnz	r0, 10002064 <__swbuf_r+0x90>
10002016:	68a3      	ldr	r3, [r4, #8]
10002018:	3001      	adds	r0, #1
1000201a:	3b01      	subs	r3, #1
1000201c:	60a3      	str	r3, [r4, #8]
1000201e:	6823      	ldr	r3, [r4, #0]
10002020:	1c5a      	adds	r2, r3, #1
10002022:	6022      	str	r2, [r4, #0]
10002024:	701e      	strb	r6, [r3, #0]
10002026:	6963      	ldr	r3, [r4, #20]
10002028:	4283      	cmp	r3, r0
1000202a:	d004      	beq.n	10002036 <__swbuf_r+0x62>
1000202c:	89a3      	ldrh	r3, [r4, #12]
1000202e:	07db      	lsls	r3, r3, #31
10002030:	d506      	bpl.n	10002040 <__swbuf_r+0x6c>
10002032:	2e0a      	cmp	r6, #10
10002034:	d104      	bne.n	10002040 <__swbuf_r+0x6c>
10002036:	4621      	mov	r1, r4
10002038:	4628      	mov	r0, r5
1000203a:	f000 f90f 	bl	1000225c <_fflush_r>
1000203e:	b988      	cbnz	r0, 10002064 <__swbuf_r+0x90>
10002040:	4638      	mov	r0, r7
10002042:	bdf8      	pop	{r3, r4, r5, r6, r7, pc}
10002044:	4b0a      	ldr	r3, [pc, #40]	; (10002070 <__swbuf_r+0x9c>)
10002046:	429c      	cmp	r4, r3
10002048:	d101      	bne.n	1000204e <__swbuf_r+0x7a>
1000204a:	68ac      	ldr	r4, [r5, #8]
1000204c:	e7cf      	b.n	10001fee <__swbuf_r+0x1a>
1000204e:	4b09      	ldr	r3, [pc, #36]	; (10002074 <__swbuf_r+0xa0>)
10002050:	429c      	cmp	r4, r3
10002052:	bf08      	it	eq
10002054:	68ec      	ldreq	r4, [r5, #12]
10002056:	e7ca      	b.n	10001fee <__swbuf_r+0x1a>
10002058:	4621      	mov	r1, r4
1000205a:	4628      	mov	r0, r5
1000205c:	f000 f80c 	bl	10002078 <__swsetup_r>
10002060:	2800      	cmp	r0, #0
10002062:	d0cb      	beq.n	10001ffc <__swbuf_r+0x28>
10002064:	f04f 37ff 	mov.w	r7, #4294967295
10002068:	e7ea      	b.n	10002040 <__swbuf_r+0x6c>
1000206a:	bf00      	nop
1000206c:	10003918 	andne	r3, r0, r8, lsl r9
10002070:	10003938 	andne	r3, r0, r8, lsr r9
10002074:	100038f8 	strdne	r3, [r0], -r8

10002078 <__swsetup_r>:
10002078:	4b32      	ldr	r3, [pc, #200]	; (10002144 <__swsetup_r+0xcc>)
1000207a:	b570      	push	{r4, r5, r6, lr}
1000207c:	681d      	ldr	r5, [r3, #0]
1000207e:	4606      	mov	r6, r0
10002080:	460c      	mov	r4, r1
10002082:	b125      	cbz	r5, 1000208e <__swsetup_r+0x16>
10002084:	69ab      	ldr	r3, [r5, #24]
10002086:	b913      	cbnz	r3, 1000208e <__swsetup_r+0x16>
10002088:	4628      	mov	r0, r5
1000208a:	f000 f97b 	bl	10002384 <__sinit>
1000208e:	4b2e      	ldr	r3, [pc, #184]	; (10002148 <__swsetup_r+0xd0>)
10002090:	429c      	cmp	r4, r3
10002092:	d10f      	bne.n	100020b4 <__swsetup_r+0x3c>
10002094:	686c      	ldr	r4, [r5, #4]
10002096:	89a3      	ldrh	r3, [r4, #12]
10002098:	f9b4 200c 	ldrsh.w	r2, [r4, #12]
1000209c:	0719      	lsls	r1, r3, #28
1000209e:	d42c      	bmi.n	100020fa <__swsetup_r+0x82>
100020a0:	06dd      	lsls	r5, r3, #27
100020a2:	d411      	bmi.n	100020c8 <__swsetup_r+0x50>
100020a4:	2309      	movs	r3, #9
100020a6:	6033      	str	r3, [r6, #0]
100020a8:	f042 0340 	orr.w	r3, r2, #64	; 0x40
100020ac:	f04f 30ff 	mov.w	r0, #4294967295
100020b0:	81a3      	strh	r3, [r4, #12]
100020b2:	e03e      	b.n	10002132 <__swsetup_r+0xba>
100020b4:	4b25      	ldr	r3, [pc, #148]	; (1000214c <__swsetup_r+0xd4>)
100020b6:	429c      	cmp	r4, r3
100020b8:	d101      	bne.n	100020be <__swsetup_r+0x46>
100020ba:	68ac      	ldr	r4, [r5, #8]
100020bc:	e7eb      	b.n	10002096 <__swsetup_r+0x1e>
100020be:	4b24      	ldr	r3, [pc, #144]	; (10002150 <__swsetup_r+0xd8>)
100020c0:	429c      	cmp	r4, r3
100020c2:	bf08      	it	eq
100020c4:	68ec      	ldreq	r4, [r5, #12]
100020c6:	e7e6      	b.n	10002096 <__swsetup_r+0x1e>
100020c8:	0758      	lsls	r0, r3, #29
100020ca:	d512      	bpl.n	100020f2 <__swsetup_r+0x7a>
100020cc:	6b61      	ldr	r1, [r4, #52]	; 0x34
100020ce:	b141      	cbz	r1, 100020e2 <__swsetup_r+0x6a>
100020d0:	f104 0344 	add.w	r3, r4, #68	; 0x44
100020d4:	4299      	cmp	r1, r3
100020d6:	d002      	beq.n	100020de <__swsetup_r+0x66>
100020d8:	4630      	mov	r0, r6
100020da:	f000 fa59 	bl	10002590 <_free_r>
100020de:	2300      	movs	r3, #0
100020e0:	6363      	str	r3, [r4, #52]	; 0x34
100020e2:	89a3      	ldrh	r3, [r4, #12]
100020e4:	f023 0324 	bic.w	r3, r3, #36	; 0x24
100020e8:	81a3      	strh	r3, [r4, #12]
100020ea:	2300      	movs	r3, #0
100020ec:	6063      	str	r3, [r4, #4]
100020ee:	6923      	ldr	r3, [r4, #16]
100020f0:	6023      	str	r3, [r4, #0]
100020f2:	89a3      	ldrh	r3, [r4, #12]
100020f4:	f043 0308 	orr.w	r3, r3, #8
100020f8:	81a3      	strh	r3, [r4, #12]
100020fa:	6923      	ldr	r3, [r4, #16]
100020fc:	b94b      	cbnz	r3, 10002112 <__swsetup_r+0x9a>
100020fe:	89a3      	ldrh	r3, [r4, #12]
10002100:	f403 7320 	and.w	r3, r3, #640	; 0x280
10002104:	f5b3 7f00 	cmp.w	r3, #512	; 0x200
10002108:	d003      	beq.n	10002112 <__swsetup_r+0x9a>
1000210a:	4621      	mov	r1, r4
1000210c:	4630      	mov	r0, r6
1000210e:	f000 f9ff 	bl	10002510 <__smakebuf_r>
10002112:	89a0      	ldrh	r0, [r4, #12]
10002114:	f9b4 200c 	ldrsh.w	r2, [r4, #12]
10002118:	f010 0301 	ands.w	r3, r0, #1
1000211c:	d00a      	beq.n	10002134 <__swsetup_r+0xbc>
1000211e:	2300      	movs	r3, #0
10002120:	60a3      	str	r3, [r4, #8]
10002122:	6963      	ldr	r3, [r4, #20]
10002124:	425b      	negs	r3, r3
10002126:	61a3      	str	r3, [r4, #24]
10002128:	6923      	ldr	r3, [r4, #16]
1000212a:	b943      	cbnz	r3, 1000213e <__swsetup_r+0xc6>
1000212c:	f010 0080 	ands.w	r0, r0, #128	; 0x80
10002130:	d1ba      	bne.n	100020a8 <__swsetup_r+0x30>
10002132:	bd70      	pop	{r4, r5, r6, pc}
10002134:	0781      	lsls	r1, r0, #30
10002136:	bf58      	it	pl
10002138:	6963      	ldrpl	r3, [r4, #20]
1000213a:	60a3      	str	r3, [r4, #8]
1000213c:	e7f4      	b.n	10002128 <__swsetup_r+0xb0>
1000213e:	2000      	movs	r0, #0
10002140:	e7f7      	b.n	10002132 <__swsetup_r+0xba>
10002142:	bf00      	nop
10002144:	38000004 	stmdacc	r0, {r2}
10002148:	10003918 	andne	r3, r0, r8, lsl r9
1000214c:	10003938 	andne	r3, r0, r8, lsr r9
10002150:	100038f8 	strdne	r3, [r0], -r8

10002154 <__sflush_r>:
10002154:	898a      	ldrh	r2, [r1, #12]
10002156:	e92d 41f0 	stmdb	sp!, {r4, r5, r6, r7, r8, lr}
1000215a:	4605      	mov	r5, r0
1000215c:	0710      	lsls	r0, r2, #28
1000215e:	460c      	mov	r4, r1
10002160:	d458      	bmi.n	10002214 <__sflush_r+0xc0>
10002162:	684b      	ldr	r3, [r1, #4]
10002164:	2b00      	cmp	r3, #0
10002166:	dc05      	bgt.n	10002174 <__sflush_r+0x20>
10002168:	6c0b      	ldr	r3, [r1, #64]	; 0x40
1000216a:	2b00      	cmp	r3, #0
1000216c:	dc02      	bgt.n	10002174 <__sflush_r+0x20>
1000216e:	2000      	movs	r0, #0
10002170:	e8bd 81f0 	ldmia.w	sp!, {r4, r5, r6, r7, r8, pc}
10002174:	6ae6      	ldr	r6, [r4, #44]	; 0x2c
10002176:	2e00      	cmp	r6, #0
10002178:	d0f9      	beq.n	1000216e <__sflush_r+0x1a>
1000217a:	2300      	movs	r3, #0
1000217c:	f412 5280 	ands.w	r2, r2, #4096	; 0x1000
10002180:	682f      	ldr	r7, [r5, #0]
10002182:	602b      	str	r3, [r5, #0]
10002184:	d032      	beq.n	100021ec <__sflush_r+0x98>
10002186:	6d60      	ldr	r0, [r4, #84]	; 0x54
10002188:	89a3      	ldrh	r3, [r4, #12]
1000218a:	075a      	lsls	r2, r3, #29
1000218c:	d505      	bpl.n	1000219a <__sflush_r+0x46>
1000218e:	6863      	ldr	r3, [r4, #4]
10002190:	1ac0      	subs	r0, r0, r3
10002192:	6b63      	ldr	r3, [r4, #52]	; 0x34
10002194:	b10b      	cbz	r3, 1000219a <__sflush_r+0x46>
10002196:	6c23      	ldr	r3, [r4, #64]	; 0x40
10002198:	1ac0      	subs	r0, r0, r3
1000219a:	2300      	movs	r3, #0
1000219c:	4602      	mov	r2, r0
1000219e:	6ae6      	ldr	r6, [r4, #44]	; 0x2c
100021a0:	4628      	mov	r0, r5
100021a2:	6a21      	ldr	r1, [r4, #32]
100021a4:	47b0      	blx	r6
100021a6:	1c43      	adds	r3, r0, #1
100021a8:	89a3      	ldrh	r3, [r4, #12]
100021aa:	d106      	bne.n	100021ba <__sflush_r+0x66>
100021ac:	6829      	ldr	r1, [r5, #0]
100021ae:	291d      	cmp	r1, #29
100021b0:	d82c      	bhi.n	1000220c <__sflush_r+0xb8>
100021b2:	4a29      	ldr	r2, [pc, #164]	; (10002258 <__sflush_r+0x104>)
100021b4:	40ca      	lsrs	r2, r1
100021b6:	07d6      	lsls	r6, r2, #31
100021b8:	d528      	bpl.n	1000220c <__sflush_r+0xb8>
100021ba:	2200      	movs	r2, #0
100021bc:	04d9      	lsls	r1, r3, #19
100021be:	6062      	str	r2, [r4, #4]
100021c0:	6922      	ldr	r2, [r4, #16]
100021c2:	6022      	str	r2, [r4, #0]
100021c4:	d504      	bpl.n	100021d0 <__sflush_r+0x7c>
100021c6:	1c42      	adds	r2, r0, #1
100021c8:	d101      	bne.n	100021ce <__sflush_r+0x7a>
100021ca:	682b      	ldr	r3, [r5, #0]
100021cc:	b903      	cbnz	r3, 100021d0 <__sflush_r+0x7c>
100021ce:	6560      	str	r0, [r4, #84]	; 0x54
100021d0:	6b61      	ldr	r1, [r4, #52]	; 0x34
100021d2:	602f      	str	r7, [r5, #0]
100021d4:	2900      	cmp	r1, #0
100021d6:	d0ca      	beq.n	1000216e <__sflush_r+0x1a>
100021d8:	f104 0344 	add.w	r3, r4, #68	; 0x44
100021dc:	4299      	cmp	r1, r3
100021de:	d002      	beq.n	100021e6 <__sflush_r+0x92>
100021e0:	4628      	mov	r0, r5
100021e2:	f000 f9d5 	bl	10002590 <_free_r>
100021e6:	2000      	movs	r0, #0
100021e8:	6360      	str	r0, [r4, #52]	; 0x34
100021ea:	e7c1      	b.n	10002170 <__sflush_r+0x1c>
100021ec:	6a21      	ldr	r1, [r4, #32]
100021ee:	2301      	movs	r3, #1
100021f0:	4628      	mov	r0, r5
100021f2:	47b0      	blx	r6
100021f4:	1c41      	adds	r1, r0, #1
100021f6:	d1c7      	bne.n	10002188 <__sflush_r+0x34>
100021f8:	682b      	ldr	r3, [r5, #0]
100021fa:	2b00      	cmp	r3, #0
100021fc:	d0c4      	beq.n	10002188 <__sflush_r+0x34>
100021fe:	2b1d      	cmp	r3, #29
10002200:	d001      	beq.n	10002206 <__sflush_r+0xb2>
10002202:	2b16      	cmp	r3, #22
10002204:	d101      	bne.n	1000220a <__sflush_r+0xb6>
10002206:	602f      	str	r7, [r5, #0]
10002208:	e7b1      	b.n	1000216e <__sflush_r+0x1a>
1000220a:	89a3      	ldrh	r3, [r4, #12]
1000220c:	f043 0340 	orr.w	r3, r3, #64	; 0x40
10002210:	81a3      	strh	r3, [r4, #12]
10002212:	e7ad      	b.n	10002170 <__sflush_r+0x1c>
10002214:	690f      	ldr	r7, [r1, #16]
10002216:	2f00      	cmp	r7, #0
10002218:	d0a9      	beq.n	1000216e <__sflush_r+0x1a>
1000221a:	0793      	lsls	r3, r2, #30
1000221c:	680e      	ldr	r6, [r1, #0]
1000221e:	600f      	str	r7, [r1, #0]
10002220:	bf0c      	ite	eq
10002222:	694b      	ldreq	r3, [r1, #20]
10002224:	2300      	movne	r3, #0
10002226:	eba6 0807 	sub.w	r8, r6, r7
1000222a:	608b      	str	r3, [r1, #8]
1000222c:	f1b8 0f00 	cmp.w	r8, #0
10002230:	dd9d      	ble.n	1000216e <__sflush_r+0x1a>
10002232:	4643      	mov	r3, r8
10002234:	463a      	mov	r2, r7
10002236:	6a21      	ldr	r1, [r4, #32]
10002238:	4628      	mov	r0, r5
1000223a:	6aa6      	ldr	r6, [r4, #40]	; 0x28
1000223c:	47b0      	blx	r6
1000223e:	2800      	cmp	r0, #0
10002240:	dc06      	bgt.n	10002250 <__sflush_r+0xfc>
10002242:	89a3      	ldrh	r3, [r4, #12]
10002244:	f04f 30ff 	mov.w	r0, #4294967295
10002248:	f043 0340 	orr.w	r3, r3, #64	; 0x40
1000224c:	81a3      	strh	r3, [r4, #12]
1000224e:	e78f      	b.n	10002170 <__sflush_r+0x1c>
10002250:	4407      	add	r7, r0
10002252:	eba8 0800 	sub.w	r8, r8, r0
10002256:	e7e9      	b.n	1000222c <__sflush_r+0xd8>
10002258:	20400001 	subcs	r0, r0, r1

1000225c <_fflush_r>:
1000225c:	b538      	push	{r3, r4, r5, lr}
1000225e:	690b      	ldr	r3, [r1, #16]
10002260:	4605      	mov	r5, r0
10002262:	460c      	mov	r4, r1
10002264:	b913      	cbnz	r3, 1000226c <_fflush_r+0x10>
10002266:	2500      	movs	r5, #0
10002268:	4628      	mov	r0, r5
1000226a:	bd38      	pop	{r3, r4, r5, pc}
1000226c:	b118      	cbz	r0, 10002276 <_fflush_r+0x1a>
1000226e:	6983      	ldr	r3, [r0, #24]
10002270:	b90b      	cbnz	r3, 10002276 <_fflush_r+0x1a>
10002272:	f000 f887 	bl	10002384 <__sinit>
10002276:	4b14      	ldr	r3, [pc, #80]	; (100022c8 <_fflush_r+0x6c>)
10002278:	429c      	cmp	r4, r3
1000227a:	d11b      	bne.n	100022b4 <_fflush_r+0x58>
1000227c:	686c      	ldr	r4, [r5, #4]
1000227e:	f9b4 300c 	ldrsh.w	r3, [r4, #12]
10002282:	2b00      	cmp	r3, #0
10002284:	d0ef      	beq.n	10002266 <_fflush_r+0xa>
10002286:	6e62      	ldr	r2, [r4, #100]	; 0x64
10002288:	07d0      	lsls	r0, r2, #31
1000228a:	d404      	bmi.n	10002296 <_fflush_r+0x3a>
1000228c:	0599      	lsls	r1, r3, #22
1000228e:	d402      	bmi.n	10002296 <_fflush_r+0x3a>
10002290:	6da0      	ldr	r0, [r4, #88]	; 0x58
10002292:	f000 f915 	bl	100024c0 <__retarget_lock_acquire_recursive>
10002296:	4628      	mov	r0, r5
10002298:	4621      	mov	r1, r4
1000229a:	f7ff ff5b 	bl	10002154 <__sflush_r>
1000229e:	6e63      	ldr	r3, [r4, #100]	; 0x64
100022a0:	4605      	mov	r5, r0
100022a2:	07da      	lsls	r2, r3, #31
100022a4:	d4e0      	bmi.n	10002268 <_fflush_r+0xc>
100022a6:	89a3      	ldrh	r3, [r4, #12]
100022a8:	059b      	lsls	r3, r3, #22
100022aa:	d4dd      	bmi.n	10002268 <_fflush_r+0xc>
100022ac:	6da0      	ldr	r0, [r4, #88]	; 0x58
100022ae:	f000 f908 	bl	100024c2 <__retarget_lock_release_recursive>
100022b2:	e7d9      	b.n	10002268 <_fflush_r+0xc>
100022b4:	4b05      	ldr	r3, [pc, #20]	; (100022cc <_fflush_r+0x70>)
100022b6:	429c      	cmp	r4, r3
100022b8:	d101      	bne.n	100022be <_fflush_r+0x62>
100022ba:	68ac      	ldr	r4, [r5, #8]
100022bc:	e7df      	b.n	1000227e <_fflush_r+0x22>
100022be:	4b04      	ldr	r3, [pc, #16]	; (100022d0 <_fflush_r+0x74>)
100022c0:	429c      	cmp	r4, r3
100022c2:	bf08      	it	eq
100022c4:	68ec      	ldreq	r4, [r5, #12]
100022c6:	e7da      	b.n	1000227e <_fflush_r+0x22>
100022c8:	10003918 	andne	r3, r0, r8, lsl r9
100022cc:	10003938 	andne	r3, r0, r8, lsr r9
100022d0:	100038f8 	strdne	r3, [r0], -r8

100022d4 <std>:
100022d4:	2300      	movs	r3, #0
100022d6:	b510      	push	{r4, lr}
100022d8:	4604      	mov	r4, r0
100022da:	6083      	str	r3, [r0, #8]
100022dc:	8181      	strh	r1, [r0, #12]
100022de:	4619      	mov	r1, r3
100022e0:	6643      	str	r3, [r0, #100]	; 0x64
100022e2:	81c2      	strh	r2, [r0, #14]
100022e4:	2208      	movs	r2, #8
100022e6:	6183      	str	r3, [r0, #24]
100022e8:	e9c0 3300 	strd	r3, r3, [r0]
100022ec:	e9c0 3304 	strd	r3, r3, [r0, #16]
100022f0:	305c      	adds	r0, #92	; 0x5c
100022f2:	f7ff fdf1 	bl	10001ed8 <memset>
100022f6:	4b05      	ldr	r3, [pc, #20]	; (1000230c <std+0x38>)
100022f8:	6224      	str	r4, [r4, #32]
100022fa:	6263      	str	r3, [r4, #36]	; 0x24
100022fc:	4b04      	ldr	r3, [pc, #16]	; (10002310 <std+0x3c>)
100022fe:	62a3      	str	r3, [r4, #40]	; 0x28
10002300:	4b04      	ldr	r3, [pc, #16]	; (10002314 <std+0x40>)
10002302:	62e3      	str	r3, [r4, #44]	; 0x2c
10002304:	4b04      	ldr	r3, [pc, #16]	; (10002318 <std+0x44>)
10002306:	6323      	str	r3, [r4, #48]	; 0x30
10002308:	bd10      	pop	{r4, pc}
1000230a:	bf00      	nop
1000230c:	10002771 	andne	r2, r0, r1, ror r7
10002310:	10002793 	mulne	r0, r3, r7
10002314:	100027cb 	andne	r2, r0, fp, asr #15
10002318:	100027ef 	andne	r2, r0, pc, ror #15

1000231c <_cleanup_r>:
1000231c:	4901      	ldr	r1, [pc, #4]	; (10002324 <_cleanup_r+0x8>)
1000231e:	f000 b8af 	b.w	10002480 <_fwalk_reent>
10002322:	bf00      	nop
10002324:	1000225d 	andne	r2, r0, sp, asr r2

10002328 <__sfmoreglue>:
10002328:	b570      	push	{r4, r5, r6, lr}
1000232a:	2268      	movs	r2, #104	; 0x68
1000232c:	1e4d      	subs	r5, r1, #1
1000232e:	460e      	mov	r6, r1
10002330:	4355      	muls	r5, r2
10002332:	f105 0174 	add.w	r1, r5, #116	; 0x74
10002336:	f000 f997 	bl	10002668 <_malloc_r>
1000233a:	4604      	mov	r4, r0
1000233c:	b140      	cbz	r0, 10002350 <__sfmoreglue+0x28>
1000233e:	2100      	movs	r1, #0
10002340:	f105 0268 	add.w	r2, r5, #104	; 0x68
10002344:	e9c0 1600 	strd	r1, r6, [r0]
10002348:	300c      	adds	r0, #12
1000234a:	60a0      	str	r0, [r4, #8]
1000234c:	f7ff fdc4 	bl	10001ed8 <memset>
10002350:	4620      	mov	r0, r4
10002352:	bd70      	pop	{r4, r5, r6, pc}

10002354 <__sfp_lock_acquire>:
10002354:	4801      	ldr	r0, [pc, #4]	; (1000235c <__sfp_lock_acquire+0x8>)
10002356:	f000 b8b3 	b.w	100024c0 <__retarget_lock_acquire_recursive>
1000235a:	bf00      	nop
1000235c:	380001d5 	stmdacc	r0, {r0, r2, r4, r6, r7, r8}

10002360 <__sfp_lock_release>:
10002360:	4801      	ldr	r0, [pc, #4]	; (10002368 <__sfp_lock_release+0x8>)
10002362:	f000 b8ae 	b.w	100024c2 <__retarget_lock_release_recursive>
10002366:	bf00      	nop
10002368:	380001d5 	stmdacc	r0, {r0, r2, r4, r6, r7, r8}

1000236c <__sinit_lock_acquire>:
1000236c:	4801      	ldr	r0, [pc, #4]	; (10002374 <__sinit_lock_acquire+0x8>)
1000236e:	f000 b8a7 	b.w	100024c0 <__retarget_lock_acquire_recursive>
10002372:	bf00      	nop
10002374:	380001d6 	stmdacc	r0, {r1, r2, r4, r6, r7, r8}

10002378 <__sinit_lock_release>:
10002378:	4801      	ldr	r0, [pc, #4]	; (10002380 <__sinit_lock_release+0x8>)
1000237a:	f000 b8a2 	b.w	100024c2 <__retarget_lock_release_recursive>
1000237e:	bf00      	nop
10002380:	380001d6 	stmdacc	r0, {r1, r2, r4, r6, r7, r8}

10002384 <__sinit>:
10002384:	b510      	push	{r4, lr}
10002386:	4604      	mov	r4, r0
10002388:	f7ff fff0 	bl	1000236c <__sinit_lock_acquire>
1000238c:	69a3      	ldr	r3, [r4, #24]
1000238e:	b11b      	cbz	r3, 10002398 <__sinit+0x14>
10002390:	e8bd 4010 	ldmia.w	sp!, {r4, lr}
10002394:	f7ff bff0 	b.w	10002378 <__sinit_lock_release>
10002398:	e9c4 3312 	strd	r3, r3, [r4, #72]	; 0x48
1000239c:	6523      	str	r3, [r4, #80]	; 0x50
1000239e:	4620      	mov	r0, r4
100023a0:	4b12      	ldr	r3, [pc, #72]	; (100023ec <__sinit+0x68>)
100023a2:	4a13      	ldr	r2, [pc, #76]	; (100023f0 <__sinit+0x6c>)
100023a4:	681b      	ldr	r3, [r3, #0]
100023a6:	62a2      	str	r2, [r4, #40]	; 0x28
100023a8:	42a3      	cmp	r3, r4
100023aa:	bf04      	itt	eq
100023ac:	2301      	moveq	r3, #1
100023ae:	61a3      	streq	r3, [r4, #24]
100023b0:	f000 f820 	bl	100023f4 <__sfp>
100023b4:	6060      	str	r0, [r4, #4]
100023b6:	4620      	mov	r0, r4
100023b8:	f000 f81c 	bl	100023f4 <__sfp>
100023bc:	60a0      	str	r0, [r4, #8]
100023be:	4620      	mov	r0, r4
100023c0:	f000 f818 	bl	100023f4 <__sfp>
100023c4:	2200      	movs	r2, #0
100023c6:	2104      	movs	r1, #4
100023c8:	60e0      	str	r0, [r4, #12]
100023ca:	6860      	ldr	r0, [r4, #4]
100023cc:	f7ff ff82 	bl	100022d4 <std>
100023d0:	2201      	movs	r2, #1
100023d2:	2109      	movs	r1, #9
100023d4:	68a0      	ldr	r0, [r4, #8]
100023d6:	f7ff ff7d 	bl	100022d4 <std>
100023da:	2202      	movs	r2, #2
100023dc:	2112      	movs	r1, #18
100023de:	68e0      	ldr	r0, [r4, #12]
100023e0:	f7ff ff78 	bl	100022d4 <std>
100023e4:	2301      	movs	r3, #1
100023e6:	61a3      	str	r3, [r4, #24]
100023e8:	e7d2      	b.n	10002390 <__sinit+0xc>
100023ea:	bf00      	nop
100023ec:	100038f4 	strdne	r3, [r0], -r4
100023f0:	1000231d 	andne	r2, r0, sp, lsl r3

100023f4 <__sfp>:
100023f4:	b5f8      	push	{r3, r4, r5, r6, r7, lr}
100023f6:	4607      	mov	r7, r0
100023f8:	f7ff ffac 	bl	10002354 <__sfp_lock_acquire>
100023fc:	4b1e      	ldr	r3, [pc, #120]	; (10002478 <__sfp+0x84>)
100023fe:	681e      	ldr	r6, [r3, #0]
10002400:	69b3      	ldr	r3, [r6, #24]
10002402:	b913      	cbnz	r3, 1000240a <__sfp+0x16>
10002404:	4630      	mov	r0, r6
10002406:	f7ff ffbd 	bl	10002384 <__sinit>
1000240a:	3648      	adds	r6, #72	; 0x48
1000240c:	e9d6 3401 	ldrd	r3, r4, [r6, #4]
10002410:	3b01      	subs	r3, #1
10002412:	d503      	bpl.n	1000241c <__sfp+0x28>
10002414:	6833      	ldr	r3, [r6, #0]
10002416:	b30b      	cbz	r3, 1000245c <__sfp+0x68>
10002418:	6836      	ldr	r6, [r6, #0]
1000241a:	e7f7      	b.n	1000240c <__sfp+0x18>
1000241c:	f9b4 500c 	ldrsh.w	r5, [r4, #12]
10002420:	b9d5      	cbnz	r5, 10002458 <__sfp+0x64>
10002422:	4b16      	ldr	r3, [pc, #88]	; (1000247c <__sfp+0x88>)
10002424:	f104 0058 	add.w	r0, r4, #88	; 0x58
10002428:	6665      	str	r5, [r4, #100]	; 0x64
1000242a:	60e3      	str	r3, [r4, #12]
1000242c:	f000 f847 	bl	100024be <__retarget_lock_init_recursive>
10002430:	f7ff ff96 	bl	10002360 <__sfp_lock_release>
10002434:	2208      	movs	r2, #8
10002436:	4629      	mov	r1, r5
10002438:	f104 005c 	add.w	r0, r4, #92	; 0x5c
1000243c:	6025      	str	r5, [r4, #0]
1000243e:	61a5      	str	r5, [r4, #24]
10002440:	e9c4 5501 	strd	r5, r5, [r4, #4]
10002444:	e9c4 5504 	strd	r5, r5, [r4, #16]
10002448:	f7ff fd46 	bl	10001ed8 <memset>
1000244c:	e9c4 550d 	strd	r5, r5, [r4, #52]	; 0x34
10002450:	e9c4 5512 	strd	r5, r5, [r4, #72]	; 0x48
10002454:	4620      	mov	r0, r4
10002456:	bdf8      	pop	{r3, r4, r5, r6, r7, pc}
10002458:	3468      	adds	r4, #104	; 0x68
1000245a:	e7d9      	b.n	10002410 <__sfp+0x1c>
1000245c:	2104      	movs	r1, #4
1000245e:	4638      	mov	r0, r7
10002460:	f7ff ff62 	bl	10002328 <__sfmoreglue>
10002464:	4604      	mov	r4, r0
10002466:	6030      	str	r0, [r6, #0]
10002468:	2800      	cmp	r0, #0
1000246a:	d1d5      	bne.n	10002418 <__sfp+0x24>
1000246c:	f7ff ff78 	bl	10002360 <__sfp_lock_release>
10002470:	230c      	movs	r3, #12
10002472:	603b      	str	r3, [r7, #0]
10002474:	e7ee      	b.n	10002454 <__sfp+0x60>
10002476:	bf00      	nop
10002478:	100038f4 	strdne	r3, [r0], -r4
1000247c:	ffff0001 			; <UNDEFINED> instruction: 0xffff0001

10002480 <_fwalk_reent>:
10002480:	e92d 43f8 	stmdb	sp!, {r3, r4, r5, r6, r7, r8, r9, lr}
10002484:	4606      	mov	r6, r0
10002486:	4688      	mov	r8, r1
10002488:	f100 0448 	add.w	r4, r0, #72	; 0x48
1000248c:	2700      	movs	r7, #0
1000248e:	e9d4 9501 	ldrd	r9, r5, [r4, #4]
10002492:	f1b9 0901 	subs.w	r9, r9, #1
10002496:	d505      	bpl.n	100024a4 <_fwalk_reent+0x24>
10002498:	6824      	ldr	r4, [r4, #0]
1000249a:	2c00      	cmp	r4, #0
1000249c:	d1f7      	bne.n	1000248e <_fwalk_reent+0xe>
1000249e:	4638      	mov	r0, r7
100024a0:	e8bd 83f8 	ldmia.w	sp!, {r3, r4, r5, r6, r7, r8, r9, pc}
100024a4:	89ab      	ldrh	r3, [r5, #12]
100024a6:	2b01      	cmp	r3, #1
100024a8:	d907      	bls.n	100024ba <_fwalk_reent+0x3a>
100024aa:	f9b5 300e 	ldrsh.w	r3, [r5, #14]
100024ae:	3301      	adds	r3, #1
100024b0:	d003      	beq.n	100024ba <_fwalk_reent+0x3a>
100024b2:	4629      	mov	r1, r5
100024b4:	4630      	mov	r0, r6
100024b6:	47c0      	blx	r8
100024b8:	4307      	orrs	r7, r0
100024ba:	3568      	adds	r5, #104	; 0x68
100024bc:	e7e9      	b.n	10002492 <_fwalk_reent+0x12>

100024be <__retarget_lock_init_recursive>:
100024be:	4770      	bx	lr

100024c0 <__retarget_lock_acquire_recursive>:
100024c0:	4770      	bx	lr

100024c2 <__retarget_lock_release_recursive>:
100024c2:	4770      	bx	lr

100024c4 <__swhatbuf_r>:
100024c4:	b570      	push	{r4, r5, r6, lr}
100024c6:	460e      	mov	r6, r1
100024c8:	f9b1 100e 	ldrsh.w	r1, [r1, #14]
100024cc:	b096      	sub	sp, #88	; 0x58
100024ce:	4614      	mov	r4, r2
100024d0:	2900      	cmp	r1, #0
100024d2:	461d      	mov	r5, r3
100024d4:	da08      	bge.n	100024e8 <__swhatbuf_r+0x24>
100024d6:	f9b6 300c 	ldrsh.w	r3, [r6, #12]
100024da:	2200      	movs	r2, #0
100024dc:	602a      	str	r2, [r5, #0]
100024de:	061a      	lsls	r2, r3, #24
100024e0:	d410      	bmi.n	10002504 <__swhatbuf_r+0x40>
100024e2:	f44f 6380 	mov.w	r3, #1024	; 0x400
100024e6:	e00e      	b.n	10002506 <__swhatbuf_r+0x42>
100024e8:	466a      	mov	r2, sp
100024ea:	f000 f9a7 	bl	1000283c <_fstat_r>
100024ee:	2800      	cmp	r0, #0
100024f0:	dbf1      	blt.n	100024d6 <__swhatbuf_r+0x12>
100024f2:	9a01      	ldr	r2, [sp, #4]
100024f4:	f402 4270 	and.w	r2, r2, #61440	; 0xf000
100024f8:	f5a2 5300 	sub.w	r3, r2, #8192	; 0x2000
100024fc:	425a      	negs	r2, r3
100024fe:	415a      	adcs	r2, r3
10002500:	602a      	str	r2, [r5, #0]
10002502:	e7ee      	b.n	100024e2 <__swhatbuf_r+0x1e>
10002504:	2340      	movs	r3, #64	; 0x40
10002506:	2000      	movs	r0, #0
10002508:	6023      	str	r3, [r4, #0]
1000250a:	b016      	add	sp, #88	; 0x58
1000250c:	bd70      	pop	{r4, r5, r6, pc}
	...

10002510 <__smakebuf_r>:
10002510:	898b      	ldrh	r3, [r1, #12]
10002512:	b573      	push	{r0, r1, r4, r5, r6, lr}
10002514:	079d      	lsls	r5, r3, #30
10002516:	4606      	mov	r6, r0
10002518:	460c      	mov	r4, r1
1000251a:	d507      	bpl.n	1000252c <__smakebuf_r+0x1c>
1000251c:	f104 0347 	add.w	r3, r4, #71	; 0x47
10002520:	6023      	str	r3, [r4, #0]
10002522:	6123      	str	r3, [r4, #16]
10002524:	2301      	movs	r3, #1
10002526:	6163      	str	r3, [r4, #20]
10002528:	b002      	add	sp, #8
1000252a:	bd70      	pop	{r4, r5, r6, pc}
1000252c:	ab01      	add	r3, sp, #4
1000252e:	466a      	mov	r2, sp
10002530:	f7ff ffc8 	bl	100024c4 <__swhatbuf_r>
10002534:	9900      	ldr	r1, [sp, #0]
10002536:	4605      	mov	r5, r0
10002538:	4630      	mov	r0, r6
1000253a:	f000 f895 	bl	10002668 <_malloc_r>
1000253e:	b948      	cbnz	r0, 10002554 <__smakebuf_r+0x44>
10002540:	f9b4 300c 	ldrsh.w	r3, [r4, #12]
10002544:	059a      	lsls	r2, r3, #22
10002546:	d4ef      	bmi.n	10002528 <__smakebuf_r+0x18>
10002548:	f023 0303 	bic.w	r3, r3, #3
1000254c:	f043 0302 	orr.w	r3, r3, #2
10002550:	81a3      	strh	r3, [r4, #12]
10002552:	e7e3      	b.n	1000251c <__smakebuf_r+0xc>
10002554:	4b0d      	ldr	r3, [pc, #52]	; (1000258c <__smakebuf_r+0x7c>)
10002556:	62b3      	str	r3, [r6, #40]	; 0x28
10002558:	89a3      	ldrh	r3, [r4, #12]
1000255a:	6020      	str	r0, [r4, #0]
1000255c:	f043 0380 	orr.w	r3, r3, #128	; 0x80
10002560:	6120      	str	r0, [r4, #16]
10002562:	81a3      	strh	r3, [r4, #12]
10002564:	9b00      	ldr	r3, [sp, #0]
10002566:	6163      	str	r3, [r4, #20]
10002568:	9b01      	ldr	r3, [sp, #4]
1000256a:	b15b      	cbz	r3, 10002584 <__smakebuf_r+0x74>
1000256c:	f9b4 100e 	ldrsh.w	r1, [r4, #14]
10002570:	4630      	mov	r0, r6
10002572:	f000 f975 	bl	10002860 <_isatty_r>
10002576:	b128      	cbz	r0, 10002584 <__smakebuf_r+0x74>
10002578:	89a3      	ldrh	r3, [r4, #12]
1000257a:	f023 0303 	bic.w	r3, r3, #3
1000257e:	f043 0301 	orr.w	r3, r3, #1
10002582:	81a3      	strh	r3, [r4, #12]
10002584:	89a0      	ldrh	r0, [r4, #12]
10002586:	4305      	orrs	r5, r0
10002588:	81a5      	strh	r5, [r4, #12]
1000258a:	e7cd      	b.n	10002528 <__smakebuf_r+0x18>
1000258c:	1000231d 	andne	r2, r0, sp, lsl r3

10002590 <_free_r>:
10002590:	b537      	push	{r0, r1, r2, r4, r5, lr}
10002592:	2900      	cmp	r1, #0
10002594:	d043      	beq.n	1000261e <_free_r+0x8e>
10002596:	f851 3c04 	ldr.w	r3, [r1, #-4]
1000259a:	1f0c      	subs	r4, r1, #4
1000259c:	9001      	str	r0, [sp, #4]
1000259e:	2b00      	cmp	r3, #0
100025a0:	bfb8      	it	lt
100025a2:	18e4      	addlt	r4, r4, r3
100025a4:	f000 f97e 	bl	100028a4 <__malloc_lock>
100025a8:	4a1e      	ldr	r2, [pc, #120]	; (10002624 <_free_r+0x94>)
100025aa:	9801      	ldr	r0, [sp, #4]
100025ac:	6813      	ldr	r3, [r2, #0]
100025ae:	b933      	cbnz	r3, 100025be <_free_r+0x2e>
100025b0:	6063      	str	r3, [r4, #4]
100025b2:	6014      	str	r4, [r2, #0]
100025b4:	b003      	add	sp, #12
100025b6:	e8bd 4030 	ldmia.w	sp!, {r4, r5, lr}
100025ba:	f000 b979 	b.w	100028b0 <__malloc_unlock>
100025be:	42a3      	cmp	r3, r4
100025c0:	d908      	bls.n	100025d4 <_free_r+0x44>
100025c2:	6825      	ldr	r5, [r4, #0]
100025c4:	1961      	adds	r1, r4, r5
100025c6:	428b      	cmp	r3, r1
100025c8:	bf01      	itttt	eq
100025ca:	6819      	ldreq	r1, [r3, #0]
100025cc:	685b      	ldreq	r3, [r3, #4]
100025ce:	1949      	addeq	r1, r1, r5
100025d0:	6021      	streq	r1, [r4, #0]
100025d2:	e7ed      	b.n	100025b0 <_free_r+0x20>
100025d4:	461a      	mov	r2, r3
100025d6:	685b      	ldr	r3, [r3, #4]
100025d8:	b10b      	cbz	r3, 100025de <_free_r+0x4e>
100025da:	42a3      	cmp	r3, r4
100025dc:	d9fa      	bls.n	100025d4 <_free_r+0x44>
100025de:	6811      	ldr	r1, [r2, #0]
100025e0:	1855      	adds	r5, r2, r1
100025e2:	42a5      	cmp	r5, r4
100025e4:	d10b      	bne.n	100025fe <_free_r+0x6e>
100025e6:	6824      	ldr	r4, [r4, #0]
100025e8:	4421      	add	r1, r4
100025ea:	1854      	adds	r4, r2, r1
100025ec:	6011      	str	r1, [r2, #0]
100025ee:	42a3      	cmp	r3, r4
100025f0:	d1e0      	bne.n	100025b4 <_free_r+0x24>
100025f2:	681c      	ldr	r4, [r3, #0]
100025f4:	685b      	ldr	r3, [r3, #4]
100025f6:	4421      	add	r1, r4
100025f8:	6053      	str	r3, [r2, #4]
100025fa:	6011      	str	r1, [r2, #0]
100025fc:	e7da      	b.n	100025b4 <_free_r+0x24>
100025fe:	d902      	bls.n	10002606 <_free_r+0x76>
10002600:	230c      	movs	r3, #12
10002602:	6003      	str	r3, [r0, #0]
10002604:	e7d6      	b.n	100025b4 <_free_r+0x24>
10002606:	6825      	ldr	r5, [r4, #0]
10002608:	1961      	adds	r1, r4, r5
1000260a:	428b      	cmp	r3, r1
1000260c:	bf02      	ittt	eq
1000260e:	6819      	ldreq	r1, [r3, #0]
10002610:	685b      	ldreq	r3, [r3, #4]
10002612:	1949      	addeq	r1, r1, r5
10002614:	6063      	str	r3, [r4, #4]
10002616:	bf08      	it	eq
10002618:	6021      	streq	r1, [r4, #0]
1000261a:	6054      	str	r4, [r2, #4]
1000261c:	e7ca      	b.n	100025b4 <_free_r+0x24>
1000261e:	b003      	add	sp, #12
10002620:	bd30      	pop	{r4, r5, pc}
10002622:	bf00      	nop
10002624:	380001d8 	stmdacc	r0, {r3, r4, r6, r7, r8}

10002628 <sbrk_aligned>:
10002628:	b570      	push	{r4, r5, r6, lr}
1000262a:	4e0e      	ldr	r6, [pc, #56]	; (10002664 <sbrk_aligned+0x3c>)
1000262c:	460c      	mov	r4, r1
1000262e:	4605      	mov	r5, r0
10002630:	6831      	ldr	r1, [r6, #0]
10002632:	b911      	cbnz	r1, 1000263a <sbrk_aligned+0x12>
10002634:	f000 f88c 	bl	10002750 <_sbrk_r>
10002638:	6030      	str	r0, [r6, #0]
1000263a:	4621      	mov	r1, r4
1000263c:	4628      	mov	r0, r5
1000263e:	f000 f887 	bl	10002750 <_sbrk_r>
10002642:	1c43      	adds	r3, r0, #1
10002644:	d00a      	beq.n	1000265c <sbrk_aligned+0x34>
10002646:	1cc4      	adds	r4, r0, #3
10002648:	f024 0403 	bic.w	r4, r4, #3
1000264c:	42a0      	cmp	r0, r4
1000264e:	d007      	beq.n	10002660 <sbrk_aligned+0x38>
10002650:	1a21      	subs	r1, r4, r0
10002652:	4628      	mov	r0, r5
10002654:	f000 f87c 	bl	10002750 <_sbrk_r>
10002658:	3001      	adds	r0, #1
1000265a:	d101      	bne.n	10002660 <sbrk_aligned+0x38>
1000265c:	f04f 34ff 	mov.w	r4, #4294967295
10002660:	4620      	mov	r0, r4
10002662:	bd70      	pop	{r4, r5, r6, pc}
10002664:	380001dc 	stmdacc	r0, {r2, r3, r4, r6, r7, r8}

10002668 <_malloc_r>:
10002668:	e92d 41f0 	stmdb	sp!, {r4, r5, r6, r7, r8, lr}
1000266c:	1ccd      	adds	r5, r1, #3
1000266e:	4607      	mov	r7, r0
10002670:	f025 0503 	bic.w	r5, r5, #3
10002674:	3508      	adds	r5, #8
10002676:	2d0c      	cmp	r5, #12
10002678:	bf38      	it	cc
1000267a:	250c      	movcc	r5, #12
1000267c:	2d00      	cmp	r5, #0
1000267e:	db01      	blt.n	10002684 <_malloc_r+0x1c>
10002680:	42a9      	cmp	r1, r5
10002682:	d905      	bls.n	10002690 <_malloc_r+0x28>
10002684:	230c      	movs	r3, #12
10002686:	2600      	movs	r6, #0
10002688:	603b      	str	r3, [r7, #0]
1000268a:	4630      	mov	r0, r6
1000268c:	e8bd 81f0 	ldmia.w	sp!, {r4, r5, r6, r7, r8, pc}
10002690:	4e2e      	ldr	r6, [pc, #184]	; (1000274c <_malloc_r+0xe4>)
10002692:	f000 f907 	bl	100028a4 <__malloc_lock>
10002696:	6833      	ldr	r3, [r6, #0]
10002698:	461c      	mov	r4, r3
1000269a:	bb34      	cbnz	r4, 100026ea <_malloc_r+0x82>
1000269c:	4629      	mov	r1, r5
1000269e:	4638      	mov	r0, r7
100026a0:	f7ff ffc2 	bl	10002628 <sbrk_aligned>
100026a4:	1c43      	adds	r3, r0, #1
100026a6:	4604      	mov	r4, r0
100026a8:	d14d      	bne.n	10002746 <_malloc_r+0xde>
100026aa:	6834      	ldr	r4, [r6, #0]
100026ac:	4626      	mov	r6, r4
100026ae:	2e00      	cmp	r6, #0
100026b0:	d140      	bne.n	10002734 <_malloc_r+0xcc>
100026b2:	6823      	ldr	r3, [r4, #0]
100026b4:	4631      	mov	r1, r6
100026b6:	4638      	mov	r0, r7
100026b8:	eb04 0803 	add.w	r8, r4, r3
100026bc:	f000 f848 	bl	10002750 <_sbrk_r>
100026c0:	4580      	cmp	r8, r0
100026c2:	d13a      	bne.n	1000273a <_malloc_r+0xd2>
100026c4:	6821      	ldr	r1, [r4, #0]
100026c6:	3503      	adds	r5, #3
100026c8:	4638      	mov	r0, r7
100026ca:	1a6d      	subs	r5, r5, r1
100026cc:	f025 0503 	bic.w	r5, r5, #3
100026d0:	3508      	adds	r5, #8
100026d2:	2d0c      	cmp	r5, #12
100026d4:	bf38      	it	cc
100026d6:	250c      	movcc	r5, #12
100026d8:	4629      	mov	r1, r5
100026da:	f7ff ffa5 	bl	10002628 <sbrk_aligned>
100026de:	3001      	adds	r0, #1
100026e0:	d02b      	beq.n	1000273a <_malloc_r+0xd2>
100026e2:	6823      	ldr	r3, [r4, #0]
100026e4:	442b      	add	r3, r5
100026e6:	6023      	str	r3, [r4, #0]
100026e8:	e00e      	b.n	10002708 <_malloc_r+0xa0>
100026ea:	6822      	ldr	r2, [r4, #0]
100026ec:	1b52      	subs	r2, r2, r5
100026ee:	d41e      	bmi.n	1000272e <_malloc_r+0xc6>
100026f0:	2a0b      	cmp	r2, #11
100026f2:	d916      	bls.n	10002722 <_malloc_r+0xba>
100026f4:	1961      	adds	r1, r4, r5
100026f6:	42a3      	cmp	r3, r4
100026f8:	6025      	str	r5, [r4, #0]
100026fa:	bf18      	it	ne
100026fc:	6059      	strne	r1, [r3, #4]
100026fe:	6863      	ldr	r3, [r4, #4]
10002700:	bf08      	it	eq
10002702:	6031      	streq	r1, [r6, #0]
10002704:	5162      	str	r2, [r4, r5]
10002706:	604b      	str	r3, [r1, #4]
10002708:	f104 060b 	add.w	r6, r4, #11
1000270c:	4638      	mov	r0, r7
1000270e:	f000 f8cf 	bl	100028b0 <__malloc_unlock>
10002712:	1d23      	adds	r3, r4, #4
10002714:	f026 0607 	bic.w	r6, r6, #7
10002718:	1af2      	subs	r2, r6, r3
1000271a:	d0b6      	beq.n	1000268a <_malloc_r+0x22>
1000271c:	1b9b      	subs	r3, r3, r6
1000271e:	50a3      	str	r3, [r4, r2]
10002720:	e7b3      	b.n	1000268a <_malloc_r+0x22>
10002722:	6862      	ldr	r2, [r4, #4]
10002724:	42a3      	cmp	r3, r4
10002726:	bf0c      	ite	eq
10002728:	6032      	streq	r2, [r6, #0]
1000272a:	605a      	strne	r2, [r3, #4]
1000272c:	e7ec      	b.n	10002708 <_malloc_r+0xa0>
1000272e:	4623      	mov	r3, r4
10002730:	6864      	ldr	r4, [r4, #4]
10002732:	e7b2      	b.n	1000269a <_malloc_r+0x32>
10002734:	4634      	mov	r4, r6
10002736:	6876      	ldr	r6, [r6, #4]
10002738:	e7b9      	b.n	100026ae <_malloc_r+0x46>
1000273a:	230c      	movs	r3, #12
1000273c:	4638      	mov	r0, r7
1000273e:	603b      	str	r3, [r7, #0]
10002740:	f000 f8b6 	bl	100028b0 <__malloc_unlock>
10002744:	e7a1      	b.n	1000268a <_malloc_r+0x22>
10002746:	6025      	str	r5, [r4, #0]
10002748:	e7de      	b.n	10002708 <_malloc_r+0xa0>
1000274a:	bf00      	nop
1000274c:	380001d8 	stmdacc	r0, {r3, r4, r6, r7, r8}

10002750 <_sbrk_r>:
10002750:	b538      	push	{r3, r4, r5, lr}
10002752:	2300      	movs	r3, #0
10002754:	4d05      	ldr	r5, [pc, #20]	; (1000276c <_sbrk_r+0x1c>)
10002756:	4604      	mov	r4, r0
10002758:	4608      	mov	r0, r1
1000275a:	602b      	str	r3, [r5, #0]
1000275c:	f000 f8e8 	bl	10002930 <_sbrk>
10002760:	1c43      	adds	r3, r0, #1
10002762:	d102      	bne.n	1000276a <_sbrk_r+0x1a>
10002764:	682b      	ldr	r3, [r5, #0]
10002766:	b103      	cbz	r3, 1000276a <_sbrk_r+0x1a>
10002768:	6023      	str	r3, [r4, #0]
1000276a:	bd38      	pop	{r3, r4, r5, pc}
1000276c:	380001e0 	stmdacc	r0, {r5, r6, r7, r8}

10002770 <__sread>:
10002770:	b510      	push	{r4, lr}
10002772:	460c      	mov	r4, r1
10002774:	f9b1 100e 	ldrsh.w	r1, [r1, #14]
10002778:	f000 f8a0 	bl	100028bc <_read_r>
1000277c:	2800      	cmp	r0, #0
1000277e:	bfab      	itete	ge
10002780:	6d63      	ldrge	r3, [r4, #84]	; 0x54
10002782:	89a3      	ldrhlt	r3, [r4, #12]
10002784:	181b      	addge	r3, r3, r0
10002786:	f423 5380 	biclt.w	r3, r3, #4096	; 0x1000
1000278a:	bfac      	ite	ge
1000278c:	6563      	strge	r3, [r4, #84]	; 0x54
1000278e:	81a3      	strhlt	r3, [r4, #12]
10002790:	bd10      	pop	{r4, pc}

10002792 <__swrite>:
10002792:	e92d 41f0 	stmdb	sp!, {r4, r5, r6, r7, r8, lr}
10002796:	461f      	mov	r7, r3
10002798:	898b      	ldrh	r3, [r1, #12]
1000279a:	4605      	mov	r5, r0
1000279c:	460c      	mov	r4, r1
1000279e:	05db      	lsls	r3, r3, #23
100027a0:	4616      	mov	r6, r2
100027a2:	d505      	bpl.n	100027b0 <__swrite+0x1e>
100027a4:	2302      	movs	r3, #2
100027a6:	2200      	movs	r2, #0
100027a8:	f9b1 100e 	ldrsh.w	r1, [r1, #14]
100027ac:	f000 f868 	bl	10002880 <_lseek_r>
100027b0:	89a3      	ldrh	r3, [r4, #12]
100027b2:	4632      	mov	r2, r6
100027b4:	f9b4 100e 	ldrsh.w	r1, [r4, #14]
100027b8:	4628      	mov	r0, r5
100027ba:	f423 5380 	bic.w	r3, r3, #4096	; 0x1000
100027be:	81a3      	strh	r3, [r4, #12]
100027c0:	463b      	mov	r3, r7
100027c2:	e8bd 41f0 	ldmia.w	sp!, {r4, r5, r6, r7, r8, lr}
100027c6:	f000 b817 	b.w	100027f8 <_write_r>

100027ca <__sseek>:
100027ca:	b510      	push	{r4, lr}
100027cc:	460c      	mov	r4, r1
100027ce:	f9b1 100e 	ldrsh.w	r1, [r1, #14]
100027d2:	f000 f855 	bl	10002880 <_lseek_r>
100027d6:	1c43      	adds	r3, r0, #1
100027d8:	89a3      	ldrh	r3, [r4, #12]
100027da:	bf15      	itete	ne
100027dc:	6560      	strne	r0, [r4, #84]	; 0x54
100027de:	f423 5380 	biceq.w	r3, r3, #4096	; 0x1000
100027e2:	f443 5380 	orrne.w	r3, r3, #4096	; 0x1000
100027e6:	81a3      	strheq	r3, [r4, #12]
100027e8:	bf18      	it	ne
100027ea:	81a3      	strhne	r3, [r4, #12]
100027ec:	bd10      	pop	{r4, pc}

100027ee <__sclose>:
100027ee:	f9b1 100e 	ldrsh.w	r1, [r1, #14]
100027f2:	f000 b813 	b.w	1000281c <_close_r>
	...

100027f8 <_write_r>:
100027f8:	b538      	push	{r3, r4, r5, lr}
100027fa:	4604      	mov	r4, r0
100027fc:	4d06      	ldr	r5, [pc, #24]	; (10002818 <_write_r+0x20>)
100027fe:	4608      	mov	r0, r1
10002800:	4611      	mov	r1, r2
10002802:	2200      	movs	r2, #0
10002804:	602a      	str	r2, [r5, #0]
10002806:	461a      	mov	r2, r3
10002808:	f000 f8a2 	bl	10002950 <_write>
1000280c:	1c43      	adds	r3, r0, #1
1000280e:	d102      	bne.n	10002816 <_write_r+0x1e>
10002810:	682b      	ldr	r3, [r5, #0]
10002812:	b103      	cbz	r3, 10002816 <_write_r+0x1e>
10002814:	6023      	str	r3, [r4, #0]
10002816:	bd38      	pop	{r3, r4, r5, pc}
10002818:	380001e0 	stmdacc	r0, {r5, r6, r7, r8}

1000281c <_close_r>:
1000281c:	b538      	push	{r3, r4, r5, lr}
1000281e:	2300      	movs	r3, #0
10002820:	4d05      	ldr	r5, [pc, #20]	; (10002838 <_close_r+0x1c>)
10002822:	4604      	mov	r4, r0
10002824:	4608      	mov	r0, r1
10002826:	602b      	str	r3, [r5, #0]
10002828:	f000 f85a 	bl	100028e0 <_close>
1000282c:	1c43      	adds	r3, r0, #1
1000282e:	d102      	bne.n	10002836 <_close_r+0x1a>
10002830:	682b      	ldr	r3, [r5, #0]
10002832:	b103      	cbz	r3, 10002836 <_close_r+0x1a>
10002834:	6023      	str	r3, [r4, #0]
10002836:	bd38      	pop	{r3, r4, r5, pc}
10002838:	380001e0 	stmdacc	r0, {r5, r6, r7, r8}

1000283c <_fstat_r>:
1000283c:	b538      	push	{r3, r4, r5, lr}
1000283e:	2300      	movs	r3, #0
10002840:	4d06      	ldr	r5, [pc, #24]	; (1000285c <_fstat_r+0x20>)
10002842:	4604      	mov	r4, r0
10002844:	4608      	mov	r0, r1
10002846:	4611      	mov	r1, r2
10002848:	602b      	str	r3, [r5, #0]
1000284a:	f000 f851 	bl	100028f0 <_fstat>
1000284e:	1c43      	adds	r3, r0, #1
10002850:	d102      	bne.n	10002858 <_fstat_r+0x1c>
10002852:	682b      	ldr	r3, [r5, #0]
10002854:	b103      	cbz	r3, 10002858 <_fstat_r+0x1c>
10002856:	6023      	str	r3, [r4, #0]
10002858:	bd38      	pop	{r3, r4, r5, pc}
1000285a:	bf00      	nop
1000285c:	380001e0 	stmdacc	r0, {r5, r6, r7, r8}

10002860 <_isatty_r>:
10002860:	b538      	push	{r3, r4, r5, lr}
10002862:	2300      	movs	r3, #0
10002864:	4d05      	ldr	r5, [pc, #20]	; (1000287c <_isatty_r+0x1c>)
10002866:	4604      	mov	r4, r0
10002868:	4608      	mov	r0, r1
1000286a:	602b      	str	r3, [r5, #0]
1000286c:	f000 f848 	bl	10002900 <_isatty>
10002870:	1c43      	adds	r3, r0, #1
10002872:	d102      	bne.n	1000287a <_isatty_r+0x1a>
10002874:	682b      	ldr	r3, [r5, #0]
10002876:	b103      	cbz	r3, 1000287a <_isatty_r+0x1a>
10002878:	6023      	str	r3, [r4, #0]
1000287a:	bd38      	pop	{r3, r4, r5, pc}
1000287c:	380001e0 	stmdacc	r0, {r5, r6, r7, r8}

10002880 <_lseek_r>:
10002880:	b538      	push	{r3, r4, r5, lr}
10002882:	4604      	mov	r4, r0
10002884:	4d06      	ldr	r5, [pc, #24]	; (100028a0 <_lseek_r+0x20>)
10002886:	4608      	mov	r0, r1
10002888:	4611      	mov	r1, r2
1000288a:	2200      	movs	r2, #0
1000288c:	602a      	str	r2, [r5, #0]
1000288e:	461a      	mov	r2, r3
10002890:	f000 f83e 	bl	10002910 <_lseek>
10002894:	1c43      	adds	r3, r0, #1
10002896:	d102      	bne.n	1000289e <_lseek_r+0x1e>
10002898:	682b      	ldr	r3, [r5, #0]
1000289a:	b103      	cbz	r3, 1000289e <_lseek_r+0x1e>
1000289c:	6023      	str	r3, [r4, #0]
1000289e:	bd38      	pop	{r3, r4, r5, pc}
100028a0:	380001e0 	stmdacc	r0, {r5, r6, r7, r8}

100028a4 <__malloc_lock>:
100028a4:	4801      	ldr	r0, [pc, #4]	; (100028ac <__malloc_lock+0x8>)
100028a6:	f7ff be0b 	b.w	100024c0 <__retarget_lock_acquire_recursive>
100028aa:	bf00      	nop
100028ac:	380001d4 	stmdacc	r0, {r2, r4, r6, r7, r8}

100028b0 <__malloc_unlock>:
100028b0:	4801      	ldr	r0, [pc, #4]	; (100028b8 <__malloc_unlock+0x8>)
100028b2:	f7ff be06 	b.w	100024c2 <__retarget_lock_release_recursive>
100028b6:	bf00      	nop
100028b8:	380001d4 	stmdacc	r0, {r2, r4, r6, r7, r8}

100028bc <_read_r>:
100028bc:	b538      	push	{r3, r4, r5, lr}
100028be:	4604      	mov	r4, r0
100028c0:	4d06      	ldr	r5, [pc, #24]	; (100028dc <_read_r+0x20>)
100028c2:	4608      	mov	r0, r1
100028c4:	4611      	mov	r1, r2
100028c6:	2200      	movs	r2, #0
100028c8:	602a      	str	r2, [r5, #0]
100028ca:	461a      	mov	r2, r3
100028cc:	f000 f828 	bl	10002920 <_read>
100028d0:	1c43      	adds	r3, r0, #1
100028d2:	d102      	bne.n	100028da <_read_r+0x1e>
100028d4:	682b      	ldr	r3, [r5, #0]
100028d6:	b103      	cbz	r3, 100028da <_read_r+0x1e>
100028d8:	6023      	str	r3, [r4, #0]
100028da:	bd38      	pop	{r3, r4, r5, pc}
100028dc:	380001e0 	stmdacc	r0, {r5, r6, r7, r8}

100028e0 <_close>:
100028e0:	4b02      	ldr	r3, [pc, #8]	; (100028ec <_close+0xc>)
100028e2:	2258      	movs	r2, #88	; 0x58
100028e4:	f04f 30ff 	mov.w	r0, #4294967295
100028e8:	601a      	str	r2, [r3, #0]
100028ea:	4770      	bx	lr
100028ec:	380001e0 	stmdacc	r0, {r5, r6, r7, r8}

100028f0 <_fstat>:
100028f0:	4b02      	ldr	r3, [pc, #8]	; (100028fc <_fstat+0xc>)
100028f2:	2258      	movs	r2, #88	; 0x58
100028f4:	f04f 30ff 	mov.w	r0, #4294967295
100028f8:	601a      	str	r2, [r3, #0]
100028fa:	4770      	bx	lr
100028fc:	380001e0 	stmdacc	r0, {r5, r6, r7, r8}

10002900 <_isatty>:
10002900:	4b02      	ldr	r3, [pc, #8]	; (1000290c <_isatty+0xc>)
10002902:	2258      	movs	r2, #88	; 0x58
10002904:	2000      	movs	r0, #0
10002906:	601a      	str	r2, [r3, #0]
10002908:	4770      	bx	lr
1000290a:	bf00      	nop
1000290c:	380001e0 	stmdacc	r0, {r5, r6, r7, r8}

10002910 <_lseek>:
10002910:	4b02      	ldr	r3, [pc, #8]	; (1000291c <_lseek+0xc>)
10002912:	2258      	movs	r2, #88	; 0x58
10002914:	f04f 30ff 	mov.w	r0, #4294967295
10002918:	601a      	str	r2, [r3, #0]
1000291a:	4770      	bx	lr
1000291c:	380001e0 	stmdacc	r0, {r5, r6, r7, r8}

10002920 <_read>:
10002920:	4b02      	ldr	r3, [pc, #8]	; (1000292c <_read+0xc>)
10002922:	2258      	movs	r2, #88	; 0x58
10002924:	f04f 30ff 	mov.w	r0, #4294967295
10002928:	601a      	str	r2, [r3, #0]
1000292a:	4770      	bx	lr
1000292c:	380001e0 	stmdacc	r0, {r5, r6, r7, r8}

10002930 <_sbrk>:
10002930:	4a05      	ldr	r2, [pc, #20]	; (10002948 <_sbrk+0x18>)
10002932:	4603      	mov	r3, r0
10002934:	6810      	ldr	r0, [r2, #0]
10002936:	b110      	cbz	r0, 1000293e <_sbrk+0xe>
10002938:	4403      	add	r3, r0
1000293a:	6013      	str	r3, [r2, #0]
1000293c:	4770      	bx	lr
1000293e:	4803      	ldr	r0, [pc, #12]	; (1000294c <_sbrk+0x1c>)
10002940:	4403      	add	r3, r0
10002942:	6013      	str	r3, [r2, #0]
10002944:	4770      	bx	lr
10002946:	bf00      	nop
10002948:	380001e4 	stmdacc	r0, {r2, r5, r6, r7, r8}
1000294c:	380001e8 	stmdacc	r0, {r3, r5, r6, r7, r8}

10002950 <_write>:
10002950:	4b02      	ldr	r3, [pc, #8]	; (1000295c <_write+0xc>)
10002952:	2258      	movs	r2, #88	; 0x58
10002954:	f04f 30ff 	mov.w	r0, #4294967295
10002958:	601a      	str	r2, [r3, #0]
1000295a:	4770      	bx	lr
1000295c:	380001e0 	stmdacc	r0, {r5, r6, r7, r8}

10002960 <__aeabi_drsub>:
10002960:	f081 4100 	eor.w	r1, r1, #2147483648	; 0x80000000
10002964:	e002      	b.n	1000296c <__adddf3>
10002966:	bf00      	nop

10002968 <__aeabi_dsub>:
10002968:	f083 4300 	eor.w	r3, r3, #2147483648	; 0x80000000

1000296c <__adddf3>:
1000296c:	b530      	push	{r4, r5, lr}
1000296e:	ea4f 0441 	mov.w	r4, r1, lsl #1
10002972:	ea4f 0543 	mov.w	r5, r3, lsl #1
10002976:	ea94 0f05 	teq	r4, r5
1000297a:	bf08      	it	eq
1000297c:	ea90 0f02 	teqeq	r0, r2
10002980:	bf1f      	itttt	ne
10002982:	ea54 0c00 	orrsne.w	ip, r4, r0
10002986:	ea55 0c02 	orrsne.w	ip, r5, r2
1000298a:	ea7f 5c64 	mvnsne.w	ip, r4, asr #21
1000298e:	ea7f 5c65 	mvnsne.w	ip, r5, asr #21
10002992:	f000 80e2 	beq.w	10002b5a <__adddf3+0x1ee>
10002996:	ea4f 5454 	mov.w	r4, r4, lsr #21
1000299a:	ebd4 5555 	rsbs	r5, r4, r5, lsr #21
1000299e:	bfb8      	it	lt
100029a0:	426d      	neglt	r5, r5
100029a2:	dd0c      	ble.n	100029be <__adddf3+0x52>
100029a4:	442c      	add	r4, r5
100029a6:	ea80 0202 	eor.w	r2, r0, r2
100029aa:	ea81 0303 	eor.w	r3, r1, r3
100029ae:	ea82 0000 	eor.w	r0, r2, r0
100029b2:	ea83 0101 	eor.w	r1, r3, r1
100029b6:	ea80 0202 	eor.w	r2, r0, r2
100029ba:	ea81 0303 	eor.w	r3, r1, r3
100029be:	2d36      	cmp	r5, #54	; 0x36
100029c0:	bf88      	it	hi
100029c2:	bd30      	pophi	{r4, r5, pc}
100029c4:	f011 4f00 	tst.w	r1, #2147483648	; 0x80000000
100029c8:	ea4f 3101 	mov.w	r1, r1, lsl #12
100029cc:	f44f 1c80 	mov.w	ip, #1048576	; 0x100000
100029d0:	ea4c 3111 	orr.w	r1, ip, r1, lsr #12
100029d4:	d002      	beq.n	100029dc <__adddf3+0x70>
100029d6:	4240      	negs	r0, r0
100029d8:	eb61 0141 	sbc.w	r1, r1, r1, lsl #1
100029dc:	f013 4f00 	tst.w	r3, #2147483648	; 0x80000000
100029e0:	ea4f 3303 	mov.w	r3, r3, lsl #12
100029e4:	ea4c 3313 	orr.w	r3, ip, r3, lsr #12
100029e8:	d002      	beq.n	100029f0 <__adddf3+0x84>
100029ea:	4252      	negs	r2, r2
100029ec:	eb63 0343 	sbc.w	r3, r3, r3, lsl #1
100029f0:	ea94 0f05 	teq	r4, r5
100029f4:	f000 80a7 	beq.w	10002b46 <__adddf3+0x1da>
100029f8:	f1a4 0401 	sub.w	r4, r4, #1
100029fc:	f1d5 0e20 	rsbs	lr, r5, #32
10002a00:	db0d      	blt.n	10002a1e <__adddf3+0xb2>
10002a02:	fa02 fc0e 	lsl.w	ip, r2, lr
10002a06:	fa22 f205 	lsr.w	r2, r2, r5
10002a0a:	1880      	adds	r0, r0, r2
10002a0c:	f141 0100 	adc.w	r1, r1, #0
10002a10:	fa03 f20e 	lsl.w	r2, r3, lr
10002a14:	1880      	adds	r0, r0, r2
10002a16:	fa43 f305 	asr.w	r3, r3, r5
10002a1a:	4159      	adcs	r1, r3
10002a1c:	e00e      	b.n	10002a3c <__adddf3+0xd0>
10002a1e:	f1a5 0520 	sub.w	r5, r5, #32
10002a22:	f10e 0e20 	add.w	lr, lr, #32
10002a26:	2a01      	cmp	r2, #1
10002a28:	fa03 fc0e 	lsl.w	ip, r3, lr
10002a2c:	bf28      	it	cs
10002a2e:	f04c 0c02 	orrcs.w	ip, ip, #2
10002a32:	fa43 f305 	asr.w	r3, r3, r5
10002a36:	18c0      	adds	r0, r0, r3
10002a38:	eb51 71e3 	adcs.w	r1, r1, r3, asr #31
10002a3c:	f001 4500 	and.w	r5, r1, #2147483648	; 0x80000000
10002a40:	d507      	bpl.n	10002a52 <__adddf3+0xe6>
10002a42:	f04f 0e00 	mov.w	lr, #0
10002a46:	f1dc 0c00 	rsbs	ip, ip, #0
10002a4a:	eb7e 0000 	sbcs.w	r0, lr, r0
10002a4e:	eb6e 0101 	sbc.w	r1, lr, r1
10002a52:	f5b1 1f80 	cmp.w	r1, #1048576	; 0x100000
10002a56:	d31b      	bcc.n	10002a90 <__adddf3+0x124>
10002a58:	f5b1 1f00 	cmp.w	r1, #2097152	; 0x200000
10002a5c:	d30c      	bcc.n	10002a78 <__adddf3+0x10c>
10002a5e:	0849      	lsrs	r1, r1, #1
10002a60:	ea5f 0030 	movs.w	r0, r0, rrx
10002a64:	ea4f 0c3c 	mov.w	ip, ip, rrx
10002a68:	f104 0401 	add.w	r4, r4, #1
10002a6c:	ea4f 5244 	mov.w	r2, r4, lsl #21
10002a70:	f512 0f80 	cmn.w	r2, #4194304	; 0x400000
10002a74:	f080 809a 	bcs.w	10002bac <__adddf3+0x240>
10002a78:	f1bc 4f00 	cmp.w	ip, #2147483648	; 0x80000000
10002a7c:	bf08      	it	eq
10002a7e:	ea5f 0c50 	movseq.w	ip, r0, lsr #1
10002a82:	f150 0000 	adcs.w	r0, r0, #0
10002a86:	eb41 5104 	adc.w	r1, r1, r4, lsl #20
10002a8a:	ea41 0105 	orr.w	r1, r1, r5
10002a8e:	bd30      	pop	{r4, r5, pc}
10002a90:	ea5f 0c4c 	movs.w	ip, ip, lsl #1
10002a94:	4140      	adcs	r0, r0
10002a96:	eb41 0101 	adc.w	r1, r1, r1
10002a9a:	3c01      	subs	r4, #1
10002a9c:	bf28      	it	cs
10002a9e:	f5b1 1f80 	cmpcs.w	r1, #1048576	; 0x100000
10002aa2:	d2e9      	bcs.n	10002a78 <__adddf3+0x10c>
10002aa4:	f091 0f00 	teq	r1, #0
10002aa8:	bf04      	itt	eq
10002aaa:	4601      	moveq	r1, r0
10002aac:	2000      	moveq	r0, #0
10002aae:	fab1 f381 	clz	r3, r1
10002ab2:	bf08      	it	eq
10002ab4:	3320      	addeq	r3, #32
10002ab6:	f1a3 030b 	sub.w	r3, r3, #11
10002aba:	f1b3 0220 	subs.w	r2, r3, #32
10002abe:	da0c      	bge.n	10002ada <__adddf3+0x16e>
10002ac0:	320c      	adds	r2, #12
10002ac2:	dd08      	ble.n	10002ad6 <__adddf3+0x16a>
10002ac4:	f102 0c14 	add.w	ip, r2, #20
10002ac8:	f1c2 020c 	rsb	r2, r2, #12
10002acc:	fa01 f00c 	lsl.w	r0, r1, ip
10002ad0:	fa21 f102 	lsr.w	r1, r1, r2
10002ad4:	e00c      	b.n	10002af0 <__adddf3+0x184>
10002ad6:	f102 0214 	add.w	r2, r2, #20
10002ada:	bfd8      	it	le
10002adc:	f1c2 0c20 	rsble	ip, r2, #32
10002ae0:	fa01 f102 	lsl.w	r1, r1, r2
10002ae4:	fa20 fc0c 	lsr.w	ip, r0, ip
10002ae8:	bfdc      	itt	le
10002aea:	ea41 010c 	orrle.w	r1, r1, ip
10002aee:	4090      	lslle	r0, r2
10002af0:	1ae4      	subs	r4, r4, r3
10002af2:	bfa2      	ittt	ge
10002af4:	eb01 5104 	addge.w	r1, r1, r4, lsl #20
10002af8:	4329      	orrge	r1, r5
10002afa:	bd30      	popge	{r4, r5, pc}
10002afc:	ea6f 0404 	mvn.w	r4, r4
10002b00:	3c1f      	subs	r4, #31
10002b02:	da1c      	bge.n	10002b3e <__adddf3+0x1d2>
10002b04:	340c      	adds	r4, #12
10002b06:	dc0e      	bgt.n	10002b26 <__adddf3+0x1ba>
10002b08:	f104 0414 	add.w	r4, r4, #20
10002b0c:	f1c4 0220 	rsb	r2, r4, #32
10002b10:	fa20 f004 	lsr.w	r0, r0, r4
10002b14:	fa01 f302 	lsl.w	r3, r1, r2
10002b18:	ea40 0003 	orr.w	r0, r0, r3
10002b1c:	fa21 f304 	lsr.w	r3, r1, r4
10002b20:	ea45 0103 	orr.w	r1, r5, r3
10002b24:	bd30      	pop	{r4, r5, pc}
10002b26:	f1c4 040c 	rsb	r4, r4, #12
10002b2a:	f1c4 0220 	rsb	r2, r4, #32
10002b2e:	fa20 f002 	lsr.w	r0, r0, r2
10002b32:	fa01 f304 	lsl.w	r3, r1, r4
10002b36:	ea40 0003 	orr.w	r0, r0, r3
10002b3a:	4629      	mov	r1, r5
10002b3c:	bd30      	pop	{r4, r5, pc}
10002b3e:	fa21 f004 	lsr.w	r0, r1, r4
10002b42:	4629      	mov	r1, r5
10002b44:	bd30      	pop	{r4, r5, pc}
10002b46:	f094 0f00 	teq	r4, #0
10002b4a:	f483 1380 	eor.w	r3, r3, #1048576	; 0x100000
10002b4e:	bf06      	itte	eq
10002b50:	f481 1180 	eoreq.w	r1, r1, #1048576	; 0x100000
10002b54:	3401      	addeq	r4, #1
10002b56:	3d01      	subne	r5, #1
10002b58:	e74e      	b.n	100029f8 <__adddf3+0x8c>
10002b5a:	ea7f 5c64 	mvns.w	ip, r4, asr #21
10002b5e:	bf18      	it	ne
10002b60:	ea7f 5c65 	mvnsne.w	ip, r5, asr #21
10002b64:	d029      	beq.n	10002bba <__adddf3+0x24e>
10002b66:	ea94 0f05 	teq	r4, r5
10002b6a:	bf08      	it	eq
10002b6c:	ea90 0f02 	teqeq	r0, r2
10002b70:	d005      	beq.n	10002b7e <__adddf3+0x212>
10002b72:	ea54 0c00 	orrs.w	ip, r4, r0
10002b76:	bf04      	itt	eq
10002b78:	4619      	moveq	r1, r3
10002b7a:	4610      	moveq	r0, r2
10002b7c:	bd30      	pop	{r4, r5, pc}
10002b7e:	ea91 0f03 	teq	r1, r3
10002b82:	bf1e      	ittt	ne
10002b84:	2100      	movne	r1, #0
10002b86:	2000      	movne	r0, #0
10002b88:	bd30      	popne	{r4, r5, pc}
10002b8a:	ea5f 5c54 	movs.w	ip, r4, lsr #21
10002b8e:	d105      	bne.n	10002b9c <__adddf3+0x230>
10002b90:	0040      	lsls	r0, r0, #1
10002b92:	4149      	adcs	r1, r1
10002b94:	bf28      	it	cs
10002b96:	f041 4100 	orrcs.w	r1, r1, #2147483648	; 0x80000000
10002b9a:	bd30      	pop	{r4, r5, pc}
10002b9c:	f514 0480 	adds.w	r4, r4, #4194304	; 0x400000
10002ba0:	bf3c      	itt	cc
10002ba2:	f501 1180 	addcc.w	r1, r1, #1048576	; 0x100000
10002ba6:	bd30      	popcc	{r4, r5, pc}
10002ba8:	f001 4500 	and.w	r5, r1, #2147483648	; 0x80000000
10002bac:	f045 41fe 	orr.w	r1, r5, #2130706432	; 0x7f000000
10002bb0:	f441 0170 	orr.w	r1, r1, #15728640	; 0xf00000
10002bb4:	f04f 0000 	mov.w	r0, #0
10002bb8:	bd30      	pop	{r4, r5, pc}
10002bba:	ea7f 5c64 	mvns.w	ip, r4, asr #21
10002bbe:	bf1a      	itte	ne
10002bc0:	4619      	movne	r1, r3
10002bc2:	4610      	movne	r0, r2
10002bc4:	ea7f 5c65 	mvnseq.w	ip, r5, asr #21
10002bc8:	bf1c      	itt	ne
10002bca:	460b      	movne	r3, r1
10002bcc:	4602      	movne	r2, r0
10002bce:	ea50 3401 	orrs.w	r4, r0, r1, lsl #12
10002bd2:	bf06      	itte	eq
10002bd4:	ea52 3503 	orrseq.w	r5, r2, r3, lsl #12
10002bd8:	ea91 0f03 	teqeq	r1, r3
10002bdc:	f441 2100 	orrne.w	r1, r1, #524288	; 0x80000
10002be0:	bd30      	pop	{r4, r5, pc}
10002be2:	bf00      	nop

10002be4 <__aeabi_ui2d>:
10002be4:	f090 0f00 	teq	r0, #0
10002be8:	bf04      	itt	eq
10002bea:	2100      	moveq	r1, #0
10002bec:	4770      	bxeq	lr
10002bee:	b530      	push	{r4, r5, lr}
10002bf0:	f44f 6480 	mov.w	r4, #1024	; 0x400
10002bf4:	f104 0432 	add.w	r4, r4, #50	; 0x32
10002bf8:	f04f 0500 	mov.w	r5, #0
10002bfc:	f04f 0100 	mov.w	r1, #0
10002c00:	e750      	b.n	10002aa4 <__adddf3+0x138>
10002c02:	bf00      	nop

10002c04 <__aeabi_i2d>:
10002c04:	f090 0f00 	teq	r0, #0
10002c08:	bf04      	itt	eq
10002c0a:	2100      	moveq	r1, #0
10002c0c:	4770      	bxeq	lr
10002c0e:	b530      	push	{r4, r5, lr}
10002c10:	f44f 6480 	mov.w	r4, #1024	; 0x400
10002c14:	f104 0432 	add.w	r4, r4, #50	; 0x32
10002c18:	f010 4500 	ands.w	r5, r0, #2147483648	; 0x80000000
10002c1c:	bf48      	it	mi
10002c1e:	4240      	negmi	r0, r0
10002c20:	f04f 0100 	mov.w	r1, #0
10002c24:	e73e      	b.n	10002aa4 <__adddf3+0x138>
10002c26:	bf00      	nop

10002c28 <__aeabi_f2d>:
10002c28:	0042      	lsls	r2, r0, #1
10002c2a:	ea4f 01e2 	mov.w	r1, r2, asr #3
10002c2e:	ea4f 0131 	mov.w	r1, r1, rrx
10002c32:	ea4f 7002 	mov.w	r0, r2, lsl #28
10002c36:	bf1f      	itttt	ne
10002c38:	f012 437f 	andsne.w	r3, r2, #4278190080	; 0xff000000
10002c3c:	f093 4f7f 	teqne	r3, #4278190080	; 0xff000000
10002c40:	f081 5160 	eorne.w	r1, r1, #939524096	; 0x38000000
10002c44:	4770      	bxne	lr
10002c46:	f032 427f 	bics.w	r2, r2, #4278190080	; 0xff000000
10002c4a:	bf08      	it	eq
10002c4c:	4770      	bxeq	lr
10002c4e:	f093 4f7f 	teq	r3, #4278190080	; 0xff000000
10002c52:	bf04      	itt	eq
10002c54:	f441 2100 	orreq.w	r1, r1, #524288	; 0x80000
10002c58:	4770      	bxeq	lr
10002c5a:	b530      	push	{r4, r5, lr}
10002c5c:	f44f 7460 	mov.w	r4, #896	; 0x380
10002c60:	f001 4500 	and.w	r5, r1, #2147483648	; 0x80000000
10002c64:	f021 4100 	bic.w	r1, r1, #2147483648	; 0x80000000
10002c68:	e71c      	b.n	10002aa4 <__adddf3+0x138>
10002c6a:	bf00      	nop

10002c6c <__aeabi_ul2d>:
10002c6c:	ea50 0201 	orrs.w	r2, r0, r1
10002c70:	bf08      	it	eq
10002c72:	4770      	bxeq	lr
10002c74:	b530      	push	{r4, r5, lr}
10002c76:	f04f 0500 	mov.w	r5, #0
10002c7a:	e00a      	b.n	10002c92 <__aeabi_l2d+0x16>

10002c7c <__aeabi_l2d>:
10002c7c:	ea50 0201 	orrs.w	r2, r0, r1
10002c80:	bf08      	it	eq
10002c82:	4770      	bxeq	lr
10002c84:	b530      	push	{r4, r5, lr}
10002c86:	f011 4500 	ands.w	r5, r1, #2147483648	; 0x80000000
10002c8a:	d502      	bpl.n	10002c92 <__aeabi_l2d+0x16>
10002c8c:	4240      	negs	r0, r0
10002c8e:	eb61 0141 	sbc.w	r1, r1, r1, lsl #1
10002c92:	f44f 6480 	mov.w	r4, #1024	; 0x400
10002c96:	f104 0432 	add.w	r4, r4, #50	; 0x32
10002c9a:	ea5f 5c91 	movs.w	ip, r1, lsr #22
10002c9e:	f43f aed8 	beq.w	10002a52 <__adddf3+0xe6>
10002ca2:	f04f 0203 	mov.w	r2, #3
10002ca6:	ea5f 0cdc 	movs.w	ip, ip, lsr #3
10002caa:	bf18      	it	ne
10002cac:	3203      	addne	r2, #3
10002cae:	ea5f 0cdc 	movs.w	ip, ip, lsr #3
10002cb2:	bf18      	it	ne
10002cb4:	3203      	addne	r2, #3
10002cb6:	eb02 02dc 	add.w	r2, r2, ip, lsr #3
10002cba:	f1c2 0320 	rsb	r3, r2, #32
10002cbe:	fa00 fc03 	lsl.w	ip, r0, r3
10002cc2:	fa20 f002 	lsr.w	r0, r0, r2
10002cc6:	fa01 fe03 	lsl.w	lr, r1, r3
10002cca:	ea40 000e 	orr.w	r0, r0, lr
10002cce:	fa21 f102 	lsr.w	r1, r1, r2
10002cd2:	4414      	add	r4, r2
10002cd4:	e6bd      	b.n	10002a52 <__adddf3+0xe6>
10002cd6:	bf00      	nop

10002cd8 <__aeabi_dmul>:
10002cd8:	b570      	push	{r4, r5, r6, lr}
10002cda:	f04f 0cff 	mov.w	ip, #255	; 0xff
10002cde:	f44c 6ce0 	orr.w	ip, ip, #1792	; 0x700
10002ce2:	ea1c 5411 	ands.w	r4, ip, r1, lsr #20
10002ce6:	bf1d      	ittte	ne
10002ce8:	ea1c 5513 	andsne.w	r5, ip, r3, lsr #20
10002cec:	ea94 0f0c 	teqne	r4, ip
10002cf0:	ea95 0f0c 	teqne	r5, ip
10002cf4:	f000 f8de 	bleq	10002eb4 <__aeabi_dmul+0x1dc>
10002cf8:	442c      	add	r4, r5
10002cfa:	ea81 0603 	eor.w	r6, r1, r3
10002cfe:	ea21 514c 	bic.w	r1, r1, ip, lsl #21
10002d02:	ea23 534c 	bic.w	r3, r3, ip, lsl #21
10002d06:	ea50 3501 	orrs.w	r5, r0, r1, lsl #12
10002d0a:	bf18      	it	ne
10002d0c:	ea52 3503 	orrsne.w	r5, r2, r3, lsl #12
10002d10:	f441 1180 	orr.w	r1, r1, #1048576	; 0x100000
10002d14:	f443 1380 	orr.w	r3, r3, #1048576	; 0x100000
10002d18:	d038      	beq.n	10002d8c <__aeabi_dmul+0xb4>
10002d1a:	fba0 ce02 	umull	ip, lr, r0, r2
10002d1e:	f04f 0500 	mov.w	r5, #0
10002d22:	fbe1 e502 	umlal	lr, r5, r1, r2
10002d26:	f006 4200 	and.w	r2, r6, #2147483648	; 0x80000000
10002d2a:	fbe0 e503 	umlal	lr, r5, r0, r3
10002d2e:	f04f 0600 	mov.w	r6, #0
10002d32:	fbe1 5603 	umlal	r5, r6, r1, r3
10002d36:	f09c 0f00 	teq	ip, #0
10002d3a:	bf18      	it	ne
10002d3c:	f04e 0e01 	orrne.w	lr, lr, #1
10002d40:	f1a4 04ff 	sub.w	r4, r4, #255	; 0xff
10002d44:	f5b6 7f00 	cmp.w	r6, #512	; 0x200
10002d48:	f564 7440 	sbc.w	r4, r4, #768	; 0x300
10002d4c:	d204      	bcs.n	10002d58 <__aeabi_dmul+0x80>
10002d4e:	ea5f 0e4e 	movs.w	lr, lr, lsl #1
10002d52:	416d      	adcs	r5, r5
10002d54:	eb46 0606 	adc.w	r6, r6, r6
10002d58:	ea42 21c6 	orr.w	r1, r2, r6, lsl #11
10002d5c:	ea41 5155 	orr.w	r1, r1, r5, lsr #21
10002d60:	ea4f 20c5 	mov.w	r0, r5, lsl #11
10002d64:	ea40 505e 	orr.w	r0, r0, lr, lsr #21
10002d68:	ea4f 2ece 	mov.w	lr, lr, lsl #11
10002d6c:	f1b4 0cfd 	subs.w	ip, r4, #253	; 0xfd
10002d70:	bf88      	it	hi
10002d72:	f5bc 6fe0 	cmphi.w	ip, #1792	; 0x700
10002d76:	d81e      	bhi.n	10002db6 <__aeabi_dmul+0xde>
10002d78:	f1be 4f00 	cmp.w	lr, #2147483648	; 0x80000000
10002d7c:	bf08      	it	eq
10002d7e:	ea5f 0e50 	movseq.w	lr, r0, lsr #1
10002d82:	f150 0000 	adcs.w	r0, r0, #0
10002d86:	eb41 5104 	adc.w	r1, r1, r4, lsl #20
10002d8a:	bd70      	pop	{r4, r5, r6, pc}
10002d8c:	f006 4600 	and.w	r6, r6, #2147483648	; 0x80000000
10002d90:	ea46 0101 	orr.w	r1, r6, r1
10002d94:	ea40 0002 	orr.w	r0, r0, r2
10002d98:	ea81 0103 	eor.w	r1, r1, r3
10002d9c:	ebb4 045c 	subs.w	r4, r4, ip, lsr #1
10002da0:	bfc2      	ittt	gt
10002da2:	ebd4 050c 	rsbsgt	r5, r4, ip
10002da6:	ea41 5104 	orrgt.w	r1, r1, r4, lsl #20
10002daa:	bd70      	popgt	{r4, r5, r6, pc}
10002dac:	f441 1180 	orr.w	r1, r1, #1048576	; 0x100000
10002db0:	f04f 0e00 	mov.w	lr, #0
10002db4:	3c01      	subs	r4, #1
10002db6:	f300 80ab 	bgt.w	10002f10 <__aeabi_dmul+0x238>
10002dba:	f114 0f36 	cmn.w	r4, #54	; 0x36
10002dbe:	bfde      	ittt	le
10002dc0:	2000      	movle	r0, #0
10002dc2:	f001 4100 	andle.w	r1, r1, #2147483648	; 0x80000000
10002dc6:	bd70      	pople	{r4, r5, r6, pc}
10002dc8:	f1c4 0400 	rsb	r4, r4, #0
10002dcc:	3c20      	subs	r4, #32
10002dce:	da35      	bge.n	10002e3c <__aeabi_dmul+0x164>
10002dd0:	340c      	adds	r4, #12
10002dd2:	dc1b      	bgt.n	10002e0c <__aeabi_dmul+0x134>
10002dd4:	f104 0414 	add.w	r4, r4, #20
10002dd8:	f1c4 0520 	rsb	r5, r4, #32
10002ddc:	fa00 f305 	lsl.w	r3, r0, r5
10002de0:	fa20 f004 	lsr.w	r0, r0, r4
10002de4:	fa01 f205 	lsl.w	r2, r1, r5
10002de8:	ea40 0002 	orr.w	r0, r0, r2
10002dec:	f001 4200 	and.w	r2, r1, #2147483648	; 0x80000000
10002df0:	f021 4100 	bic.w	r1, r1, #2147483648	; 0x80000000
10002df4:	eb10 70d3 	adds.w	r0, r0, r3, lsr #31
10002df8:	fa21 f604 	lsr.w	r6, r1, r4
10002dfc:	eb42 0106 	adc.w	r1, r2, r6
10002e00:	ea5e 0e43 	orrs.w	lr, lr, r3, lsl #1
10002e04:	bf08      	it	eq
10002e06:	ea20 70d3 	biceq.w	r0, r0, r3, lsr #31
10002e0a:	bd70      	pop	{r4, r5, r6, pc}
10002e0c:	f1c4 040c 	rsb	r4, r4, #12
10002e10:	f1c4 0520 	rsb	r5, r4, #32
10002e14:	fa00 f304 	lsl.w	r3, r0, r4
10002e18:	fa20 f005 	lsr.w	r0, r0, r5
10002e1c:	fa01 f204 	lsl.w	r2, r1, r4
10002e20:	ea40 0002 	orr.w	r0, r0, r2
10002e24:	f001 4100 	and.w	r1, r1, #2147483648	; 0x80000000
10002e28:	eb10 70d3 	adds.w	r0, r0, r3, lsr #31
10002e2c:	f141 0100 	adc.w	r1, r1, #0
10002e30:	ea5e 0e43 	orrs.w	lr, lr, r3, lsl #1
10002e34:	bf08      	it	eq
10002e36:	ea20 70d3 	biceq.w	r0, r0, r3, lsr #31
10002e3a:	bd70      	pop	{r4, r5, r6, pc}
10002e3c:	f1c4 0520 	rsb	r5, r4, #32
10002e40:	fa00 f205 	lsl.w	r2, r0, r5
10002e44:	ea4e 0e02 	orr.w	lr, lr, r2
10002e48:	fa20 f304 	lsr.w	r3, r0, r4
10002e4c:	fa01 f205 	lsl.w	r2, r1, r5
10002e50:	ea43 0302 	orr.w	r3, r3, r2
10002e54:	fa21 f004 	lsr.w	r0, r1, r4
10002e58:	f001 4100 	and.w	r1, r1, #2147483648	; 0x80000000
10002e5c:	fa21 f204 	lsr.w	r2, r1, r4
10002e60:	ea20 0002 	bic.w	r0, r0, r2
10002e64:	eb00 70d3 	add.w	r0, r0, r3, lsr #31
10002e68:	ea5e 0e43 	orrs.w	lr, lr, r3, lsl #1
10002e6c:	bf08      	it	eq
10002e6e:	ea20 70d3 	biceq.w	r0, r0, r3, lsr #31
10002e72:	bd70      	pop	{r4, r5, r6, pc}
10002e74:	f094 0f00 	teq	r4, #0
10002e78:	d10f      	bne.n	10002e9a <__aeabi_dmul+0x1c2>
10002e7a:	f001 4600 	and.w	r6, r1, #2147483648	; 0x80000000
10002e7e:	0040      	lsls	r0, r0, #1
10002e80:	eb41 0101 	adc.w	r1, r1, r1
10002e84:	f411 1f80 	tst.w	r1, #1048576	; 0x100000
10002e88:	bf08      	it	eq
10002e8a:	3c01      	subeq	r4, #1
10002e8c:	d0f7      	beq.n	10002e7e <__aeabi_dmul+0x1a6>
10002e8e:	ea41 0106 	orr.w	r1, r1, r6
10002e92:	f095 0f00 	teq	r5, #0
10002e96:	bf18      	it	ne
10002e98:	4770      	bxne	lr
10002e9a:	f003 4600 	and.w	r6, r3, #2147483648	; 0x80000000
10002e9e:	0052      	lsls	r2, r2, #1
10002ea0:	eb43 0303 	adc.w	r3, r3, r3
10002ea4:	f413 1f80 	tst.w	r3, #1048576	; 0x100000
10002ea8:	bf08      	it	eq
10002eaa:	3d01      	subeq	r5, #1
10002eac:	d0f7      	beq.n	10002e9e <__aeabi_dmul+0x1c6>
10002eae:	ea43 0306 	orr.w	r3, r3, r6
10002eb2:	4770      	bx	lr
10002eb4:	ea94 0f0c 	teq	r4, ip
10002eb8:	ea0c 5513 	and.w	r5, ip, r3, lsr #20
10002ebc:	bf18      	it	ne
10002ebe:	ea95 0f0c 	teqne	r5, ip
10002ec2:	d00c      	beq.n	10002ede <__aeabi_dmul+0x206>
10002ec4:	ea50 0641 	orrs.w	r6, r0, r1, lsl #1
10002ec8:	bf18      	it	ne
10002eca:	ea52 0643 	orrsne.w	r6, r2, r3, lsl #1
10002ece:	d1d1      	bne.n	10002e74 <__aeabi_dmul+0x19c>
10002ed0:	ea81 0103 	eor.w	r1, r1, r3
10002ed4:	f001 4100 	and.w	r1, r1, #2147483648	; 0x80000000
10002ed8:	f04f 0000 	mov.w	r0, #0
10002edc:	bd70      	pop	{r4, r5, r6, pc}
10002ede:	ea50 0641 	orrs.w	r6, r0, r1, lsl #1
10002ee2:	bf06      	itte	eq
10002ee4:	4610      	moveq	r0, r2
10002ee6:	4619      	moveq	r1, r3
10002ee8:	ea52 0643 	orrsne.w	r6, r2, r3, lsl #1
10002eec:	d019      	beq.n	10002f22 <__aeabi_dmul+0x24a>
10002eee:	ea94 0f0c 	teq	r4, ip
10002ef2:	d102      	bne.n	10002efa <__aeabi_dmul+0x222>
10002ef4:	ea50 3601 	orrs.w	r6, r0, r1, lsl #12
10002ef8:	d113      	bne.n	10002f22 <__aeabi_dmul+0x24a>
10002efa:	ea95 0f0c 	teq	r5, ip
10002efe:	d105      	bne.n	10002f0c <__aeabi_dmul+0x234>
10002f00:	ea52 3603 	orrs.w	r6, r2, r3, lsl #12
10002f04:	bf1c      	itt	ne
10002f06:	4610      	movne	r0, r2
10002f08:	4619      	movne	r1, r3
10002f0a:	d10a      	bne.n	10002f22 <__aeabi_dmul+0x24a>
10002f0c:	ea81 0103 	eor.w	r1, r1, r3
10002f10:	f001 4100 	and.w	r1, r1, #2147483648	; 0x80000000
10002f14:	f041 41fe 	orr.w	r1, r1, #2130706432	; 0x7f000000
10002f18:	f441 0170 	orr.w	r1, r1, #15728640	; 0xf00000
10002f1c:	f04f 0000 	mov.w	r0, #0
10002f20:	bd70      	pop	{r4, r5, r6, pc}
10002f22:	f041 41fe 	orr.w	r1, r1, #2130706432	; 0x7f000000
10002f26:	f441 0178 	orr.w	r1, r1, #16252928	; 0xf80000
10002f2a:	bd70      	pop	{r4, r5, r6, pc}

10002f2c <__aeabi_ddiv>:
10002f2c:	b570      	push	{r4, r5, r6, lr}
10002f2e:	f04f 0cff 	mov.w	ip, #255	; 0xff
10002f32:	f44c 6ce0 	orr.w	ip, ip, #1792	; 0x700
10002f36:	ea1c 5411 	ands.w	r4, ip, r1, lsr #20
10002f3a:	bf1d      	ittte	ne
10002f3c:	ea1c 5513 	andsne.w	r5, ip, r3, lsr #20
10002f40:	ea94 0f0c 	teqne	r4, ip
10002f44:	ea95 0f0c 	teqne	r5, ip
10002f48:	f000 f8a7 	bleq	1000309a <__aeabi_ddiv+0x16e>
10002f4c:	eba4 0405 	sub.w	r4, r4, r5
10002f50:	ea81 0e03 	eor.w	lr, r1, r3
10002f54:	ea52 3503 	orrs.w	r5, r2, r3, lsl #12
10002f58:	ea4f 3101 	mov.w	r1, r1, lsl #12
10002f5c:	f000 8088 	beq.w	10003070 <__aeabi_ddiv+0x144>
10002f60:	ea4f 3303 	mov.w	r3, r3, lsl #12
10002f64:	f04f 5580 	mov.w	r5, #268435456	; 0x10000000
10002f68:	ea45 1313 	orr.w	r3, r5, r3, lsr #4
10002f6c:	ea43 6312 	orr.w	r3, r3, r2, lsr #24
10002f70:	ea4f 2202 	mov.w	r2, r2, lsl #8
10002f74:	ea45 1511 	orr.w	r5, r5, r1, lsr #4
10002f78:	ea45 6510 	orr.w	r5, r5, r0, lsr #24
10002f7c:	ea4f 2600 	mov.w	r6, r0, lsl #8
10002f80:	f00e 4100 	and.w	r1, lr, #2147483648	; 0x80000000
10002f84:	429d      	cmp	r5, r3
10002f86:	bf08      	it	eq
10002f88:	4296      	cmpeq	r6, r2
10002f8a:	f144 04fd 	adc.w	r4, r4, #253	; 0xfd
10002f8e:	f504 7440 	add.w	r4, r4, #768	; 0x300
10002f92:	d202      	bcs.n	10002f9a <__aeabi_ddiv+0x6e>
10002f94:	085b      	lsrs	r3, r3, #1
10002f96:	ea4f 0232 	mov.w	r2, r2, rrx
10002f9a:	1ab6      	subs	r6, r6, r2
10002f9c:	eb65 0503 	sbc.w	r5, r5, r3
10002fa0:	085b      	lsrs	r3, r3, #1
10002fa2:	ea4f 0232 	mov.w	r2, r2, rrx
10002fa6:	f44f 1080 	mov.w	r0, #1048576	; 0x100000
10002faa:	f44f 2c00 	mov.w	ip, #524288	; 0x80000
10002fae:	ebb6 0e02 	subs.w	lr, r6, r2
10002fb2:	eb75 0e03 	sbcs.w	lr, r5, r3
10002fb6:	bf22      	ittt	cs
10002fb8:	1ab6      	subcs	r6, r6, r2
10002fba:	4675      	movcs	r5, lr
10002fbc:	ea40 000c 	orrcs.w	r0, r0, ip
10002fc0:	085b      	lsrs	r3, r3, #1
10002fc2:	ea4f 0232 	mov.w	r2, r2, rrx
10002fc6:	ebb6 0e02 	subs.w	lr, r6, r2
10002fca:	eb75 0e03 	sbcs.w	lr, r5, r3
10002fce:	bf22      	ittt	cs
10002fd0:	1ab6      	subcs	r6, r6, r2
10002fd2:	4675      	movcs	r5, lr
10002fd4:	ea40 005c 	orrcs.w	r0, r0, ip, lsr #1
10002fd8:	085b      	lsrs	r3, r3, #1
10002fda:	ea4f 0232 	mov.w	r2, r2, rrx
10002fde:	ebb6 0e02 	subs.w	lr, r6, r2
10002fe2:	eb75 0e03 	sbcs.w	lr, r5, r3
10002fe6:	bf22      	ittt	cs
10002fe8:	1ab6      	subcs	r6, r6, r2
10002fea:	4675      	movcs	r5, lr
10002fec:	ea40 009c 	orrcs.w	r0, r0, ip, lsr #2
10002ff0:	085b      	lsrs	r3, r3, #1
10002ff2:	ea4f 0232 	mov.w	r2, r2, rrx
10002ff6:	ebb6 0e02 	subs.w	lr, r6, r2
10002ffa:	eb75 0e03 	sbcs.w	lr, r5, r3
10002ffe:	bf22      	ittt	cs
10003000:	1ab6      	subcs	r6, r6, r2
10003002:	4675      	movcs	r5, lr
10003004:	ea40 00dc 	orrcs.w	r0, r0, ip, lsr #3
10003008:	ea55 0e06 	orrs.w	lr, r5, r6
1000300c:	d018      	beq.n	10003040 <__aeabi_ddiv+0x114>
1000300e:	ea4f 1505 	mov.w	r5, r5, lsl #4
10003012:	ea45 7516 	orr.w	r5, r5, r6, lsr #28
10003016:	ea4f 1606 	mov.w	r6, r6, lsl #4
1000301a:	ea4f 03c3 	mov.w	r3, r3, lsl #3
1000301e:	ea43 7352 	orr.w	r3, r3, r2, lsr #29
10003022:	ea4f 02c2 	mov.w	r2, r2, lsl #3
10003026:	ea5f 1c1c 	movs.w	ip, ip, lsr #4
1000302a:	d1c0      	bne.n	10002fae <__aeabi_ddiv+0x82>
1000302c:	f411 1f80 	tst.w	r1, #1048576	; 0x100000
10003030:	d10b      	bne.n	1000304a <__aeabi_ddiv+0x11e>
10003032:	ea41 0100 	orr.w	r1, r1, r0
10003036:	f04f 0000 	mov.w	r0, #0
1000303a:	f04f 4c00 	mov.w	ip, #2147483648	; 0x80000000
1000303e:	e7b6      	b.n	10002fae <__aeabi_ddiv+0x82>
10003040:	f411 1f80 	tst.w	r1, #1048576	; 0x100000
10003044:	bf04      	itt	eq
10003046:	4301      	orreq	r1, r0
10003048:	2000      	moveq	r0, #0
1000304a:	f1b4 0cfd 	subs.w	ip, r4, #253	; 0xfd
1000304e:	bf88      	it	hi
10003050:	f5bc 6fe0 	cmphi.w	ip, #1792	; 0x700
10003054:	f63f aeaf 	bhi.w	10002db6 <__aeabi_dmul+0xde>
10003058:	ebb5 0c03 	subs.w	ip, r5, r3
1000305c:	bf04      	itt	eq
1000305e:	ebb6 0c02 	subseq.w	ip, r6, r2
10003062:	ea5f 0c50 	movseq.w	ip, r0, lsr #1
10003066:	f150 0000 	adcs.w	r0, r0, #0
1000306a:	eb41 5104 	adc.w	r1, r1, r4, lsl #20
1000306e:	bd70      	pop	{r4, r5, r6, pc}
10003070:	f00e 4e00 	and.w	lr, lr, #2147483648	; 0x80000000
10003074:	ea4e 3111 	orr.w	r1, lr, r1, lsr #12
10003078:	eb14 045c 	adds.w	r4, r4, ip, lsr #1
1000307c:	bfc2      	ittt	gt
1000307e:	ebd4 050c 	rsbsgt	r5, r4, ip
10003082:	ea41 5104 	orrgt.w	r1, r1, r4, lsl #20
10003086:	bd70      	popgt	{r4, r5, r6, pc}
10003088:	f441 1180 	orr.w	r1, r1, #1048576	; 0x100000
1000308c:	f04f 0e00 	mov.w	lr, #0
10003090:	3c01      	subs	r4, #1
10003092:	e690      	b.n	10002db6 <__aeabi_dmul+0xde>
10003094:	ea45 0e06 	orr.w	lr, r5, r6
10003098:	e68d      	b.n	10002db6 <__aeabi_dmul+0xde>
1000309a:	ea0c 5513 	and.w	r5, ip, r3, lsr #20
1000309e:	ea94 0f0c 	teq	r4, ip
100030a2:	bf08      	it	eq
100030a4:	ea95 0f0c 	teqeq	r5, ip
100030a8:	f43f af3b 	beq.w	10002f22 <__aeabi_dmul+0x24a>
100030ac:	ea94 0f0c 	teq	r4, ip
100030b0:	d10a      	bne.n	100030c8 <__aeabi_ddiv+0x19c>
100030b2:	ea50 3401 	orrs.w	r4, r0, r1, lsl #12
100030b6:	f47f af34 	bne.w	10002f22 <__aeabi_dmul+0x24a>
100030ba:	ea95 0f0c 	teq	r5, ip
100030be:	f47f af25 	bne.w	10002f0c <__aeabi_dmul+0x234>
100030c2:	4610      	mov	r0, r2
100030c4:	4619      	mov	r1, r3
100030c6:	e72c      	b.n	10002f22 <__aeabi_dmul+0x24a>
100030c8:	ea95 0f0c 	teq	r5, ip
100030cc:	d106      	bne.n	100030dc <__aeabi_ddiv+0x1b0>
100030ce:	ea52 3503 	orrs.w	r5, r2, r3, lsl #12
100030d2:	f43f aefd 	beq.w	10002ed0 <__aeabi_dmul+0x1f8>
100030d6:	4610      	mov	r0, r2
100030d8:	4619      	mov	r1, r3
100030da:	e722      	b.n	10002f22 <__aeabi_dmul+0x24a>
100030dc:	ea50 0641 	orrs.w	r6, r0, r1, lsl #1
100030e0:	bf18      	it	ne
100030e2:	ea52 0643 	orrsne.w	r6, r2, r3, lsl #1
100030e6:	f47f aec5 	bne.w	10002e74 <__aeabi_dmul+0x19c>
100030ea:	ea50 0441 	orrs.w	r4, r0, r1, lsl #1
100030ee:	f47f af0d 	bne.w	10002f0c <__aeabi_dmul+0x234>
100030f2:	ea52 0543 	orrs.w	r5, r2, r3, lsl #1
100030f6:	f47f aeeb 	bne.w	10002ed0 <__aeabi_dmul+0x1f8>
100030fa:	e712      	b.n	10002f22 <__aeabi_dmul+0x24a>

100030fc <__gedf2>:
100030fc:	f04f 3cff 	mov.w	ip, #4294967295
10003100:	e006      	b.n	10003110 <__cmpdf2+0x4>
10003102:	bf00      	nop

10003104 <__ledf2>:
10003104:	f04f 0c01 	mov.w	ip, #1
10003108:	e002      	b.n	10003110 <__cmpdf2+0x4>
1000310a:	bf00      	nop

1000310c <__cmpdf2>:
1000310c:	f04f 0c01 	mov.w	ip, #1
10003110:	f84d cd04 	str.w	ip, [sp, #-4]!
10003114:	ea4f 0c41 	mov.w	ip, r1, lsl #1
10003118:	ea7f 5c6c 	mvns.w	ip, ip, asr #21
1000311c:	ea4f 0c43 	mov.w	ip, r3, lsl #1
10003120:	bf18      	it	ne
10003122:	ea7f 5c6c 	mvnsne.w	ip, ip, asr #21
10003126:	d01b      	beq.n	10003160 <__cmpdf2+0x54>
10003128:	b001      	add	sp, #4
1000312a:	ea50 0c41 	orrs.w	ip, r0, r1, lsl #1
1000312e:	bf0c      	ite	eq
10003130:	ea52 0c43 	orrseq.w	ip, r2, r3, lsl #1
10003134:	ea91 0f03 	teqne	r1, r3
10003138:	bf02      	ittt	eq
1000313a:	ea90 0f02 	teqeq	r0, r2
1000313e:	2000      	moveq	r0, #0
10003140:	4770      	bxeq	lr
10003142:	f110 0f00 	cmn.w	r0, #0
10003146:	ea91 0f03 	teq	r1, r3
1000314a:	bf58      	it	pl
1000314c:	4299      	cmppl	r1, r3
1000314e:	bf08      	it	eq
10003150:	4290      	cmpeq	r0, r2
10003152:	bf2c      	ite	cs
10003154:	17d8      	asrcs	r0, r3, #31
10003156:	ea6f 70e3 	mvncc.w	r0, r3, asr #31
1000315a:	f040 0001 	orr.w	r0, r0, #1
1000315e:	4770      	bx	lr
10003160:	ea4f 0c41 	mov.w	ip, r1, lsl #1
10003164:	ea7f 5c6c 	mvns.w	ip, ip, asr #21
10003168:	d102      	bne.n	10003170 <__cmpdf2+0x64>
1000316a:	ea50 3c01 	orrs.w	ip, r0, r1, lsl #12
1000316e:	d107      	bne.n	10003180 <__cmpdf2+0x74>
10003170:	ea4f 0c43 	mov.w	ip, r3, lsl #1
10003174:	ea7f 5c6c 	mvns.w	ip, ip, asr #21
10003178:	d1d6      	bne.n	10003128 <__cmpdf2+0x1c>
1000317a:	ea52 3c03 	orrs.w	ip, r2, r3, lsl #12
1000317e:	d0d3      	beq.n	10003128 <__cmpdf2+0x1c>
10003180:	f85d 0b04 	ldr.w	r0, [sp], #4
10003184:	4770      	bx	lr
10003186:	bf00      	nop

10003188 <__aeabi_cdrcmple>:
10003188:	4684      	mov	ip, r0
1000318a:	4610      	mov	r0, r2
1000318c:	4662      	mov	r2, ip
1000318e:	468c      	mov	ip, r1
10003190:	4619      	mov	r1, r3
10003192:	4663      	mov	r3, ip
10003194:	e000      	b.n	10003198 <__aeabi_cdcmpeq>
10003196:	bf00      	nop

10003198 <__aeabi_cdcmpeq>:
10003198:	b501      	push	{r0, lr}
1000319a:	f7ff ffb7 	bl	1000310c <__cmpdf2>
1000319e:	2800      	cmp	r0, #0
100031a0:	bf48      	it	mi
100031a2:	f110 0f00 	cmnmi.w	r0, #0
100031a6:	bd01      	pop	{r0, pc}

100031a8 <__aeabi_dcmpeq>:
100031a8:	f84d ed08 	str.w	lr, [sp, #-8]!
100031ac:	f7ff fff4 	bl	10003198 <__aeabi_cdcmpeq>
100031b0:	bf0c      	ite	eq
100031b2:	2001      	moveq	r0, #1
100031b4:	2000      	movne	r0, #0
100031b6:	f85d fb08 	ldr.w	pc, [sp], #8
100031ba:	bf00      	nop

100031bc <__aeabi_dcmplt>:
100031bc:	f84d ed08 	str.w	lr, [sp, #-8]!
100031c0:	f7ff ffea 	bl	10003198 <__aeabi_cdcmpeq>
100031c4:	bf34      	ite	cc
100031c6:	2001      	movcc	r0, #1
100031c8:	2000      	movcs	r0, #0
100031ca:	f85d fb08 	ldr.w	pc, [sp], #8
100031ce:	bf00      	nop

100031d0 <__aeabi_dcmple>:
100031d0:	f84d ed08 	str.w	lr, [sp, #-8]!
100031d4:	f7ff ffe0 	bl	10003198 <__aeabi_cdcmpeq>
100031d8:	bf94      	ite	ls
100031da:	2001      	movls	r0, #1
100031dc:	2000      	movhi	r0, #0
100031de:	f85d fb08 	ldr.w	pc, [sp], #8
100031e2:	bf00      	nop

100031e4 <__aeabi_dcmpge>:
100031e4:	f84d ed08 	str.w	lr, [sp, #-8]!
100031e8:	f7ff ffce 	bl	10003188 <__aeabi_cdrcmple>
100031ec:	bf94      	ite	ls
100031ee:	2001      	movls	r0, #1
100031f0:	2000      	movhi	r0, #0
100031f2:	f85d fb08 	ldr.w	pc, [sp], #8
100031f6:	bf00      	nop

100031f8 <__aeabi_dcmpgt>:
100031f8:	f84d ed08 	str.w	lr, [sp, #-8]!
100031fc:	f7ff ffc4 	bl	10003188 <__aeabi_cdrcmple>
10003200:	bf34      	ite	cc
10003202:	2001      	movcc	r0, #1
10003204:	2000      	movcs	r0, #0
10003206:	f85d fb08 	ldr.w	pc, [sp], #8
1000320a:	bf00      	nop

1000320c <__aeabi_d2iz>:
1000320c:	ea4f 0241 	mov.w	r2, r1, lsl #1
10003210:	f512 1200 	adds.w	r2, r2, #2097152	; 0x200000
10003214:	d215      	bcs.n	10003242 <__aeabi_d2iz+0x36>
10003216:	d511      	bpl.n	1000323c <__aeabi_d2iz+0x30>
10003218:	f46f 7378 	mvn.w	r3, #992	; 0x3e0
1000321c:	ebb3 5262 	subs.w	r2, r3, r2, asr #21
10003220:	d912      	bls.n	10003248 <__aeabi_d2iz+0x3c>
10003222:	ea4f 23c1 	mov.w	r3, r1, lsl #11
10003226:	f043 4300 	orr.w	r3, r3, #2147483648	; 0x80000000
1000322a:	ea43 5350 	orr.w	r3, r3, r0, lsr #21
1000322e:	f011 4f00 	tst.w	r1, #2147483648	; 0x80000000
10003232:	fa23 f002 	lsr.w	r0, r3, r2
10003236:	bf18      	it	ne
10003238:	4240      	negne	r0, r0
1000323a:	4770      	bx	lr
1000323c:	f04f 0000 	mov.w	r0, #0
10003240:	4770      	bx	lr
10003242:	ea50 3001 	orrs.w	r0, r0, r1, lsl #12
10003246:	d105      	bne.n	10003254 <__aeabi_d2iz+0x48>
10003248:	f011 4000 	ands.w	r0, r1, #2147483648	; 0x80000000
1000324c:	bf08      	it	eq
1000324e:	f06f 4000 	mvneq.w	r0, #2147483648	; 0x80000000
10003252:	4770      	bx	lr
10003254:	f04f 0000 	mov.w	r0, #0
10003258:	4770      	bx	lr
1000325a:	bf00      	nop

1000325c <__aeabi_d2uiz>:
1000325c:	004a      	lsls	r2, r1, #1
1000325e:	d211      	bcs.n	10003284 <__aeabi_d2uiz+0x28>
10003260:	f512 1200 	adds.w	r2, r2, #2097152	; 0x200000
10003264:	d211      	bcs.n	1000328a <__aeabi_d2uiz+0x2e>
10003266:	d50d      	bpl.n	10003284 <__aeabi_d2uiz+0x28>
10003268:	f46f 7378 	mvn.w	r3, #992	; 0x3e0
1000326c:	ebb3 5262 	subs.w	r2, r3, r2, asr #21
10003270:	d40e      	bmi.n	10003290 <__aeabi_d2uiz+0x34>
10003272:	ea4f 23c1 	mov.w	r3, r1, lsl #11
10003276:	f043 4300 	orr.w	r3, r3, #2147483648	; 0x80000000
1000327a:	ea43 5350 	orr.w	r3, r3, r0, lsr #21
1000327e:	fa23 f002 	lsr.w	r0, r3, r2
10003282:	4770      	bx	lr
10003284:	f04f 0000 	mov.w	r0, #0
10003288:	4770      	bx	lr
1000328a:	ea50 3001 	orrs.w	r0, r0, r1, lsl #12
1000328e:	d102      	bne.n	10003296 <__aeabi_d2uiz+0x3a>
10003290:	f04f 30ff 	mov.w	r0, #4294967295
10003294:	4770      	bx	lr
10003296:	f04f 0000 	mov.w	r0, #0
1000329a:	4770      	bx	lr

1000329c <__aeabi_uldivmod>:
1000329c:	b953      	cbnz	r3, 100032b4 <__aeabi_uldivmod+0x18>
1000329e:	b94a      	cbnz	r2, 100032b4 <__aeabi_uldivmod+0x18>
100032a0:	2900      	cmp	r1, #0
100032a2:	bf08      	it	eq
100032a4:	2800      	cmpeq	r0, #0
100032a6:	bf1c      	itt	ne
100032a8:	f04f 31ff 	movne.w	r1, #4294967295
100032ac:	f04f 30ff 	movne.w	r0, #4294967295
100032b0:	f000 b982 	b.w	100035b8 <__aeabi_idiv0>
100032b4:	f1ad 0c08 	sub.w	ip, sp, #8
100032b8:	e96d ce04 	strd	ip, lr, [sp, #-16]!
100032bc:	f000 f806 	bl	100032cc <__udivmoddi4>
100032c0:	f8dd e004 	ldr.w	lr, [sp, #4]
100032c4:	e9dd 2302 	ldrd	r2, r3, [sp, #8]
100032c8:	b004      	add	sp, #16
100032ca:	4770      	bx	lr

100032cc <__udivmoddi4>:
100032cc:	e92d 4ff0 	stmdb	sp!, {r4, r5, r6, r7, r8, r9, sl, fp, lr}
100032d0:	9d09      	ldr	r5, [sp, #36]	; 0x24
100032d2:	4604      	mov	r4, r0
100032d4:	460f      	mov	r7, r1
100032d6:	2b00      	cmp	r3, #0
100032d8:	d148      	bne.n	1000336c <__udivmoddi4+0xa0>
100032da:	428a      	cmp	r2, r1
100032dc:	4694      	mov	ip, r2
100032de:	d961      	bls.n	100033a4 <__udivmoddi4+0xd8>
100032e0:	fab2 f382 	clz	r3, r2
100032e4:	b143      	cbz	r3, 100032f8 <__udivmoddi4+0x2c>
100032e6:	f1c3 0120 	rsb	r1, r3, #32
100032ea:	409f      	lsls	r7, r3
100032ec:	fa02 fc03 	lsl.w	ip, r2, r3
100032f0:	409c      	lsls	r4, r3
100032f2:	fa20 f101 	lsr.w	r1, r0, r1
100032f6:	430f      	orrs	r7, r1
100032f8:	ea4f 411c 	mov.w	r1, ip, lsr #16
100032fc:	fa1f fe8c 	uxth.w	lr, ip
10003300:	0c22      	lsrs	r2, r4, #16
10003302:	fbb7 f6f1 	udiv	r6, r7, r1
10003306:	fb01 7716 	mls	r7, r1, r6, r7
1000330a:	fb06 f00e 	mul.w	r0, r6, lr
1000330e:	ea42 4207 	orr.w	r2, r2, r7, lsl #16
10003312:	4290      	cmp	r0, r2
10003314:	d908      	bls.n	10003328 <__udivmoddi4+0x5c>
10003316:	eb1c 0202 	adds.w	r2, ip, r2
1000331a:	f106 37ff 	add.w	r7, r6, #4294967295
1000331e:	d202      	bcs.n	10003326 <__udivmoddi4+0x5a>
10003320:	4290      	cmp	r0, r2
10003322:	f200 8137 	bhi.w	10003594 <__udivmoddi4+0x2c8>
10003326:	463e      	mov	r6, r7
10003328:	1a12      	subs	r2, r2, r0
1000332a:	b2a4      	uxth	r4, r4
1000332c:	fbb2 f0f1 	udiv	r0, r2, r1
10003330:	fb01 2210 	mls	r2, r1, r0, r2
10003334:	fb00 fe0e 	mul.w	lr, r0, lr
10003338:	ea44 4402 	orr.w	r4, r4, r2, lsl #16
1000333c:	45a6      	cmp	lr, r4
1000333e:	d908      	bls.n	10003352 <__udivmoddi4+0x86>
10003340:	eb1c 0404 	adds.w	r4, ip, r4
10003344:	f100 32ff 	add.w	r2, r0, #4294967295
10003348:	d202      	bcs.n	10003350 <__udivmoddi4+0x84>
1000334a:	45a6      	cmp	lr, r4
1000334c:	f200 811c 	bhi.w	10003588 <__udivmoddi4+0x2bc>
10003350:	4610      	mov	r0, r2
10003352:	ea40 4006 	orr.w	r0, r0, r6, lsl #16
10003356:	eba4 040e 	sub.w	r4, r4, lr
1000335a:	2600      	movs	r6, #0
1000335c:	b11d      	cbz	r5, 10003366 <__udivmoddi4+0x9a>
1000335e:	40dc      	lsrs	r4, r3
10003360:	2300      	movs	r3, #0
10003362:	e9c5 4300 	strd	r4, r3, [r5]
10003366:	4631      	mov	r1, r6
10003368:	e8bd 8ff0 	ldmia.w	sp!, {r4, r5, r6, r7, r8, r9, sl, fp, pc}
1000336c:	428b      	cmp	r3, r1
1000336e:	d909      	bls.n	10003384 <__udivmoddi4+0xb8>
10003370:	2d00      	cmp	r5, #0
10003372:	f000 80fd 	beq.w	10003570 <__udivmoddi4+0x2a4>
10003376:	2600      	movs	r6, #0
10003378:	e9c5 0100 	strd	r0, r1, [r5]
1000337c:	4630      	mov	r0, r6
1000337e:	4631      	mov	r1, r6
10003380:	e8bd 8ff0 	ldmia.w	sp!, {r4, r5, r6, r7, r8, r9, sl, fp, pc}
10003384:	fab3 f683 	clz	r6, r3
10003388:	2e00      	cmp	r6, #0
1000338a:	d14b      	bne.n	10003424 <__udivmoddi4+0x158>
1000338c:	428b      	cmp	r3, r1
1000338e:	f0c0 80f2 	bcc.w	10003576 <__udivmoddi4+0x2aa>
10003392:	4282      	cmp	r2, r0
10003394:	f240 80ef 	bls.w	10003576 <__udivmoddi4+0x2aa>
10003398:	4630      	mov	r0, r6
1000339a:	2d00      	cmp	r5, #0
1000339c:	d0e3      	beq.n	10003366 <__udivmoddi4+0x9a>
1000339e:	e9c5 4700 	strd	r4, r7, [r5]
100033a2:	e7e0      	b.n	10003366 <__udivmoddi4+0x9a>
100033a4:	b902      	cbnz	r2, 100033a8 <__udivmoddi4+0xdc>
100033a6:	deff      	udf	#255	; 0xff
100033a8:	fab2 f382 	clz	r3, r2
100033ac:	2b00      	cmp	r3, #0
100033ae:	f040 809d 	bne.w	100034ec <__udivmoddi4+0x220>
100033b2:	1a89      	subs	r1, r1, r2
100033b4:	ea4f 4e12 	mov.w	lr, r2, lsr #16
100033b8:	b297      	uxth	r7, r2
100033ba:	2601      	movs	r6, #1
100033bc:	0c20      	lsrs	r0, r4, #16
100033be:	fbb1 f2fe 	udiv	r2, r1, lr
100033c2:	fb0e 1112 	mls	r1, lr, r2, r1
100033c6:	ea40 4101 	orr.w	r1, r0, r1, lsl #16
100033ca:	fb07 f002 	mul.w	r0, r7, r2
100033ce:	4288      	cmp	r0, r1
100033d0:	d90f      	bls.n	100033f2 <__udivmoddi4+0x126>
100033d2:	eb1c 0101 	adds.w	r1, ip, r1
100033d6:	f102 38ff 	add.w	r8, r2, #4294967295
100033da:	bf2c      	ite	cs
100033dc:	f04f 0901 	movcs.w	r9, #1
100033e0:	f04f 0900 	movcc.w	r9, #0
100033e4:	4288      	cmp	r0, r1
100033e6:	d903      	bls.n	100033f0 <__udivmoddi4+0x124>
100033e8:	f1b9 0f00 	cmp.w	r9, #0
100033ec:	f000 80cf 	beq.w	1000358e <__udivmoddi4+0x2c2>
100033f0:	4642      	mov	r2, r8
100033f2:	1a09      	subs	r1, r1, r0
100033f4:	b2a4      	uxth	r4, r4
100033f6:	fbb1 f0fe 	udiv	r0, r1, lr
100033fa:	fb0e 1110 	mls	r1, lr, r0, r1
100033fe:	fb00 f707 	mul.w	r7, r0, r7
10003402:	ea44 4401 	orr.w	r4, r4, r1, lsl #16
10003406:	42a7      	cmp	r7, r4
10003408:	d908      	bls.n	1000341c <__udivmoddi4+0x150>
1000340a:	eb1c 0404 	adds.w	r4, ip, r4
1000340e:	f100 31ff 	add.w	r1, r0, #4294967295
10003412:	d202      	bcs.n	1000341a <__udivmoddi4+0x14e>
10003414:	42a7      	cmp	r7, r4
10003416:	f200 80b4 	bhi.w	10003582 <__udivmoddi4+0x2b6>
1000341a:	4608      	mov	r0, r1
1000341c:	1be4      	subs	r4, r4, r7
1000341e:	ea40 4002 	orr.w	r0, r0, r2, lsl #16
10003422:	e79b      	b.n	1000335c <__udivmoddi4+0x90>
10003424:	f1c6 0720 	rsb	r7, r6, #32
10003428:	40b3      	lsls	r3, r6
1000342a:	fa01 f406 	lsl.w	r4, r1, r6
1000342e:	fa22 fc07 	lsr.w	ip, r2, r7
10003432:	40f9      	lsrs	r1, r7
10003434:	40b2      	lsls	r2, r6
10003436:	ea4c 0c03 	orr.w	ip, ip, r3
1000343a:	fa20 f307 	lsr.w	r3, r0, r7
1000343e:	ea4f 491c 	mov.w	r9, ip, lsr #16
10003442:	431c      	orrs	r4, r3
10003444:	fa1f fe8c 	uxth.w	lr, ip
10003448:	fa00 f306 	lsl.w	r3, r0, r6
1000344c:	0c20      	lsrs	r0, r4, #16
1000344e:	fbb1 f8f9 	udiv	r8, r1, r9
10003452:	fb09 1118 	mls	r1, r9, r8, r1
10003456:	ea40 4101 	orr.w	r1, r0, r1, lsl #16
1000345a:	fb08 f00e 	mul.w	r0, r8, lr
1000345e:	4288      	cmp	r0, r1
10003460:	d90f      	bls.n	10003482 <__udivmoddi4+0x1b6>
10003462:	eb1c 0101 	adds.w	r1, ip, r1
10003466:	f108 3aff 	add.w	sl, r8, #4294967295
1000346a:	bf2c      	ite	cs
1000346c:	f04f 0b01 	movcs.w	fp, #1
10003470:	f04f 0b00 	movcc.w	fp, #0
10003474:	4288      	cmp	r0, r1
10003476:	d903      	bls.n	10003480 <__udivmoddi4+0x1b4>
10003478:	f1bb 0f00 	cmp.w	fp, #0
1000347c:	f000 808d 	beq.w	1000359a <__udivmoddi4+0x2ce>
10003480:	46d0      	mov	r8, sl
10003482:	1a09      	subs	r1, r1, r0
10003484:	b2a4      	uxth	r4, r4
10003486:	fbb1 f0f9 	udiv	r0, r1, r9
1000348a:	fb09 1110 	mls	r1, r9, r0, r1
1000348e:	fb00 fe0e 	mul.w	lr, r0, lr
10003492:	ea44 4101 	orr.w	r1, r4, r1, lsl #16
10003496:	458e      	cmp	lr, r1
10003498:	d907      	bls.n	100034aa <__udivmoddi4+0x1de>
1000349a:	eb1c 0101 	adds.w	r1, ip, r1
1000349e:	f100 34ff 	add.w	r4, r0, #4294967295
100034a2:	d201      	bcs.n	100034a8 <__udivmoddi4+0x1dc>
100034a4:	458e      	cmp	lr, r1
100034a6:	d87f      	bhi.n	100035a8 <__udivmoddi4+0x2dc>
100034a8:	4620      	mov	r0, r4
100034aa:	ea40 4008 	orr.w	r0, r0, r8, lsl #16
100034ae:	eba1 010e 	sub.w	r1, r1, lr
100034b2:	fba0 9802 	umull	r9, r8, r0, r2
100034b6:	4541      	cmp	r1, r8
100034b8:	464c      	mov	r4, r9
100034ba:	46c6      	mov	lr, r8
100034bc:	d302      	bcc.n	100034c4 <__udivmoddi4+0x1f8>
100034be:	d106      	bne.n	100034ce <__udivmoddi4+0x202>
100034c0:	454b      	cmp	r3, r9
100034c2:	d204      	bcs.n	100034ce <__udivmoddi4+0x202>
100034c4:	3801      	subs	r0, #1
100034c6:	ebb9 0402 	subs.w	r4, r9, r2
100034ca:	eb68 0e0c 	sbc.w	lr, r8, ip
100034ce:	2d00      	cmp	r5, #0
100034d0:	d070      	beq.n	100035b4 <__udivmoddi4+0x2e8>
100034d2:	1b1a      	subs	r2, r3, r4
100034d4:	eb61 010e 	sbc.w	r1, r1, lr
100034d8:	fa22 f306 	lsr.w	r3, r2, r6
100034dc:	fa01 f707 	lsl.w	r7, r1, r7
100034e0:	40f1      	lsrs	r1, r6
100034e2:	2600      	movs	r6, #0
100034e4:	431f      	orrs	r7, r3
100034e6:	e9c5 7100 	strd	r7, r1, [r5]
100034ea:	e73c      	b.n	10003366 <__udivmoddi4+0x9a>
100034ec:	fa02 fc03 	lsl.w	ip, r2, r3
100034f0:	f1c3 0020 	rsb	r0, r3, #32
100034f4:	fa01 f203 	lsl.w	r2, r1, r3
100034f8:	fa21 f600 	lsr.w	r6, r1, r0
100034fc:	ea4f 4e1c 	mov.w	lr, ip, lsr #16
10003500:	fa24 f100 	lsr.w	r1, r4, r0
10003504:	fa1f f78c 	uxth.w	r7, ip
10003508:	409c      	lsls	r4, r3
1000350a:	4311      	orrs	r1, r2
1000350c:	fbb6 f0fe 	udiv	r0, r6, lr
10003510:	0c0a      	lsrs	r2, r1, #16
10003512:	fb0e 6610 	mls	r6, lr, r0, r6
10003516:	ea42 4206 	orr.w	r2, r2, r6, lsl #16
1000351a:	fb00 f607 	mul.w	r6, r0, r7
1000351e:	4296      	cmp	r6, r2
10003520:	d90e      	bls.n	10003540 <__udivmoddi4+0x274>
10003522:	eb1c 0202 	adds.w	r2, ip, r2
10003526:	f100 38ff 	add.w	r8, r0, #4294967295
1000352a:	bf2c      	ite	cs
1000352c:	f04f 0901 	movcs.w	r9, #1
10003530:	f04f 0900 	movcc.w	r9, #0
10003534:	4296      	cmp	r6, r2
10003536:	d902      	bls.n	1000353e <__udivmoddi4+0x272>
10003538:	f1b9 0f00 	cmp.w	r9, #0
1000353c:	d031      	beq.n	100035a2 <__udivmoddi4+0x2d6>
1000353e:	4640      	mov	r0, r8
10003540:	1b92      	subs	r2, r2, r6
10003542:	b289      	uxth	r1, r1
10003544:	fbb2 f6fe 	udiv	r6, r2, lr
10003548:	fb0e 2216 	mls	r2, lr, r6, r2
1000354c:	ea41 4102 	orr.w	r1, r1, r2, lsl #16
10003550:	fb06 f207 	mul.w	r2, r6, r7
10003554:	428a      	cmp	r2, r1
10003556:	d907      	bls.n	10003568 <__udivmoddi4+0x29c>
10003558:	eb1c 0101 	adds.w	r1, ip, r1
1000355c:	f106 38ff 	add.w	r8, r6, #4294967295
10003560:	d201      	bcs.n	10003566 <__udivmoddi4+0x29a>
10003562:	428a      	cmp	r2, r1
10003564:	d823      	bhi.n	100035ae <__udivmoddi4+0x2e2>
10003566:	4646      	mov	r6, r8
10003568:	1a89      	subs	r1, r1, r2
1000356a:	ea46 4600 	orr.w	r6, r6, r0, lsl #16
1000356e:	e725      	b.n	100033bc <__udivmoddi4+0xf0>
10003570:	462e      	mov	r6, r5
10003572:	4628      	mov	r0, r5
10003574:	e6f7      	b.n	10003366 <__udivmoddi4+0x9a>
10003576:	1a84      	subs	r4, r0, r2
10003578:	eb61 0303 	sbc.w	r3, r1, r3
1000357c:	2001      	movs	r0, #1
1000357e:	461f      	mov	r7, r3
10003580:	e70b      	b.n	1000339a <__udivmoddi4+0xce>
10003582:	4464      	add	r4, ip
10003584:	3802      	subs	r0, #2
10003586:	e749      	b.n	1000341c <__udivmoddi4+0x150>
10003588:	4464      	add	r4, ip
1000358a:	3802      	subs	r0, #2
1000358c:	e6e1      	b.n	10003352 <__udivmoddi4+0x86>
1000358e:	3a02      	subs	r2, #2
10003590:	4461      	add	r1, ip
10003592:	e72e      	b.n	100033f2 <__udivmoddi4+0x126>
10003594:	3e02      	subs	r6, #2
10003596:	4462      	add	r2, ip
10003598:	e6c6      	b.n	10003328 <__udivmoddi4+0x5c>
1000359a:	f1a8 0802 	sub.w	r8, r8, #2
1000359e:	4461      	add	r1, ip
100035a0:	e76f      	b.n	10003482 <__udivmoddi4+0x1b6>
100035a2:	3802      	subs	r0, #2
100035a4:	4462      	add	r2, ip
100035a6:	e7cb      	b.n	10003540 <__udivmoddi4+0x274>
100035a8:	3802      	subs	r0, #2
100035aa:	4461      	add	r1, ip
100035ac:	e77d      	b.n	100034aa <__udivmoddi4+0x1de>
100035ae:	3e02      	subs	r6, #2
100035b0:	4461      	add	r1, ip
100035b2:	e7d9      	b.n	10003568 <__udivmoddi4+0x29c>
100035b4:	462e      	mov	r6, r5
100035b6:	e6d6      	b.n	10003366 <__udivmoddi4+0x9a>

100035b8 <__aeabi_idiv0>:
100035b8:	4770      	bx	lr
100035ba:	bf00      	nop

100035bc <_init>:
100035bc:	b5f8      	push	{r3, r4, r5, r6, r7, lr}
100035be:	bf00      	nop
100035c0:	bcf8      	pop	{r3, r4, r5, r6, r7}
100035c2:	bc08      	pop	{r3}
100035c4:	469e      	mov	lr, r3
100035c6:	4770      	bx	lr

100035c8 <_fini>:
100035c8:	b5f8      	push	{r3, r4, r5, r6, r7, lr}
100035ca:	bf00      	nop
100035cc:	bcf8      	pop	{r3, r4, r5, r6, r7}
100035ce:	bc08      	pop	{r3}
100035d0:	469e      	mov	lr, r3
100035d2:	4770      	bx	lr
100035d4:	72646461 	rsbvc	r6, r4, #1627389952	; 0x61000000
100035d8:	2578303a 	ldrbcs	r3, [r8, #-58]!	; 0xffffffc6
100035dc:	2d583230 	lfmcs	f3, 2, [r8, #-192]	; 0xffffff40
100035e0:	756c6176 	strbvc	r6, [ip, #-374]!	; 0xfffffe8a
100035e4:	78303a65 	ldmdavc	r0!, {r0, r2, r5, r6, r9, fp, ip, sp}
100035e8:	58383025 	ldmdapl	r8!, {r0, r2, r5, ip, sp}
100035ec:	00000a0d 	andeq	r0, r0, sp, lsl #20
100035f0:	6c6c6143 	stfvse	f6, [ip], #-268	; 0xfffffef4
100035f4:	63617453 	cmnvs	r1, #1392508928	; 0x53000000
100035f8:	7564206b 	strbvc	r2, [r4, #-107]!	; 0xffffff95
100035fc:	6520706d 	strvs	r7, [r0, #-109]!	; 0xffffff93
10003600:	726f7272 	rsbvc	r7, pc, #536870919	; 0x20000007
10003604:	6425203a 	strtvs	r2, [r5], #-58	; 0xffffffc6
10003608:	00000a0d 	andeq	r0, r0, sp, lsl #20
1000360c:	6c6c6143 	stfvse	f6, [ip], #-268	; 0xfffffef4
10003610:	63617453 	cmnvs	r1, #1392508928	; 0x53000000
10003614:	205b3a6b 	subscs	r3, fp, fp, ror #20
10003618:	00000000 	andeq	r0, r0, r0
1000361c:	58383025 	ldmdapl	r8!, {r0, r2, r5, ip, sp}
10003620:	00000020 	andeq	r0, r0, r0, lsr #32
10003624:	000d205d 	andeq	r2, sp, sp, asr r0
10003628:	73696874 	cmnvc	r9, #116, 16	; 0x740000
1000362c:	20736920 	rsbscs	r6, r3, r0, lsr #18
10003630:	0d2e7325 	stceq	3, cr7, [lr, #-148]!	; 0xffffff6c
10003634:	0000000a 	andeq	r0, r0, sl
10003638:	72617453 	rsbvc	r7, r1, #1392508928	; 0x53000000
1000363c:	00000074 	andeq	r0, r0, r4, ror r0
10003640:	6c6c6568 	cfstr64vs	mvdx6, [ip], #-416	; 0xfffffe60
10003644:	6f77206f 	svcvs	0x0077206f
10003648:	20646c72 	rsbcs	r6, r4, r2, ror ip
1000364c:	6425202d 	strtvs	r2, [r5], #-45	; 0xffffffd3
10003650:	00000a2e 	andeq	r0, r0, lr, lsr #20

10003654 <__func__.0>:
10003654:	74736574 	ldrbtvc	r6, [r3], #-1396	; 0xfffffa8c
10003658:	00000035 	andeq	r0, r0, r5, lsr r0

1000365c <__func__.1>:
1000365c:	74736574 	ldrbtvc	r6, [r3], #-1396	; 0xfffffa8c
10003660:	00000034 	andeq	r0, r0, r4, lsr r0

10003664 <__func__.2>:
10003664:	74736574 	ldrbtvc	r6, [r3], #-1396	; 0xfffffa8c
10003668:	00000033 	andeq	r0, r0, r3, lsr r0

1000366c <__func__.3>:
1000366c:	74736574 	ldrbtvc	r6, [r3], #-1396	; 0xfffffa8c
10003670:	00000032 	andeq	r0, r0, r2, lsr r0

10003674 <__func__.4>:
10003674:	74736574 	ldrbtvc	r6, [r3], #-1396	; 0xfffffa8c
10003678:	00000031 	andeq	r0, r0, r1, lsr r0

1000367c <__func__.5>:
1000367c:	74736574 	ldrbtvc	r6, [r3], #-1396	; 0xfffffa8c
10003680:	00000030 	andeq	r0, r0, r0, lsr r0
10003684:	00696e66 	rsbeq	r6, r9, r6, ror #28
10003688:	2b696e66 	blcs	11a5f028 <__copy_table_end__+0x1a5b6b0>
1000368c:	00000000 	andeq	r0, r0, r0
10003690:	006e616e 	rsbeq	r6, lr, lr, ror #2
10003694:	2d696e66 	stclcs	14, cr6, [r9, #-408]!	; 0xfffffe68
	...

100036a0 <pow10.0>:
100036a0:	00000000 	andeq	r0, r0, r0
100036a4:	3ff00000 	svccc	0x00f00000	; IMB
100036a8:	00000000 	andeq	r0, r0, r0
100036ac:	40240000 	eormi	r0, r4, r0
100036b0:	00000000 	andeq	r0, r0, r0
100036b4:	40590000 	subsmi	r0, r9, r0
100036b8:	00000000 	andeq	r0, r0, r0
100036bc:	408f4000 	addmi	r4, pc, r0
100036c0:	00000000 	andeq	r0, r0, r0
100036c4:	40c38800 	sbcmi	r8, r3, r0, lsl #16
100036c8:	00000000 	andeq	r0, r0, r0
100036cc:	40f86a00 	rscsmi	r6, r8, r0, lsl #20
100036d0:	00000000 	andeq	r0, r0, r0
100036d4:	412e8480 	smlawbmi	lr, r0, r4, r8
100036d8:	00000000 	andeq	r0, r0, r0
100036dc:	416312d0 	ldrdmi	r1, [r3, #-32]!	; 0xffffffe0
100036e0:	00000000 	andeq	r0, r0, r0
100036e4:	4197d784 	orrsmi	sp, r7, r4, lsl #15
100036e8:	00000000 	andeq	r0, r0, r0
100036ec:	41cdcd65 	bicmi	ip, sp, r5, ror #26
100036f0:	65646f43 	strbvs	r6, [r4, #-3907]!	; 0xfffff0bd
100036f4:	61745320 	cmnvs	r4, r0, lsr #6
100036f8:	5b3a6b63 	blpl	10e9e48c <__copy_table_end__+0xe9ab14>
100036fc:	58383025 	ldmdapl	r8!, {r0, r2, r5, ip, sp}
10003700:	25202d20 	strcs	r2, [r0, #-3360]!	; 0xfffff2e0
10003704:	5d583830 	ldclpl	8, cr3, [r8, #-192]	; 0xffffff40
10003708:	6973202c 	ldmdbvs	r3!, {r2, r3, r5, sp}^
1000370c:	253a657a 	ldrcs	r6, [sl, #-1402]!	; 0xfffffa86
10003710:	000a0d64 	andeq	r0, sl, r4, ror #26
10003714:	65646f43 	strbvs	r6, [r4, #-3907]!	; 0xfffff0bd
10003718:	78655420 	stmdavc	r5!, {r5, sl, ip, lr}^
1000371c:	5b3a2074 	blpl	10e8b8f4 <__copy_table_end__+0xe87f7c>
10003720:	58383025 	ldmdapl	r8!, {r0, r2, r5, ip, sp}
10003724:	25202d20 	strcs	r2, [r0, #-3360]!	; 0xfffff2e0
10003728:	5d583830 	ldclpl	8, cr3, [r8, #-192]	; 0xffffff40
1000372c:	6973202c 	ldmdbvs	r3!, {r2, r3, r5, sp}^
10003730:	253a657a 	ldrcs	r6, [sl, #-1402]!	; 0xfffffa86
10003734:	000a0d64 	andeq	r0, sl, r4, ror #26
10003738:	65646f43 	strbvs	r6, [r4, #-3907]!	; 0xfffff0bd
1000373c:	61745320 	cmnvs	r4, r0, lsr #6
10003740:	47206b63 	strmi	r6, [r0, -r3, ror #22]!
10003744:	74776f72 	ldrbtvc	r6, [r7], #-3954	; 0xfffff08e
10003748:	6f442068 	svcvs	0x00442068
1000374c:	61776e77 	cmnvs	r7, r7, ror lr
10003750:	253a6472 	ldrcs	r6, [sl, #-1138]!	; 0xfffffb8e
10003754:	000a0d64 	andeq	r0, sl, r4, ror #26
10003758:	72614820 	rsbvc	r4, r1, #32, 16	; 0x200000
1000375c:	75614664 	strbvc	r4, [r1, #-1636]!	; 0xfffff99c
10003760:	4920746c 	stmdbmi	r0!, {r2, r3, r5, r6, sl, ip, sp, lr}
10003764:	726f666e 	rsbvc	r6, pc, #115343360	; 0x6e00000
10003768:	6974616d 	ldmdbvs	r4!, {r0, r2, r3, r5, r6, r8, sp, lr}^
1000376c:	44206e6f 	strtmi	r6, [r0], #-3695	; 0xfffff191
10003770:	20706d75 	rsbscs	r6, r0, r5, ror sp
10003774:	0000000d 	andeq	r0, r0, sp
10003778:	61745320 	cmnvs	r4, r0, lsr #6
1000377c:	46206b63 	strtmi	r6, [r0], -r3, ror #22
10003780:	656d6172 	strbvs	r6, [sp, #-370]!	; 0xfffffe8e
10003784:	0d202020 	stceq	0, cr2, [r0, #-128]!	; 0xffffff80
10003788:	00000000 	andeq	r0, r0, r0
1000378c:	20305220 	eorscs	r5, r0, r0, lsr #4
10003790:	203d2020 	eorscs	r2, sp, r0, lsr #32
10003794:	30257830 	eorcc	r7, r5, r0, lsr r8
10003798:	0d205838 	stceq	8, cr5, [r0, #-224]!	; 0xffffff20
1000379c:	0000000a 	andeq	r0, r0, sl
100037a0:	20315220 	eorscs	r5, r1, r0, lsr #4
100037a4:	203d2020 	eorscs	r2, sp, r0, lsr #32
100037a8:	30257830 	eorcc	r7, r5, r0, lsr r8
100037ac:	0d205838 	stceq	8, cr5, [r0, #-224]!	; 0xffffff20
100037b0:	0000000a 	andeq	r0, r0, sl
100037b4:	20325220 	eorscs	r5, r2, r0, lsr #4
100037b8:	203d2020 	eorscs	r2, sp, r0, lsr #32
100037bc:	30257830 	eorcc	r7, r5, r0, lsr r8
100037c0:	0d205838 	stceq	8, cr5, [r0, #-224]!	; 0xffffff20
100037c4:	0000000a 	andeq	r0, r0, sl
100037c8:	20335220 	eorscs	r5, r3, r0, lsr #4
100037cc:	203d2020 	eorscs	r2, sp, r0, lsr #32
100037d0:	30257830 	eorcc	r7, r5, r0, lsr r8
100037d4:	0d205838 	stceq	8, cr5, [r0, #-224]!	; 0xffffff20
100037d8:	0000000a 	andeq	r0, r0, sl
100037dc:	20345220 	eorscs	r5, r4, r0, lsr #4
100037e0:	203d2020 	eorscs	r2, sp, r0, lsr #32
100037e4:	30257830 	eorcc	r7, r5, r0, lsr r8
100037e8:	0d205838 	stceq	8, cr5, [r0, #-224]!	; 0xffffff20
100037ec:	0000000a 	andeq	r0, r0, sl
100037f0:	20355220 	eorscs	r5, r5, r0, lsr #4
100037f4:	203d2020 	eorscs	r2, sp, r0, lsr #32
100037f8:	30257830 	eorcc	r7, r5, r0, lsr r8
100037fc:	0d205838 	stceq	8, cr5, [r0, #-224]!	; 0xffffff20
10003800:	0000000a 	andeq	r0, r0, sl
10003804:	20365220 	eorscs	r5, r6, r0, lsr #4
10003808:	203d2020 	eorscs	r2, sp, r0, lsr #32
1000380c:	30257830 	eorcc	r7, r5, r0, lsr r8
10003810:	0d205838 	stceq	8, cr5, [r0, #-224]!	; 0xffffff20
10003814:	0000000a 	andeq	r0, r0, sl
10003818:	20375220 	eorscs	r5, r7, r0, lsr #4
1000381c:	203d2020 	eorscs	r2, sp, r0, lsr #32
10003820:	30257830 	eorcc	r7, r5, r0, lsr r8
10003824:	0d205838 	stceq	8, cr5, [r0, #-224]!	; 0xffffff20
10003828:	0000000a 	andeq	r0, r0, sl
1000382c:	20385220 	eorscs	r5, r8, r0, lsr #4
10003830:	203d2020 	eorscs	r2, sp, r0, lsr #32
10003834:	30257830 	eorcc	r7, r5, r0, lsr r8
10003838:	0d205838 	stceq	8, cr5, [r0, #-224]!	; 0xffffff20
1000383c:	0000000a 	andeq	r0, r0, sl
10003840:	20395220 	eorscs	r5, r9, r0, lsr #4
10003844:	203d2020 	eorscs	r2, sp, r0, lsr #32
10003848:	30257830 	eorcc	r7, r5, r0, lsr r8
1000384c:	0d205838 	stceq	8, cr5, [r0, #-224]!	; 0xffffff20
10003850:	0000000a 	andeq	r0, r0, sl
10003854:	30315220 	eorscc	r5, r1, r0, lsr #4
10003858:	203d2020 	eorscs	r2, sp, r0, lsr #32
1000385c:	30257830 	eorcc	r7, r5, r0, lsr r8
10003860:	0d205838 	stceq	8, cr5, [r0, #-224]!	; 0xffffff20
10003864:	0000000a 	andeq	r0, r0, sl
10003868:	31315220 	teqcc	r1, r0, lsr #4
1000386c:	203d2020 	eorscs	r2, sp, r0, lsr #32
10003870:	30257830 	eorcc	r7, r5, r0, lsr r8
10003874:	0d205838 	stceq	8, cr5, [r0, #-224]!	; 0xffffff20
10003878:	0000000a 	andeq	r0, r0, sl
1000387c:	32315220 	eorscc	r5, r1, #32, 4
10003880:	203d2020 	eorscs	r2, sp, r0, lsr #32
10003884:	30257830 	eorcc	r7, r5, r0, lsr r8
10003888:	0d205838 	stceq	8, cr5, [r0, #-224]!	; 0xffffff20
1000388c:	0000000a 	andeq	r0, r0, sl
10003890:	20524c20 	subscs	r4, r2, r0, lsr #24
10003894:	203d2020 	eorscs	r2, sp, r0, lsr #32
10003898:	30257830 	eorcc	r7, r5, r0, lsr r8
1000389c:	0d205838 	stceq	8, cr5, [r0, #-224]!	; 0xffffff20
100038a0:	0000000a 	andeq	r0, r0, sl
100038a4:	20435020 	subcs	r5, r3, r0, lsr #32
100038a8:	203d2020 	eorscs	r2, sp, r0, lsr #32
100038ac:	30257830 	eorcc	r7, r5, r0, lsr r8
100038b0:	0d205838 	stceq	8, cr5, [r0, #-224]!	; 0xffffff20
100038b4:	0000000a 	andeq	r0, r0, sl
100038b8:	52535020 	subspl	r5, r3, #32
100038bc:	203d2020 	eorscs	r2, sp, r0, lsr #32
100038c0:	30257830 	eorcc	r7, r5, r0, lsr r8
100038c4:	0d205838 	stceq	8, cr5, [r0, #-224]!	; 0xffffff20
100038c8:	0000000a 	andeq	r0, r0, sl
100038cc:	45584520 	ldrbmi	r4, [r8, #-1312]	; 0xfffffae0
100038d0:	5445525f 	strbpl	r5, [r5], #-607	; 0xfffffda1
100038d4:	3a4e5255 	bcc	11398230 <__copy_table_end__+0x13948b8>
100038d8:	25783020 	ldrbcs	r3, [r8, #-32]!	; 0xffffffe0
100038dc:	20583830 	subscs	r3, r8, r0, lsr r8
100038e0:	00000a0d 	andeq	r0, r0, sp, lsl #20
100038e4:	61745320 	cmnvs	r4, r0, lsr #6
100038e8:	43206b63 			; <UNDEFINED> instruction: 0x43206b63
100038ec:	3a6c6c61 	bcc	11b1ea78 <__copy_table_end__+0x1b1b100>
100038f0:	00000020 	andeq	r0, r0, r0, lsr #32

100038f4 <_global_impure_ptr>:
100038f4:	38000008 	stmdacc	r0, {r3}

100038f8 <__sf_fake_stderr>:
	...

10003918 <__sf_fake_stdin>:
	...

10003938 <__sf_fake_stdout>:
	...

10003958 <__EH_FRAME_BEGIN__>:
10003958:	00000000 	andeq	r0, r0, r0

Disassembly of section .ARM.exidx:

1000395c <__exidx_end-0x10>:
1000395c:	7fffe4c8 	svcvc	0x00ffe4c8
10003960:	80b0b0b0 	ldrhthi	fp, [r0], r0
10003964:	7fffe530 	svcvc	0x00ffe530
10003968:	00000001 	andeq	r0, r0, r1

Disassembly of section .copy.table:

1000396c <__copy_table_start__>:
1000396c:	10003978 	andne	r3, r0, r8, ror r9
10003970:	38000000 	stmdacc	r0, {}	; <UNPREDICTABLE>
10003974:	0000001c 	andeq	r0, r0, ip, lsl r0

Disassembly of section .data:

38000000 <SystemCoreClock>:
38000000:	017d7840 	cmneq	sp, r0, asr #16

38000004 <_impure_ptr>:
38000004:	38000008 	stmdacc	r0, {r3}

38000008 <impure_data>:
38000008:	00000000 	andeq	r0, r0, r0
3800000c:	10003918 	andne	r3, r0, r8, lsl r9
38000010:	10003938 	andne	r3, r0, r8, lsr r9
38000014:	100038f8 	strdne	r3, [r0], -r8
	...

38000068 <__frame_dummy_init_array_entry>:
38000068:	100007e5 	andne	r0, r0, r5, ror #15

3800006c <__do_global_dtors_aux_fini_array_entry>:
3800006c:	100007c1 	andne	r0, r0, r1, asr #15

Disassembly of section .bss:

38000070 <__bss_start__>:
38000070:	00000000 	andeq	r0, r0, r0

38000074 <object.0>:
	...

3800008c <buffer.0>:
	...

3800018c <fd_code_stack_base>:
3800018c:	00000000 	andeq	r0, r0, r0

38000190 <fd_code_stack_full>:
38000190:	00000000 	andeq	r0, r0, r0

38000194 <frame.1>:
	...

380001d4 <__lock___malloc_recursive_mutex>:
	...

380001d5 <__lock___sfp_recursive_mutex>:
	...

380001d6 <__lock___sinit_recursive_mutex>:
	...

380001d8 <__malloc_free_list>:
380001d8:	00000000 	andeq	r0, r0, r0

380001dc <__malloc_sbrk_start>:
380001dc:	00000000 	andeq	r0, r0, r0

380001e0 <errno>:
380001e0:	00000000 	andeq	r0, r0, r0

380001e4 <heap_end.0>:
380001e4:	00000000 	andeq	r0, r0, r0

Disassembly of section .heap:

380001e8 <__end__>:
	...

Disassembly of section .stack:

380ff000 <__StackLimit>:
	...

Disassembly of section .ARM.attributes:

00000000 <.ARM.attributes>:
   0:	00003541 	andeq	r3, r0, r1, asr #10
   4:	61656100 	cmnvs	r5, r0, lsl #2
   8:	01006962 	tsteq	r0, r2, ror #18
   c:	0000002b 	andeq	r0, r0, fp, lsr #32
  10:	4d2d3805 	stcmi	8, cr3, [sp, #-20]!	; 0xffffffec
  14:	49414d2e 	stmdbmi	r1, {r1, r2, r3, r5, r8, sl, fp, lr}^
  18:	1106004e 	tstne	r6, lr, asr #32
  1c:	03094d07 	movweq	r4, #40199	; 0x9d07
  20:	0412080a 	ldreq	r0, [r2], #-2058	; 0xfffff7f6
  24:	01150114 	tsteq	r5, r4, lsl r1
  28:	01180317 	tsteq	r8, r7, lsl r3
  2c:	011b011a 	tsteq	fp, sl, lsl r1
  30:	0122011c 			; <UNDEFINED> instruction: 0x0122011c
  34:	Address 0x00000034 is out of bounds.


Disassembly of section .comment:

00000000 <.comment>:
   0:	3a434347 	bcc	10d0d24 <__RAM_SIZE+0xfd0d24>
   4:	4e472820 	cdpmi	8, 4, cr2, cr7, cr0, {1}
   8:	72412055 	subvc	r2, r1, #85	; 0x55
   c:	6d45206d 	stclvs	0, cr2, [r5, #-436]	; 0xfffffe4c
  10:	64646562 	strbtvs	r6, [r4], #-1378	; 0xfffffa9e
  14:	54206465 	strtpl	r6, [r0], #-1125	; 0xfffffb9b
  18:	636c6f6f 	cmnvs	ip, #444	; 0x1bc
  1c:	6e696168 	powvsez	f6, f1, #0.0
  20:	2e303120 	rsfcssp	f3, f0, f0
  24:	30322d33 	eorscc	r2, r2, r3, lsr sp
  28:	312e3132 			; <UNDEFINED> instruction: 0x312e3132
  2c:	31202930 			; <UNDEFINED> instruction: 0x31202930
  30:	2e332e30 	mrccs	14, 1, r2, cr3, cr0, {1}
  34:	30322031 	eorscc	r2, r2, r1, lsr r0
  38:	38303132 	ldmdacc	r0!, {r1, r4, r5, r8, ip, sp}
  3c:	28203432 	stmdacs	r0!, {r1, r4, r5, sl, ip, sp}
  40:	656c6572 	strbvs	r6, [ip, #-1394]!	; 0xfffffa8e
  44:	29657361 	stmdbcs	r5!, {r0, r5, r6, r8, r9, ip, sp, lr}^
	...

Disassembly of section .debug_info:

00000000 <.debug_info>:
       0:	00000a61 	andeq	r0, r0, r1, ror #20
       4:	00000002 	andeq	r0, r0, r2
       8:	01040000 	mrseq	r0, (UNDEF: 4)
       c:	00000188 	andeq	r0, r0, r8, lsl #3
      10:	0003460c 	andeq	r4, r3, ip, lsl #12
      14:	00001a00 	andeq	r1, r0, r0, lsl #20
      18:	00001800 	andeq	r1, r0, r0, lsl #16
	...
      28:	06010200 	streq	r0, [r1], -r0, lsl #4
      2c:	00000272 	andeq	r0, r0, r2, ror r2
      30:	00017e03 	andeq	r7, r1, r3, lsl #28
      34:	182b0200 	stmdane	fp!, {r9}
      38:	0000003c 	andeq	r0, r0, ip, lsr r0
      3c:	70080102 	andvc	r0, r8, r2, lsl #2
      40:	02000002 	andeq	r0, r0, #2
      44:	006d0502 	rsbeq	r0, sp, r2, lsl #10
      48:	02020000 	andeq	r0, r2, #0
      4c:	00030207 	andeq	r0, r3, r7, lsl #4
      50:	05040200 	streq	r0, [r4, #-512]	; 0xfffffe00
      54:	00000169 	andeq	r0, r0, r9, ror #2
      58:	00009f03 	andeq	r9, r0, r3, lsl #30
      5c:	194f0200 	stmdbne	pc, {r9}^	; <UNPREDICTABLE>
      60:	00000064 	andeq	r0, r0, r4, rrx
      64:	b1070402 	tstlt	r7, r2, lsl #8
      68:	02000002 	andeq	r0, r0, #2
      6c:	01640508 	cmneq	r4, r8, lsl #10
      70:	08020000 	stmdaeq	r2, {}	; <UNPREDICTABLE>
      74:	0002ac07 	andeq	sl, r2, r7, lsl #24
      78:	05040400 	streq	r0, [r4, #-1024]	; 0xfffffc00
      7c:	00746e69 	rsbseq	r6, r4, r9, ror #28
      80:	00007905 	andeq	r7, r0, r5, lsl #18
      84:	07040200 	streq	r0, [r4, -r0, lsl #4]
      88:	000002b6 			; <UNDEFINED> instruction: 0x000002b6
      8c:	00018003 	andeq	r8, r1, r3
      90:	13180300 	tstne	r8, #0, 6
      94:	00000030 	andeq	r0, r0, r0, lsr r0
      98:	00008c05 	andeq	r8, r0, r5, lsl #24
      9c:	00a10300 	adceq	r0, r1, r0, lsl #6
      a0:	30030000 	andcc	r0, r3, r0
      a4:	00005814 	andeq	r5, r0, r4, lsl r8
      a8:	009d0500 	addseq	r0, sp, r0, lsl #10
      ac:	a9060000 	stmdbge	r6, {}	; <UNPREDICTABLE>
      b0:	02000000 	andeq	r0, r0, #0
      b4:	00930408 	addseq	r0, r3, r8, lsl #8
      b8:	01020000 	mrseq	r0, (UNDEF: 2)
      bc:	00027908 	andeq	r7, r2, r8, lsl #18
      c0:	00ba0600 	adcseq	r0, sl, r0, lsl #12
      c4:	7c070000 	stcvc	0, cr0, [r7], {-0}
      c8:	01f80402 	mvnseq	r0, r2, lsl #8
      cc:	0003cb09 	andeq	ip, r3, r9, lsl #22
      d0:	00bb0800 	adcseq	r0, fp, r0, lsl #16
      d4:	fa040000 	blx	1000dc <__RAM_SIZE+0xdc>
      d8:	00ae1201 	adceq	r1, lr, r1, lsl #4
      dc:	23020000 	movwcs	r0, #8192	; 0x2000
      e0:	03cc0800 	biceq	r0, ip, #0, 16
      e4:	fb040000 	blx	1000ee <__RAM_SIZE+0xee>
      e8:	00a91201 	adceq	r1, r9, r1, lsl #4
      ec:	23020000 	movwcs	r0, #8192	; 0x2000
      f0:	032d0804 			; <UNDEFINED> instruction: 0x032d0804
      f4:	fc040000 	stc2	0, cr0, [r4], {-0}
      f8:	00a91201 	adceq	r1, r9, r1, lsl #4
      fc:	23020000 	movwcs	r0, #8192	; 0x2000
     100:	03d70808 	bicseq	r0, r7, #8, 16	; 0x80000
     104:	fd040000 	stc2	0, cr0, [r4, #-0]
     108:	00a91201 	adceq	r1, r9, r1, lsl #4
     10c:	23020000 	movwcs	r0, #8192	; 0x2000
     110:	4353090c 	cmpmi	r3, #12, 18	; 0x30000
     114:	fe040052 	mcr2	0, 0, r0, cr4, cr2, {2}
     118:	00a91201 	adceq	r1, r9, r1, lsl #4
     11c:	23020000 	movwcs	r0, #8192	; 0x2000
     120:	43430910 	movtmi	r0, #14608	; 0x3910
     124:	ff040052 			; <UNDEFINED> instruction: 0xff040052
     128:	00a91201 	adceq	r1, r9, r1, lsl #4
     12c:	23020000 	movwcs	r0, #8192	; 0x2000
     130:	02a70814 	adceq	r0, r7, #20, 16	; 0x140000
     134:	00040000 	andeq	r0, r4, r0
     138:	03db1202 	bicseq	r1, fp, #536870912	; 0x20000000
     13c:	23020000 	movwcs	r0, #8192	; 0x2000
     140:	02de0818 	sbcseq	r0, lr, #24, 16	; 0x180000
     144:	01040000 	mrseq	r0, (UNDEF: 4)
     148:	00a91202 	adceq	r1, r9, r2, lsl #4
     14c:	23020000 	movwcs	r0, #8192	; 0x2000
     150:	025b0824 	subseq	r0, fp, #36, 16	; 0x240000
     154:	02040000 	andeq	r0, r4, #0
     158:	00a91202 	adceq	r1, r9, r2, lsl #4
     15c:	23020000 	movwcs	r0, #8192	; 0x2000
     160:	03370828 	teqeq	r7, #40, 16	; 0x280000
     164:	03040000 	movweq	r0, #16384	; 0x4000
     168:	00a91202 	adceq	r1, r9, r2, lsl #4
     16c:	23020000 	movwcs	r0, #8192	; 0x2000
     170:	0332082c 	teqeq	r2, #44, 16	; 0x2c0000
     174:	04040000 	streq	r0, [r4], #-0
     178:	00a91202 	adceq	r1, r9, r2, lsl #4
     17c:	23020000 	movwcs	r0, #8192	; 0x2000
     180:	00610830 	rsbeq	r0, r1, r0, lsr r8
     184:	05040000 	streq	r0, [r4, #-0]
     188:	00a91202 	adceq	r1, r9, r2, lsl #4
     18c:	23020000 	movwcs	r0, #8192	; 0x2000
     190:	01720834 	cmneq	r2, r4, lsr r8
     194:	06040000 	streq	r0, [r4], -r0
     198:	00a91202 	adceq	r1, r9, r2, lsl #4
     19c:	23020000 	movwcs	r0, #8192	; 0x2000
     1a0:	03b90838 			; <UNDEFINED> instruction: 0x03b90838
     1a4:	07040000 	streq	r0, [r4, -r0]
     1a8:	00a91202 	adceq	r1, r9, r2, lsl #4
     1ac:	23020000 	movwcs	r0, #8192	; 0x2000
     1b0:	007d083c 	rsbseq	r0, sp, ip, lsr r8
     1b4:	08040000 	stmdaeq	r4, {}	; <UNPREDICTABLE>
     1b8:	03f51202 	mvnseq	r1, #536870912	; 0x20000000
     1bc:	23020000 	movwcs	r0, #8192	; 0x2000
     1c0:	03c50840 	biceq	r0, r5, #64, 16	; 0x400000
     1c4:	09040000 	stmdbeq	r4, {}	; <UNPREDICTABLE>
     1c8:	00ae1202 	adceq	r1, lr, r2, lsl #4
     1cc:	23020000 	movwcs	r0, #8192	; 0x2000
     1d0:	011d0848 	tsteq	sp, r8, asr #16
     1d4:	0a040000 	beq	1001dc <__RAM_SIZE+0x1dc>
     1d8:	00ae1202 	adceq	r1, lr, r2, lsl #4
     1dc:	23020000 	movwcs	r0, #8192	; 0x2000
     1e0:	00b3084c 	adcseq	r0, r3, ip, asr #16
     1e4:	0b040000 	bleq	1001ec <__RAM_SIZE+0x1ec>
     1e8:	040f1202 	streq	r1, [pc], #-514	; 1f0 <__STACKSEAL_SIZE+0x1f0>
     1ec:	23020000 	movwcs	r0, #8192	; 0x2000
     1f0:	02860850 	addeq	r0, r6, #80, 16	; 0x500000
     1f4:	0c040000 	stceq	0, cr0, [r4], {-0}
     1f8:	04291202 	strteq	r1, [r9], #-514	; 0xfffffdfe
     1fc:	23020000 	movwcs	r0, #8192	; 0x2000
     200:	03840860 	orreq	r0, r4, #96, 16	; 0x600000
     204:	0d040000 	stceq	0, cr0, [r4, #-0]
     208:	00ae1202 	adceq	r1, lr, r2, lsl #4
     20c:	23020000 	movwcs	r0, #8192	; 0x2000
     210:	54430978 	strbpl	r0, [r3], #-2424	; 0xfffff688
     214:	0e040052 	mcreq	0, 0, r0, cr4, cr2, {2}
     218:	00ae1202 	adceq	r1, lr, r2, lsl #4
     21c:	23020000 	movwcs	r0, #8192	; 0x2000
     220:	0177087c 	cmneq	r7, ip, ror r8
     224:	0f040000 	svceq	0x00040000
     228:	00ae1202 	adceq	r1, lr, r2, lsl #4
     22c:	23030000 	movwcs	r0, #12288	; 0x3000
     230:	fb080180 	blx	20083a <__RAM_SIZE+0x10083a>
     234:	04000002 	streq	r0, [r0], #-2
     238:	a9120210 	ldmdbge	r2, {r4, r9}
     23c:	03000000 	movweq	r0, #0
     240:	08018423 	stmdaeq	r1, {r0, r1, r5, sl, pc}
     244:	000003d1 	ldrdeq	r0, [r0], -r1
     248:	12021104 	andne	r1, r2, #4, 2
     24c:	000000a9 	andeq	r0, r0, r9, lsr #1
     250:	01882303 	orreq	r2, r8, r3, lsl #6
     254:	0002ec08 	andeq	lr, r2, r8, lsl #24
     258:	02120400 	andseq	r0, r2, #0, 8
     25c:	0000a912 	andeq	sl, r0, r2, lsl r9
     260:	8c230300 	stchi	3, cr0, [r3], #-0
     264:	037a0801 	cmneq	sl, #65536	; 0x10000
     268:	13040000 	movwne	r0, #16384	; 0x4000
     26c:	042e1202 	strteq	r1, [lr], #-514	; 0xfffffdfe
     270:	23030000 	movwcs	r0, #12288	; 0x3000
     274:	d9080190 	stmdble	r8, {r4, r7, r8}
     278:	04000002 	streq	r0, [r0], #-2
     27c:	a9120214 	ldmdbge	r2, {r2, r4, r9}
     280:	03000000 	movweq	r0, #0
     284:	0801e423 	stmdaeq	r1, {r0, r1, r5, sl, sp, lr, pc}
     288:	00000357 	andeq	r0, r0, r7, asr r3
     28c:	12021504 	andne	r1, r2, #4, 10	; 0x1000000
     290:	000000a9 	andeq	r0, r0, r9, lsr #1
     294:	01e82303 	mvneq	r2, r3, lsl #6
     298:	00033c08 	andeq	r3, r3, r8, lsl #24
     29c:	02160400 	andseq	r0, r6, #0, 8
     2a0:	00043e12 	andeq	r3, r4, r2, lsl lr
     2a4:	ec230300 	stc	3, cr0, [r3], #-0
     2a8:	01180801 	tsteq	r8, r1, lsl #16
     2ac:	17040000 	strne	r0, [r4, -r0]
     2b0:	00a91202 	adceq	r1, r9, r2, lsl #4
     2b4:	23030000 	movwcs	r0, #12288	; 0x3000
     2b8:	d8080480 	stmdale	r8, {r7, sl}
     2bc:	04000000 	streq	r0, [r0], #-0
     2c0:	4e120218 	mrcmi	2, 0, r0, cr2, cr8, {0}
     2c4:	03000004 	movweq	r0, #4
     2c8:	08048423 	stmdaeq	r4, {r0, r1, r5, sl, pc}
     2cc:	00000067 	andeq	r0, r0, r7, rrx
     2d0:	12021904 	andne	r1, r2, #4, 18	; 0x10000
     2d4:	000000ae 	andeq	r0, r0, lr, lsr #1
     2d8:	04c02303 	strbeq	r2, [r0], #771	; 0x303
     2dc:	00007708 	andeq	r7, r0, r8, lsl #14
     2e0:	021a0400 	andseq	r0, sl, #0, 8
     2e4:	0000ae12 	andeq	sl, r0, r2, lsl lr
     2e8:	c4230300 	strtgt	r0, [r3], #-768	; 0xfffffd00
     2ec:	015e0804 	cmpeq	lr, r4, lsl #16
     2f0:	1b040000 	blne	1002f8 <__RAM_SIZE+0x2f8>
     2f4:	00ae1202 	adceq	r1, lr, r2, lsl #4
     2f8:	23030000 	movwcs	r0, #12288	; 0x3000
     2fc:	4d0804c8 	cfstrsmi	mvf0, [r8, #-800]	; 0xfffffce0
     300:	04000003 	streq	r0, [r0], #-3
     304:	5e12021c 	mrcpl	2, 0, r0, cr2, cr12, {0}
     308:	03000004 	movweq	r0, #4
     30c:	0804cc23 	stmdaeq	r4, {r0, r1, r5, sl, fp, lr, pc}
     310:	00000260 	andeq	r0, r0, r0, ror #4
     314:	12021d04 	andne	r1, r2, #4, 26	; 0x100
     318:	000000a9 	andeq	r0, r0, r9, lsr #1
     31c:	04d02303 	ldrbeq	r2, [r0], #771	; 0x303
     320:	0000fc08 	andeq	pc, r0, r8, lsl #24
     324:	021e0400 	andseq	r0, lr, #0, 8
     328:	00045e12 	andeq	r5, r4, r2, lsl lr
     32c:	d4230300 	strtle	r0, [r3], #-768	; 0xfffffd00
     330:	027e0804 	rsbseq	r0, lr, #4, 16	; 0x40000
     334:	1f040000 	svcne	0x00040000
     338:	00a91202 	adceq	r1, r9, r2, lsl #4
     33c:	23030000 	movwcs	r0, #12288	; 0x3000
     340:	680804d8 	stmdavs	r8, {r3, r4, r6, r7, sl}
     344:	04000002 	streq	r0, [r0], #-2
     348:	a9120220 	ldmdbge	r2, {r5, r9}
     34c:	03000000 	movweq	r0, #0
     350:	0804dc23 	stmdaeq	r4, {r0, r1, r5, sl, fp, ip, lr, pc}
     354:	0000013e 	andeq	r0, r0, lr, lsr r1
     358:	12022104 	andne	r2, r2, #4, 2
     35c:	000000a9 	andeq	r0, r0, r9, lsr #1
     360:	04e02303 	strbteq	r2, [r0], #771	; 0x303
     364:	00031508 	andeq	r1, r3, r8, lsl #10
     368:	02220400 	eoreq	r0, r2, #0, 8
     36c:	0000a912 	andeq	sl, r0, r2, lsl r9
     370:	e4230300 	strt	r0, [r3], #-768	; 0xfffffd00
     374:	02e40804 	rsceq	r0, r4, #4, 16	; 0x40000
     378:	23040000 	movwcs	r0, #16384	; 0x4000
     37c:	00a91202 	adceq	r1, r9, r2, lsl #4
     380:	23030000 	movwcs	r0, #12288	; 0x3000
     384:	000804e8 	andeq	r0, r8, r8, ror #9
     388:	04000000 	streq	r0, [r0], #-0
     38c:	a9120224 	ldmdbge	r2, {r2, r5, r9}
     390:	03000000 	movweq	r0, #0
     394:	0804ec23 	stmdaeq	r4, {r0, r1, r5, sl, fp, sp, lr, pc}
     398:	000000aa 	andeq	r0, r0, sl, lsr #1
     39c:	12022504 	andne	r2, r2, #4, 10	; 0x1000000
     3a0:	000000a9 	andeq	r0, r0, r9, lsr #1
     3a4:	04f02303 	ldrbteq	r2, [r0], #771	; 0x303
     3a8:	00037308 	andeq	r7, r3, r8, lsl #6
     3ac:	02260400 	eoreq	r0, r6, #0, 8
     3b0:	0000a912 	andeq	sl, r0, r2, lsl r9
     3b4:	f4230300 	vld2.8	{d0-d3}, [r3], r0
     3b8:	03be0804 			; <UNDEFINED> instruction: 0x03be0804
     3bc:	27040000 	strcs	r0, [r4, -r0]
     3c0:	00a91202 	adceq	r1, r9, r2, lsl #4
     3c4:	23030000 	movwcs	r0, #12288	; 0x3000
     3c8:	0a0004f8 	beq	17b0 <__HEAP_SIZE+0x7b0>
     3cc:	00000098 	muleq	r0, r8, r0
     3d0:	000003db 	ldrdeq	r0, [r0], -fp
     3d4:	0000850b 	andeq	r8, r0, fp, lsl #10
     3d8:	05000b00 	streq	r0, [r0, #-2816]	; 0xfffff500
     3dc:	000003cb 	andeq	r0, r0, fp, asr #7
     3e0:	0000ae0a 	andeq	sl, r0, sl, lsl #28
     3e4:	0003f000 	andeq	pc, r3, r0
     3e8:	00850b00 	addeq	r0, r5, r0, lsl #22
     3ec:	00010000 	andeq	r0, r1, r0
     3f0:	0003e006 	andeq	lr, r3, r6
     3f4:	03f00500 	mvnseq	r0, #0, 10
     3f8:	ae0a0000 	cdpge	0, 0, cr0, cr10, cr0, {0}
     3fc:	0a000000 	beq	404 <__STACKSEAL_SIZE+0x404>
     400:	0b000004 	bleq	418 <__STACKSEAL_SIZE+0x418>
     404:	00000085 	andeq	r0, r0, r5, lsl #1
     408:	fa060003 	blx	18041c <__RAM_SIZE+0x8041c>
     40c:	05000003 	streq	r0, [r0, #-3]
     410:	0000040a 	andeq	r0, r0, sl, lsl #8
     414:	0000ae0a 	andeq	sl, r0, sl, lsl #28
     418:	00042400 	andeq	r2, r4, r0, lsl #8
     41c:	00850b00 	addeq	r0, r5, r0, lsl #22
     420:	00050000 	andeq	r0, r5, r0
     424:	00041406 	andeq	r1, r4, r6, lsl #8
     428:	04240500 	strteq	r0, [r4], #-1280	; 0xfffffb00
     42c:	9d0a0000 	stcls	0, cr0, [sl, #-0]
     430:	3e000000 	cdpcc	0, 0, cr0, cr0, cr0, {0}
     434:	0b000004 	bleq	44c <__STACKSEAL_SIZE+0x44c>
     438:	00000085 	andeq	r0, r0, r5, lsl #1
     43c:	9d0a0014 	stcls	0, cr0, [sl, #-80]	; 0xffffffb0
     440:	4e000000 	cdpmi	0, 0, cr0, cr0, cr0, {0}
     444:	0b000004 	bleq	45c <__STACKSEAL_SIZE+0x45c>
     448:	00000085 	andeq	r0, r0, r5, lsl #1
     44c:	9d0a0044 	stcls	0, cr0, [sl, #-272]	; 0xfffffef0
     450:	5e000000 	cdppl	0, 0, cr0, cr0, cr0, {0}
     454:	0b000004 	bleq	46c <__STACKSEAL_SIZE+0x46c>
     458:	00000085 	andeq	r0, r0, r5, lsl #1
     45c:	9d0a000e 	stcls	0, cr0, [sl, #-56]	; 0xffffffc8
     460:	6e000000 	cdpvs	0, 0, cr0, cr0, cr0, {0}
     464:	0b000004 	bleq	47c <__STACKSEAL_SIZE+0x47c>
     468:	00000085 	andeq	r0, r0, r5, lsl #1
     46c:	9e0c0000 	cdpls	0, 0, cr0, cr12, cr0, {0}
     470:	04000002 	streq	r0, [r0], #-2
     474:	c6030228 	strgt	r0, [r3], -r8, lsr #4
     478:	0d000000 	stceq	0, cr0, [r0, #-0]
     47c:	00008e01 	andeq	r8, r0, r1, lsl #28
     480:	055c0100 	ldrbeq	r0, [ip, #-256]	; 0xffffff00
     484:	00007901 	andeq	r7, r0, r1, lsl #18
     488:	00094c00 	andeq	r4, r9, r0, lsl #24
     48c:	00097810 	andeq	r7, r9, r0, lsl r8
     490:	00000010 	andeq	r0, r0, r0, lsl r0
     494:	04fa0100 	ldrbteq	r0, [sl], #256	; 0x100
     498:	8a0e0000 	bhi	3804a0 <__RAM_SIZE+0x2804a0>
     49c:	01000003 	tsteq	r0, r3
     4a0:	0079095d 	rsbseq	r0, r9, sp, asr r9
     4a4:	00260000 	eoreq	r0, r6, r0
     4a8:	00200000 	eoreq	r0, r0, r0
     4ac:	520f0000 	andpl	r0, pc, #0
     4b0:	f6100009 			; <UNDEFINED> instruction: 0xf6100009
     4b4:	10000009 	andne	r0, r0, r9
     4b8:	10000958 	andne	r0, r0, r8, asr r9
     4bc:	00000a04 	andeq	r0, r0, r4, lsl #20
     4c0:	000004ce 	andeq	r0, r0, lr, asr #9
     4c4:	05500111 	ldrbeq	r0, [r0, #-273]	; 0xfffffeef
     4c8:	00363803 	eorseq	r3, r6, r3, lsl #16
     4cc:	5c0f0010 	stcpl	0, cr0, [pc], {16}
     4d0:	11100009 	tstne	r0, r9
     4d4:	0f00000a 	svceq	0x0000000a
     4d8:	10000960 	andne	r0, r0, r0, ror #18
     4dc:	000004fa 	strdeq	r0, [r0], -sl
     4e0:	00096c12 	andeq	r6, r9, r2, lsl ip
     4e4:	000a1f10 	andeq	r1, sl, r0, lsl pc
     4e8:	50011100 	andpl	r1, r1, r0, lsl #2
     4ec:	36400305 	strbcc	r0, [r0], -r5, lsl #6
     4f0:	01111000 	tsteq	r1, r0
     4f4:	7f740251 	svcvc	0x00740251
     4f8:	01130000 	tsteq	r3, r0
     4fc:	000003b3 			; <UNDEFINED> instruction: 0x000003b3
     500:	01065701 	tsteq	r6, r1, lsl #14
     504:	10000934 	andne	r0, r0, r4, lsr r9
     508:	1000094c 	andne	r0, r0, ip, asr #18
     50c:	00000050 	andeq	r0, r0, r0, asr r0
     510:	00054f01 	andeq	r4, r5, r1, lsl #30
     514:	02f21400 	rscseq	r1, r2, #0, 8
     518:	055f0000 	ldrbeq	r0, [pc, #-0]	; 520 <__STACKSEAL_SIZE+0x520>
     51c:	05010000 	streq	r0, [r1, #-0]
     520:	00365403 	eorseq	r5, r6, r3, lsl #8
     524:	093e1010 	ldmdbeq	lr!, {r4, ip}
     528:	0a1f1000 	beq	7c4530 <__RAM_SIZE+0x6c4530>
     52c:	05450000 	strbeq	r0, [r5, #-0]
     530:	01110000 	tsteq	r1, r0
     534:	28030550 	stmdacs	r3, {r4, r6, r8, sl}
     538:	11100036 	tstne	r0, r6, lsr r0
     53c:	03055101 	movweq	r5, #20737	; 0x5101
     540:	10003654 	andne	r3, r0, r4, asr r6
     544:	09420f00 	stmdbeq	r2, {r8, r9, sl, fp}^
     548:	05641000 	strbeq	r1, [r4, #-0]!
     54c:	0a000000 	beq	554 <__STACKSEAL_SIZE+0x554>
     550:	000000c1 	andeq	r0, r0, r1, asr #1
     554:	0000055f 	andeq	r0, r0, pc, asr r5
     558:	0000850b 	andeq	r8, r0, fp, lsl #10
     55c:	06000500 	streq	r0, [r0], -r0, lsl #10
     560:	0000054f 	andeq	r0, r0, pc, asr #10
     564:	03ad0113 			; <UNDEFINED> instruction: 0x03ad0113
     568:	52010000 	andpl	r0, r1, #0
     56c:	091c0106 	ldmdbeq	ip, {r1, r2, r8}
     570:	09341000 	ldmdbeq	r4!, {ip}
     574:	00701000 	rsbseq	r1, r0, r0
     578:	b9010000 	stmdblt	r1, {}	; <UNPREDICTABLE>
     57c:	14000005 	strne	r0, [r0], #-5
     580:	000002f2 	strdeq	r0, [r0], -r2
     584:	0000055f 	andeq	r0, r0, pc, asr r5
     588:	5c030501 	cfstr32pl	mvfx0, [r3], {1}
     58c:	10100036 	andsne	r0, r0, r6, lsr r0
     590:	10000926 	andne	r0, r0, r6, lsr #18
     594:	00000a1f 	andeq	r0, r0, pc, lsl sl
     598:	000005af 	andeq	r0, r0, pc, lsr #11
     59c:	05500111 	ldrbeq	r0, [r0, #-273]	; 0xfffffeef
     5a0:	00362803 	eorseq	r2, r6, r3, lsl #16
     5a4:	51011110 	tstpl	r1, r0, lsl r1
     5a8:	365c0305 	ldrbcc	r0, [ip], -r5, lsl #6
     5ac:	0f001000 	svceq	0x00001000
     5b0:	1000092a 	andne	r0, r0, sl, lsr #18
     5b4:	000005b9 			; <UNDEFINED> instruction: 0x000005b9
     5b8:	12011300 	andne	r1, r1, #0, 6
     5bc:	01000001 	tsteq	r0, r1
     5c0:	0401064d 	streq	r0, [r1], #-1613	; 0xfffff9b3
     5c4:	1c100009 	ldcne	0, cr0, [r0], {9}
     5c8:	90100009 	andsls	r0, r0, r9
     5cc:	01000000 	mrseq	r0, (UNDEF: 0)
     5d0:	0000060e 	andeq	r0, r0, lr, lsl #12
     5d4:	0002f214 	andeq	pc, r2, r4, lsl r2	; <UNPREDICTABLE>
     5d8:	00055f00 	andeq	r5, r5, r0, lsl #30
     5dc:	03050100 	movweq	r0, #20736	; 0x5100
     5e0:	10003664 	andne	r3, r0, r4, ror #12
     5e4:	00090e10 	andeq	r0, r9, r0, lsl lr
     5e8:	000a1f10 	andeq	r1, sl, r0, lsl pc
     5ec:	00060400 	andeq	r0, r6, r0, lsl #8
     5f0:	50011100 	andpl	r1, r1, r0, lsl #2
     5f4:	36280305 	strtcc	r0, [r8], -r5, lsl #6
     5f8:	01111000 	tsteq	r1, r0
     5fc:	64030551 	strvs	r0, [r3], #-1361	; 0xfffffaaf
     600:	00100036 	andseq	r0, r0, r6, lsr r0
     604:	0009120f 	andeq	r1, r9, pc, lsl #4
     608:	00060e10 	andeq	r0, r6, r0, lsl lr
     60c:	01130000 	tsteq	r3, r0
     610:	0000010c 	andeq	r0, r0, ip, lsl #2
     614:	01064801 	tsteq	r6, r1, lsl #16
     618:	100008ec 	andne	r0, r0, ip, ror #17
     61c:	10000904 	andne	r0, r0, r4, lsl #18
     620:	000000b0 	strheq	r0, [r0], -r0	; <UNPREDICTABLE>
     624:	00066301 	andeq	r6, r6, r1, lsl #6
     628:	02f21400 	rscseq	r1, r2, #0, 8
     62c:	055f0000 	ldrbeq	r0, [pc, #-0]	; 634 <__STACKSEAL_SIZE+0x634>
     630:	05010000 	streq	r0, [r1, #-0]
     634:	00366c03 	eorseq	r6, r6, r3, lsl #24
     638:	08f61010 	ldmeq	r6!, {r4, ip}^
     63c:	0a1f1000 	beq	7c4644 <__RAM_SIZE+0x6c4644>
     640:	06590000 	ldrbeq	r0, [r9], -r0
     644:	01110000 	tsteq	r1, r0
     648:	28030550 	stmdacs	r3, {r4, r6, r8, sl}
     64c:	11100036 	tstne	r0, r6, lsr r0
     650:	03055101 	movweq	r5, #20737	; 0x5101
     654:	1000366c 	andne	r3, r0, ip, ror #12
     658:	08fa0f00 	ldmeq	sl!, {r8, r9, sl, fp}^
     65c:	06631000 	strbteq	r1, [r3], -r0
     660:	13000000 	movwne	r0, #0
     664:	00010601 	andeq	r0, r1, r1, lsl #12
     668:	06430100 	strbeq	r0, [r3], -r0, lsl #2
     66c:	0008d401 	andeq	sp, r8, r1, lsl #8
     670:	0008ec10 	andeq	lr, r8, r0, lsl ip
     674:	0000d010 	andeq	sp, r0, r0, lsl r0
     678:	06b80100 	ldrteq	r0, [r8], r0, lsl #2
     67c:	f2140000 	vhadd.s16	d0, d4, d0
     680:	5f000002 	svcpl	0x00000002
     684:	01000005 	tsteq	r0, r5
     688:	36740305 	ldrbtcc	r0, [r4], -r5, lsl #6
     68c:	de101000 	cdple	0, 1, cr1, cr0, cr0, {0}
     690:	1f100008 	svcne	0x00100008
     694:	ae00000a 	cdpge	0, 0, cr0, cr0, cr10, {0}
     698:	11000006 	tstne	r0, r6
     69c:	03055001 	movweq	r5, #20481	; 0x5001
     6a0:	10003628 	andne	r3, r0, r8, lsr #12
     6a4:	05510111 	ldrbeq	r0, [r1, #-273]	; 0xfffffeef
     6a8:	00367403 	eorseq	r7, r6, r3, lsl #8
     6ac:	e20f0010 	and	r0, pc, #16
     6b0:	b8100008 	ldmdalt	r0, {r3}
     6b4:	00000006 	andeq	r0, r0, r6
     6b8:	03a70113 			; <UNDEFINED> instruction: 0x03a70113
     6bc:	3c010000 	stccc	0, cr0, [r1], {-0}
     6c0:	08b80106 	ldmeq	r8!, {r1, r2, r8}
     6c4:	08d41000 	ldmeq	r4, {ip}^
     6c8:	00f01000 	rscseq	r1, r0, r0
     6cc:	16010000 	strne	r0, [r1], -r0
     6d0:	14000007 	strne	r0, [r0], #-7
     6d4:	000002f2 	strdeq	r0, [r0], -r2
     6d8:	0000055f 	andeq	r0, r0, pc, asr r5
     6dc:	7c030501 	cfstr32vc	mvfx0, [r3], {1}
     6e0:	10100036 	andsne	r0, r0, r6, lsr r0
     6e4:	100008c2 	andne	r0, r0, r2, asr #17
     6e8:	00000a1f 	andeq	r0, r0, pc, lsl sl
     6ec:	00000703 	andeq	r0, r0, r3, lsl #14
     6f0:	05500111 	ldrbeq	r0, [r0, #-273]	; 0xfffffeef
     6f4:	00362803 	eorseq	r2, r6, r3, lsl #16
     6f8:	51011110 	tstpl	r1, r0, lsl r1
     6fc:	367c0305 	ldrbtcc	r0, [ip], -r5, lsl #6
     700:	0f001000 	svceq	0x00001000
     704:	100008c6 	andne	r0, r0, r6, asr #17
     708:	00000716 	andeq	r0, r0, r6, lsl r7
     70c:	0008ca0f 	andeq	ip, r8, pc, lsl #20
     710:	00085610 	andeq	r5, r8, r0, lsl r6
     714:	01130000 	tsteq	r3, r0
     718:	0000024c 	andeq	r0, r0, ip, asr #4
     71c:	01062c01 	tsteq	r6, r1, lsl #24
     720:	10000850 	andne	r0, r0, r0, asr r8
     724:	100008b8 			; <UNDEFINED> instruction: 0x100008b8
     728:	00000110 	andeq	r0, r0, r0, lsl r1
     72c:	00084601 	andeq	r4, r8, r1, lsl #12
     730:	04c31500 	strbeq	r1, [r3], #1280	; 0x500
     734:	2d010000 	stccs	0, cr0, [r1, #-0]
     738:	00084612 	andeq	r4, r8, r2, lsl r6
     73c:	f0910300 			; <UNDEFINED> instruction: 0xf0910300
     740:	01380e7d 	teqeq	r8, sp, ror lr
     744:	2e010000 	cdpcs	0, 0, cr0, cr1, cr0, {0}
     748:	00008512 	andeq	r8, r0, r2, lsl r5
     74c:	00014f00 	andeq	r4, r1, r0, lsl #30
     750:	00014900 	andeq	r4, r1, r0, lsl #18
     754:	00f60e00 	rscseq	r0, r6, r0, lsl #28
     758:	2f010000 	svccs	0x00010000
     75c:	00008512 	andeq	r8, r0, r2, lsl r5
     760:	00017c00 	andeq	r7, r1, r0, lsl #24
     764:	00017800 	andeq	r7, r1, r0, lsl #16
     768:	038a0e00 	orreq	r0, sl, #0, 28
     76c:	30010000 	andcc	r0, r1, r0
     770:	00007909 	andeq	r7, r0, r9, lsl #18
     774:	0001a200 	andeq	sl, r1, r0, lsl #4
     778:	00019a00 	andeq	r9, r1, r0, lsl #20
     77c:	00001600 	andeq	r1, r0, r0, lsl #12
     780:	07ac0000 	streq	r0, [ip, r0]!
     784:	69170000 	ldmdbvs	r7, {}	; <UNPREDICTABLE>
     788:	12350100 	eorsne	r0, r5, #0, 2
     78c:	00000079 	andeq	r0, r0, r9, ror r0
     790:	000001da 	ldrdeq	r0, [r0], -sl
     794:	000001d6 	ldrdeq	r0, [r0], -r6
     798:	00089812 	andeq	r9, r8, r2, lsl r8
     79c:	000a1f10 	andeq	r1, sl, r0, lsl pc
     7a0:	50011100 	andpl	r1, r1, r0, lsl #2
     7a4:	361c0305 	ldrcc	r0, [ip], -r5, lsl #6
     7a8:	00001000 	andeq	r1, r0, r0
     7ac:	00086010 	andeq	r6, r8, r0, lsl r0
     7b0:	000a2d10 	andeq	r2, sl, r0, lsl sp
     7b4:	0007cc00 	andeq	ip, r7, r0, lsl #24
     7b8:	50011100 	andpl	r1, r1, r0, lsl #2
     7bc:	11007d02 	tstne	r0, r2, lsl #26
     7c0:	30015101 	andcc	r5, r1, r1, lsl #2
     7c4:	03520111 	cmpeq	r2, #1073741828	; 0x40000004
     7c8:	0001000a 	andeq	r0, r1, sl
     7cc:	0008640f 	andeq	r6, r8, pc, lsl #8
     7d0:	000a3a10 	andeq	r3, sl, r0, lsl sl
     7d4:	086a0f00 	stmdaeq	sl!, {r8, r9, sl, fp}^
     7d8:	0a481000 	beq	12047e0 <__RAM_SIZE+0x11047e0>
     7dc:	76100000 	ldrvc	r0, [r0], -r0
     7e0:	56100008 	ldrpl	r0, [r0], -r8
     7e4:	fe00000a 	cdp2	0, 0, cr0, cr0, cr10, {0}
     7e8:	11000007 	tstne	r0, r7
     7ec:	7d025001 	stcvc	0, cr5, [r2, #-4]
     7f0:	51011100 	mrspl	r1, (UNDEF: 17)
     7f4:	11400802 	cmpne	r0, r2, lsl #16
     7f8:	74025201 	strvc	r5, [r2], #-513	; 0xfffffdff
     7fc:	80100000 	andshi	r0, r0, r0
     800:	1f100008 	svcne	0x00100008
     804:	1500000a 	strne	r0, [r0, #-10]
     808:	11000008 	tstne	r0, r8
     80c:	03055001 	movweq	r5, #20481	; 0x5001
     810:	1000360c 	andne	r3, r0, ip, lsl #12
     814:	088c1000 	stmeq	ip, {ip}
     818:	0a1f1000 	beq	7c4820 <__RAM_SIZE+0x6c4820>
     81c:	08320000 	ldmdaeq	r2!, {}	; <UNPREDICTABLE>
     820:	01110000 	tsteq	r1, r0
     824:	f0030550 			; <UNDEFINED> instruction: 0xf0030550
     828:	11100035 	tstne	r0, r5, lsr r0
     82c:	75025101 	strvc	r5, [r2, #-257]	; 0xfffffeff
     830:	a4120000 	ldrge	r0, [r2], #-0
     834:	04100008 	ldreq	r0, [r0], #-8
     838:	1100000a 	tstne	r0, sl
     83c:	03055001 	movweq	r5, #20481	; 0x5001
     840:	10003624 	andne	r3, r0, r4, lsr #12
     844:	850a0000 	strhi	r0, [sl, #-0]
     848:	56000000 	strpl	r0, [r0], -r0
     84c:	0b000008 	bleq	874 <__Vectors_Size+0xb4>
     850:	00000085 	andeq	r0, r0, r5, lsl #1
     854:	0113003f 	tsteq	r3, pc, lsr r0
     858:	000002c3 	andeq	r0, r0, r3, asr #5
     85c:	01061c01 	tsteq	r6, r1, lsl #24
     860:	10000804 	andne	r0, r0, r4, lsl #16
     864:	10000850 	andne	r0, r0, r0, asr r8
     868:	000001f9 	strdeq	r0, [r0], -r9
     86c:	0008dd01 	andeq	sp, r8, r1, lsl #26
     870:	00150e00 	andseq	r0, r5, r0, lsl #28
     874:	1d010000 	stcne	0, cr0, [r1, #-0]
     878:	0008dd13 	andeq	sp, r8, r3, lsl sp
     87c:	00023700 	andeq	r3, r2, r0, lsl #14
     880:	00023100 	andeq	r3, r2, r0, lsl #2
     884:	00c11500 	sbceq	r1, r1, r0, lsl #10
     888:	1e010000 	cdpne	0, 0, cr0, cr1, cr0, {0}
     88c:	00008012 	andeq	r8, r0, r2, lsl r0
     890:	6c910200 	lfmvs	f0, 4, [r1], {0}
     894:	00082610 	andeq	r2, r8, r0, lsl r6
     898:	000a1f10 	andeq	r1, sl, r0, lsl pc
     89c:	0008ae00 	andeq	sl, r8, r0, lsl #28
     8a0:	50011100 	andpl	r1, r1, r0, lsl #2
     8a4:	11007502 	tstne	r0, r2, lsl #10
     8a8:	74025101 	strvc	r5, [r2], #-257	; 0xfffffeff
     8ac:	34100000 	ldrcc	r0, [r0], #-0
     8b0:	1f100008 	svcne	0x00100008
     8b4:	c700000a 	strgt	r0, [r0, -sl]
     8b8:	11000008 	tstne	r0, r8
     8bc:	75025001 	strvc	r5, [r2, #-1]
     8c0:	51011100 	mrspl	r1, (UNDEF: 17)
     8c4:	12003401 	andne	r3, r0, #16777216	; 0x1000000
     8c8:	10000844 	andne	r0, r0, r4, asr #16
     8cc:	00000a1f 	andeq	r0, r0, pc, lsl sl
     8d0:	02500111 	subseq	r0, r0, #1073741828	; 0x40000004
     8d4:	01110075 	tsteq	r1, r5, ror r0
     8d8:	00330151 	eorseq	r0, r3, r1, asr r1
     8dc:	80041800 	andhi	r1, r4, r0, lsl #16
     8e0:	13000000 	movwne	r0, #0
     8e4:	00035c01 	andeq	r5, r3, r1, lsl #24
     8e8:	06140100 	ldreq	r0, [r4], -r0, lsl #2
     8ec:	00000001 	andeq	r0, r0, r1
     8f0:	00000000 	andeq	r0, r0, r0
     8f4:	00026300 	andeq	r6, r2, r0, lsl #6
     8f8:	09380100 	ldmdbeq	r8!, {r8}
     8fc:	61190000 	tstvs	r9, r0
     900:	09150100 	ldmdbeq	r5, {r8}
     904:	00000079 	andeq	r0, r0, r9, ror r0
     908:	00621900 	rsbeq	r1, r2, r0, lsl #18
     90c:	79101501 	ldmdbvc	r0, {r0, r8, sl, ip}
     910:	00000000 	andeq	r0, r0, r0
     914:	01006319 	tsteq	r0, r9, lsl r3
     918:	00791715 	rsbseq	r1, r9, r5, lsl r7
     91c:	12000000 	andne	r0, r0, #0
     920:	00000000 	andeq	r0, r0, r0
     924:	00000a1f 	andeq	r0, r0, pc, lsl sl
     928:	05500111 	ldrbeq	r0, [r0, #-273]	; 0xfffffeef
     92c:	00000003 	andeq	r0, r0, r3
     930:	51011100 	mrspl	r1, (UNDEF: 17)
     934:	00003001 	andeq	r3, r0, r1
     938:	031d0113 	tsteq	sp, #-1073741820	; 0xc0000004
     93c:	10010000 	andne	r0, r1, r0
     940:	00000106 	andeq	r0, r0, r6, lsl #2
     944:	00000000 	andeq	r0, r0, r0
     948:	02830000 	addeq	r0, r3, #0
     94c:	77010000 	strvc	r0, [r1, -r0]
     950:	14000009 	strne	r0, [r0], #-9
     954:	000002f2 	strdeq	r0, [r0], -r2
     958:	00000987 	andeq	r0, r0, r7, lsl #19
     95c:	00030501 	andeq	r0, r3, r1, lsl #10
     960:	12000000 	andne	r0, r0, #0
     964:	00000000 	andeq	r0, r0, r0
     968:	00000a04 	andeq	r0, r0, r4, lsl #20
     96c:	05500111 	ldrbeq	r0, [r0, #-273]	; 0xfffffeef
     970:	00000003 	andeq	r0, r0, r3
     974:	0a000000 	beq	97c <__Vectors_Size+0x1bc>
     978:	000000c1 	andeq	r0, r0, r1, asr #1
     97c:	00000987 	andeq	r0, r0, r7, lsl #19
     980:	0000850b 	andeq	r8, r0, fp, lsl #10
     984:	06000f00 	streq	r0, [r0], -r0, lsl #30
     988:	00000977 	andeq	r0, r0, r7, ror r9
     98c:	01440113 	cmpeq	r4, r3, lsl r1
     990:	0c010000 	stceq	0, cr0, [r1], {-0}
     994:	00000106 	andeq	r0, r0, r6, lsl #2
     998:	00000000 	andeq	r0, r0, r0
     99c:	02a30000 	adceq	r0, r3, #0
     9a0:	cb010000 	blgt	409a8 <__HEAP_SIZE+0x3f9a8>
     9a4:	14000009 	strne	r0, [r0], #-9
     9a8:	000002f2 	strdeq	r0, [r0], -r2
     9ac:	000009db 	ldrdeq	r0, [r0], -fp
     9b0:	00030501 	andeq	r0, r3, r1, lsl #10
     9b4:	12000000 	andne	r0, r0, #0
     9b8:	00000000 	andeq	r0, r0, r0
     9bc:	00000a04 	andeq	r0, r0, r4, lsl #20
     9c0:	05500111 	ldrbeq	r0, [r0, #-273]	; 0xfffffeef
     9c4:	00000003 	andeq	r0, r0, r3
     9c8:	0a000000 	beq	9d0 <__Vectors_Size+0x210>
     9cc:	000000c1 	andeq	r0, r0, r1, asr #1
     9d0:	000009db 	ldrdeq	r0, [r0], -fp
     9d4:	0000850b 	andeq	r8, r0, fp, lsl #10
     9d8:	06001900 	streq	r1, [r0], -r0, lsl #18
     9dc:	000009cb 	andeq	r0, r0, fp, asr #19
     9e0:	0390011a 	orrseq	r0, r0, #-2147483642	; 0x80000006
     9e4:	08010000 	stmdaeq	r1, {}	; <UNPREDICTABLE>
     9e8:	08000106 	stmdaeq	r0, {r1, r2, r8}
     9ec:	08021000 	stmdaeq	r2, {ip}
     9f0:	7d021000 	stcvc	0, cr1, [r2, #-0]
     9f4:	011b0100 	tsteq	fp, r0, lsl #2
     9f8:	00008401 	andeq	r8, r0, r1, lsl #8
     9fc:	00008400 	andeq	r8, r0, r0, lsl #8
     a00:	06060500 	streq	r0, [r6], -r0, lsl #10
     a04:	1001011c 	andne	r0, r1, ip, lsl r1
     a08:	06000000 	streq	r0, [r0], -r0
     a0c:	08000000 	stmdaeq	r0, {}	; <UNPREDICTABLE>
     a10:	01011b00 	tsteq	r1, r0, lsl #22
     a14:	0000028e 	andeq	r0, r0, lr, lsl #5
     a18:	0000028e 	andeq	r0, r0, lr, lsl #5
     a1c:	1b064206 	blne	19123c <__RAM_SIZE+0x9123c>
     a20:	05460101 	strbeq	r0, [r6, #-257]	; 0xfffffeff
     a24:	05460000 	strbeq	r0, [r6, #-0]
     a28:	c8070000 	stmdagt	r7, {}	; <UNPREDICTABLE>
     a2c:	01011c05 	tsteq	r1, r5, lsl #24
     a30:	000000d1 	ldrdeq	r0, [r0], -r1
     a34:	000000c7 	andeq	r0, r0, r7, asr #1
     a38:	011b0008 	tsteq	fp, r8
     a3c:	00012401 	andeq	r2, r1, r1, lsl #8
     a40:	00012400 	andeq	r2, r1, r0, lsl #8
     a44:	0e460600 	cdpeq	6, 4, cr0, cr6, cr0, {0}
     a48:	e201011b 	and	r0, r1, #-1073741818	; 0xc0000006
     a4c:	e2000000 	and	r0, r0, #0
     a50:	06000000 	streq	r0, [r0], -r0
     a54:	011b0e47 	tsteq	fp, r7, asr #28
     a58:	00024601 	andeq	r4, r2, r1, lsl #12
     a5c:	00024600 	andeq	r4, r2, r0, lsl #12
     a60:	06440600 	strbeq	r0, [r4], -r0, lsl #12
     a64:	0004e500 	andeq	lr, r4, r0, lsl #10
     a68:	ad000200 	sfmge	f0, 4, [r0, #-0]
     a6c:	04000001 	streq	r0, [r0], #-1
     a70:	00018801 	andeq	r8, r1, r1, lsl #16
     a74:	04180c00 	ldreq	r0, [r8], #-3072	; 0xfffff400
     a78:	001a0000 	andseq	r0, sl, r0
     a7c:	00880000 	addeq	r0, r8, r0
	...
     a88:	03fa0000 	mvnseq	r0, #0
     a8c:	01020000 	mrseq	r0, (UNDEF: 2)
     a90:	00027206 	andeq	r7, r2, r6, lsl #4
     a94:	017e0300 	cmneq	lr, r0, lsl #6
     a98:	2b020000 	blcs	80aa0 <__HEAP_SIZE+0x7faa0>
     a9c:	00003c18 	andeq	r3, r0, r8, lsl ip
     aa0:	08010200 	stmdaeq	r1, {r9}
     aa4:	00000270 	andeq	r0, r0, r0, ror r2
     aa8:	6d050202 	sfmvs	f0, 4, [r5, #-8]
     aac:	02000000 	andeq	r0, r0, #0
     ab0:	03020702 	movweq	r0, #9986	; 0x2702
     ab4:	04020000 	streq	r0, [r2], #-0
     ab8:	00016905 	andeq	r6, r1, r5, lsl #18
     abc:	009f0300 	addseq	r0, pc, r0, lsl #6
     ac0:	4f020000 	svcmi	0x00020000
     ac4:	00006419 	andeq	r6, r0, r9, lsl r4
     ac8:	07040200 	streq	r0, [r4, -r0, lsl #4]
     acc:	000002b1 			; <UNDEFINED> instruction: 0x000002b1
     ad0:	64050802 	strvs	r0, [r5], #-2050	; 0xfffff7fe
     ad4:	02000001 	andeq	r0, r0, #1
     ad8:	02ac0708 	adceq	r0, ip, #8, 14	; 0x200000
     adc:	04040000 	streq	r0, [r4], #-0
     ae0:	746e6905 	strbtvc	r6, [lr], #-2309	; 0xfffff6fb
     ae4:	07040200 	streq	r0, [r4, -r0, lsl #4]
     ae8:	000002b6 			; <UNDEFINED> instruction: 0x000002b6
     aec:	00018003 	andeq	r8, r1, r3
     af0:	13180300 	tstne	r8, #0, 6
     af4:	00000030 	andeq	r0, r0, r0, lsr r0
     af8:	00008705 	andeq	r8, r0, r5, lsl #14
     afc:	00a10300 	adceq	r0, r1, r0, lsl #6
     b00:	30030000 	andcc	r0, r3, r0
     b04:	00005814 	andeq	r5, r0, r4, lsl r8
     b08:	00980500 	addseq	r0, r8, r0, lsl #10
     b0c:	a4060000 	strge	r0, [r6], #-0
     b10:	07000000 	streq	r0, [r0, -r0]
     b14:	f804027c 			; <UNDEFINED> instruction: 0xf804027c
     b18:	03b30901 			; <UNDEFINED> instruction: 0x03b30901
     b1c:	bb080000 	bllt	200b24 <__RAM_SIZE+0x100b24>
     b20:	04000000 	streq	r0, [r0], #-0
     b24:	a91201fa 	ldmdbge	r2, {r1, r3, r4, r5, r6, r7, r8}
     b28:	02000000 	andeq	r0, r0, #0
     b2c:	cc080023 	stcgt	0, cr0, [r8], {35}	; 0x23
     b30:	04000003 	streq	r0, [r0], #-3
     b34:	a41201fb 	ldrge	r0, [r2], #-507	; 0xfffffe05
     b38:	02000000 	andeq	r0, r0, #0
     b3c:	2d080423 	cfstrscs	mvf0, [r8, #-140]	; 0xffffff74
     b40:	04000003 	streq	r0, [r0], #-3
     b44:	a41201fc 	ldrge	r0, [r2], #-508	; 0xfffffe04
     b48:	02000000 	andeq	r0, r0, #0
     b4c:	d7080823 	strle	r0, [r8, -r3, lsr #16]
     b50:	04000003 	streq	r0, [r0], #-3
     b54:	a41201fd 	ldrge	r0, [r2], #-509	; 0xfffffe03
     b58:	02000000 	andeq	r0, r0, #0
     b5c:	53090c23 	movwpl	r0, #39971	; 0x9c23
     b60:	04005243 	streq	r5, [r0], #-579	; 0xfffffdbd
     b64:	a41201fe 	ldrge	r0, [r2], #-510	; 0xfffffe02
     b68:	02000000 	andeq	r0, r0, #0
     b6c:	43091023 	movwmi	r1, #36899	; 0x9023
     b70:	04005243 	streq	r5, [r0], #-579	; 0xfffffdbd
     b74:	a41201ff 	ldrge	r0, [r2], #-511	; 0xfffffe01
     b78:	02000000 	andeq	r0, r0, #0
     b7c:	a7081423 	strge	r1, [r8, -r3, lsr #8]
     b80:	04000002 	streq	r0, [r0], #-2
     b84:	c3120200 	tstgt	r2, #0, 4
     b88:	02000003 	andeq	r0, r0, #3
     b8c:	de081823 	cdple	8, 0, cr1, cr8, cr3, {1}
     b90:	04000002 	streq	r0, [r0], #-2
     b94:	a4120201 	ldrge	r0, [r2], #-513	; 0xfffffdff
     b98:	02000000 	andeq	r0, r0, #0
     b9c:	5b082423 	blpl	209c30 <__RAM_SIZE+0x109c30>
     ba0:	04000002 	streq	r0, [r0], #-2
     ba4:	a4120202 	ldrge	r0, [r2], #-514	; 0xfffffdfe
     ba8:	02000000 	andeq	r0, r0, #0
     bac:	37082823 	strcc	r2, [r8, -r3, lsr #16]
     bb0:	04000003 	streq	r0, [r0], #-3
     bb4:	a4120203 	ldrge	r0, [r2], #-515	; 0xfffffdfd
     bb8:	02000000 	andeq	r0, r0, #0
     bbc:	32082c23 	andcc	r2, r8, #8960	; 0x2300
     bc0:	04000003 	streq	r0, [r0], #-3
     bc4:	a4120204 	ldrge	r0, [r2], #-516	; 0xfffffdfc
     bc8:	02000000 	andeq	r0, r0, #0
     bcc:	61083023 	tstvs	r8, r3, lsr #32
     bd0:	04000000 	streq	r0, [r0], #-0
     bd4:	a4120205 	ldrge	r0, [r2], #-517	; 0xfffffdfb
     bd8:	02000000 	andeq	r0, r0, #0
     bdc:	72083423 	andvc	r3, r8, #587202560	; 0x23000000
     be0:	04000001 	streq	r0, [r0], #-1
     be4:	a4120206 	ldrge	r0, [r2], #-518	; 0xfffffdfa
     be8:	02000000 	andeq	r0, r0, #0
     bec:	b9083823 	stmdblt	r8, {r0, r1, r5, fp, ip, sp}
     bf0:	04000003 	streq	r0, [r0], #-3
     bf4:	a4120207 	ldrge	r0, [r2], #-519	; 0xfffffdf9
     bf8:	02000000 	andeq	r0, r0, #0
     bfc:	7d083c23 	stcvc	12, cr3, [r8, #-140]	; 0xffffff74
     c00:	04000000 	streq	r0, [r0], #-0
     c04:	dd120208 	lfmle	f0, 4, [r2, #-32]	; 0xffffffe0
     c08:	02000003 	andeq	r0, r0, #3
     c0c:	c5084023 	strgt	r4, [r8, #-35]	; 0xffffffdd
     c10:	04000003 	streq	r0, [r0], #-3
     c14:	a9120209 	ldmdbge	r2, {r0, r3, r9}
     c18:	02000000 	andeq	r0, r0, #0
     c1c:	1d084823 	stcne	8, cr4, [r8, #-140]	; 0xffffff74
     c20:	04000001 	streq	r0, [r0], #-1
     c24:	a912020a 	ldmdbge	r2, {r1, r3, r9}
     c28:	02000000 	andeq	r0, r0, #0
     c2c:	b3084c23 	movwlt	r4, #35875	; 0x8c23
     c30:	04000000 	streq	r0, [r0], #-0
     c34:	f712020b 			; <UNDEFINED> instruction: 0xf712020b
     c38:	02000003 	andeq	r0, r0, #3
     c3c:	86085023 	strhi	r5, [r8], -r3, lsr #32
     c40:	04000002 	streq	r0, [r0], #-2
     c44:	1112020c 	tstne	r2, ip, lsl #4
     c48:	02000004 	andeq	r0, r0, #4
     c4c:	84086023 	strhi	r6, [r8], #-35	; 0xffffffdd
     c50:	04000003 	streq	r0, [r0], #-3
     c54:	a912020d 	ldmdbge	r2, {r0, r2, r3, r9}
     c58:	02000000 	andeq	r0, r0, #0
     c5c:	43097823 	movwmi	r7, #38947	; 0x9823
     c60:	04005254 	streq	r5, [r0], #-596	; 0xfffffdac
     c64:	a912020e 	ldmdbge	r2, {r1, r2, r3, r9}
     c68:	02000000 	andeq	r0, r0, #0
     c6c:	77087c23 	strvc	r7, [r8, -r3, lsr #24]
     c70:	04000001 	streq	r0, [r0], #-1
     c74:	a912020f 	ldmdbge	r2, {r0, r1, r2, r3, r9}
     c78:	03000000 	movweq	r0, #0
     c7c:	08018023 	stmdaeq	r1, {r0, r1, r5, pc}
     c80:	000002fb 	strdeq	r0, [r0], -fp
     c84:	12021004 	andne	r1, r2, #4
     c88:	000000a4 	andeq	r0, r0, r4, lsr #1
     c8c:	01842303 	orreq	r2, r4, r3, lsl #6
     c90:	0003d108 	andeq	sp, r3, r8, lsl #2
     c94:	02110400 	andseq	r0, r1, #0, 8
     c98:	0000a412 	andeq	sl, r0, r2, lsl r4
     c9c:	88230300 	stmdahi	r3!, {r8, r9}
     ca0:	02ec0801 	rsceq	r0, ip, #65536	; 0x10000
     ca4:	12040000 	andne	r0, r4, #0
     ca8:	00a41202 	adceq	r1, r4, r2, lsl #4
     cac:	23030000 	movwcs	r0, #12288	; 0x3000
     cb0:	7a08018c 	bvc	2012e8 <__RAM_SIZE+0x1012e8>
     cb4:	04000003 	streq	r0, [r0], #-3
     cb8:	16120213 			; <UNDEFINED> instruction: 0x16120213
     cbc:	03000004 	movweq	r0, #4
     cc0:	08019023 	stmdaeq	r1, {r0, r1, r5, ip, pc}
     cc4:	000002d9 	ldrdeq	r0, [r0], -r9
     cc8:	12021404 	andne	r1, r2, #4, 8	; 0x4000000
     ccc:	000000a4 	andeq	r0, r0, r4, lsr #1
     cd0:	01e42303 	mvneq	r2, r3, lsl #6
     cd4:	00035708 	andeq	r5, r3, r8, lsl #14
     cd8:	02150400 	andseq	r0, r5, #0, 8
     cdc:	0000a412 	andeq	sl, r0, r2, lsl r4
     ce0:	e8230300 	stmda	r3!, {r8, r9}
     ce4:	033c0801 	teqeq	ip, #65536	; 0x10000
     ce8:	16040000 	strne	r0, [r4], -r0
     cec:	04261202 	strteq	r1, [r6], #-514	; 0xfffffdfe
     cf0:	23030000 	movwcs	r0, #12288	; 0x3000
     cf4:	180801ec 	stmdane	r8, {r2, r3, r5, r6, r7, r8}
     cf8:	04000001 	streq	r0, [r0], #-1
     cfc:	a4120217 	ldrge	r0, [r2], #-535	; 0xfffffde9
     d00:	03000000 	movweq	r0, #0
     d04:	08048023 	stmdaeq	r4, {r0, r1, r5, pc}
     d08:	000000d8 	ldrdeq	r0, [r0], -r8
     d0c:	12021804 	andne	r1, r2, #4, 16	; 0x40000
     d10:	00000436 	andeq	r0, r0, r6, lsr r4
     d14:	04842303 	streq	r2, [r4], #771	; 0x303
     d18:	00006708 	andeq	r6, r0, r8, lsl #14
     d1c:	02190400 	andseq	r0, r9, #0, 8
     d20:	0000a912 	andeq	sl, r0, r2, lsl r9
     d24:	c0230300 	eorgt	r0, r3, r0, lsl #6
     d28:	00770804 	rsbseq	r0, r7, r4, lsl #16
     d2c:	1a040000 	bne	100d34 <__RAM_SIZE+0xd34>
     d30:	00a91202 	adceq	r1, r9, r2, lsl #4
     d34:	23030000 	movwcs	r0, #12288	; 0x3000
     d38:	5e0804c4 	cdppl	4, 0, cr0, cr8, cr4, {6}
     d3c:	04000001 	streq	r0, [r0], #-1
     d40:	a912021b 	ldmdbge	r2, {r0, r1, r3, r4, r9}
     d44:	03000000 	movweq	r0, #0
     d48:	0804c823 	stmdaeq	r4, {r0, r1, r5, fp, lr, pc}
     d4c:	0000034d 	andeq	r0, r0, sp, asr #6
     d50:	12021c04 	andne	r1, r2, #4, 24	; 0x400
     d54:	00000446 	andeq	r0, r0, r6, asr #8
     d58:	04cc2303 	strbeq	r2, [ip], #771	; 0x303
     d5c:	00026008 	andeq	r6, r2, r8
     d60:	021d0400 	andseq	r0, sp, #0, 8
     d64:	0000a412 	andeq	sl, r0, r2, lsl r4
     d68:	d0230300 	eorle	r0, r3, r0, lsl #6
     d6c:	00fc0804 	rscseq	r0, ip, r4, lsl #16
     d70:	1e040000 	cdpne	0, 0, cr0, cr4, cr0, {0}
     d74:	04461202 	strbeq	r1, [r6], #-514	; 0xfffffdfe
     d78:	23030000 	movwcs	r0, #12288	; 0x3000
     d7c:	7e0804d4 	mcrvc	4, 0, r0, cr8, cr4, {6}
     d80:	04000002 	streq	r0, [r0], #-2
     d84:	a412021f 	ldrge	r0, [r2], #-543	; 0xfffffde1
     d88:	03000000 	movweq	r0, #0
     d8c:	0804d823 	stmdaeq	r4, {r0, r1, r5, fp, ip, lr, pc}
     d90:	00000268 	andeq	r0, r0, r8, ror #4
     d94:	12022004 	andne	r2, r2, #4
     d98:	000000a4 	andeq	r0, r0, r4, lsr #1
     d9c:	04dc2303 	ldrbeq	r2, [ip], #771	; 0x303
     da0:	00013e08 	andeq	r3, r1, r8, lsl #28
     da4:	02210400 	eoreq	r0, r1, #0, 8
     da8:	0000a412 	andeq	sl, r0, r2, lsl r4
     dac:	e0230300 	eor	r0, r3, r0, lsl #6
     db0:	03150804 	tsteq	r5, #4, 16	; 0x40000
     db4:	22040000 	andcs	r0, r4, #0
     db8:	00a41202 	adceq	r1, r4, r2, lsl #4
     dbc:	23030000 	movwcs	r0, #12288	; 0x3000
     dc0:	e40804e4 	str	r0, [r8], #-1252	; 0xfffffb1c
     dc4:	04000002 	streq	r0, [r0], #-2
     dc8:	a4120223 	ldrge	r0, [r2], #-547	; 0xfffffddd
     dcc:	03000000 	movweq	r0, #0
     dd0:	0804e823 	stmdaeq	r4, {r0, r1, r5, fp, sp, lr, pc}
     dd4:	00000000 	andeq	r0, r0, r0
     dd8:	12022404 	andne	r2, r2, #4, 8	; 0x4000000
     ddc:	000000a4 	andeq	r0, r0, r4, lsr #1
     de0:	04ec2303 	strbteq	r2, [ip], #771	; 0x303
     de4:	0000aa08 	andeq	sl, r0, r8, lsl #20
     de8:	02250400 	eoreq	r0, r5, #0, 8
     dec:	0000a412 	andeq	sl, r0, r2, lsl r4
     df0:	f0230300 			; <UNDEFINED> instruction: 0xf0230300
     df4:	03730804 	cmneq	r3, #4, 16	; 0x40000
     df8:	26040000 	strcs	r0, [r4], -r0
     dfc:	00a41202 	adceq	r1, r4, r2, lsl #4
     e00:	23030000 	movwcs	r0, #12288	; 0x3000
     e04:	be0804f4 	mcrlt	4, 0, r0, cr8, cr4, {7}
     e08:	04000003 	streq	r0, [r0], #-3
     e0c:	a4120227 	ldrge	r0, [r2], #-551	; 0xfffffdd9
     e10:	03000000 	movweq	r0, #0
     e14:	0004f823 	andeq	pc, r4, r3, lsr #16
     e18:	0000930a 	andeq	r9, r0, sl, lsl #6
     e1c:	0003c300 	andeq	ip, r3, r0, lsl #6
     e20:	00800b00 	addeq	r0, r0, r0, lsl #22
     e24:	000b0000 	andeq	r0, fp, r0
     e28:	0003b305 	andeq	fp, r3, r5, lsl #6
     e2c:	00a90a00 	adceq	r0, r9, r0, lsl #20
     e30:	03d80000 	bicseq	r0, r8, #0
     e34:	800b0000 	andhi	r0, fp, r0
     e38:	01000000 	mrseq	r0, (UNDEF: 0)
     e3c:	03c80600 	biceq	r0, r8, #0, 12
     e40:	d8050000 	stmdale	r5, {}	; <UNPREDICTABLE>
     e44:	0a000003 	beq	e58 <__Vectors_Size+0x698>
     e48:	000000a9 	andeq	r0, r0, r9, lsr #1
     e4c:	000003f2 	strdeq	r0, [r0], -r2
     e50:	0000800b 	andeq	r8, r0, fp
     e54:	06000300 	streq	r0, [r0], -r0, lsl #6
     e58:	000003e2 	andeq	r0, r0, r2, ror #7
     e5c:	0003f205 	andeq	pc, r3, r5, lsl #4
     e60:	00a90a00 	adceq	r0, r9, r0, lsl #20
     e64:	040c0000 	streq	r0, [ip], #-0
     e68:	800b0000 	andhi	r0, fp, r0
     e6c:	05000000 	streq	r0, [r0, #-0]
     e70:	03fc0600 	mvnseq	r0, #0, 12
     e74:	0c050000 	stceq	0, cr0, [r5], {-0}
     e78:	0a000004 	beq	e90 <__Vectors_Size+0x6d0>
     e7c:	00000098 	muleq	r0, r8, r0
     e80:	00000426 	andeq	r0, r0, r6, lsr #8
     e84:	0000800b 	andeq	r8, r0, fp
     e88:	0a001400 	beq	5e90 <__HEAP_SIZE+0x4e90>
     e8c:	00000098 	muleq	r0, r8, r0
     e90:	00000436 	andeq	r0, r0, r6, lsr r4
     e94:	0000800b 	andeq	r8, r0, fp
     e98:	0a004400 	beq	11ea0 <__HEAP_SIZE+0x10ea0>
     e9c:	00000098 	muleq	r0, r8, r0
     ea0:	00000446 	andeq	r0, r0, r6, asr #8
     ea4:	0000800b 	andeq	r8, r0, fp
     ea8:	0a000e00 	beq	46b0 <__HEAP_SIZE+0x36b0>
     eac:	00000098 	muleq	r0, r8, r0
     eb0:	00000456 	andeq	r0, r0, r6, asr r4
     eb4:	0000800b 	andeq	r8, r0, fp
     eb8:	0c000000 	stceq	0, cr0, [r0], {-0}
     ebc:	0000029e 	muleq	r0, lr, r2
     ec0:	03022804 	movweq	r2, #10244	; 0x2804
     ec4:	000000ae 	andeq	r0, r0, lr, lsr #1
     ec8:	00042903 	andeq	r2, r4, r3, lsl #18
     ecc:	0f240500 	svceq	0x00240500
     ed0:	00000474 	andeq	r0, r0, r4, ror r4
     ed4:	00046306 	andeq	r6, r4, r6, lsl #6
     ed8:	7a040d00 	bvc	1042e0 <__RAM_SIZE+0x42e0>
     edc:	0e000004 	cdpeq	0, 0, cr0, cr0, cr4, {0}
     ee0:	03f30f01 	mvnseq	r0, #1, 30
     ee4:	29050000 	stmdbcs	r5, {}	; <UNPREDICTABLE>
     ee8:	00009811 	andeq	r9, r0, r1, lsl r8
     eec:	0a010100 	beq	412f4 <__HEAP_SIZE+0x402f4>
     ef0:	0000046f 	andeq	r0, r0, pc, ror #8
     ef4:	0000049b 	muleq	r0, fp, r4
     ef8:	00008010 	andeq	r8, r0, r0, lsl r0
     efc:	0001ef00 	andeq	lr, r1, r0, lsl #30
     f00:	00048a06 	andeq	r8, r4, r6, lsl #20
     f04:	04030f00 	streq	r0, [r3], #-3840	; 0xfffff100
     f08:	38010000 	stmdacc	r1, {}	; <UNPREDICTABLE>
     f0c:	00049b20 	andeq	r9, r4, r0, lsr #22
     f10:	11010100 	mrsne	r0, (UNDEF: 17)
     f14:	0000047c 	andeq	r0, r0, ip, ror r4
     f18:	050a3e01 	streq	r3, [sl, #-3585]	; 0xfffff1ff
     f1c:	00000003 	andeq	r0, r0, r3
     f20:	0d011238 	sfmeq	f1, 4, [r1, #-224]	; 0xffffff20
     f24:	01000004 	tsteq	r0, r4
     f28:	7801064c 	stmdavc	r1, {r2, r3, r6, r9, sl}
     f2c:	a4100009 	ldrge	r0, [r0], #-9
     f30:	02100009 	andseq	r0, r0, #9
     f34:	1201007d 	andne	r0, r1, #125	; 0x7d
     f38:	0003dd01 	andeq	sp, r3, r1, lsl #26
     f3c:	06440100 	strbeq	r0, [r4], -r0, lsl #2
     f40:	00000001 	andeq	r0, r0, r1
     f44:	00000000 	andeq	r0, r0, r0
     f48:	007d0200 	rsbseq	r0, sp, r0, lsl #4
     f4c:	1bc10001 	blne	ff040f58 <__StackTop+0xc6f40f58>
     f50:	00020000 	andeq	r0, r2, r0
     f54:	0000029d 	muleq	r0, sp, r2
     f58:	01880104 	orreq	r0, r8, r4, lsl #2
     f5c:	1a0c0000 	bne	300f64 <__RAM_SIZE+0x200f64>
     f60:	1a000005 	bne	f7c <__Vectors_Size+0x7bc>
     f64:	58000000 	stmdapl	r0, {}	; <UNPREDICTABLE>
     f68:	00000001 	andeq	r0, r0, r1
     f6c:	00000000 	andeq	r0, r0, r0
     f70:	c1000000 	mrsgt	r0, (UNDEF: 0)
     f74:	02000005 	andeq	r0, r0, #5
     f78:	00980408 	addseq	r0, r8, r8, lsl #8
     f7c:	04020000 	streq	r0, [r2], #-0
     f80:	0002b607 	andeq	fp, r2, r7, lsl #12
     f84:	06010200 	streq	r0, [r1], -r0, lsl #4
     f88:	00000272 	andeq	r0, r0, r2, ror r2
     f8c:	70080102 	andvc	r0, r8, r2, lsl #2
     f90:	02000002 	andeq	r0, r0, #2
     f94:	006d0502 	rsbeq	r0, sp, r2, lsl #10
     f98:	02020000 	andeq	r0, r2, #0
     f9c:	00030207 	andeq	r0, r3, r7, lsl #4
     fa0:	05040200 	streq	r0, [r4, #-512]	; 0xfffffe00
     fa4:	00000169 	andeq	r0, r0, r9, ror #2
     fa8:	00005303 	andeq	r5, r0, r3, lsl #6
     fac:	07040200 	streq	r0, [r4, -r0, lsl #4]
     fb0:	000002b1 			; <UNDEFINED> instruction: 0x000002b1
     fb4:	64050802 	strvs	r0, [r5], #-2050	; 0xfffff7fe
     fb8:	03000001 	movweq	r0, #1
     fbc:	00000066 	andeq	r0, r0, r6, rrx
     fc0:	0005d804 	andeq	sp, r5, r4, lsl #16
     fc4:	19690200 	stmdbne	r9!, {r9}^
     fc8:	0000007e 	andeq	r0, r0, lr, ror r0
     fcc:	ac070802 	stcge	8, cr0, [r7], {2}
     fd0:	05000002 	streq	r0, [r0, #-2]
     fd4:	6e690504 	cdpvs	5, 6, cr0, cr9, cr4, {0}
     fd8:	85030074 	strhi	r0, [r3, #-116]	; 0xffffff8c
     fdc:	04000000 	streq	r0, [r0], #-0
     fe0:	00000601 	andeq	r0, r0, r1, lsl #12
     fe4:	301ae802 	andscc	lr, sl, r2, lsl #16
     fe8:	03000000 	movweq	r0, #0
     fec:	00000030 	andeq	r0, r0, r0, lsr r0
     ff0:	0005da04 	andeq	sp, r5, r4, lsl #20
     ff4:	143c0300 	ldrtne	r0, [ip], #-768	; 0xfffffd00
     ff8:	00000072 	andeq	r0, r0, r2, ror r0
     ffc:	00060304 	andeq	r0, r6, r4, lsl #6
    1000:	15520300 	ldrbne	r0, [r2, #-768]	; 0xfffffd00
    1004:	00000091 	muleq	r0, r1, r0
    1008:	00066b04 	andeq	r6, r6, r4, lsl #22
    100c:	1b280400 	blne	a02014 <__RAM_SIZE+0x902014>
    1010:	000000c6 	andeq	r0, r0, r6, asr #1
    1014:	00051006 	andeq	r1, r5, r6
    1018:	00060400 	andeq	r0, r6, r0, lsl #8
    101c:	000000e0 	andeq	r0, r0, r0, ror #1
    1020:	0005c007 	andeq	ip, r5, r7
    1024:	0000e000 	andeq	lr, r0, r0
    1028:	00230200 	eoreq	r0, r3, r0, lsl #4
    102c:	04080001 	streq	r0, [r8], #-1
    1030:	00051204 	andeq	r1, r5, r4, lsl #4
    1034:	18630400 	stmdane	r3!, {sl}^
    1038:	000000ba 	strheq	r0, [r0], -sl
    103c:	00047604 	andeq	r7, r4, r4, lsl #12
    1040:	17d10500 	ldrbne	r0, [r1, r0, lsl #10]
    1044:	00000030 	andeq	r0, r0, r0, lsr r0
    1048:	0000ee03 	andeq	lr, r0, r3, lsl #28
    104c:	04080200 	streq	r0, [r8], #-512	; 0xfffffe00
    1050:	00000093 	muleq	r0, r3, r0
    1054:	00055704 	andeq	r5, r5, r4, lsl #14
    1058:	107a0100 	rsbsne	r0, sl, r0, lsl #2
    105c:	00000112 	andeq	r0, r0, r2, lsl r1
    1060:	01180409 	tsteq	r8, r9, lsl #8
    1064:	010a0000 	mrseq	r0, (UNDEF: 10)
    1068:	00000133 	andeq	r0, r0, r3, lsr r1
    106c:	0001330b 	andeq	r3, r1, fp, lsl #6
    1070:	00e00b00 	rsceq	r0, r0, r0, lsl #22
    1074:	ee0b0000 	cdp	0, 0, cr0, cr11, cr0, {0}
    1078:	0b000000 	bleq	1080 <__HEAP_SIZE+0x80>
    107c:	000000ee 	andeq	r0, r0, lr, ror #1
    1080:	08010200 	stmdaeq	r1, {r9}
    1084:	00000279 	andeq	r0, r0, r9, ror r2
    1088:	00013303 	andeq	r3, r1, r3, lsl #6
    108c:	01080c00 	tsteq	r8, r0, lsl #24
    1090:	0167097e 	smceq	28830	; 0x709e
    1094:	660d0000 	strvs	r0, [sp], -r0
    1098:	01007463 	tsteq	r0, r3, ror #8
    109c:	01780b7f 	cmneq	r8, pc, ror fp
    10a0:	23020000 	movwcs	r0, #8192	; 0x2000
    10a4:	72610d00 	rsbvc	r0, r1, #0, 26
    10a8:	80010067 	andhi	r0, r1, r7, rrx
    10ac:	0000e009 	andeq	lr, r0, r9
    10b0:	04230200 	strteq	r0, [r3], #-512	; 0xfffffe00
    10b4:	78010a00 	stmdavc	r1, {r9, fp}
    10b8:	0b000001 	bleq	10c4 <__HEAP_SIZE+0xc4>
    10bc:	00000133 	andeq	r0, r0, r3, lsr r1
    10c0:	0000e00b 	andeq	lr, r0, fp
    10c4:	04090000 	streq	r0, [r9], #-0
    10c8:	00000167 	andeq	r0, r0, r7, ror #2
    10cc:	00064d04 	andeq	r4, r6, r4, lsl #26
    10d0:	03810100 	orreq	r0, r1, #0, 2
    10d4:	0000013f 	andeq	r0, r0, pc, lsr r1
    10d8:	00017e03 	andeq	r7, r1, r3, lsl #28
    10dc:	f0010e00 			; <UNDEFINED> instruction: 0xf0010e00
    10e0:	01000004 	tsteq	r0, r4
    10e4:	0105038a 	smlabbeq	r5, sl, r3, r0
    10e8:	00000085 	andeq	r0, r0, r5, lsl #1
	...
    10f4:	000002c3 	andeq	r0, r0, r3, asr #5
    10f8:	00024c01 	andeq	r4, r2, r1, lsl #24
    10fc:	756f0f00 	strbvc	r0, [pc, #-3840]!	; 204 <__STACKSEAL_SIZE+0x204>
    1100:	8a010074 	bhi	412d8 <__HEAP_SIZE+0x402d8>
    1104:	01781603 	cmneq	r8, r3, lsl #12
    1108:	03250000 			; <UNDEFINED> instruction: 0x03250000
    110c:	031f0000 	tsteq	pc, #0
    1110:	610f0000 	mrsvs	r0, CPSR
    1114:	01006772 	tsteq	r0, r2, ror r7
    1118:	e03d038a 	eors	r0, sp, sl, lsl #7
    111c:	56000000 	strpl	r0, [r0], -r0
    1120:	52000003 	andpl	r0, r0, #3
    1124:	10000003 	andne	r0, r0, r3
    1128:	00000535 	andeq	r0, r0, r5, lsr r5
    112c:	4e038a01 	vmlami.f32	s16, s6, s2
    1130:	0000024c 	andeq	r0, r0, ip, asr #4
    1134:	11789102 	cmnne	r8, r2, lsl #2
    1138:	00617612 	rsbeq	r7, r1, r2, lsl r6
    113c:	0b038c01 	bleq	e4148 <__HEAP_SIZE+0xe3148>
    1140:	000000e2 	andeq	r0, r0, r2, ror #1
    1144:	136c9102 	cmnne	ip, #-2147483648	; 0x80000000
    1148:	0000045a 	andeq	r0, r0, sl, asr r4
    114c:	1b038e01 	blne	e4958 <__HEAP_SIZE+0xe3958>
    1150:	0000018a 	andeq	r0, r0, sl, lsl #3
    1154:	14649102 	strbtne	r9, [r4], #-258	; 0xfffffefe
    1158:	00746572 	rsbseq	r6, r4, r2, ror r5
    115c:	0d038f01 	stceq	15, cr8, [r3, #-4]
    1160:	0000008c 	andeq	r0, r0, ip, lsl #1
    1164:	00000379 	andeq	r0, r0, r9, ror r3
    1168:	00000377 	andeq	r0, r0, r7, ror r3
    116c:	00000015 	andeq	r0, r0, r5, lsl r0
    1170:	00055f00 	andeq	r5, r5, r0, lsl #30
    1174:	50011600 	andpl	r1, r1, r0, lsl #12
    1178:	00000305 	andeq	r0, r0, r5, lsl #6
    117c:	01160000 	tsteq	r6, r0
    1180:	54910251 	ldrpl	r0, [r1], #593	; 0x251
    1184:	02520116 	subseq	r0, r2, #-2147483643	; 0x80000005
    1188:	0116ff09 	tsteq	r6, r9, lsl #30	; <UNPREDICTABLE>
    118c:	68910353 	ldmvs	r1, {r0, r1, r4, r6, r8, r9}
    1190:	7d021606 	stcvc	6, cr1, [r2, #-24]	; 0xffffffe8
    1194:	6c910200 	lfmvs	f0, 4, [r1], {0}
    1198:	04090000 	streq	r0, [r9], #-0
    119c:	0000013a 	andeq	r0, r0, sl, lsr r1
    11a0:	0543010e 	strbeq	r0, [r3, #-270]	; 0xfffffef2
    11a4:	84010000 	strhi	r0, [r1], #-0
    11a8:	85010503 	strhi	r0, [r1, #-1283]	; 0xfffffafd
	...
    11b4:	8c000000 	stchi	0, cr0, [r0], {-0}
    11b8:	01000003 	tsteq	r0, r3
    11bc:	000002ee 	andeq	r0, r0, lr, ror #5
    11c0:	0004c317 	andeq	ip, r4, r7, lsl r3
    11c4:	03840100 	orreq	r0, r4, #0, 2
    11c8:	0002ee15 	andeq	lr, r2, r5, lsl lr
    11cc:	0003ca00 	andeq	ip, r3, r0, lsl #20
    11d0:	0003c400 	andeq	ip, r3, r0, lsl #8
    11d4:	038a1700 	orreq	r1, sl, #0, 14
    11d8:	84010000 	strhi	r0, [r1], #-0
    11dc:	00ee2403 	rsceq	r2, lr, r3, lsl #8
    11e0:	03fc0000 	mvnseq	r0, #0
    11e4:	03f60000 	mvnseq	r0, #0
    11e8:	35170000 	ldrcc	r0, [r7, #-0]
    11ec:	01000005 	tsteq	r0, r5
    11f0:	4c370384 	ldcmi	3, cr0, [r7], #-528	; 0xfffffdf0
    11f4:	2e000002 	cdpcs	0, 0, cr0, cr0, cr2, {0}
    11f8:	28000004 	stmdacs	r0, {r2}
    11fc:	0f000004 	svceq	0x00000004
    1200:	01006176 	tsteq	r0, r6, ror r1
    1204:	e2470384 	sub	r0, r7, #132, 6	; 0x10000002
    1208:	5c000000 	stcpl	0, cr0, [r0], {-0}
    120c:	5a000004 	bpl	1224 <__HEAP_SIZE+0x224>
    1210:	15000004 	strne	r0, [r0, #-4]
    1214:	00000000 	andeq	r0, r0, r0
    1218:	0000055f 	andeq	r0, r0, pc, asr r5
    121c:	05500116 	ldrbeq	r0, [r0, #-278]	; 0xfffffeea
    1220:	00000003 	andeq	r0, r0, r3
    1224:	51011600 	tstpl	r1, r0, lsl #12
    1228:	5001f303 	andpl	pc, r1, r3, lsl #6
    122c:	03520116 	cmpeq	r2, #-2147483643	; 0x80000005
    1230:	165101f3 			; <UNDEFINED> instruction: 0x165101f3
    1234:	f3035301 	vcgt.u8	d5, d3, d1
    1238:	00005201 	andeq	r5, r0, r1, lsl #4
    123c:	01330409 	teqeq	r3, r9, lsl #8
    1240:	010e0000 	mrseq	r0, (UNDEF: 14)
    1244:	0000046e 	andeq	r0, r0, lr, ror #8
    1248:	05037d01 	streq	r7, [r3, #-3329]	; 0xfffff2ff
    124c:	00008501 	andeq	r8, r0, r1, lsl #10
	...
    1258:	00046f00 	andeq	r6, r4, r0, lsl #30
    125c:	03740100 	cmneq	r4, #0, 2
    1260:	35170000 	ldrcc	r0, [r7, #-0]
    1264:	01000005 	tsteq	r0, r5
    1268:	4c19037d 	ldcmi	3, cr0, [r9], {125}	; 0x7d
    126c:	ad000002 	stcge	0, cr0, [r0, #-8]
    1270:	a7000004 	strge	r0, [r0, -r4]
    1274:	0f000004 	svceq	0x00000004
    1278:	01006176 	tsteq	r0, r6, ror r1
    127c:	e229037d 	eor	r0, r9, #-201326591	; 0xf4000001
    1280:	db000000 	blle	1288 <__HEAP_SIZE+0x288>
    1284:	d9000004 	stmdble	r0, {r2}
    1288:	13000004 	movwne	r0, #4
    128c:	000004c3 	andeq	r0, r0, r3, asr #9
    1290:	08037f01 	stmdaeq	r3, {r0, r8, r9, sl, fp, ip, sp, lr}
    1294:	00000374 	andeq	r0, r0, r4, ror r3
    1298:	15749102 	ldrbne	r9, [r4, #-258]!	; 0xfffffefe
    129c:	00000000 	andeq	r0, r0, r0
    12a0:	0000055f 	andeq	r0, r0, pc, asr r5
    12a4:	05500116 	ldrbeq	r0, [r0, #-278]	; 0xfffffeea
    12a8:	001ae903 	andseq	lr, sl, r3, lsl #18
    12ac:	51011610 	tstpl	r1, r0, lsl r6
    12b0:	16749102 	ldrbtne	r9, [r4], -r2, lsl #2
    12b4:	09025201 	stmdbeq	r2, {r0, r9, ip, lr}
    12b8:	530116ff 	movwpl	r1, #5887	; 0x16ff
    12bc:	5001f303 	andpl	pc, r1, r3, lsl #6
    12c0:	33180000 	tstcc	r8, #0
    12c4:	84000001 	strhi	r0, [r0], #-1
    12c8:	19000003 	stmdbne	r0, {r0, r1}
    12cc:	00000030 	andeq	r0, r0, r0, lsr r0
    12d0:	010e0000 	mrseq	r0, (UNDEF: 14)
    12d4:	00000544 	andeq	r0, r0, r4, asr #10
    12d8:	05037301 	streq	r7, [r3, #-769]	; 0xfffffcff
    12dc:	00008501 	andeq	r8, r0, r1, lsl #10
	...
    12e8:	0004ee00 	andeq	lr, r4, r0, lsl #28
    12ec:	04330100 	ldrteq	r0, [r3], #-256	; 0xffffff00
    12f0:	c3170000 	tstgt	r7, #0
    12f4:	01000004 	tsteq	r0, r4
    12f8:	ee140373 	mrc	3, 0, r0, cr4, cr3, {3}
    12fc:	50000002 	andpl	r0, r0, r2
    1300:	4a000005 	bmi	131c <__HEAP_SIZE+0x31c>
    1304:	17000005 	strne	r0, [r0, -r5]
    1308:	0000038a 	andeq	r0, r0, sl, lsl #7
    130c:	23037301 	movwcs	r7, #13057	; 0x3301
    1310:	000000ee 	andeq	r0, r0, lr, ror #1
    1314:	00000582 	andeq	r0, r0, r2, lsl #11
    1318:	0000057c 	andeq	r0, r0, ip, ror r5
    131c:	00053510 	andeq	r3, r5, r0, lsl r5
    1320:	03730100 	cmneq	r3, #0, 2
    1324:	00024c36 	andeq	r4, r2, r6, lsr ip
    1328:	78910200 	ldmvc	r1, {r9}
    132c:	61761211 	cmnvs	r6, r1, lsl r2
    1330:	03750100 	cmneq	r5, #0, 2
    1334:	0000e20b 	andeq	lr, r0, fp, lsl #4
    1338:	6c910200 	lfmvs	f0, 4, [r1], {0}
    133c:	74657214 	strbtvc	r7, [r5], #-532	; 0xfffffdec
    1340:	03770100 	cmneq	r7, #0, 2
    1344:	00008c0d 	andeq	r8, r0, sp, lsl #24
    1348:	0005b000 	andeq	fp, r5, r0
    134c:	0005ae00 	andeq	sl, r5, r0, lsl #28
    1350:	00001500 	andeq	r1, r0, r0, lsl #10
    1354:	055f0000 	ldrbeq	r0, [pc, #-0]	; 135c <__HEAP_SIZE+0x35c>
    1358:	01160000 	tsteq	r6, r0
    135c:	00030550 	andeq	r0, r3, r0, asr r5
    1360:	16000000 	strne	r0, [r0], -r0
    1364:	f3035101 	vrhadd.u8	d5, d3, d1
    1368:	01165001 	tsteq	r6, r1
    136c:	01f30352 	mvnseq	r0, r2, asr r3
    1370:	53011651 	movwpl	r1, #5713	; 0x1651
    1374:	06689103 	strbteq	r9, [r8], -r3, lsl #2
    1378:	007d0216 	rsbseq	r0, sp, r6, lsl r2
    137c:	006c9102 	rsbeq	r9, ip, r2, lsl #2
    1380:	7e010e00 	cdpvc	14, 0, cr0, cr1, cr0, {0}
    1384:	01000005 	tsteq	r0, r5
    1388:	01050369 	tsteq	r5, r9, ror #6
    138c:	00000085 	andeq	r0, r0, r5, lsl #1
	...
    1398:	000005c3 	andeq	r0, r0, r3, asr #11
    139c:	0004cc01 	andeq	ip, r4, r1, lsl #24
    13a0:	04c31700 	strbeq	r1, [r3], #1792	; 0x700
    13a4:	69010000 	stmdbvs	r1, {}	; <UNPREDICTABLE>
    13a8:	02ee1303 	rsceq	r1, lr, #201326592	; 0xc000000
    13ac:	06250000 	strteq	r0, [r5], -r0
    13b0:	061f0000 	ldreq	r0, [pc], -r0
    13b4:	35100000 	ldrcc	r0, [r0, #-0]
    13b8:	01000005 	tsteq	r0, r5
    13bc:	4c270369 	stcmi	3, cr0, [r7], #-420	; 0xfffffe5c
    13c0:	02000002 	andeq	r0, r0, #2
    13c4:	12117491 	andsne	r7, r1, #-1862270976	; 0x91000000
    13c8:	01006176 	tsteq	r0, r6, ror r1
    13cc:	e20b036b 	and	r0, fp, #-1409286143	; 0xac000001
    13d0:	02000000 	andeq	r0, r0, #0
    13d4:	72146c91 	andsvc	r6, r4, #37120	; 0x9100
    13d8:	01007465 	tsteq	r0, r5, ror #8
    13dc:	8c0d036d 	stchi	3, cr0, [sp], {109}	; 0x6d
    13e0:	53000000 	movwpl	r0, #0
    13e4:	51000006 	tstpl	r0, r6
    13e8:	15000006 	strne	r0, [r0, #-6]
    13ec:	00000000 	andeq	r0, r0, r0
    13f0:	0000055f 	andeq	r0, r0, pc, asr r5
    13f4:	05500116 	ldrbeq	r0, [r0, #-278]	; 0xfffffeea
    13f8:	00000003 	andeq	r0, r0, r3
    13fc:	51011600 	tstpl	r1, r0, lsl #12
    1400:	5001f303 	andpl	pc, r1, r3, lsl #6
    1404:	02520116 	subseq	r0, r2, #-2147483643	; 0x80000005
    1408:	0116ff09 	tsteq	r6, r9, lsl #30	; <UNPREDICTABLE>
    140c:	5c910353 	ldcpl	3, cr0, [r1], {83}	; 0x53
    1410:	7d021606 	stcvc	6, cr1, [r2, #-24]	; 0xffffffe8
    1414:	60910200 	addsvs	r0, r1, r0, lsl #4
    1418:	010e0000 	mrseq	r0, (UNDEF: 14)
    141c:	00000546 	andeq	r0, r0, r6, asr #10
    1420:	05035e01 	streq	r5, [r3, #-3585]	; 0xfffff1ff
    1424:	00008501 	andeq	r8, r0, r1, lsl #10
    1428:	001af400 	andseq	pc, sl, r0, lsl #8
    142c:	001b2010 	andseq	r2, fp, r0, lsl r0
    1430:	00066610 	andeq	r6, r6, r0, lsl r6
    1434:	055f0100 	ldrbeq	r0, [pc, #-256]	; 133c <__HEAP_SIZE+0x33c>
    1438:	35100000 	ldrcc	r0, [r0, #-0]
    143c:	01000005 	tsteq	r0, r5
    1440:	4c18035e 	ldcmi	3, cr0, [r8], {94}	; 0x5e
    1444:	02000002 	andeq	r0, r0, #2
    1448:	12117091 	andsne	r7, r1, #145	; 0x91
    144c:	01006176 	tsteq	r0, r6, ror r1
    1450:	e20b0360 	and	r0, fp, #96, 6	; 0x80000001
    1454:	02000000 	andeq	r0, r0, #0
    1458:	c3136491 	tstgt	r3, #-1862270976	; 0x91000000
    145c:	01000004 	tsteq	r0, r4
    1460:	74080362 	strvc	r0, [r8], #-866	; 0xfffffc9e
    1464:	02000003 	andeq	r0, r0, #3
    1468:	72146091 	andsvc	r6, r4, #145	; 0x91
    146c:	01007465 	tsteq	r0, r5, ror #8
    1470:	8c0d0363 	stchi	3, cr0, [sp], {99}	; 0x63
    1474:	c4000000 	strgt	r0, [r0], #-0
    1478:	c2000006 	andgt	r0, r0, #6
    147c:	15000006 	strne	r0, [r0, #-6]
    1480:	10001b10 	andne	r1, r0, r0, lsl fp
    1484:	0000055f 	andeq	r0, r0, pc, asr r5
    1488:	05500116 	ldrbeq	r0, [r0, #-278]	; 0xfffffeea
    148c:	001ae903 	andseq	lr, sl, r3, lsl #18
    1490:	51011610 	tstpl	r1, r0, lsl r6
    1494:	16409102 	strbne	r9, [r0], -r2, lsl #2
    1498:	09025201 	stmdbeq	r2, {r0, r9, ip, lr}
    149c:	530116ff 	movwpl	r1, #5887	; 0x16ff
    14a0:	06509103 	ldrbeq	r9, [r0], -r3, lsl #2
    14a4:	007d0216 	rsbseq	r0, sp, r6, lsl r2
    14a8:	00549102 	subseq	r9, r4, r2, lsl #2
    14ac:	05421a00 	strbeq	r1, [r2, #-2560]	; 0xfffff600
    14b0:	41010000 	mrsmi	r0, (UNDEF: 1)
    14b4:	85010c02 	strhi	r0, [r1, #-3074]	; 0xfffff3fe
    14b8:	68000000 	stmdavs	r0, {}	; <UNPREDICTABLE>
    14bc:	e8100014 	ldmda	r0, {r2, r4}
    14c0:	d710001a 			; <UNDEFINED> instruction: 0xd710001a
    14c4:	01000006 	tsteq	r0, r6
    14c8:	00000b7d 	andeq	r0, r0, sp, ror fp
    14cc:	74756f0f 	ldrbtvc	r6, [r5], #-3855	; 0xfffff0f1
    14d0:	02410100 	subeq	r0, r1, #0, 2
    14d4:	00010624 	andeq	r0, r1, r4, lsr #12
    14d8:	00071800 	andeq	r1, r7, r0, lsl #16
    14dc:	00071000 	andeq	r1, r7, r0
    14e0:	04c31700 	strbeq	r1, [r3], #1792	; 0x700
    14e4:	41010000 	mrsmi	r0, (UNDEF: 1)
    14e8:	02ee2f02 	rsceq	r2, lr, #2, 30
    14ec:	07560000 	ldrbeq	r0, [r6, -r0]
    14f0:	074c0000 	strbeq	r0, [ip, -r0]
    14f4:	a8170000 	ldmdage	r7, {}	; <UNPREDICTABLE>
    14f8:	01000005 	tsteq	r0, r5
    14fc:	fa440241 	blx	1101e08 <__RAM_SIZE+0x1001e08>
    1500:	aa000000 	bge	1508 <__HEAP_SIZE+0x508>
    1504:	98000007 	stmdals	r0, {r0, r1, r2}
    1508:	17000007 	strne	r0, [r0, -r7]
    150c:	00000535 	andeq	r0, r0, r5, lsr r5
    1510:	58024101 	stmdapl	r2, {r0, r8, lr}
    1514:	0000024c 	andeq	r0, r0, ip, asr #4
    1518:	0000081c 	andeq	r0, r0, ip, lsl r8
    151c:	00000818 	andeq	r0, r0, r8, lsl r8
    1520:	0061761b 	rsbeq	r7, r1, fp, lsl r6
    1524:	68024101 	stmdavs	r2, {r0, r8, lr}
    1528:	000000e2 	andeq	r0, r0, r2, ror #1
    152c:	1c009102 	stfned	f1, [r0], {2}
    1530:	00000593 	muleq	r0, r3, r5
    1534:	10024301 	andne	r4, r2, r1, lsl #6
    1538:	00000030 	andeq	r0, r0, r0, lsr r0
    153c:	00000852 	andeq	r0, r0, r2, asr r8
    1540:	0000083a 	andeq	r0, r0, sl, lsr r8
    1544:	0006651c 	andeq	r6, r6, ip, lsl r5
    1548:	02430100 	subeq	r0, r3, #0, 2
    154c:	00003017 	andeq	r3, r0, r7, lsl r0
    1550:	0008f600 	andeq	pc, r8, r0, lsl #12
    1554:	0008e000 	andeq	lr, r8, r0
    1558:	069f1c00 	ldreq	r1, [pc], r0, lsl #24
    155c:	43010000 	movwmi	r0, #4096	; 0x1000
    1560:	00301e02 	eorseq	r1, r0, r2, lsl #28
    1564:	099e0000 	ldmibeq	lr, {}	; <UNPREDICTABLE>
    1568:	09800000 	stmibeq	r0, {}	; <UNPREDICTABLE>
    156c:	6e140000 	cdpvs	0, 1, cr0, cr4, cr0, {0}
    1570:	02430100 	subeq	r0, r3, #0, 2
    1574:	00003029 	andeq	r3, r0, r9, lsr #32
    1578:	000a5c00 	andeq	r5, sl, r0, lsl #24
    157c:	000a4e00 	andeq	r4, sl, r0, lsl #28
    1580:	64691400 	strbtvs	r1, [r9], #-1024	; 0xfffffc00
    1584:	44010078 	strmi	r0, [r1], #-120	; 0xffffff88
    1588:	00ee0a02 	rsceq	r0, lr, r2, lsl #20
    158c:	0b180000 	bleq	601594 <__RAM_SIZE+0x501594>
    1590:	0ab80000 	beq	fee01598 <__StackTop+0xc6d01598>
    1594:	441d0000 	ldrmi	r0, [sp], #-0
    1598:	64100015 	ldrvs	r0, [r0], #-21	; 0xffffffeb
    159c:	63100015 	tstvs	r0, #21
    15a0:	12000006 	andne	r0, r0, #6
    15a4:	6c010077 	stcvs	0, cr0, [r1], {119}	; 0x77
    15a8:	008c1102 	addeq	r1, ip, r2, lsl #2
    15ac:	50010000 	andpl	r0, r1, r0
    15b0:	158c1d00 	strne	r1, [ip, #3328]	; 0xd00
    15b4:	15a01000 	strne	r1, [r0, #0]!
    15b8:	06801000 	streq	r1, [r0], r0
    15bc:	5f130000 	svcpl	0x00130000
    15c0:	01000006 	tsteq	r0, r6
    15c4:	8c130280 	lfmhi	f0, 4, [r3], {128}	; 0x80
    15c8:	01000000 	mrseq	r0, (UNDEF: 0)
    15cc:	ae1d0053 	mrcge	0, 0, r0, cr13, cr3, {2}
    15d0:	9a100016 	bls	401630 <__RAM_SIZE+0x301630>
    15d4:	73100018 	tstvc	r0, #24
    15d8:	1c000008 	stcne	0, cr0, [r0], {8}
    15dc:	00000826 	andeq	r0, r0, r6, lsr #16
    15e0:	1602b401 	strne	fp, [r2], -r1, lsl #8
    15e4:	00000030 	andeq	r0, r0, r0, lsr r0
    15e8:	00000d4e 	andeq	r0, r0, lr, asr #26
    15ec:	00000d32 	andeq	r0, r0, r2, lsr sp
    15f0:	0001401e 	andeq	r4, r1, lr, lsl r0
    15f4:	0006e900 	andeq	lr, r6, r0, lsl #18
    15f8:	00c11f00 	sbceq	r1, r1, r0, lsl #30
    15fc:	d6010000 	strle	r0, [r1], -r0
    1600:	006d1d02 	rsbeq	r1, sp, r2, lsl #26
    1604:	c4150000 	ldrgt	r0, [r5], #-0
    1608:	7c100017 	ldcvc	0, cr0, [r0], {23}
    160c:	16000013 			; <UNDEFINED> instruction: 0x16000013
    1610:	77025001 	strvc	r5, [r2, -r1]
    1614:	51011600 	tstpl	r1, r0, lsl #12
    1618:	16007802 	strne	r7, [r0], -r2, lsl #16
    161c:	74025201 	strvc	r5, [r2], #-513	; 0xfffffdff
    1620:	53011600 	movwpl	r1, #5632	; 0x1600
    1624:	16007602 	strne	r7, [r0], -r2, lsl #12
    1628:	02187d02 	andseq	r7, r8, #2, 26	; 0x80
    162c:	0216007b 	andseq	r0, r6, #123	; 0x7b
    1630:	75021c7d 	strvc	r1, [r2, #-3197]	; 0xfffff383
    1634:	1d000000 	stcne	0, cr0, [r0, #-0]
    1638:	100017d0 	ldrdne	r1, [r0], -r0
    163c:	10001800 	andne	r1, r0, r0, lsl #16
    1640:	0000073e 	andeq	r0, r0, lr, lsr r7
    1644:	0000c113 	andeq	ip, r0, r3, lsl r1
    1648:	02db0100 	sbcseq	r0, fp, #0, 2
    164c:	00005a18 	andeq	r5, r0, r8, lsl sl
    1650:	15520100 	ldrbne	r0, [r2, #-256]	; 0xffffff00
    1654:	100017fe 	strdne	r1, [r0], -lr
    1658:	0000150f 	andeq	r1, r0, pc, lsl #10
    165c:	02500116 	subseq	r0, r0, #-2147483643	; 0x80000005
    1660:	01160077 	tsteq	r6, r7, ror r0
    1664:	00780251 	rsbseq	r0, r8, r1, asr r2
    1668:	02520116 	subseq	r0, r2, #-2147483643	; 0x80000005
    166c:	01160074 	tsteq	r6, r4, ror r0
    1670:	00760253 	rsbseq	r0, r6, r3, asr r2
    1674:	0c7d0216 	lfmeq	f0, 2, [sp], #-88	; 0xffffffa8
    1678:	16007b02 	strne	r7, [r0], -r2, lsl #22
    167c:	03107d02 	tsteq	r0, #2, 26	; 0x80
    1680:	16064891 			; <UNDEFINED> instruction: 0x16064891
    1684:	02147d02 	andseq	r7, r4, #2, 26	; 0x80
    1688:	00000075 	andeq	r0, r0, r5, ror r0
    168c:	0001281e 	andeq	r2, r1, lr, lsl r8
    1690:	00079500 	andeq	r9, r7, r0, lsl #10
    1694:	00c11c00 	sbceq	r1, r1, r0, lsl #24
    1698:	df010000 	svcle	0x00010000
    169c:	008c1702 	addeq	r1, ip, r2, lsl #14
    16a0:	0dff0000 	ldcleq	0, cr0, [pc]	; 16a8 <__HEAP_SIZE+0x6a8>
    16a4:	0dfd0000 	ldcleq	0, cr0, [sp]
    16a8:	7e150000 	cdpvc	0, 1, cr0, cr5, cr0, {0}
    16ac:	0f100017 	svceq	0x00100017
    16b0:	16000015 			; <UNDEFINED> instruction: 0x16000015
    16b4:	77025001 	strvc	r5, [r2, -r1]
    16b8:	51011600 	tstpl	r1, r0, lsl #12
    16bc:	16007802 	strne	r7, [r0], -r2, lsl #16
    16c0:	74025201 	strvc	r5, [r2], #-513	; 0xfffffdff
    16c4:	53011600 	movwpl	r1, #5632	; 0x1600
    16c8:	16007602 	strne	r7, [r0], -r2, lsl #12
    16cc:	020c7d02 	andeq	r7, ip, #2, 26	; 0x80
    16d0:	0216007b 	andseq	r0, r6, #123	; 0x7b
    16d4:	9103107d 	tstls	r3, sp, ror r0
    16d8:	02160648 	andseq	r0, r6, #72, 12	; 0x4800000
    16dc:	7502147d 	strvc	r1, [r2, #-1149]	; 0xfffffb83
    16e0:	1e000000 	cdpne	0, 0, cr0, cr0, cr0, {0}
    16e4:	00000110 	andeq	r0, r0, r0, lsl r1
    16e8:	000007f2 	strdeq	r0, [r0], -r2
    16ec:	0000c11c 	andeq	ip, r0, ip, lsl r1
    16f0:	02ee0100 	rsceq	r0, lr, #0, 2
    16f4:	00009d20 	andeq	r9, r0, r0, lsr #26
    16f8:	000e1600 	andeq	r1, lr, r0, lsl #12
    16fc:	000e1200 	andeq	r1, lr, r0, lsl #4
    1700:	17281500 	strne	r1, [r8, -r0, lsl #10]!
    1704:	150f1000 	strne	r1, [pc, #-0]	; 170c <__HEAP_SIZE+0x70c>
    1708:	01160000 	tsteq	r6, r0
    170c:	00770250 	rsbseq	r0, r7, r0, asr r2
    1710:	02510116 	subseq	r0, r1, #-2147483643	; 0x80000005
    1714:	01160078 	tsteq	r6, r8, ror r0
    1718:	00740252 	rsbseq	r0, r4, r2, asr r2
    171c:	02530116 	subseq	r0, r3, #-2147483643	; 0x80000005
    1720:	02160076 	andseq	r0, r6, #118	; 0x76
    1724:	3001047d 	andcc	r0, r1, sp, ror r4
    1728:	0c7d0216 	lfmeq	f0, 2, [sp], #-88	; 0xffffffa8
    172c:	16007b02 	strne	r7, [r0], -r2, lsl #22
    1730:	03107d02 	tsteq	r0, #2, 26	; 0x80
    1734:	16064891 			; <UNDEFINED> instruction: 0x16064891
    1738:	02147d02 	andseq	r7, r4, #2, 26	; 0x80
    173c:	00000075 	andeq	r0, r0, r5, ror r0
    1740:	00185220 	andseq	r5, r8, r0, lsr #4
    1744:	00137c10 	andseq	r7, r3, r0, lsl ip
    1748:	00083400 	andeq	r3, r8, r0, lsl #8
    174c:	50011600 	andpl	r1, r1, r0, lsl #12
    1750:	16007702 	strne	r7, [r0], -r2, lsl #14
    1754:	78025101 	stmdavc	r2, {r0, r8, ip, lr}
    1758:	52011600 	andpl	r1, r1, #0, 12
    175c:	16007402 	strne	r7, [r0], -r2, lsl #8
    1760:	76025301 	strvc	r5, [r2], -r1, lsl #6
    1764:	7d021600 	stcvc	6, cr1, [r2, #-0]
    1768:	16300108 	ldrtne	r0, [r0], -r8, lsl #2
    176c:	02187d02 	andseq	r7, r8, #2, 26	; 0x80
    1770:	0216007b 	andseq	r0, r6, #123	; 0x7b
    1774:	91031c7d 	tstls	r3, sp, ror ip
    1778:	02160648 	andseq	r0, r6, #72, 12	; 0x4800000
    177c:	7502207d 	strvc	r2, [r2, #-125]	; 0xffffff83
    1780:	7c150000 	ldcvc	0, cr0, [r5], {-0}
    1784:	0f100018 	svceq	0x00100018
    1788:	16000015 			; <UNDEFINED> instruction: 0x16000015
    178c:	77025001 	strvc	r5, [r2, -r1]
    1790:	51011600 	tstpl	r1, r0, lsl #12
    1794:	16007802 	strne	r7, [r0], -r2, lsl #16
    1798:	74025201 	strvc	r5, [r2], #-513	; 0xfffffdff
    179c:	53011600 	movwpl	r1, #5632	; 0x1600
    17a0:	16007602 	strne	r7, [r0], -r2, lsl #12
    17a4:	01047d02 	tsteq	r4, r2, lsl #26
    17a8:	7d021630 	stcvc	6, cr1, [r2, #-192]	; 0xffffff40
    17ac:	007b020c 	rsbseq	r0, fp, ip, lsl #4
    17b0:	107d0216 	rsbsne	r0, sp, r6, lsl r2
    17b4:	06489103 	strbeq	r9, [r8], -r3, lsl #2
    17b8:	147d0216 	ldrbtne	r0, [sp], #-534	; 0xfffffdea
    17bc:	00007502 	andeq	r7, r0, r2, lsl #10
    17c0:	00f81e00 	rscseq	r1, r8, r0, lsl #28
    17c4:	08ec0000 	stmiaeq	ip!, {}^	; <UNPREDICTABLE>
    17c8:	6c140000 	ldcvs	0, cr0, [r4], {-0}
    17cc:	03090100 	movweq	r0, #37120	; 0x9100
    17d0:	00003016 	andeq	r3, r0, r6, lsl r0
    17d4:	000e4900 	andeq	r4, lr, r0, lsl #18
    17d8:	000e3500 	andeq	r3, lr, r0, lsl #10
    17dc:	19462100 	stmdbne	r6, {r8, sp}^
    17e0:	08ab1000 	stmiaeq	fp!, {ip}
    17e4:	01160000 	tsteq	r6, r0
    17e8:	00780251 	rsbseq	r0, r8, r1, asr r2
    17ec:	02520116 	subseq	r0, r2, #-2147483643	; 0x80000005
    17f0:	01160074 	tsteq	r6, r4, ror r0
    17f4:	00760253 	rsbseq	r0, r6, r3, asr r2
    17f8:	195e2100 	ldmdbne	lr, {r8, sp}^
    17fc:	08cd1000 	stmiaeq	sp, {ip}^
    1800:	01160000 	tsteq	r6, r0
    1804:	20080250 	andcs	r0, r8, r0, asr r2
    1808:	02510116 	subseq	r0, r1, #-2147483643	; 0x80000005
    180c:	01160078 	tsteq	r6, r8, ror r0
    1810:	7f7a0252 	svcvc	0x007a0252
    1814:	02530116 	subseq	r0, r3, #-2147483643	; 0x80000005
    1818:	22000076 	andcs	r0, r0, #118	; 0x76
    181c:	1000198a 	andne	r1, r0, sl, lsl #19
    1820:	02500116 	subseq	r0, r0, #-2147483643	; 0x80000005
    1824:	01162008 	tsteq	r6, r8
    1828:	00780251 	rsbseq	r0, r8, r1, asr r2
    182c:	02520116 	subseq	r0, r2, #-2147483643	; 0x80000005
    1830:	01167f75 	tsteq	r6, r5, ror pc
    1834:	00760253 	rsbseq	r0, r6, r3, asr r2
    1838:	9a1d0000 	bls	741840 <__RAM_SIZE+0x641840>
    183c:	64100019 	ldrvs	r0, [r0], #-25	; 0xffffffe7
    1840:	b110001a 	tstlt	r0, sl, lsl r0
    1844:	14000009 	strne	r0, [r0], #-9
    1848:	1d010070 	stcne	0, cr0, [r1, #-448]	; 0xfffffe40
    184c:	024c1503 	subeq	r1, ip, #12582912	; 0xc00000
    1850:	0ec50000 	cdpeq	0, 12, cr0, cr5, cr0, {0}
    1854:	0ec10000 	cdpeq	0, 12, cr0, cr1, cr0, {0}
    1858:	6c140000 	ldcvs	0, cr0, [r4], {-0}
    185c:	031e0100 	tsteq	lr, #0, 2
    1860:	00003016 	andeq	r3, r0, r6, lsl r0
    1864:	000ef900 	andeq	pc, lr, r0, lsl #18
    1868:	000ee300 	andeq	lr, lr, r0, lsl #6
    186c:	19642300 	stmdbne	r4!, {r8, r9, sp}^
    1870:	19b20000 	ldmibne	r2!, {}	; <UNPREDICTABLE>
    1874:	19c81000 	stmibne	r8, {ip}^
    1878:	1e011000 	cdpne	0, 0, cr1, cr1, cr0, {0}
    187c:	09541a03 	ldmdbeq	r4, {r0, r1, r9, fp, ip}^
    1880:	82240000 	eorhi	r0, r4, #0
    1884:	82000019 	andhi	r0, r0, #25
    1888:	7c00000f 	stcvc	0, cr0, [r0], {15}
    188c:	2500000f 	strcs	r0, [r0, #-15]
    1890:	00001976 	andeq	r1, r0, r6, ror r9
    1894:	00198e26 	andseq	r8, r9, r6, lsr #28
    1898:	000fad00 	andeq	sl, pc, r0, lsl #26
    189c:	000fab00 	andeq	sl, pc, r0, lsl #22
    18a0:	00210000 	eoreq	r0, r1, r0
    18a4:	7610001a 			; <UNDEFINED> instruction: 0x7610001a
    18a8:	16000009 	strne	r0, [r0], -r9
    18ac:	08025001 	stmdaeq	r2, {r0, ip, lr}
    18b0:	51011620 	tstpl	r1, r0, lsr #12
    18b4:	16007802 	strne	r7, [r0], -r2, lsl #16
    18b8:	79025201 	stmdbvc	r2, {r0, r9, ip, lr}
    18bc:	5301167f 	movwpl	r1, #5759	; 0x167f
    18c0:	00007602 	andeq	r7, r0, r2, lsl #12
    18c4:	001a2221 	andseq	r2, sl, r1, lsr #4
    18c8:	00099210 	andeq	r9, r9, r0, lsl r2
    18cc:	51011600 	tstpl	r1, r0, lsl #12
    18d0:	16007802 	strne	r7, [r0], -r2, lsl #16
    18d4:	75025201 	strvc	r5, [r2, #-513]	; 0xfffffdff
    18d8:	5301167f 	movwpl	r1, #5759	; 0x167f
    18dc:	00007b02 	andeq	r7, r0, r2, lsl #22
    18e0:	001a5422 	andseq	r5, sl, r2, lsr #8
    18e4:	50011610 	andpl	r1, r1, r0, lsl r6
    18e8:	16200802 	strtne	r0, [r0], -r2, lsl #16
    18ec:	78025101 	stmdavc	r2, {r0, r8, ip, lr}
    18f0:	52011600 	andpl	r1, r1, #0, 12
    18f4:	167f7502 	ldrbtne	r7, [pc], -r2, lsl #10
    18f8:	76025301 	strvc	r5, [r2], -r1, lsl #6
    18fc:	1d000000 	stcne	0, cr0, [r0, #-0]
    1900:	10001a64 	andne	r1, r0, r4, ror #20
    1904:	10001a9a 	mulne	r0, sl, sl
    1908:	00000a16 	andeq	r0, r0, r6, lsl sl
    190c:	0006991c 	andeq	r9, r6, ip, lsl r9
    1910:	033a0100 	teqeq	sl, #0, 2
    1914:	000b8414 	andeq	r8, fp, r4, lsl r4
    1918:	000fc200 	andeq	ip, pc, r0, lsl #4
    191c:	000fc000 	andeq	ip, pc, r0
    1920:	1a901500 	bne	fe406d28 <__StackTop+0xc6306d28>
    1924:	150f1000 	strne	r1, [pc, #-0]	; 192c <__HEAP_SIZE+0x92c>
    1928:	01160000 	tsteq	r6, r0
    192c:	00770250 	rsbseq	r0, r7, r0, asr r2
    1930:	02510116 	subseq	r0, r1, #-2147483643	; 0x80000005
    1934:	01160078 	tsteq	r6, r8, ror r0
    1938:	00740252 	rsbseq	r0, r4, r2, asr r2
    193c:	02530116 	subseq	r0, r3, #-2147483643	; 0x80000005
    1940:	02160076 	andseq	r0, r6, #118	; 0x76
    1944:	3001047d 	andcc	r0, r1, sp, ror r4
    1948:	087d0216 	ldmdaeq	sp!, {r1, r2, r4, r9}^
    194c:	02164001 	andseq	r4, r6, #1
    1950:	7b020c7d 	blvc	84b4c <__HEAP_SIZE+0x83b4c>
    1954:	7d021600 	stcvc	6, cr1, [r2, #-0]
    1958:	16380110 			; <UNDEFINED> instruction: 0x16380110
    195c:	02147d02 	andseq	r7, r4, #2, 26	; 0x80
    1960:	00000075 	andeq	r0, r0, r5, ror r0
    1964:	00194627 	andseq	r4, r9, r7, lsr #12
    1968:	0014c800 	andseq	ip, r4, r0, lsl #16
    196c:	c8000310 	stmdagt	r0, {r4, r8, r9}
    1970:	ce100014 	mrcgt	0, 0, r0, cr0, cr4, {0}
    1974:	01100014 	tsteq	r0, r4, lsl r0
    1978:	3f090268 	svccc	0x00090268
    197c:	2400000a 	strcs	r0, [r0], #-10
    1980:	00001958 	andeq	r1, r0, r8, asr r9
    1984:	00000fd8 	ldrdeq	r0, [r0], -r8
    1988:	00000fd6 	ldrdeq	r0, [r0], -r6
    198c:	19462700 	stmdbne	r6, {r8, r9, sl, sp}^
    1990:	156e0000 	strbne	r0, [lr, #-0]!
    1994:	00001000 	andeq	r1, r0, r0
    1998:	1000156e 	andne	r1, r0, lr, ror #10
    199c:	10001574 	andne	r1, r0, r4, ror r5
    19a0:	0b027c01 	bleq	a09ac <__HEAP_SIZE+0x9f9ac>
    19a4:	00000a68 	andeq	r0, r0, r8, ror #20
    19a8:	00195824 	andseq	r5, r9, r4, lsr #16
    19ac:	000fed00 	andeq	lr, pc, r0, lsl #26
    19b0:	000feb00 	andeq	lr, pc, r0, lsl #22
    19b4:	96280000 	strtls	r0, [r8], -r0
    19b8:	02100014 	andseq	r0, r0, #20
    19bc:	0a870077 	beq	fe1c1ba0 <__StackTop+0xc60c1ba0>
    19c0:	01160000 	tsteq	r6, r0
    19c4:	00780251 	rsbseq	r0, r8, r1, asr r2
    19c8:	02520116 	subseq	r0, r2, #-2147483643	; 0x80000005
    19cc:	01160074 	tsteq	r6, r4, ror r0
    19d0:	00760253 	rsbseq	r0, r6, r3, asr r2
    19d4:	15402000 	strbne	r2, [r0, #-0]
    19d8:	18d81000 	ldmne	r8, {ip}^
    19dc:	0a9b0000 	beq	fe6c19e4 <__StackTop+0xc65c19e4>
    19e0:	01160000 	tsteq	r6, r0
    19e4:	54910250 	ldrpl	r0, [r1], #592	; 0x250
    19e8:	15882000 	strne	r2, [r8]
    19ec:	18d81000 	ldmne	r8, {ip}^
    19f0:	0aaf0000 	beq	febc19f8 <__StackTop+0xc6ac19f8>
    19f4:	01160000 	tsteq	r6, r0
    19f8:	54910250 	ldrpl	r0, [r1], #592	; 0x250
    19fc:	18ca2000 	stmiane	sl, {sp}^
    1a00:	0fa81000 	svceq	0x00a81000
    1a04:	0aeb0000 	beq	ffac1a0c <__StackTop+0xc79c1a0c>
    1a08:	01160000 	tsteq	r6, r0
    1a0c:	00770250 	rsbseq	r0, r7, r0, asr r2
    1a10:	02510116 	subseq	r0, r1, #-2147483643	; 0x80000005
    1a14:	01160078 	tsteq	r6, r8, ror r0
    1a18:	00740252 	rsbseq	r0, r4, r2, asr r2
    1a1c:	02530116 	subseq	r0, r3, #-2147483643	; 0x80000005
    1a20:	02160076 	andseq	r0, r6, #118	; 0x76
    1a24:	7b02087d 	blvc	83c20 <__HEAP_SIZE+0x82c20>
    1a28:	7d021600 	stcvc	6, cr1, [r2, #-0]
    1a2c:	4891030c 	ldmmi	r1, {r2, r3, r8, r9}
    1a30:	7d021606 	stcvc	6, cr1, [r2, #-24]	; 0xffffffe8
    1a34:	00750210 	rsbseq	r0, r5, r0, lsl r2
    1a38:	191e2000 	ldmdbne	lr, {sp}
    1a3c:	0b891000 	bleq	fe245a44 <__StackTop+0xc6145a44>
    1a40:	0b270000 	bleq	9c1a48 <__RAM_SIZE+0x8c1a48>
    1a44:	01160000 	tsteq	r6, r0
    1a48:	00770250 	rsbseq	r0, r7, r0, asr r2
    1a4c:	02510116 	subseq	r0, r1, #-2147483643	; 0x80000005
    1a50:	01160078 	tsteq	r6, r8, ror r0
    1a54:	00740252 	rsbseq	r0, r4, r2, asr r2
    1a58:	02530116 	subseq	r0, r3, #-2147483643	; 0x80000005
    1a5c:	02160076 	andseq	r0, r6, #118	; 0x76
    1a60:	7b02087d 	blvc	83c5c <__HEAP_SIZE+0x82c5c>
    1a64:	7d021600 	stcvc	6, cr1, [r2, #-0]
    1a68:	4891030c 	ldmmi	r1, {r2, r3, r8, r9}
    1a6c:	7d021606 	stcvc	6, cr1, [r2, #-24]	; 0xffffffe8
    1a70:	00750210 	rsbseq	r0, r5, r0, lsl r2
    1a74:	1aa62100 	bne	fe989e7c <__StackTop+0xc6889e7c>
    1a78:	0b491000 	bleq	1245a80 <__RAM_SIZE+0x1145a80>
    1a7c:	01160000 	tsteq	r6, r0
    1a80:	25080250 	strcs	r0, [r8, #-592]	; 0xfffffdb0
    1a84:	02510116 	subseq	r0, r1, #-2147483643	; 0x80000005
    1a88:	01160078 	tsteq	r6, r8, ror r0
    1a8c:	00740252 	rsbseq	r0, r4, r2, asr r2
    1a90:	02530116 	subseq	r0, r3, #-2147483643	; 0x80000005
    1a94:	21000076 	tstcs	r0, r6, ror r0
    1a98:	10001aba 			; <UNDEFINED> instruction: 0x10001aba
    1a9c:	00000b65 	andeq	r0, r0, r5, ror #22
    1aa0:	02510116 	subseq	r0, r1, #-2147483643	; 0x80000005
    1aa4:	01160078 	tsteq	r6, r8, ror r0
    1aa8:	00740252 	rsbseq	r0, r4, r2, asr r2
    1aac:	02530116 	subseq	r0, r3, #-2147483643	; 0x80000005
    1ab0:	22000076 	andcs	r0, r0, #118	; 0x76
    1ab4:	10001ada 	ldrdne	r1, [r0], -sl
    1ab8:	01500116 	cmpeq	r0, r6, lsl r1
    1abc:	51011630 	tstpl	r1, r0, lsr r6
    1ac0:	16007802 	strne	r7, [r0], -r2, lsl #16
    1ac4:	76025301 	strvc	r5, [r2], -r1, lsl #6
    1ac8:	02000000 	andeq	r0, r0, #0
    1acc:	05d20201 	ldrbeq	r0, [r2, #513]	; 0x201
    1ad0:	7d030000 	stcvc	0, cr0, [r3, #-0]
    1ad4:	1a00000b 	bne	1b08 <__HEAP_SIZE+0xb08>
    1ad8:	00000493 	muleq	r0, r3, r4
    1adc:	0f01d301 	svceq	0x0001d301
    1ae0:	0000ee01 	andeq	lr, r0, r1, lsl #28
    1ae4:	000ce000 	andeq	lr, ip, r0
    1ae8:	0010ca10 	andseq	ip, r0, r0, lsl sl
    1aec:	00100010 	andseq	r0, r0, r0, lsl r0
    1af0:	0fa30100 	svceq	0x00a30100
    1af4:	6f0f0000 	svcvs	0x000f0000
    1af8:	01007475 	tsteq	r0, r5, ror r4
    1afc:	062201d3 			; <UNDEFINED> instruction: 0x062201d3
    1b00:	62000001 	andvs	r0, r0, #1
    1b04:	5e000010 	mcrpl	0, 0, r0, cr0, cr0, {0}
    1b08:	17000010 	smladne	r0, r0, r0, r0
    1b0c:	000004c3 	andeq	r0, r0, r3, asr #9
    1b10:	2d01d301 	stccs	3, cr13, [r1, #-4]
    1b14:	000002ee 	andeq	r0, r0, lr, ror #5
    1b18:	00001084 	andeq	r1, r0, r4, lsl #1
    1b1c:	00001080 	andeq	r1, r0, r0, lsl #1
    1b20:	7864690f 	stmdavc	r4!, {r0, r1, r2, r3, r8, fp, sp, lr}^
    1b24:	01d30100 	bicseq	r0, r3, r0, lsl #2
    1b28:	0000ee3c 	andeq	lr, r0, ip, lsr lr
    1b2c:	0010b800 	andseq	fp, r0, r0, lsl #16
    1b30:	0010a200 	andseq	sl, r0, r0, lsl #4
    1b34:	05a81700 	streq	r1, [r8, #1792]!	; 0x700
    1b38:	d3010000 	movwle	r0, #4096	; 0x1000
    1b3c:	00ee4801 	rsceq	r4, lr, r1, lsl #16
    1b40:	113d0000 	teqne	sp, r0
    1b44:	11390000 	teqne	r9, r0
    1b48:	c1170000 	tstgt	r7, r0
    1b4c:	01000000 	mrseq	r0, (UNDEF: 0)
    1b50:	295701d3 	ldmdbcs	r7, {r0, r1, r4, r6, r7, r8}^
    1b54:	67000000 	strvs	r0, [r0, -r0]
    1b58:	5b000011 	blpl	1ba4 <__HEAP_SIZE+0xba4>
    1b5c:	17000011 	smladne	r0, r1, r0, r0
    1b60:	0000065f 	andeq	r0, r0, pc, asr r6
    1b64:	6b01d301 	blvs	76770 <__HEAP_SIZE+0x75770>
    1b68:	00000030 	andeq	r0, r0, r0, lsr r0
    1b6c:	000011c6 	andeq	r1, r0, r6, asr #3
    1b70:	000011ba 			; <UNDEFINED> instruction: 0x000011ba
    1b74:	00066517 	andeq	r6, r6, r7, lsl r5
    1b78:	01d30100 	bicseq	r0, r3, r0, lsl #2
    1b7c:	0000307e 	andeq	r3, r0, lr, ror r0
    1b80:	00121800 	andseq	r1, r2, r0, lsl #16
    1b84:	00121400 	andseq	r1, r2, r0, lsl #8
    1b88:	05931700 	ldreq	r1, [r3, #1792]	; 0x700
    1b8c:	d3010000 	movwle	r0, #4096	; 0x1000
    1b90:	00309201 	eorseq	r9, r0, r1, lsl #4
    1b94:	12400000 	subne	r0, r0, #0
    1b98:	12380000 	eorsne	r0, r8, #0
    1b9c:	fa1c0000 	blx	701ba4 <__RAM_SIZE+0x601ba4>
    1ba0:	01000004 	tsteq	r0, r4
    1ba4:	840e01db 	strhi	r0, [lr], #-475	; 0xfffffe25
    1ba8:	7b00000b 	blvc	1bdc <__HEAP_SIZE+0xbdc>
    1bac:	77000012 	smladvc	r0, r2, r0, r0
    1bb0:	29000012 	stmdbcs	r0, {r1, r4}
    1bb4:	01e70108 	mvneq	r0, r8, lsl #2
    1bb8:	000c8603 	andeq	r8, ip, r3, lsl #12
    1bbc:	00552a00 	subseq	r2, r5, r0, lsl #20
    1bc0:	0e01e801 	cdpeq	8, 0, cr14, cr1, cr1, {0}
    1bc4:	000000a2 	andeq	r0, r0, r2, lsr #1
    1bc8:	0100462a 	tsteq	r0, sl, lsr #12
    1bcc:	290e01e9 	stmdbcs	lr, {r0, r3, r5, r6, r7, r8}
    1bd0:	00000000 	andeq	r0, r0, r0
    1bd4:	0005ed1c 	andeq	lr, r5, ip, lsl sp
    1bd8:	01ea0100 	mvneq	r0, r0, lsl #2
    1bdc:	000c6505 	andeq	r6, ip, r5, lsl #10
    1be0:	0012bf00 	andseq	fp, r2, r0, lsl #30
    1be4:	0012bb00 	andseq	fp, r2, r0, lsl #22
    1be8:	04551c00 	ldrbeq	r1, [r5], #-3072	; 0xfffff400
    1bec:	ed010000 	stc	0, cr0, [r1, #-0]
    1bf0:	00850701 	addeq	r0, r5, r1, lsl #14
    1bf4:	12f70000 	rscsne	r0, r7, #0
    1bf8:	12eb0000 	rscne	r0, fp, #0
    1bfc:	671c0000 	ldrvs	r0, [ip, -r0]
    1c00:	01000004 	tsteq	r0, r4
    1c04:	850701f0 	strhi	r0, [r7, #-496]	; 0xfffffe10
    1c08:	54000000 	strpl	r0, [r0], #-0
    1c0c:	4a000013 	bmi	1c60 <__HEAP_SIZE+0xc60>
    1c10:	14000013 	strne	r0, [r0], #-19	; 0xffffffed
    1c14:	f301007a 	vqadd.u8	q0, <illegal reg q0.5>, q13
    1c18:	0fa31001 	svceq	0x00a31001
    1c1c:	13960000 	orrsne	r0, r6, #0
    1c20:	13940000 	orrsne	r0, r4, #0
    1c24:	7a140000 	bvc	501c2c <__RAM_SIZE+0x401c2c>
    1c28:	f4010032 	vst4.8	{d0-d3}, [r1 :256], r2
    1c2c:	0fa31001 	svceq	0x00a31001
    1c30:	13b40000 			; <UNDEFINED> instruction: 0x13b40000
    1c34:	13ae0000 			; <UNDEFINED> instruction: 0x13ae0000
    1c38:	7d1c0000 	ldcvc	0, cr0, [ip, #-0]
    1c3c:	01000004 	tsteq	r0, r4
    1c40:	301001ff 			; <UNDEFINED> instruction: 0x301001ff
    1c44:	f2000000 	vhadd.s8	d0, d0, d0
    1c48:	e6000013 			; <UNDEFINED> instruction: 0xe6000013
    1c4c:	1c000013 	stcne	0, cr0, [r0], {19}
    1c50:	00000664 	andeq	r0, r0, r4, ror #12
    1c54:	10021901 	andne	r1, r2, r1, lsl #18
    1c58:	00000030 	andeq	r0, r0, r0, lsr r0
    1c5c:	00001449 	andeq	r1, r0, r9, asr #8
    1c60:	0000143f 	andeq	r1, r0, pc, lsr r4
    1c64:	0004e61c 	andeq	lr, r4, ip, lsl r6
    1c68:	022c0100 	eoreq	r0, ip, #0, 2
    1c6c:	0000fa10 	andeq	pc, r0, r0, lsl sl	; <UNPREDICTABLE>
    1c70:	00148b00 	andseq	r8, r4, r0, lsl #22
    1c74:	00148900 	andseq	r8, r4, r0, lsl #18
    1c78:	0cfe2b00 	vldmiaeq	lr!, {d18-d17}
    1c7c:	1b1c1000 	blne	705c84 <__RAM_SIZE+0x605c84>
    1c80:	122b0000 	eorne	r0, fp, #0
    1c84:	2710000d 	ldrcs	r0, [r0, -sp]
    1c88:	2b00001b 	blcs	1cfc <__HEAP_SIZE+0xcfc>
    1c8c:	10000d28 	andne	r0, r0, r8, lsr #26
    1c90:	00001b32 	andeq	r1, r0, r2, lsr fp
    1c94:	000d3a2b 	andeq	r3, sp, fp, lsr #20
    1c98:	001b3210 	andseq	r3, fp, r0, lsl r2
    1c9c:	0d762b00 	vldmdbeq	r6!, {d18-d17}
    1ca0:	1b3d1000 	blne	f45ca8 <__RAM_SIZE+0xe45ca8>
    1ca4:	802b0000 	eorhi	r0, fp, r0
    1ca8:	4810000d 	ldmdami	r0, {r0, r2, r3}
    1cac:	2b00001b 	blcs	1d20 <__HEAP_SIZE+0xd20>
    1cb0:	10000d8a 	andne	r0, r0, sl, lsl #27
    1cb4:	00001b53 	andeq	r1, r0, r3, asr fp
    1cb8:	000d9a2b 	andeq	r9, sp, fp, lsr #20
    1cbc:	001b5e10 	andseq	r5, fp, r0, lsl lr
    1cc0:	0da42b00 			; <UNDEFINED> instruction: 0x0da42b00
    1cc4:	1b481000 	blne	1205ccc <__RAM_SIZE+0x1105ccc>
    1cc8:	b02b0000 	eorlt	r0, fp, r0
    1ccc:	5310000d 	tstpl	r0, #13
    1cd0:	2b00001b 	blcs	1d44 <__HEAP_SIZE+0xd44>
    1cd4:	10000db4 			; <UNDEFINED> instruction: 0x10000db4
    1cd8:	00001b69 	andeq	r1, r0, r9, ror #22
    1cdc:	000dba2b 	andeq	fp, sp, fp, lsr #20
    1ce0:	001b3d10 	andseq	r3, fp, r0, lsl sp
    1ce4:	0dc82b00 	vstreq	d18, [r8]
    1ce8:	1b481000 	blne	1205cf0 <__RAM_SIZE+0x1105cf0>
    1cec:	d02b0000 	eorle	r0, fp, r0
    1cf0:	5310000d 	tstpl	r0, #13
    1cf4:	2b00001b 	blcs	1d68 <__HEAP_SIZE+0xd68>
    1cf8:	10000dd4 	ldrdne	r0, [r0], -r4
    1cfc:	00001b69 	andeq	r1, r0, r9, ror #22
    1d00:	000de42b 	andeq	lr, sp, fp, lsr #8
    1d04:	001b4810 	andseq	r4, fp, r0, lsl r8
    1d08:	0dee2b00 			; <UNDEFINED> instruction: 0x0dee2b00
    1d0c:	1b3d1000 	blne	f45d14 <__RAM_SIZE+0xe45d14>
    1d10:	f82b0000 			; <UNDEFINED> instruction: 0xf82b0000
    1d14:	4810000d 	ldmdami	r0, {r0, r2, r3}
    1d18:	2b00001b 	blcs	1d8c <__HEAP_SIZE+0xd8c>
    1d1c:	10000e04 	andne	r0, r0, r4, lsl #28
    1d20:	00001b5e 	andeq	r1, r0, lr, asr fp
    1d24:	000e102b 	andeq	r1, lr, fp, lsr #32
    1d28:	001b4810 	andseq	r4, fp, r0, lsl r8
    1d2c:	0e342b00 	vaddeq.f64	d2, d4, d0
    1d30:	1b531000 	blne	14c5d38 <__RAM_SIZE+0x13c5d38>
    1d34:	462b0000 	strtmi	r0, [fp], -r0
    1d38:	5e10000e 	cdppl	0, 1, cr0, cr0, cr14, {0}
    1d3c:	2b00001b 	blcs	1db0 <__HEAP_SIZE+0xdb0>
    1d40:	10000e56 	andne	r0, r0, r6, asr lr
    1d44:	00001b74 	andeq	r1, r0, r4, ror fp
    1d48:	000e5e2b 	andeq	r5, lr, fp, lsr #28
    1d4c:	001b5310 	andseq	r5, fp, r0, lsl r3
    1d50:	0e6a2b00 	vmuleq.f64	d18, d10, d0
    1d54:	1b741000 	blne	1d05d5c <__RAM_SIZE+0x1c05d5c>
    1d58:	722b0000 	eorvc	r0, fp, #0
    1d5c:	5310000e 	tstpl	r0, #14
    1d60:	2b00001b 	blcs	1dd4 <__HEAP_SIZE+0xdd4>
    1d64:	10000e7e 	andne	r0, r0, lr, ror lr
    1d68:	00001b74 	andeq	r1, r0, r4, ror fp
    1d6c:	000e8a2b 	andeq	r8, lr, fp, lsr #20
    1d70:	001b5310 	andseq	r5, fp, r0, lsl r3
    1d74:	0e962b00 	vfnmseq.f64	d2, d6, d0
    1d78:	1b741000 	blne	1d05d80 <__RAM_SIZE+0x1c05d80>
    1d7c:	9e2b0000 	cdpls	0, 2, cr0, cr11, cr0, {0}
    1d80:	5310000e 	tstpl	r0, #14
    1d84:	2b00001b 	blcs	1df8 <__HEAP_SIZE+0xdf8>
    1d88:	10000ea6 	andne	r0, r0, r6, lsr #29
    1d8c:	00001b48 	andeq	r1, r0, r8, asr #22
    1d90:	000eb62b 	andeq	fp, lr, fp, lsr #12
    1d94:	001b2710 	andseq	r2, fp, r0, lsl r7
    1d98:	0ec62b00 	vdiveq.f64	d18, d6, d0
    1d9c:	1b741000 	blne	1d05da4 <__RAM_SIZE+0x1c05da4>
    1da0:	ee2b0000 	cdp	0, 2, cr0, cr11, cr0, {0}
    1da4:	7f10000e 	svcvc	0x0010000e
    1da8:	2b00001b 	blcs	1e1c <__HEAP_SIZE+0xe1c>
    1dac:	10000f00 	andne	r0, r0, r0, lsl #30
    1db0:	00001b32 	andeq	r1, r0, r2, lsr fp
    1db4:	000f3220 	andeq	r3, pc, r0, lsr #4
    1db8:	000fa810 	andeq	sl, pc, r0, lsl r8	; <UNPREDICTABLE>
    1dbc:	000eae00 	andeq	sl, lr, r0, lsl #28
    1dc0:	50011600 	andpl	r1, r1, r0, lsl #12
    1dc4:	16007a02 	strne	r7, [r0], -r2, lsl #20
    1dc8:	74025101 	strvc	r5, [r2], #-257	; 0xfffffeff
    1dcc:	52011600 	andpl	r1, r1, #0, 12
    1dd0:	16007b02 	strne	r7, [r0], -r2, lsl #22
    1dd4:	75025301 	strvc	r5, [r2, #-769]	; 0xfffffcff
    1dd8:	7d021600 	stcvc	6, cr1, [r2, #-0]
    1ddc:	00910500 	addseq	r0, r1, r0, lsl #10
    1de0:	162908f6 			; <UNDEFINED> instruction: 0x162908f6
    1de4:	03087d02 	movweq	r7, #36098	; 0x8d02
    1de8:	16060891 			; <UNDEFINED> instruction: 0x16060891
    1dec:	030c7d02 	movweq	r7, #52482	; 0xcd02
    1df0:	16060c91 			; <UNDEFINED> instruction: 0x16060c91
    1df4:	03107d02 	tsteq	r0, #2, 26	; 0x80
    1df8:	00061091 	muleq	r6, r1, r0
    1dfc:	00100c2b 	andseq	r0, r0, fp, lsr #24
    1e00:	001b7410 	andseq	r7, fp, r0, lsl r4
    1e04:	101c2b00 	andsne	r2, ip, r0, lsl #22
    1e08:	1b321000 	blne	c85e10 <__RAM_SIZE+0xb85e10>
    1e0c:	44200000 	strtmi	r0, [r0], #-0
    1e10:	a8100010 	ldmdage	r0, {r4}
    1e14:	0c00000f 	stceq	0, cr0, [r0], {15}
    1e18:	1600000f 	strne	r0, [r0], -pc
    1e1c:	7a025001 	bvc	95e28 <__HEAP_SIZE+0x94e28>
    1e20:	51011600 	tstpl	r1, r0, lsl #12
    1e24:	16007402 	strne	r7, [r0], -r2, lsl #8
    1e28:	7b025201 	blvc	96634 <__HEAP_SIZE+0x95634>
    1e2c:	53011600 	movwpl	r1, #5632	; 0x1600
    1e30:	16007502 	strne	r7, [r0], -r2, lsl #10
    1e34:	06007d02 	streq	r7, [r0], -r2, lsl #26
    1e38:	f67fa891 			; <UNDEFINED> instruction: 0xf67fa891
    1e3c:	02162908 	andseq	r2, r6, #8, 18	; 0x20000
    1e40:	9103087d 	tstls	r3, sp, ror r8
    1e44:	02160608 	andseq	r0, r6, #8, 12	; 0x800000
    1e48:	78020c7d 	stmdavc	r2, {r0, r2, r3, r4, r5, r6, sl, fp}
    1e4c:	7d021600 	stcvc	6, cr1, [r2, #-0]
    1e50:	10910710 	addsne	r0, r1, r0, lsl r7
    1e54:	f7ff0b06 			; <UNDEFINED> instruction: 0xf7ff0b06
    1e58:	6421001a 	strtvs	r0, [r1], #-26	; 0xffffffe6
    1e5c:	28100010 	ldmdacs	r0, {r4}
    1e60:	1600000f 	strne	r0, [r0], -pc
    1e64:	74025101 	strvc	r5, [r2], #-257	; 0xfffffeff
    1e68:	52011600 	andpl	r1, r1, #0, 12
    1e6c:	167f7802 	ldrbtne	r7, [pc], -r2, lsl #16
    1e70:	75025301 	strvc	r5, [r2, #-769]	; 0xfffffcff
    1e74:	8e200000 	cdphi	0, 2, cr0, cr0, cr0, {0}
    1e78:	0f100010 	svceq	0x00100010
    1e7c:	84000015 	strhi	r0, [r0], #-21	; 0xffffffeb
    1e80:	1600000f 	strne	r0, [r0], -pc
    1e84:	7a025001 	bvc	95e90 <__HEAP_SIZE+0x94e90>
    1e88:	51011600 	tstpl	r1, r0, lsl #12
    1e8c:	16007402 	strne	r7, [r0], -r2, lsl #8
    1e90:	78025201 	stmdavc	r2, {r0, r9, ip, lr}
    1e94:	53011600 	movwpl	r1, #5632	; 0x1600
    1e98:	16007502 	strne	r7, [r0], -r2, lsl #10
    1e9c:	0c007d02 	stceq	13, cr7, [r0], {2}
    1ea0:	264f0076 			; <UNDEFINED> instruction: 0x264f0076
    1ea4:	76270076 			; <UNDEFINED> instruction: 0x76270076
    1ea8:	1c264f00 	stcne	15, cr4, [r6], #-0
    1eac:	047d0216 	ldrbteq	r0, [sp], #-534	; 0xfffffdea
    1eb0:	4f007604 	svcmi	0x00007604
    1eb4:	7d021625 	stcvc	6, cr1, [r2, #-148]	; 0xffffff6c
    1eb8:	163a0108 	ldrtne	r0, [sl], -r8, lsl #2
    1ebc:	040c7d02 	streq	r7, [ip], #-3330	; 0xfffff2fe
    1ec0:	067fb091 			; <UNDEFINED> instruction: 0x067fb091
    1ec4:	107d0216 	rsbsne	r0, sp, r6, lsl r2
    1ec8:	16007702 	strne	r7, [r0], -r2, lsl #14
    1ecc:	01147d02 	tsteq	r4, r2, lsl #26
    1ed0:	bc220035 	stclt	0, cr0, [r2], #-212	; 0xffffff2c
    1ed4:	16100010 			; <UNDEFINED> instruction: 0x16100010
    1ed8:	08025001 	stmdaeq	r2, {r0, ip, lr}
    1edc:	51011620 	tstpl	r1, r0, lsr #12
    1ee0:	16007402 	strne	r7, [r0], -r2, lsl #8
    1ee4:	76025201 	strvc	r5, [r2], -r1, lsl #4
    1ee8:	5301167f 	movwpl	r1, #5759	; 0x167f
    1eec:	00007502 	andeq	r7, r0, r2, lsl #10
    1ef0:	00290300 	eoreq	r0, r9, r0, lsl #6
    1ef4:	3c1a0000 	ldccc	0, cr0, [sl], {-0}
    1ef8:	01000005 	tsteq	r0, r5
    1efc:	010f0153 	tsteq	pc, r3, asr r1	; <UNPREDICTABLE>
    1f00:	000000ee 	andeq	r0, r0, lr, ror #1
    1f04:	100010d0 	ldrdne	r1, [r0], -r0
    1f08:	10001466 	andne	r1, r0, r6, ror #8
    1f0c:	0000149e 	muleq	r0, lr, r4
    1f10:	00135701 	andseq	r5, r3, r1, lsl #14
    1f14:	756f0f00 	strbvc	r0, [pc, #-3840]!	; 101c <__HEAP_SIZE+0x1c>
    1f18:	53010074 	movwpl	r0, #4212	; 0x1074
    1f1c:	01062201 	tsteq	r6, r1, lsl #4
    1f20:	15000000 	strne	r0, [r0, #-0]
    1f24:	14fc0000 	ldrbtne	r0, [ip], #0
    1f28:	c3170000 	tstgt	r7, #0
    1f2c:	01000004 	tsteq	r0, r4
    1f30:	ee2d0153 	mcr	1, 1, r0, cr13, cr3, {2}
    1f34:	24000002 	strcs	r0, [r0], #-2
    1f38:	20000015 	andcs	r0, r0, r5, lsl r0
    1f3c:	0f000015 	svceq	0x00000015
    1f40:	00786469 	rsbseq	r6, r8, r9, ror #8
    1f44:	3c015301 	stccc	3, cr5, [r1], {1}
    1f48:	000000ee 	andeq	r0, r0, lr, ror #1
    1f4c:	00001548 	andeq	r1, r0, r8, asr #10
    1f50:	00001544 	andeq	r1, r0, r4, asr #10
    1f54:	0005a817 	andeq	sl, r5, r7, lsl r8
    1f58:	01530100 	cmpeq	r3, r0, lsl #2
    1f5c:	0000ee48 	andeq	lr, r0, r8, asr #28
    1f60:	00156a00 	andseq	r6, r5, r0, lsl #20
    1f64:	00156600 	andseq	r6, r5, r0, lsl #12
    1f68:	00c11700 	sbceq	r1, r1, r0, lsl #14
    1f6c:	53010000 	movwpl	r0, #4096	; 0x1000
    1f70:	00295701 	eoreq	r5, r9, r1, lsl #14
    1f74:	15920000 	ldrne	r0, [r2]
    1f78:	15880000 	strne	r0, [r8]
    1f7c:	5f170000 	svcpl	0x00170000
    1f80:	01000006 	tsteq	r0, r6
    1f84:	306b0153 	rsbcc	r0, fp, r3, asr r1
    1f88:	ea000000 	b	1f90 <__HEAP_SIZE+0xf90>
    1f8c:	e2000015 	and	r0, r0, #21
    1f90:	17000015 	smladne	r0, r5, r0, r0
    1f94:	00000665 	andeq	r0, r0, r5, ror #12
    1f98:	7e015301 	cdpvc	3, 0, cr5, cr1, cr1, {0}
    1f9c:	00000030 	andeq	r0, r0, r0, lsr r0
    1fa0:	0000162a 	andeq	r1, r0, sl, lsr #12
    1fa4:	00001620 	andeq	r1, r0, r0, lsr #12
    1fa8:	00059317 	andeq	r9, r5, r7, lsl r3
    1fac:	01530100 	cmpeq	r3, r0, lsl #2
    1fb0:	00003092 	muleq	r0, r2, r0
    1fb4:	00167000 	andseq	r7, r6, r0
    1fb8:	00166c00 	andseq	r6, r6, r0, lsl #24
    1fbc:	75621200 	strbvc	r1, [r2, #-512]!	; 0xfffffe00
    1fc0:	55010066 	strpl	r0, [r1, #-102]	; 0xffffff9a
    1fc4:	13570801 	cmpne	r7, #65536	; 0x10000
    1fc8:	91030000 	mrsls	r0, (UNDEF: 3)
    1fcc:	6c147fb0 	ldcvs	15, cr7, [r4], {176}	; 0xb0
    1fd0:	01006e65 	tsteq	r0, r5, ror #28
    1fd4:	ee0a0156 	mcr	1, 0, r0, cr10, cr6, {2}
    1fd8:	be000000 	cdplt	0, 0, cr0, cr0, cr0, {0}
    1fdc:	90000016 	andls	r0, r0, r6, lsl r0
    1fe0:	1c000016 	stcne	0, cr0, [r0], {22}
    1fe4:	000006a9 	andeq	r0, r0, r9, lsr #13
    1fe8:	0a015701 	beq	57bf4 <__HEAP_SIZE+0x56bf4>
    1fec:	00000029 	andeq	r0, r0, r9, lsr #32
    1ff0:	000017dd 	ldrdeq	r1, [r0], -sp
    1ff4:	000017d3 	ldrdeq	r1, [r0], -r3
    1ff8:	00044f13 	andeq	r4, r4, r3, lsl pc
    1ffc:	015a0100 	cmpeq	sl, r0, lsl #2
    2000:	00137717 	andseq	r7, r3, r7, lsl r7
    2004:	a0030500 	andge	r0, r3, r0, lsl #10
    2008:	1c100036 	ldcne	0, cr0, [r0], {54}	; 0x36
    200c:	000004fa 	strdeq	r0, [r0], -sl
    2010:	08016f01 	stmdaeq	r1, {r0, r8, r9, sl, fp, sp, lr}
    2014:	00000b7d 	andeq	r0, r0, sp, ror fp
    2018:	0000183f 	andeq	r1, r0, pc, lsr r8
    201c:	00001833 	andeq	r1, r0, r3, lsr r8
    2020:	0004ab1c 	andeq	sl, r4, ip, lsl fp
    2024:	017f0100 	cmneq	pc, r0, lsl #2
    2028:	00008507 	andeq	r8, r0, r7, lsl #10
    202c:	00189c00 	andseq	r9, r8, r0, lsl #24
    2030:	00189200 	andseq	r9, r8, r0, lsl #4
    2034:	6d741400 	cfldrdvs	mvd1, [r4, #-0]
    2038:	80010070 	andhi	r0, r1, r0, ror r0
    203c:	00290a01 	eoreq	r0, r9, r1, lsl #20
    2040:	18df0000 	ldmne	pc, {}^	; <UNPREDICTABLE>
    2044:	18db0000 	ldmne	fp, {}^	; <UNPREDICTABLE>
    2048:	ca1c0000 	bgt	702050 <__RAM_SIZE+0x602050>
    204c:	01000004 	tsteq	r0, r4
    2050:	5f110181 	svcpl	0x00110181
    2054:	10000000 	andne	r0, r0, r0
    2058:	04000019 	streq	r0, [r0], #-25	; 0xffffffe7
    205c:	1d000019 	stcne	0, cr0, [r0, #-100]	; 0xffffff9c
    2060:	100012ea 	andne	r1, r0, sl, ror #5
    2064:	1000134a 	andne	r1, r0, sl, asr #6
    2068:	00001134 	andeq	r1, r0, r4, lsr r1
    206c:	00038a1c 	andeq	r8, r3, ip, lsl sl
    2070:	019c0100 	orrseq	r0, ip, r0, lsl #2
    2074:	00003012 	andeq	r3, r0, r2, lsl r0
    2078:	00195f00 	andseq	r5, r9, r0, lsl #30
    207c:	00195b00 	andseq	r5, r9, r0, lsl #22
    2080:	f42b0000 	vld4.8	{d0-d3}, [fp], r0
    2084:	1c100010 	ldcne	0, cr0, [r0], {16}
    2088:	2b00001b 	blcs	20fc <__HEAP_SIZE+0x10fc>
    208c:	10001108 	andne	r1, r0, r8, lsl #2
    2090:	00001b32 	andeq	r1, r0, r2, lsr fp
    2094:	00111a2b 	andseq	r1, r1, fp, lsr #20
    2098:	001b2710 	andseq	r2, fp, r0, lsl r7
    209c:	112c2b00 			; <UNDEFINED> instruction: 0x112c2b00
    20a0:	1b271000 	blne	9c60a8 <__RAM_SIZE+0x8c60a8>
    20a4:	3e2b0000 	cdpcc	0, 2, cr0, cr11, cr0, {0}
    20a8:	32100011 	andscc	r0, r0, #17
    20ac:	2b00001b 	blcs	2120 <__HEAP_SIZE+0x1120>
    20b0:	1000114e 	andne	r1, r0, lr, asr #2
    20b4:	00001b32 	andeq	r1, r0, r2, lsr fp
    20b8:	00119620 	andseq	r9, r1, r0, lsr #12
    20bc:	00179110 	andseq	r9, r7, r0, lsl r1
    20c0:	0011b400 	andseq	fp, r1, r0, lsl #8
    20c4:	50011600 	andpl	r1, r1, r0, lsl #12
    20c8:	7f9c9104 	svcvc	0x009c9104
    20cc:	51011606 	tstpl	r1, r6, lsl #12
    20d0:	7fa89104 	svcvc	0x00a89104
    20d4:	52011606 	andpl	r1, r1, #6291456	; 0x600000
    20d8:	16007a02 	strne	r7, [r0], -r2, lsl #20
    20dc:	7b025301 	blvc	96ce8 <__HEAP_SIZE+0x95ce8>
    20e0:	7d021600 	stcvc	6, cr1, [r2, #-0]
    20e4:	90030500 	andls	r0, r3, r0, lsl #10
    20e8:	16100036 			; <UNDEFINED> instruction: 0x16100036
    20ec:	01047d02 	tsteq	r4, r2, lsl #26
    20f0:	7d021633 	stcvc	6, cr1, [r2, #-204]	; 0xffffff34
    20f4:	0c910308 	ldceq	3, cr0, [r1], {8}
    20f8:	7d021606 	stcvc	6, cr1, [r2, #-24]	; 0xffffffe8
    20fc:	1091030c 	addsne	r0, r1, ip, lsl #6
    2100:	b4200006 	strtlt	r0, [r0], #-6
    2104:	91100011 	tstls	r0, r1, lsl r0
    2108:	fe000017 	mcr2	0, 0, r0, cr0, cr7, {0}
    210c:	16000011 			; <UNDEFINED> instruction: 0x16000011
    2110:	91045001 	tstls	r4, r1
    2114:	16067f9c 			; <UNDEFINED> instruction: 0x16067f9c
    2118:	91045101 	tstls	r4, r1, lsl #2
    211c:	16067fa8 	strne	r7, [r6], -r8, lsr #31
    2120:	7a025201 	bvc	9692c <__HEAP_SIZE+0x9592c>
    2124:	53011600 	movwpl	r1, #5632	; 0x1600
    2128:	16007b02 	strne	r7, [r0], -r2, lsl #22
    212c:	05007d02 	streq	r7, [r0, #-3330]	; 0xfffff2fe
    2130:	00369403 	eorseq	r9, r6, r3, lsl #8
    2134:	7d021610 	stcvc	6, cr1, [r2, #-64]	; 0xffffffc0
    2138:	16340104 	ldrtne	r0, [r4], -r4, lsl #2
    213c:	03087d02 	movweq	r7, #36098	; 0x8d02
    2140:	16060c91 			; <UNDEFINED> instruction: 0x16060c91
    2144:	030c7d02 	movweq	r7, #52482	; 0xcd02
    2148:	00061091 	muleq	r6, r1, r0
    214c:	0011dc20 	andseq	sp, r1, r0, lsr #24
    2150:	00179110 	andseq	r9, r7, r0, lsl r1
    2154:	00123800 	andseq	r3, r2, r0, lsl #16
    2158:	50011600 	andpl	r1, r1, r0, lsl #12
    215c:	7f9c9104 	svcvc	0x009c9104
    2160:	51011606 	tstpl	r1, r6, lsl #12
    2164:	7fa89104 	svcvc	0x00a89104
    2168:	52011606 	andpl	r1, r1, #6291456	; 0x600000
    216c:	16007a02 	strne	r7, [r0], -r2, lsl #20
    2170:	7b025301 	blvc	96d7c <__HEAP_SIZE+0x95d7c>
    2174:	7d021600 	stcvc	6, cr1, [r2, #-0]
    2178:	0c910308 	ldceq	3, cr0, [r1], {8}
    217c:	7d021606 	stcvc	6, cr1, [r2, #-24]	; 0xffffffe8
    2180:	1091030c 	addsne	r0, r1, ip, lsl #6
    2184:	00200006 	eoreq	r0, r0, r6
    2188:	89100012 	ldmdbhi	r0, {r1, r4}
    218c:	8100000b 	tsthi	r0, fp
    2190:	16000012 			; <UNDEFINED> instruction: 0x16000012
    2194:	91045001 	tstls	r4, r1
    2198:	16067f9c 			; <UNDEFINED> instruction: 0x16067f9c
    219c:	91045101 	tstls	r4, r1, lsl #2
    21a0:	16067fa8 	strne	r7, [r6], -r8, lsr #31
    21a4:	7a025201 	bvc	969b0 <__HEAP_SIZE+0x959b0>
    21a8:	53011600 	movwpl	r1, #5632	; 0x1600
    21ac:	16007b02 	strne	r7, [r0], -r2, lsl #22
    21b0:	03007d02 	movweq	r7, #3330	; 0xd02
    21b4:	162908f5 			; <UNDEFINED> instruction: 0x162908f5
    21b8:	02087d02 	andeq	r7, r8, #2, 26	; 0x80
    21bc:	02160075 	andseq	r0, r6, #117	; 0x75
    21c0:	91030c7d 	tstls	r3, sp, ror ip
    21c4:	0216060c 	andseq	r0, r6, #12, 12	; 0xc00000
    21c8:	9103107d 	tstls	r3, sp, ror r0
    21cc:	2b000610 	blcs	3a14 <__HEAP_SIZE+0x2a14>
    21d0:	1000120e 	andne	r1, r0, lr, lsl #4
    21d4:	00001b5e 	andeq	r1, r0, lr, asr fp
    21d8:	0012242b 	andseq	r2, r2, fp, lsr #8
    21dc:	001b6910 	andseq	r6, fp, r0, lsl r9
    21e0:	122a2b00 	eorne	r2, sl, #0, 22
    21e4:	1b3d1000 	blne	f461ec <__RAM_SIZE+0xe461ec>
    21e8:	362b0000 	strtcc	r0, [fp], -r0
    21ec:	5e100012 	mrcpl	0, 0, r0, cr0, cr2, {0}
    21f0:	2b00001b 	blcs	2264 <__HEAP_SIZE+0x1264>
    21f4:	10001248 	andne	r1, r0, r8, asr #4
    21f8:	00001b48 	andeq	r1, r0, r8, asr #22
    21fc:	0012542b 	andseq	r5, r2, fp, lsr #8
    2200:	001b8a10 	andseq	r8, fp, r0, lsl sl
    2204:	125a2b00 	subsne	r2, sl, #0, 22
    2208:	1b951000 	blne	fe546210 <__StackTop+0xc6446210>
    220c:	662b0000 	strtvs	r0, [fp], -r0
    2210:	5e100012 	mrcpl	0, 0, r0, cr0, cr2, {0}
    2214:	2b00001b 	blcs	2288 <__HEAP_SIZE+0x1288>
    2218:	10001276 	andne	r1, r0, r6, ror r2
    221c:	00001b27 	andeq	r1, r0, r7, lsr #22
    2220:	0012802b 	andseq	r8, r2, fp, lsr #32
    2224:	001b9510 	andseq	r9, fp, r0, lsl r5
    2228:	128c2b00 	addne	r2, ip, #0, 22
    222c:	1ba01000 	blne	fe806234 <__StackTop+0xc6706234>
    2230:	9a2b0000 	bls	ac2238 <__RAM_SIZE+0x9c2238>
    2234:	3d100012 	ldccc	0, cr0, [r0, #-72]	; 0xffffffb8
    2238:	2b00001b 	blcs	22ac <__HEAP_SIZE+0x12ac>
    223c:	100012a6 	andne	r1, r0, r6, lsr #5
    2240:	00001b5e 	andeq	r1, r0, lr, asr fp
    2244:	0012b22b 	andseq	fp, r2, fp, lsr #4
    2248:	001b3210 	andseq	r3, fp, r0, lsl r2
    224c:	12c02b00 	sbcne	r2, r0, #0, 22
    2250:	1b271000 	blne	9c6258 <__RAM_SIZE+0x8c6258>
    2254:	da2b0000 	ble	ac225c <__RAM_SIZE+0x9c225c>
    2258:	32100012 	andscc	r0, r0, #18
    225c:	1500001b 	strne	r0, [r0, #-27]	; 0xffffffe5
    2260:	100013f2 	strdne	r1, [r0], -r2
    2264:	00001791 	muleq	r0, r1, r7
    2268:	04500116 	ldrbeq	r0, [r0], #-278	; 0xfffffeea
    226c:	067f9c91 			; <UNDEFINED> instruction: 0x067f9c91
    2270:	04510116 	ldrbeq	r0, [r1], #-278	; 0xfffffeea
    2274:	067fa891 			; <UNDEFINED> instruction: 0x067fa891
    2278:	02520116 	subseq	r0, r2, #-2147483643	; 0x80000005
    227c:	0116007a 	tsteq	r6, sl, ror r0
    2280:	007b0253 	rsbseq	r0, fp, r3, asr r2
    2284:	007d0216 	rsbseq	r0, sp, r6, lsl r2
    2288:	7fb09103 	svcvc	0x00b09103
    228c:	047d0216 	ldrbteq	r0, [sp], #-534	; 0xfffffdea
    2290:	16007402 	strne	r7, [r0], -r2, lsl #8
    2294:	03087d02 	movweq	r7, #36098	; 0x8d02
    2298:	16060c91 			; <UNDEFINED> instruction: 0x16060c91
    229c:	030c7d02 	movweq	r7, #52482	; 0xcd02
    22a0:	00061091 	muleq	r6, r1, r0
    22a4:	01331800 	teqeq	r3, r0, lsl #16
    22a8:	13670000 	cmnne	r7, #0
    22ac:	30190000 	andscc	r0, r9, r0
    22b0:	1f000000 	svcne	0x00000000
    22b4:	0fa31800 	svceq	0x00a31800
    22b8:	13770000 	cmnne	r7, #0
    22bc:	30190000 	andscc	r0, r9, r0
    22c0:	09000000 	stmdbeq	r0, {}	; <UNPREDICTABLE>
    22c4:	13670300 	cmnne	r7, #0, 6
    22c8:	891a0000 	ldmdbhi	sl, {}	; <UNPREDICTABLE>
    22cc:	01000006 	tsteq	r0, r6
    22d0:	010f0132 	tsteq	pc, r2, lsr r1	; <UNPREDICTABLE>
    22d4:	000000ee 	andeq	r0, r0, lr, ror #1
    22d8:	10000c14 	andne	r0, r0, r4, lsl ip
    22dc:	10000cda 	ldrdne	r0, [r0], -sl
    22e0:	0000197d 	andeq	r1, r0, sp, ror r9
    22e4:	00150f01 	andseq	r0, r5, r1, lsl #30
    22e8:	756f0f00 	strbvc	r0, [pc, #-3840]!	; 13f0 <__HEAP_SIZE+0x3f0>
    22ec:	32010074 	andcc	r0, r1, #116	; 0x74
    22f0:	01062c01 	tsteq	r6, r1, lsl #24
    22f4:	19be0000 	ldmibne	lr!, {}	; <UNPREDICTABLE>
    22f8:	19b60000 	ldmibne	r6!, {}	; <UNPREDICTABLE>
    22fc:	c3170000 	tstgt	r7, #0
    2300:	01000004 	tsteq	r0, r4
    2304:	ee370132 	mrc	1, 1, r0, cr7, cr2, {1}
    2308:	fe000002 	cdp2	0, 0, cr0, cr0, cr2, {0}
    230c:	f6000019 			; <UNDEFINED> instruction: 0xf6000019
    2310:	0f000019 	svceq	0x00000019
    2314:	00786469 	rsbseq	r6, r8, r9, ror #8
    2318:	46013201 	strmi	r3, [r1], -r1, lsl #4
    231c:	000000ee 	andeq	r0, r0, lr, ror #1
    2320:	00001a3e 	andeq	r1, r0, lr, lsr sl
    2324:	00001a36 	andeq	r1, r0, r6, lsr sl
    2328:	0005a817 	andeq	sl, r5, r7, lsl r8
    232c:	01320100 	teqeq	r2, r0, lsl #2
    2330:	0000ee52 	andeq	lr, r0, r2, asr lr
    2334:	001a7a00 	andseq	r7, sl, r0, lsl #20
    2338:	001a7600 	andseq	r7, sl, r0, lsl #12
    233c:	00c11700 	sbceq	r1, r1, r0, lsl #14
    2340:	32010000 	andcc	r0, r1, #0
    2344:	007e6d01 	rsbseq	r6, lr, r1, lsl #26
    2348:	1aa20000 	bne	fe882350 <__StackTop+0xc6782350>
    234c:	1a980000 	bne	fe602354 <__StackTop+0xc6502354>
    2350:	fa100000 	blx	402358 <__RAM_SIZE+0x302358>
    2354:	01000004 	tsteq	r0, r4
    2358:	7d790132 	ldfvce	f0, [r9, #-200]!	; 0xffffff38
    235c:	0200000b 	andeq	r0, r0, #11
    2360:	26100891 			; <UNDEFINED> instruction: 0x26100891
    2364:	01000008 	tsteq	r0, r8
    2368:	7e960132 	mrcvc	1, 4, r0, cr6, cr2, {1}
    236c:	02000000 	andeq	r0, r0, #0
    2370:	5f101091 	svcpl	0x00101091
    2374:	01000006 	tsteq	r0, r6
    2378:	30a90132 	adccc	r0, r9, r2, lsr r1
    237c:	02000000 	andeq	r0, r0, #0
    2380:	65101891 	ldrvs	r1, [r0, #-2193]	; 0xfffff76f
    2384:	01000006 	tsteq	r0, r6
    2388:	30bc0132 	adcscc	r0, ip, r2, lsr r1
    238c:	02000000 	andeq	r0, r0, #0
    2390:	93171c91 	tstls	r7, #37120	; 0x9100
    2394:	01000005 	tsteq	r0, r5
    2398:	30d00132 	sbcscc	r0, r0, r2, lsr r1
    239c:	f6000000 			; <UNDEFINED> instruction: 0xf6000000
    23a0:	f200001a 	vqadd.s8	d0, d0, d10
    23a4:	1200001a 	andne	r0, r0, #26
    23a8:	00667562 	rsbeq	r7, r6, r2, ror #10
    23ac:	08013401 	stmdaeq	r1, {r0, sl, ip, sp}
    23b0:	00001357 	andeq	r1, r0, r7, asr r3
    23b4:	7fb89103 	svcvc	0x00b89103
    23b8:	6e656c14 	mcrvs	12, 3, r6, cr5, cr4, {0}
    23bc:	01350100 	teqeq	r5, r0, lsl #2
    23c0:	0000ee0a 	andeq	lr, r0, sl, lsl #28
    23c4:	001b2100 	andseq	r2, fp, r0, lsl #2
    23c8:	001b1500 	andseq	r1, fp, r0, lsl #10
    23cc:	00d81e00 	sbcseq	r1, r8, r0, lsl #28
    23d0:	14b00000 	ldrtne	r0, [r0], #0
    23d4:	e71c0000 	ldr	r0, [ip, -r0]
    23d8:	01000005 	tsteq	r0, r5
    23dc:	3a12013f 	bcc	4828e0 <__RAM_SIZE+0x3828e0>
    23e0:	71000001 	tstvc	r0, r1
    23e4:	6d00001b 	stcvs	0, cr0, [r0, #-108]	; 0xffffff94
    23e8:	2b00001b 	blcs	245c <__HEAP_SIZE+0x145c>
    23ec:	10000c6c 	andne	r0, r0, ip, ror #24
    23f0:	00001bab 	andeq	r1, r0, fp, lsr #23
    23f4:	000c8c2b 	andeq	r8, ip, fp, lsr #24
    23f8:	001bab10 	andseq	sl, fp, r0, lsl fp
    23fc:	d4150000 	ldrle	r0, [r5], #-0
    2400:	7010000c 	andsvc	r0, r0, ip
    2404:	16000016 			; <UNDEFINED> instruction: 0x16000016
    2408:	91045001 	tstls	r4, r1
    240c:	16067fac 	strne	r7, [r6], -ip, lsr #31
    2410:	91045101 	tstls	r4, r1, lsl #2
    2414:	16067fb0 			; <UNDEFINED> instruction: 0x16067fb0
    2418:	91045201 	tstls	r4, r1, lsl #4
    241c:	16067fb4 			; <UNDEFINED> instruction: 0x16067fb4
    2420:	7b025301 	blvc	9702c <__HEAP_SIZE+0x9602c>
    2424:	7d021600 	stcvc	6, cr1, [r2, #-0]
    2428:	b8910300 	ldmlt	r1, {r8, r9}
    242c:	7d02167f 	stcvc	6, cr1, [r2, #-508]	; 0xfffffe04
    2430:	00790204 	rsbseq	r0, r9, r4, lsl #4
    2434:	087d0216 	ldmdaeq	sp!, {r1, r2, r4, r9}^
    2438:	94089104 	strls	r9, [r8], #-260	; 0xfffffefc
    243c:	7d021601 	stcvc	6, cr1, [r2, #-4]
    2440:	0077020c 	rsbseq	r0, r7, ip, lsl #4
    2444:	107d0216 	rsbsne	r0, sp, r6, lsl r2
    2448:	06189103 	ldreq	r9, [r8], -r3, lsl #2
    244c:	147d0216 	ldrbtne	r0, [sp], #-534	; 0xfffffdea
    2450:	061c9103 	ldreq	r9, [ip], -r3, lsl #2
    2454:	187d0216 	ldmdane	sp!, {r1, r2, r4, r9}^
    2458:	00007a02 	andeq	r7, r0, r2, lsl #20
    245c:	05731a00 	ldrbeq	r1, [r3, #-2560]!	; 0xfffff600
    2460:	19010000 	stmdbne	r1, {}	; <UNPREDICTABLE>
    2464:	ee010f01 	cdp	15, 0, cr0, cr1, cr1, {0}
    2468:	80000000 	andhi	r0, r0, r0
    246c:	1410000b 	ldrne	r0, [r0], #-11
    2470:	8f10000c 	svchi	0x0010000c
    2474:	0100001b 	tsteq	r0, fp, lsl r0
    2478:	00001670 	andeq	r1, r0, r0, ror r6
    247c:	74756f0f 	ldrbtvc	r6, [r5], #-3855	; 0xfffff0f1
    2480:	01190100 	tsteq	r9, r0, lsl #2
    2484:	00010627 	andeq	r0, r1, r7, lsr #12
    2488:	001bcc00 	andseq	ip, fp, r0, lsl #24
    248c:	001bc800 	andseq	ip, fp, r0, lsl #16
    2490:	04c31700 	strbeq	r1, [r3], #1792	; 0x700
    2494:	19010000 	stmdbne	r1, {}	; <UNPREDICTABLE>
    2498:	02ee3201 	rsceq	r3, lr, #268435456	; 0x10000000
    249c:	1bf10000 	blne	ffc424a4 <__StackTop+0xc7b424a4>
    24a0:	1bed0000 	blne	ffb424a8 <__StackTop+0xc7a424a8>
    24a4:	690f0000 	stmdbvs	pc, {}	; <UNPREDICTABLE>
    24a8:	01007864 	tsteq	r0, r4, ror #16
    24ac:	ee410119 	mcr	1, 2, r0, cr1, cr9, {0}
    24b0:	16000000 	strne	r0, [r0], -r0
    24b4:	1200001c 	andne	r0, r0, #28
    24b8:	1700001c 	smladne	r0, ip, r0, r0
    24bc:	000005a8 	andeq	r0, r0, r8, lsr #11
    24c0:	4d011901 	vstrmi.16	s2, [r1, #-2]	; <UNPREDICTABLE>
    24c4:	000000ee 	andeq	r0, r0, lr, ror #1
    24c8:	00001c3b 	andeq	r1, r0, fp, lsr ip
    24cc:	00001c37 	andeq	r1, r0, r7, lsr ip
    24d0:	0000c117 	andeq	ip, r0, r7, lsl r1
    24d4:	01190100 	tsteq	r9, r0, lsl #2
    24d8:	00005f63 	andeq	r5, r0, r3, ror #30
    24dc:	001c6600 	andseq	r6, ip, r0, lsl #12
    24e0:	001c5c00 	andseq	r5, ip, r0, lsl #24
    24e4:	04fa1000 	ldrbteq	r1, [sl], #0
    24e8:	19010000 	stmdbne	r1, {}	; <UNPREDICTABLE>
    24ec:	0b7d6f01 	bleq	1f5e0f8 <__RAM_SIZE+0x1e5e0f8>
    24f0:	91020000 	mrsls	r0, (UNDEF: 2)
    24f4:	08261004 	stmdaeq	r6!, {r2, ip}
    24f8:	19010000 	stmdbne	r1, {}	; <UNPREDICTABLE>
    24fc:	005f8701 	subseq	r8, pc, r1, lsl #14
    2500:	91020000 	mrsls	r0, (UNDEF: 2)
    2504:	065f1008 	ldrbeq	r1, [pc], -r8
    2508:	19010000 	stmdbne	r1, {}	; <UNPREDICTABLE>
    250c:	00309a01 	eorseq	r9, r0, r1, lsl #20
    2510:	91020000 	mrsls	r0, (UNDEF: 2)
    2514:	0665100c 	strbteq	r1, [r5], -ip
    2518:	19010000 	stmdbne	r1, {}	; <UNPREDICTABLE>
    251c:	0030ad01 	eorseq	sl, r0, r1, lsl #26
    2520:	91020000 	mrsls	r0, (UNDEF: 2)
    2524:	05931710 	ldreq	r1, [r3, #1808]	; 0x710
    2528:	19010000 	stmdbne	r1, {}	; <UNPREDICTABLE>
    252c:	0030c101 	eorseq	ip, r0, r1, lsl #2
    2530:	1cab0000 	stcne	0, cr0, [fp]
    2534:	1ca70000 	stcne	0, cr0, [r7]
    2538:	62120000 	andsvs	r0, r2, #0
    253c:	01006675 	tsteq	r0, r5, ror r6
    2540:	5708011b 	smladpl	r8, fp, r1, r0
    2544:	02000013 	andeq	r0, r0, #19
    2548:	6c144891 	ldcvs	8, cr4, [r4], {145}	; 0x91
    254c:	01006e65 	tsteq	r0, r5, ror #28
    2550:	ee0a011c 	mcr	1, 0, r0, cr10, cr12, {0}
    2554:	d6000000 	strle	r0, [r0], -r0
    2558:	ca00001c 	bgt	25d0 <__HEAP_SIZE+0x15d0>
    255c:	1e00001c 	mcrne	0, 0, r0, cr0, cr12, {0}
    2560:	000000b8 	strheq	r0, [r0], -r8
    2564:	00001630 	andeq	r1, r0, r0, lsr r6
    2568:	0005e71c 	andeq	lr, r5, ip, lsl r7
    256c:	01260100 			; <UNDEFINED> instruction: 0x01260100
    2570:	00013a12 	andeq	r3, r1, r2, lsl sl
    2574:	001d2e00 	andseq	r2, sp, r0, lsl #28
    2578:	001d2200 	andseq	r2, sp, r0, lsl #4
    257c:	10150000 	andsne	r0, r5, r0
    2580:	7010000c 	andsvc	r0, r0, ip
    2584:	16000016 			; <UNDEFINED> instruction: 0x16000016
    2588:	02007d02 	andeq	r7, r0, #2, 26	; 0x80
    258c:	02160074 	andseq	r0, r6, #116	; 0x74
    2590:	7702047d 	smlsdxvc	r2, sp, r4, r0
    2594:	7d021600 	stcvc	6, cr1, [r2, #-0]
    2598:	04910408 	ldreq	r0, [r1], #1032	; 0x408
    259c:	02160194 	andseq	r0, r6, #148, 2	; 0x25
    25a0:	75020c7d 	strvc	r0, [r2, #-3197]	; 0xfffff383
    25a4:	7d021600 	stcvc	6, cr1, [r2, #-0]
    25a8:	0c910310 	ldceq	3, cr0, [r1], {16}
    25ac:	7d021606 	stcvc	6, cr1, [r2, #-24]	; 0xffffffe8
    25b0:	10910314 	addsne	r0, r1, r4, lsl r3
    25b4:	7d021606 	stcvc	6, cr1, [r2, #-24]	; 0xffffffe8
    25b8:	00760218 	rsbseq	r0, r6, r8, lsl r2
    25bc:	2f2c0000 	svccs	0x002c0000
    25c0:	01000005 	tsteq	r0, r5
    25c4:	ee010fe3 	cdp	15, 0, cr0, cr1, cr3, {7}
    25c8:	48000000 	stmdami	r0, {}	; <UNPREDICTABLE>
    25cc:	8010000a 	andshi	r0, r0, sl
    25d0:	9c10000b 	ldcls	0, cr0, [r0], {11}
    25d4:	0100001d 	tsteq	r0, sp, lsl r0
    25d8:	00001791 	muleq	r0, r1, r7
    25dc:	74756f2d 	ldrbtvc	r6, [r5], #-3885	; 0xfffff0d3
    25e0:	29e30100 	stmibcs	r3!, {r8}^
    25e4:	00000106 	andeq	r0, r0, r6, lsl #2
    25e8:	00001de6 	andeq	r1, r0, r6, ror #27
    25ec:	00001de0 	andeq	r1, r0, r0, ror #27
    25f0:	0004c32e 	andeq	ip, r4, lr, lsr #6
    25f4:	34e30100 	strbtcc	r0, [r3], #256	; 0x100
    25f8:	000002ee 	andeq	r0, r0, lr, ror #5
    25fc:	00001e18 	andeq	r1, r0, r8, lsl lr
    2600:	00001e12 	andeq	r1, r0, r2, lsl lr
    2604:	7864692d 	stmdavc	r4!, {r0, r2, r3, r5, r8, fp, sp, lr}^
    2608:	43e30100 	mvnmi	r0, #0, 2
    260c:	000000ee 	andeq	r0, r0, lr, ror #1
    2610:	00001e4a 	andeq	r1, r0, sl, asr #28
    2614:	00001e44 	andeq	r1, r0, r4, asr #28
    2618:	0005a82e 	andeq	sl, r5, lr, lsr #16
    261c:	4fe30100 	svcmi	0x00e30100
    2620:	000000ee 	andeq	r0, r0, lr, ror #1
    2624:	00001e7c 	andeq	r1, r0, ip, ror lr
    2628:	00001e76 	andeq	r1, r0, r6, ror lr
    262c:	6675622d 	ldrbtvs	r6, [r5], -sp, lsr #4
    2630:	5de30100 	stfple	f0, [r3]
    2634:	000002ee 	andeq	r0, r0, lr, ror #5
    2638:	00001eac 	andeq	r1, r0, ip, lsr #29
    263c:	00001ea8 	andeq	r1, r0, r8, lsr #29
    2640:	6e656c2d 	cdpvs	12, 6, cr6, cr5, cr13, {1}
    2644:	69e30100 	stmibvs	r3!, {r8}^
    2648:	000000ee 	andeq	r0, r0, lr, ror #1
    264c:	00001efe 	strdeq	r1, [r0], -lr
    2650:	00001ecc 	andeq	r1, r0, ip, asr #29
    2654:	0004fa2e 	andeq	pc, r4, lr, lsr #20
    2658:	73e30100 	mvnvc	r0, #0, 2
    265c:	00000b7d 	andeq	r0, r0, sp, ror fp
    2660:	00002032 	andeq	r2, r0, r2, lsr r0
    2664:	0000202e 	andeq	r2, r0, lr, lsr #32
    2668:	0008262e 	andeq	r2, r8, lr, lsr #12
    266c:	8ae30100 	bhi	ff8c2a74 <__StackTop+0xc77c2a74>
    2670:	00000030 	andeq	r0, r0, r0, lsr r0
    2674:	00002056 	andeq	r2, r0, r6, asr r0
    2678:	00002052 	andeq	r2, r0, r2, asr r0
    267c:	00065f2e 	andeq	r5, r6, lr, lsr #30
    2680:	9de30100 	stflse	f0, [r3]
    2684:	00000030 	andeq	r0, r0, r0, lsr r0
    2688:	0000207a 	andeq	r2, r0, sl, ror r0
    268c:	00002076 	andeq	r2, r0, r6, ror r0
    2690:	0006652e 	andeq	r6, r6, lr, lsr #10
    2694:	b0e30100 	rsclt	r0, r3, r0, lsl #2
    2698:	00000030 	andeq	r0, r0, r0, lsr r0
    269c:	0000209e 	muleq	r0, lr, r0
    26a0:	0000209a 	muleq	r0, sl, r0
    26a4:	0005932e 	andeq	r9, r5, lr, lsr #6
    26a8:	c4e30100 	strbtgt	r0, [r3], #256	; 0x100
    26ac:	00000030 	andeq	r0, r0, r0, lsr r0
    26b0:	000020c1 	andeq	r2, r0, r1, asr #1
    26b4:	000020bd 	strheq	r2, [r0], -sp
    26b8:	000b0215 	andeq	r0, fp, r5, lsl r2
    26bc:	00179110 	andseq	r9, r7, r0, lsl r1
    26c0:	7d021600 	stcvc	6, cr1, [r2, #-0]
    26c4:	00750200 	rsbseq	r0, r5, r0, lsl #4
    26c8:	047d0216 	ldrbteq	r0, [sp], #-534	; 0xfffffdea
    26cc:	16007402 	strne	r7, [r0], -r2, lsl #8
    26d0:	02087d02 	andeq	r7, r8, #2, 26	; 0x80
    26d4:	02160077 	andseq	r0, r6, #119	; 0x77
    26d8:	76020c7d 			; <UNDEFINED> instruction: 0x76020c7d
    26dc:	2c000000 	stccs	0, cr0, [r0], {-0}
    26e0:	00000617 	andeq	r0, r0, r7, lsl r6
    26e4:	010fc701 	tsteq	pc, r1, lsl #14
    26e8:	000000ee 	andeq	r0, r0, lr, ror #1
    26ec:	100009ca 	andne	r0, r0, sl, asr #19
    26f0:	10000a48 	andne	r0, r0, r8, asr #20
    26f4:	000020e1 	andeq	r2, r0, r1, ror #1
    26f8:	0018d801 	andseq	sp, r8, r1, lsl #16
    26fc:	756f2d00 	strbvc	r2, [pc, #-3328]!	; 1a04 <__HEAP_SIZE+0xa04>
    2700:	c7010074 	smlsdxgt	r1, r4, r0, r0
    2704:	00010625 	andeq	r0, r1, r5, lsr #12
    2708:	00212900 	eoreq	r2, r1, r0, lsl #18
    270c:	00212500 	eoreq	r2, r1, r0, lsl #10
    2710:	04c32e00 	strbeq	r2, [r3], #3584	; 0xe00
    2714:	c7010000 	strgt	r0, [r1, -r0]
    2718:	0002ee30 	andeq	lr, r2, r0, lsr lr
    271c:	00214b00 	eoreq	r4, r1, r0, lsl #22
    2720:	00214700 	eoreq	r4, r1, r0, lsl #14
    2724:	64692d00 	strbtvs	r2, [r9], #-3328	; 0xfffff300
    2728:	c7010078 	smlsdxgt	r1, r8, r0, r0
    272c:	0000ee3f 	andeq	lr, r0, pc, lsr lr
    2730:	00217500 	eoreq	r7, r1, r0, lsl #10
    2734:	00216900 	eoreq	r6, r1, r0, lsl #18
    2738:	05a82e00 	streq	r2, [r8, #3584]!	; 0xe00
    273c:	c7010000 	strgt	r0, [r1, -r0]
    2740:	0000ee4b 	andeq	lr, r0, fp, asr #28
    2744:	0021c300 	eoreq	ip, r1, r0, lsl #6
    2748:	0021bf00 	eoreq	fp, r1, r0, lsl #30
    274c:	75622d00 	strbvc	r2, [r2, #-3328]!	; 0xfffff300
    2750:	c7010066 	strgt	r0, [r1, -r6, rrx]
    2754:	00024c5f 	andeq	r4, r2, pc, asr ip
    2758:	0021e500 	eoreq	lr, r1, r0, lsl #10
    275c:	0021e100 	eoreq	lr, r1, r0, lsl #2
    2760:	656c2d00 	strbvs	r2, [ip, #-3328]!	; 0xfffff300
    2764:	c701006e 	strgt	r0, [r1, -lr, rrx]
    2768:	0000ee6b 	andeq	lr, r0, fp, ror #28
    276c:	00220900 	eoreq	r0, r2, r0, lsl #18
    2770:	00220500 	eoreq	r0, r2, r0, lsl #10
    2774:	06652e00 	strbteq	r2, [r5], -r0, lsl #28
    2778:	c7010000 	strgt	r0, [r1, -r0]
    277c:	0000307d 	andeq	r3, r0, sp, ror r0
    2780:	00222c00 	eoreq	r2, r2, r0, lsl #24
    2784:	00222800 	eoreq	r2, r2, r0, lsl #16
    2788:	05932e00 	ldreq	r2, [r3, #3584]	; 0xe00
    278c:	c7010000 	strgt	r0, [r1, -r0]
    2790:	00003091 	muleq	r0, r1, r0
    2794:	00225000 	eoreq	r5, r2, r0
    2798:	00224c00 	eoreq	r4, r2, r0, lsl #24
    279c:	04e62f00 	strbteq	r2, [r6], #3840	; 0xf00
    27a0:	c9010000 	stmdbgt	r1, {}	; <UNPREDICTABLE>
    27a4:	0000fa10 	andeq	pc, r0, r0, lsl sl	; <UNPREDICTABLE>
    27a8:	00227600 	eoreq	r7, r2, r0, lsl #12
    27ac:	00227000 	eoreq	r7, r2, r0
    27b0:	00a01e00 	adceq	r1, r0, r0, lsl #28
    27b4:	189d0000 	ldmne	sp, {}	; <UNPREDICTABLE>
    27b8:	69300000 	ldmdbvs	r0!, {}	; <UNPREDICTABLE>
    27bc:	11cd0100 	bicne	r0, sp, r0, lsl #2
    27c0:	000000ee 	andeq	r0, r0, lr, ror #1
    27c4:	000022a5 	andeq	r2, r0, r5, lsr #5
    27c8:	000022a3 	andeq	r2, r0, r3, lsr #5
    27cc:	0009fe22 	andeq	pc, r9, r2, lsr #28
    27d0:	50011610 	andpl	r1, r1, r0, lsl r6
    27d4:	16200802 	strtne	r0, [r0], -r2, lsl #16
    27d8:	76025101 	strvc	r5, [r2], -r1, lsl #2
    27dc:	52011600 	andpl	r1, r1, #0, 12
    27e0:	167f7b02 	ldrbtne	r7, [pc], -r2, lsl #22
    27e4:	77025301 	strvc	r5, [r2, -r1, lsl #6]
    27e8:	21000000 	mrscs	r0, (UNDEF: 0)
    27ec:	10000a1c 	andne	r0, r0, ip, lsl sl
    27f0:	000018b9 			; <UNDEFINED> instruction: 0x000018b9
    27f4:	02510116 	subseq	r0, r1, #-2147483643	; 0x80000005
    27f8:	01160076 	tsteq	r6, r6, ror r0
    27fc:	7f780252 	svcvc	0x00780252
    2800:	02530116 	subseq	r0, r3, #-2147483643	; 0x80000005
    2804:	22000077 	andcs	r0, r0, #119	; 0x77
    2808:	10000a44 	andne	r0, r0, r4, asr #20
    280c:	02500116 	subseq	r0, r0, #-2147483643	; 0x80000005
    2810:	01162008 	tsteq	r6, r8
    2814:	00760251 	rsbseq	r0, r6, r1, asr r2
    2818:	02520116 	subseq	r0, r2, #-2147483643	; 0x80000005
    281c:	01167f74 	tsteq	r6, r4, ror pc
    2820:	00770253 	rsbseq	r0, r7, r3, asr r2
    2824:	af310000 	svcge	0x00310000
    2828:	01000005 	tsteq	r0, r5
    282c:	300115bc 			; <UNDEFINED> instruction: 0x300115bc
    2830:	a6000000 	strge	r0, [r0], -r0
    2834:	ca100009 	bgt	402860 <__RAM_SIZE+0x302860>
    2838:	02100009 	andseq	r0, r0, #9
    283c:	4001007d 	andmi	r0, r1, sp, ror r0
    2840:	2d000019 	stccs	0, cr0, [r0, #-100]	; 0xffffff9c
    2844:	00727473 	rsbseq	r7, r2, r3, ror r4
    2848:	4028bc01 	eormi	fp, r8, r1, lsl #24
    284c:	bc000019 	stclt	0, cr0, [r0], {25}
    2850:	b8000022 	stmdalt	r0, {r1, r5}
    2854:	30000022 	andcc	r0, r0, r2, lsr #32
    2858:	be010069 	cdplt	0, 0, cr0, cr1, cr9, {3}
    285c:	00003010 	andeq	r3, r0, r0, lsl r0
    2860:	0022e000 	eoreq	lr, r2, r0
    2864:	0022da00 	eoreq	sp, r2, r0, lsl #20
    2868:	19463200 	stmdbne	r6, {r9, ip, sp}^
    286c:	09c00000 	stmibeq	r0, {}^	; <UNPREDICTABLE>
    2870:	00001000 	andeq	r1, r0, r0
    2874:	100009c0 	andne	r0, r0, r0, asr #19
    2878:	100009c4 	andne	r0, r0, r4, asr #19
    287c:	240abf01 	strcs	fp, [sl], #-3841	; 0xfffff0ff
    2880:	00001958 	andeq	r1, r0, r8, asr r9
    2884:	0000230e 	andeq	r2, r0, lr, lsl #6
    2888:	0000230a 	andeq	r2, r0, sl, lsl #6
    288c:	04090000 	streq	r0, [r9], #-0
    2890:	0000024c 	andeq	r0, r0, ip, asr #4
    2894:	0005e333 	andeq	lr, r5, r3, lsr r3
    2898:	14b50100 	ldrtne	r0, [r5], #256	; 0x100
    289c:	000b7d01 	andeq	r7, fp, r1, lsl #26
    28a0:	19640300 	stmdbne	r4!, {r8, r9}^
    28a4:	63340000 	teqvs	r4, #0
    28a8:	b5010068 	strlt	r0, [r1, #-104]	; 0xffffff98
    28ac:	00013323 	andeq	r3, r1, r3, lsr #6
    28b0:	b5330000 	ldrlt	r0, [r3, #-0]!
    28b4:	01000005 	tsteq	r0, r5
    28b8:	30011cab 	andcc	r1, r1, fp, lsr #25
    28bc:	03000000 	movweq	r0, #0
    28c0:	00001999 	muleq	r0, r9, r9
    28c4:	72747334 	rsbsvc	r7, r4, #52, 6	; 0xd0000000
    28c8:	33ab0100 			; <UNDEFINED> instruction: 0x33ab0100
    28cc:	0000024c 	andeq	r0, r0, ip, asr #4
    28d0:	0004a335 	andeq	sl, r4, r5, lsr r3
    28d4:	3fab0100 	svccc	0x00ab0100
    28d8:	000000ee 	andeq	r0, r0, lr, ror #1
    28dc:	01007336 	tsteq	r0, r6, lsr r3
    28e0:	024c0fad 	subeq	r0, ip, #692	; 0x2b4
    28e4:	37000000 	strcc	r0, [r0, -r0]
    28e8:	000004cf 	andeq	r0, r0, pc, asr #9
    28ec:	01149f01 	tsteq	r4, r1, lsl #30
	...
    28f8:	0000232e 	andeq	r2, r0, lr, lsr #6
    28fc:	001a0401 	andseq	r0, sl, r1, lsl #8
    2900:	060d2e00 	streq	r2, [sp], -r0, lsl #28
    2904:	9f010000 	svcls	0x00010000
    2908:	00013322 	andeq	r3, r1, r2, lsr #6
    290c:	00236000 	eoreq	r6, r3, r0
    2910:	00235a00 	eoreq	r5, r3, r0, lsl #20
    2914:	04c32e00 	strbeq	r2, [r3], #3584	; 0xe00
    2918:	9f010000 	svcls	0x00010000
    291c:	0000e033 	andeq	lr, r0, r3, lsr r0
    2920:	00239200 	eoreq	r9, r3, r0, lsl #4
    2924:	00238c00 	eoreq	r8, r3, r0, lsl #24
    2928:	64692d00 	strbtvs	r2, [r9], #-3328	; 0xfffff300
    292c:	9f010078 	svcls	0x00010078
    2930:	0000ee42 	andeq	lr, r0, r2, asr #28
    2934:	0023c400 	eoreq	ip, r3, r0, lsl #8
    2938:	0023be00 	eoreq	fp, r3, r0, lsl #28
    293c:	05a82e00 	streq	r2, [r8, #3584]!	; 0xe00
    2940:	9f010000 	svcls	0x00010000
    2944:	0000ee4e 	andeq	lr, r0, lr, asr #28
    2948:	0023f600 	eoreq	pc, r3, r0, lsl #12
    294c:	0023f000 	eoreq	pc, r3, r0
    2950:	99380000 	ldmdbls	r8!, {}	; <UNPREDICTABLE>
    2954:	01000004 	tsteq	r0, r4
    2958:	e8011495 	stmda	r1, {r0, r2, r4, r7, sl, ip}
    295c:	f410001a 			; <UNDEFINED> instruction: 0xf410001a
    2960:	2210001a 	andscs	r0, r0, #26
    2964:	01000024 	tsteq	r0, r4, lsr #32
    2968:	00001a78 	andeq	r1, r0, r8, ror sl
    296c:	00060d2e 	andeq	r0, r6, lr, lsr #26
    2970:	23950100 	orrscs	r0, r5, #0, 2
    2974:	00000133 	andeq	r0, r0, r3, lsr r1
    2978:	00002446 	andeq	r2, r0, r6, asr #8
    297c:	00002442 	andeq	r2, r0, r2, asr #8
    2980:	0004c32e 	andeq	ip, r4, lr, lsr #6
    2984:	34950100 	ldrcc	r0, [r5], #256	; 0x100
    2988:	000000e0 	andeq	r0, r0, r0, ror #1
    298c:	0000246b 	andeq	r2, r0, fp, ror #8
    2990:	00002467 	andeq	r2, r0, r7, ror #8
    2994:	7864692d 	stmdavc	r4!, {r0, r2, r3, r5, r8, fp, sp, lr}^
    2998:	43950100 	orrsmi	r0, r5, #0, 2
    299c:	000000ee 	andeq	r0, r0, lr, ror #1
    29a0:	00002490 	muleq	r0, r0, r4
    29a4:	0000248c 	andeq	r2, r0, ip, lsl #9
    29a8:	0005a82e 	andeq	sl, r5, lr, lsr #16
    29ac:	4f950100 	svcmi	0x00950100
    29b0:	000000ee 	andeq	r0, r0, lr, ror #1
    29b4:	000024b5 			; <UNDEFINED> instruction: 0x000024b5
    29b8:	000024b1 			; <UNDEFINED> instruction: 0x000024b1
    29bc:	001af22b 	andseq	pc, sl, fp, lsr #4
    29c0:	001bb610 	andseq	fp, fp, r0, lsl r6
    29c4:	4d390000 	ldcmi	0, cr0, [r9, #-0]
    29c8:	01000005 	tsteq	r0, r5
    29cc:	a401148e 	strge	r1, [r1], #-1166	; 0xfffffb72
    29d0:	a6100009 	ldrge	r0, [r0], -r9
    29d4:	02100009 	andseq	r0, r0, #9
    29d8:	ca01007d 	bgt	42bd4 <__HEAP_SIZE+0x41bd4>
    29dc:	3a00001a 	bcc	2a4c <__HEAP_SIZE+0x1a4c>
    29e0:	0000060d 	andeq	r0, r0, sp, lsl #12
    29e4:	33238e01 			; <UNDEFINED> instruction: 0x33238e01
    29e8:	01000001 	tsteq	r0, r1
    29ec:	04c33a50 	strbeq	r3, [r3], #2640	; 0xa50
    29f0:	8e010000 	cdphi	0, 0, cr0, cr1, cr0, {0}
    29f4:	0000e034 	andeq	lr, r0, r4, lsr r0
    29f8:	3b510100 	blcc	1442e00 <__RAM_SIZE+0x1342e00>
    29fc:	00786469 	rsbseq	r6, r8, r9, ror #8
    2a00:	ee438e01 	cdp	14, 4, cr8, cr3, cr1, {0}
    2a04:	01000000 	mrseq	r0, (UNDEF: 0)
    2a08:	05a83a52 	streq	r3, [r8, #2642]!	; 0xa52
    2a0c:	8e010000 	cdphi	0, 0, cr0, cr1, cr0, {0}
    2a10:	0000ee4f 	andeq	lr, r0, pc, asr #28
    2a14:	00530100 	subseq	r0, r3, r0, lsl #2
    2a18:	0004be39 	andeq	fp, r4, r9, lsr lr
    2a1c:	14850100 	strne	r0, [r5], #256	; 0x100
    2a20:	00000001 	andeq	r0, r0, r1
    2a24:	00000000 	andeq	r0, r0, r0
    2a28:	007d0200 	rsbseq	r0, sp, r0, lsl #4
    2a2c:	001b1c01 	andseq	r1, fp, r1, lsl #24
    2a30:	060d3a00 	streq	r3, [sp], -r0, lsl #20
    2a34:	85010000 	strhi	r0, [r1, #-0]
    2a38:	00013325 	andeq	r3, r1, r5, lsr #6
    2a3c:	3a500100 	bcc	1402e44 <__RAM_SIZE+0x1302e44>
    2a40:	000004c3 	andeq	r0, r0, r3, asr #9
    2a44:	e0368501 	eors	r8, r6, r1, lsl #10
    2a48:	01000000 	mrseq	r0, (UNDEF: 0)
    2a4c:	64693b51 	strbtvs	r3, [r9], #-2897	; 0xfffff4af
    2a50:	85010078 	strhi	r0, [r1, #-120]	; 0xffffff88
    2a54:	0000ee45 	andeq	lr, r0, r5, asr #28
    2a58:	3a520100 	bcc	1482e60 <__RAM_SIZE+0x1382e60>
    2a5c:	000005a8 	andeq	r0, r0, r8, lsr #11
    2a60:	ee518501 	cdp	5, 5, cr8, cr1, cr1, {0}
    2a64:	01000000 	mrseq	r0, (UNDEF: 0)
    2a68:	013c0053 	teqeq	ip, r3, asr r0
    2a6c:	0005f201 	andeq	pc, r5, r1, lsl #4
    2a70:	0005f200 	andeq	pc, r5, r0, lsl #4
    2a74:	01013c00 	tsteq	r1, r0, lsl #24
    2a78:	00000599 	muleq	r0, r9, r5
    2a7c:	00000599 	muleq	r0, r9, r5
    2a80:	7a01013c 	bvc	42f78 <__HEAP_SIZE+0x41f78>
    2a84:	7a000006 	bvc	2aa4 <__HEAP_SIZE+0x1aa4>
    2a88:	3c000006 	stccc	0, cr0, [r0], {6}
    2a8c:	04430101 	strbeq	r0, [r3], #-257	; 0xfffffeff
    2a90:	04430000 	strbeq	r0, [r3], #-0
    2a94:	013c0000 	teqeq	ip, r0
    2a98:	0005c501 	andeq	ip, r5, r1, lsl #10
    2a9c:	0005c500 	andeq	ip, r5, r0, lsl #10
    2aa0:	01013c00 	tsteq	r1, r0, lsl #24
    2aa4:	00000503 	andeq	r0, r0, r3, lsl #10
    2aa8:	00000503 	andeq	r0, r0, r3, lsl #10
    2aac:	2001013c 	andcs	r0, r1, ip, lsr r1
    2ab0:	20000006 	andcs	r0, r0, r6
    2ab4:	3c000006 	stccc	0, cr0, [r0], {6}
    2ab8:	04b10101 	ldrteq	r0, [r1], #257	; 0x101
    2abc:	04b10000 	ldrteq	r0, [r1], #0
    2ac0:	013c0000 	teqeq	ip, r0
    2ac4:	00048601 	andeq	r8, r4, r1, lsl #12
    2ac8:	00048600 	andeq	r8, r4, r0, lsl #12
    2acc:	01013c00 	tsteq	r1, r0, lsl #24
    2ad0:	00000564 	andeq	r0, r0, r4, ror #10
    2ad4:	00000564 	andeq	r0, r0, r4, ror #10
    2ad8:	d801013c 	stmdale	r1, {r2, r3, r4, r5, r8}
    2adc:	d8000004 	stmdale	r0, {r2}
    2ae0:	3c000004 	stccc	0, cr0, [r0], {4}
    2ae4:	05860101 	streq	r0, [r6, #257]	; 0x101
    2ae8:	05860000 	streq	r0, [r6]
    2aec:	013c0000 	teqeq	ip, r0
    2af0:	00063e01 	andeq	r3, r6, r1, lsl #28
    2af4:	00063e00 	andeq	r3, r6, r0, lsl #28
    2af8:	01013c00 	tsteq	r1, r0, lsl #24
    2afc:	0000062d 	andeq	r0, r0, sp, lsr #12
    2b00:	0000062d 	andeq	r0, r0, sp, lsr #12
    2b04:	3b01013d 	blcc	43000 <__HEAP_SIZE+0x42000>
    2b08:	3b000004 	blcc	2b20 <__HEAP_SIZE+0x1b20>
    2b0c:	07000004 	streq	r0, [r0, -r4]
    2b10:	d5000531 	strle	r0, [r0, #-1329]	; 0xfffffacf
    2b14:	02000001 	andeq	r0, r0, #1
    2b18:	00066e00 	andeq	r6, r6, r0, lsl #28
    2b1c:	88010400 	stmdahi	r1, {sl}
    2b20:	0c000001 	stceq	0, cr0, [r0], {1}
    2b24:	000006ae 	andeq	r0, r0, lr, lsr #13
    2b28:	0000001a 	andeq	r0, r0, sl, lsl r0
    2b2c:	000001f0 	strdeq	r0, [r0], -r0	; <UNPREDICTABLE>
	...
    2b38:	000017d2 	ldrdeq	r1, [r0], -r2
    2b3c:	72060102 	andvc	r0, r6, #-2147483648	; 0x80000000
    2b40:	03000002 	movweq	r0, #2
    2b44:	0000017e 	andeq	r0, r0, lr, ror r1
    2b48:	3c182b02 			; <UNDEFINED> instruction: 0x3c182b02
    2b4c:	02000000 	andeq	r0, r0, #0
    2b50:	02700801 	rsbseq	r0, r0, #65536	; 0x10000
    2b54:	02020000 	andeq	r0, r2, #0
    2b58:	00006d05 	andeq	r6, r0, r5, lsl #26
    2b5c:	07020200 	streq	r0, [r2, -r0, lsl #4]
    2b60:	00000302 	andeq	r0, r0, r2, lsl #6
    2b64:	69050402 	stmdbvs	r5, {r1, sl}
    2b68:	03000001 	movweq	r0, #1
    2b6c:	0000009f 	muleq	r0, pc, r0	; <UNPREDICTABLE>
    2b70:	64194f02 	ldrvs	r4, [r9], #-3842	; 0xfffff0fe
    2b74:	02000000 	andeq	r0, r0, #0
    2b78:	02b10704 	adcseq	r0, r1, #4, 14	; 0x100000
    2b7c:	08020000 	stmdaeq	r2, {}	; <UNPREDICTABLE>
    2b80:	00016405 	andeq	r6, r1, r5, lsl #8
    2b84:	07080200 	streq	r0, [r8, -r0, lsl #4]
    2b88:	000002ac 	andeq	r0, r0, ip, lsr #5
    2b8c:	69050404 	stmdbvs	r5, {r2, sl}
    2b90:	0200746e 	andeq	r7, r0, #1845493760	; 0x6e000000
    2b94:	02b60704 	adcseq	r0, r6, #4, 14	; 0x100000
    2b98:	76030000 	strvc	r0, [r3], -r0
    2b9c:	03000004 	movweq	r0, #4
    2ba0:	008017d1 	ldrdeq	r1, [r0], r1	; <UNPREDICTABLE>
    2ba4:	08020000 	stmdaeq	r2, {}	; <UNPREDICTABLE>
    2ba8:	00009304 	andeq	r9, r0, r4, lsl #6
    2bac:	08010200 	stmdaeq	r1, {r9}
    2bb0:	00000279 	andeq	r0, r0, r9, ror r2
    2bb4:	00009a05 	andeq	r9, r0, r5, lsl #20
    2bb8:	a1040600 	tstge	r4, r0, lsl #12
    2bbc:	03000000 	movweq	r0, #0
    2bc0:	00000180 	andeq	r0, r0, r0, lsl #3
    2bc4:	30131804 	andscc	r1, r3, r4, lsl #16
    2bc8:	03000000 	movweq	r0, #0
    2bcc:	000000a1 	andeq	r0, r0, r1, lsr #1
    2bd0:	58143004 	ldmdapl	r4, {r2, ip, sp}
    2bd4:	07000000 	streq	r0, [r0, -r0]
    2bd8:	0006c101 	andeq	ip, r6, r1, lsl #2
    2bdc:	08400100 	stmdaeq	r0, {r8}^
    2be0:	00008701 	andeq	r8, r0, r1, lsl #14
	...
    2bec:	0024d600 	eoreq	sp, r4, r0, lsl #12
    2bf0:	013b0100 	teqeq	fp, r0, lsl #2
    2bf4:	c3080000 	movwgt	r0, #32768	; 0x8000
    2bf8:	01000004 	tsteq	r0, r4
    2bfc:	013b1b40 	teqeq	fp, r0, asr #22
    2c00:	24fa0000 	ldrbtcs	r0, [sl], #0
    2c04:	24f60000 	ldrbtcs	r0, [r6], #0
    2c08:	a6080000 	strge	r0, [r8], -r0
    2c0c:	01000004 	tsteq	r0, r4
    2c10:	00872a40 	addeq	r2, r7, r0, asr #20
    2c14:	251c0000 	ldrcs	r0, [ip, #-0]
    2c18:	25180000 	ldrcs	r0, [r8, #-0]
    2c1c:	63090000 	movwvs	r0, #36864	; 0x9000
    2c20:	41010068 	tstmi	r1, r8, rrx
    2c24:	0000ac0d 	andeq	sl, r0, sp, lsl #24
    2c28:	00254000 	eoreq	r4, r5, r0
    2c2c:	00253a00 	eoreq	r3, r5, r0, lsl #20
    2c30:	74690900 	strbtvc	r0, [r9], #-2304	; 0xfffff700
    2c34:	0c420100 	stfeqe	f0, [r2], {-0}
    2c38:	00000087 	andeq	r0, r0, r7, lsl #1
    2c3c:	0000256e 	andeq	r2, r0, lr, ror #10
    2c40:	0000256a 	andeq	r2, r0, sl, ror #10
    2c44:	0000000a 	andeq	r0, r0, sl
    2c48:	00019000 	andeq	r9, r1, r0
    2c4c:	04060000 	streq	r0, [r6], #-0
    2c50:	000000ac 	andeq	r0, r0, ip, lsr #1
    2c54:	06da010b 	ldrbeq	r0, [sl], fp, lsl #2
    2c58:	39010000 	stmdbcc	r1, {}	; <UNPREDICTABLE>
    2c5c:	00000106 	andeq	r0, r0, r6, lsl #2
    2c60:	00000000 	andeq	r0, r0, r0
    2c64:	258d0000 	strcs	r0, [sp]
    2c68:	7a010000 	bvc	42c70 <__HEAP_SIZE+0x41c70>
    2c6c:	08000001 	stmdaeq	r0, {r0}
    2c70:	000006cb 	andeq	r0, r0, fp, asr #13
    2c74:	a61c3901 	ldrge	r3, [ip], -r1, lsl #18
    2c78:	b1000000 	mrslt	r0, (UNDEF: 0)
    2c7c:	ad000025 	stcge	0, cr0, [r0, #-148]	; 0xffffff6c
    2c80:	0a000025 	beq	2d1c <__HEAP_SIZE+0x1d1c>
    2c84:	00000000 	andeq	r0, r0, r0
    2c88:	000001aa 	andeq	r0, r0, sl, lsr #3
    2c8c:	84010c00 	strhi	r0, [r1], #-3072	; 0xfffff400
    2c90:	01000000 	mrseq	r0, (UNDEF: 0)
    2c94:	34010630 	strcc	r0, [r1], #-1584	; 0xfffff9d0
    2c98:	5810001b 	ldmdapl	r0, {r0, r1, r3, r4}
    2c9c:	0210001b 	andseq	r0, r0, #27
    2ca0:	0d01007d 	stceq	0, cr0, [r1, #-500]	; 0xfffffe0c
    2ca4:	0006d201 	andeq	sp, r6, r1, lsl #4
    2ca8:	05d90500 	ldrbeq	r0, [r9, #1280]	; 0x500
    2cac:	00007901 	andeq	r7, r0, r1, lsl #18
	...
    2cb8:	007d0200 	rsbseq	r0, sp, r0, lsl #4
    2cbc:	3b010e01 	blcc	464c8 <__HEAP_SIZE+0x454c8>
    2cc0:	05000004 	streq	r0, [r0, #-4]
    2cc4:	790105dc 	stmdbvc	r1, {r2, r3, r4, r6, r7, r8, sl}
    2cc8:	20000000 	andcs	r0, r0, r0
    2ccc:	3410001b 	ldrcc	r0, [r0], #-27	; 0xffffffe5
    2cd0:	0210001b 	andseq	r0, r0, #27
    2cd4:	0f01007d 	svceq	0x0001007d
    2cd8:	01006863 	tsteq	r0, r3, ror #16
    2cdc:	00790125 	rsbseq	r0, r9, r5, lsr #2
    2ce0:	25d10000 	ldrbcs	r0, [r1]
    2ce4:	25cf0000 	strbcs	r0, [pc]	; 2cec <__HEAP_SIZE+0x1cec>
    2ce8:	00000000 	andeq	r0, r0, r0
    2cec:	00000835 	andeq	r0, r0, r5, lsr r8
    2cf0:	078c0002 	streq	r0, [ip, r2]
    2cf4:	01040000 	mrseq	r0, (UNDEF: 4)
    2cf8:	00000188 	andeq	r0, r0, r8, lsl #3
    2cfc:	0007aa0c 	andeq	sl, r7, ip, lsl #20
    2d00:	00001a00 	andeq	r1, r0, r0, lsl #20
    2d04:	00022000 	andeq	r2, r2, r0
	...
    2d10:	001ae900 	andseq	lr, sl, r0, lsl #18
    2d14:	06010200 	streq	r0, [r1], -r0, lsl #4
    2d18:	00000272 	andeq	r0, r0, r2, ror r2
    2d1c:	70080102 	andvc	r0, r8, r2, lsl #2
    2d20:	02000002 	andeq	r0, r0, #2
    2d24:	006d0502 	rsbeq	r0, sp, r2, lsl #10
    2d28:	10030000 	andne	r0, r3, r0
    2d2c:	03000007 	movweq	r0, #7
    2d30:	004a1939 	subeq	r1, sl, r9, lsr r9
    2d34:	02020000 	andeq	r0, r2, #0
    2d38:	00030207 	andeq	r0, r3, r7, lsl #4
    2d3c:	05040200 	streq	r0, [r4, #-512]	; 0xfffffe00
    2d40:	00000169 	andeq	r0, r0, r9, ror #2
    2d44:	00009f03 	andeq	r9, r0, r3, lsl #30
    2d48:	194f0300 	stmdbne	pc, {r8, r9}^	; <UNPREDICTABLE>
    2d4c:	00000064 	andeq	r0, r0, r4, rrx
    2d50:	b1070402 	tstlt	r7, r2, lsl #8
    2d54:	02000002 	andeq	r0, r0, #2
    2d58:	01640508 	cmneq	r4, r8, lsl #10
    2d5c:	08020000 	stmdaeq	r2, {}	; <UNPREDICTABLE>
    2d60:	0002ac07 	andeq	sl, r2, r7, lsl #24
    2d64:	05040400 	streq	r0, [r4, #-1024]	; 0xfffffc00
    2d68:	00746e69 	rsbseq	r6, r4, r9, ror #28
    2d6c:	b6070402 	strlt	r0, [r7], -r2, lsl #8
    2d70:	05000002 	streq	r0, [r0, #-2]
    2d74:	00000080 	andeq	r0, r0, r0, lsl #1
    2d78:	00047603 	andeq	r7, r4, r3, lsl #12
    2d7c:	17d10400 	ldrbne	r0, [r1, r0, lsl #8]
    2d80:	00000080 	andeq	r0, r0, r0, lsl #1
    2d84:	93040802 	movwls	r0, #18434	; 0x4802
    2d88:	02000000 	andeq	r0, r0, #0
    2d8c:	02790801 	rsbseq	r0, r9, #65536	; 0x10000
    2d90:	12030000 	andne	r0, r3, #0
    2d94:	05000007 	streq	r0, [r0, #-7]
    2d98:	003e1424 	eorseq	r1, lr, r4, lsr #8
    2d9c:	a1030000 	mrsge	r0, (UNDEF: 3)
    2da0:	05000000 	streq	r0, [r0, #-0]
    2da4:	00581430 	subseq	r1, r8, r0, lsr r4
    2da8:	95030000 	strls	r0, [r3, #-0]
    2dac:	06000007 	streq	r0, [r0], -r7
    2db0:	00ca2324 	sbceq	r2, sl, r4, lsr #6
    2db4:	d8060000 	stmdale	r6, {}	; <UNPREDICTABLE>
    2db8:	20000007 	andcs	r0, r0, r7
    2dbc:	4a082506 	bmi	20c1dc <__RAM_SIZE+0x10c1dc>
    2dc0:	07000001 	streq	r0, [r0, -r1]
    2dc4:	06003072 			; <UNDEFINED> instruction: 0x06003072
    2dc8:	00801226 	addeq	r1, r0, r6, lsr #4
    2dcc:	23020000 	movwcs	r0, #8192	; 0x2000
    2dd0:	31720700 	cmncc	r2, r0, lsl #14
    2dd4:	12270600 	eorne	r0, r7, #0, 12
    2dd8:	00000080 	andeq	r0, r0, r0, lsl #1
    2ddc:	07042302 	streq	r2, [r4, -r2, lsl #6]
    2de0:	06003272 			; <UNDEFINED> instruction: 0x06003272
    2de4:	00801228 	addeq	r1, r0, r8, lsr #4
    2de8:	23020000 	movwcs	r0, #8192	; 0x2000
    2dec:	33720708 	cmncc	r2, #8, 14	; 0x200000
    2df0:	12290600 	eorne	r0, r9, #0, 12
    2df4:	00000080 	andeq	r0, r0, r0, lsl #1
    2df8:	070c2302 	streq	r2, [ip, -r2, lsl #6]
    2dfc:	00323172 	eorseq	r3, r2, r2, ror r1
    2e00:	80122a06 	andshi	r2, r2, r6, lsl #20
    2e04:	02000000 	andeq	r0, r0, #0
    2e08:	6c071023 	stcvs	0, cr1, [r7], {35}	; 0x23
    2e0c:	2b060072 	blcs	182fdc <__RAM_SIZE+0x82fdc>
    2e10:	00008012 	andeq	r8, r0, r2, lsl r0
    2e14:	14230200 	strtne	r0, [r3], #-512	; 0xfffffe00
    2e18:	00637007 	rsbeq	r7, r3, r7
    2e1c:	80122c06 	andshi	r2, r2, r6, lsl #24
    2e20:	02000000 	andeq	r0, r0, #0
    2e24:	70071823 	andvc	r1, r7, r3, lsr #16
    2e28:	06007273 			; <UNDEFINED> instruction: 0x06007273
    2e2c:	0080122d 	addeq	r1, r0, sp, lsr #4
    2e30:	23020000 	movwcs	r0, #8192	; 0x2000
    2e34:	5103001c 	tstpl	r3, ip, lsl r0
    2e38:	06000007 	streq	r0, [r0], -r7
    2e3c:	01562330 	cmpeq	r6, r0, lsr r3
    2e40:	76060000 	strvc	r0, [r6], -r0
    2e44:	20000007 	andcs	r0, r0, r7
    2e48:	d6083106 	strle	r3, [r8], -r6, lsl #2
    2e4c:	07000001 	streq	r0, [r0, -r1]
    2e50:	06003472 			; <UNDEFINED> instruction: 0x06003472
    2e54:	00801232 	addeq	r1, r0, r2, lsr r2
    2e58:	23020000 	movwcs	r0, #8192	; 0x2000
    2e5c:	35720700 	ldrbcc	r0, [r2, #-1792]!	; 0xfffff900
    2e60:	12330600 	eorsne	r0, r3, #0, 12
    2e64:	00000080 	andeq	r0, r0, r0, lsl #1
    2e68:	07042302 	streq	r2, [r4, -r2, lsl #6]
    2e6c:	06003672 			; <UNDEFINED> instruction: 0x06003672
    2e70:	00801234 	addeq	r1, r0, r4, lsr r2
    2e74:	23020000 	movwcs	r0, #8192	; 0x2000
    2e78:	37720708 	ldrbcc	r0, [r2, -r8, lsl #14]!
    2e7c:	12350600 	eorsne	r0, r5, #0, 12
    2e80:	00000080 	andeq	r0, r0, r0, lsl #1
    2e84:	070c2302 	streq	r2, [ip, -r2, lsl #6]
    2e88:	06003872 			; <UNDEFINED> instruction: 0x06003872
    2e8c:	00801236 	addeq	r1, r0, r6, lsr r2
    2e90:	23020000 	movwcs	r0, #8192	; 0x2000
    2e94:	39720710 	ldmdbcc	r2!, {r4, r8, r9, sl}^
    2e98:	12370600 	eorsne	r0, r7, #0, 12
    2e9c:	00000080 	andeq	r0, r0, r0, lsl #1
    2ea0:	07142302 	ldreq	r2, [r4, -r2, lsl #6]
    2ea4:	00303172 	eorseq	r3, r0, r2, ror r1
    2ea8:	80123806 	andshi	r3, r2, r6, lsl #16
    2eac:	02000000 	andeq	r0, r0, #0
    2eb0:	72071823 	andvc	r1, r7, #2293760	; 0x230000
    2eb4:	06003131 			; <UNDEFINED> instruction: 0x06003131
    2eb8:	00801239 	addeq	r1, r0, r9, lsr r2
    2ebc:	23020000 	movwcs	r0, #8192	; 0x2000
    2ec0:	f803001c 			; <UNDEFINED> instruction: 0xf803001c
    2ec4:	06000006 	streq	r0, [r0], -r6
    2ec8:	01e21c3c 	mvneq	r1, ip, lsr ip
    2ecc:	89060000 	stmdbhi	r6, {}	; <UNPREDICTABLE>
    2ed0:	40000007 	andmi	r0, r0, r7
    2ed4:	0e083d06 	cdpeq	13, 0, cr3, cr8, cr6, {0}
    2ed8:	08000002 	stmdaeq	r0, {r1}
    2edc:	00000782 	andeq	r0, r0, r2, lsl #15
    2ee0:	4a1a3e06 	bmi	692700 <__RAM_SIZE+0x592700>
    2ee4:	02000001 	andeq	r0, r0, #1
    2ee8:	e4080023 	str	r0, [r8], #-35	; 0xffffffdd
    2eec:	06000007 	streq	r0, [r0], -r7
    2ef0:	00be1a3f 	adcseq	r1, lr, pc, lsr sl
    2ef4:	23020000 	movwcs	r0, #8192	; 0x2000
    2ef8:	11090020 	tstne	r9, r0, lsr #32
    2efc:	01000008 	tsteq	r0, r8
    2f00:	0080151d 	addeq	r1, r0, sp, lsl r5
    2f04:	01010000 	mrseq	r0, (UNDEF: 1)
    2f08:	00082b09 	andeq	r2, r8, r9, lsl #22
    2f0c:	151e0100 	ldrne	r0, [lr, #-256]	; 0xffffff00
    2f10:	00000080 	andeq	r0, r0, r0, lsl #1
    2f14:	21090101 	tstcs	r9, r1, lsl #2
    2f18:	01000007 	tsteq	r0, r7
    2f1c:	0080151f 	addeq	r1, r0, pc, lsl r5
    2f20:	01010000 	mrseq	r0, (UNDEF: 1)
    2f24:	00073b09 	andeq	r3, r7, r9, lsl #22
    2f28:	15200100 	strne	r0, [r0, #-256]!	; 0xffffff00
    2f2c:	00000080 	andeq	r0, r0, r0, lsl #1
    2f30:	180a0101 	stmdane	sl, {r0, r8}
    2f34:	01000008 	tsteq	r0, r8
    2f38:	00871766 	addeq	r1, r7, r6, ror #14
    2f3c:	05010000 	streq	r0, [r1, #-0]
    2f40:	00018c03 	andeq	r8, r1, r3, lsl #24
    2f44:	07fe0a38 			; <UNDEFINED> instruction: 0x07fe0a38
    2f48:	67010000 	strvs	r0, [r1, -r0]
    2f4c:	00008717 	andeq	r8, r0, r7, lsl r7
    2f50:	03050100 	movweq	r0, #20736	; 0x5100
    2f54:	38000190 	stmdacc	r0, {r4, r7, r8}
    2f58:	00e2010b 	rsceq	r0, r2, fp, lsl #2
    2f5c:	f9010000 			; <UNDEFINED> instruction: 0xf9010000
    2f60:	0080010e 	addeq	r0, r0, lr, lsl #2
    2f64:	1e1c0000 	cdpne	0, 1, cr0, cr12, cr0, {0}
    2f68:	1e241000 	cdpne	0, 2, cr1, cr4, cr0, {0}
    2f6c:	7d021000 	stcvc	0, cr1, [r2, #-0]
    2f70:	010c0100 	mrseq	r0, (UNDEF: 28)
    2f74:	00000124 	andeq	r0, r0, r4, lsr #2
    2f78:	010ef501 	tsteq	lr, r1, lsl #10	; <UNPREDICTABLE>
    2f7c:	00000080 	andeq	r0, r0, r0, lsl #1
    2f80:	10001e14 	andne	r1, r0, r4, lsl lr
    2f84:	10001e1a 	andne	r1, r0, sl, lsl lr
    2f88:	01007d02 	tsteq	r0, r2, lsl #26
    2f8c:	000002c8 	andeq	r0, r0, r8, asr #5
    2f90:	0007fc0d 	andeq	pc, r7, sp, lsl #24
    2f94:	001e1400 	andseq	r1, lr, r0, lsl #8
    2f98:	1e140210 	mrcne	2, 0, r0, cr4, cr0, {0}
    2f9c:	1e181000 	cdpne	0, 1, cr1, cr8, cr0, {0}
    2fa0:	f6011000 			; <UNDEFINED> instruction: 0xf6011000
    2fa4:	080f0e0c 	stmdaeq	pc, {r2, r3, r9, sl, fp}	; <UNPREDICTABLE>
    2fa8:	25e60000 	strbcs	r0, [r6, #0]!
    2fac:	25e40000 	strbcs	r0, [r4, #0]!
    2fb0:	00000000 	andeq	r0, r0, r0
    2fb4:	0246010f 	subeq	r0, r6, #-1073741821	; 0xc0000003
    2fb8:	c9010000 	stmdbgt	r1, {}	; <UNPREDICTABLE>
    2fbc:	00790105 	rsbseq	r0, r9, r5, lsl #2
    2fc0:	1c0c0000 	stcne	0, cr0, [ip], {-0}
    2fc4:	1c881000 	stcne	0, cr1, [r8], {0}
    2fc8:	25f91000 	ldrbcs	r1, [r9, #0]!
    2fcc:	a2010000 	andge	r0, r1, #0
    2fd0:	10000003 	andne	r0, r0, r3
    2fd4:	000004c3 	andeq	r0, r0, r3, asr #9
    2fd8:	a228c901 	eorge	ip, r8, #16384	; 0x4000
    2fdc:	21000003 	tstcs	r0, r3
    2fe0:	19000026 	stmdbne	r0, {r1, r2, r5}
    2fe4:	10000026 	andne	r0, r0, r6, lsr #32
    2fe8:	000004a6 	andeq	r0, r0, r6, lsr #9
    2fec:	8c37c901 			; <UNDEFINED> instruction: 0x8c37c901
    2ff0:	60000000 	andvs	r0, r0, r0
    2ff4:	58000026 	stmdapl	r0, {r1, r2, r5}
    2ff8:	10000026 	andne	r0, r0, r6, lsr #32
    2ffc:	00000132 	andeq	r0, r0, r2, lsr r1
    3000:	a24bc901 	subge	ip, fp, #16384	; 0x4000
    3004:	9d000003 	stcls	0, cr0, [r0, #-12]
    3008:	97000026 	strls	r0, [r0, -r6, lsr #32]
    300c:	10000026 	andne	r0, r0, r6, lsr #32
    3010:	000000f0 	strdeq	r0, [r0], -r0	; <UNPREDICTABLE>
    3014:	a266c901 	rsbge	ip, r6, #16384	; 0x4000
    3018:	d1000003 	tstle	r0, r3
    301c:	c9000026 	stmdbgt	r0, {r1, r2, r5}
    3020:	11000026 	tstne	r0, r6, lsr #32
    3024:	0000038a 	andeq	r0, r0, sl, lsl #7
    3028:	7909ca01 	stmdbvc	r9, {r0, r9, fp, lr, pc}
    302c:	0e000000 	cdpeq	0, 0, cr0, cr0, cr0, {0}
    3030:	08000027 	stmdaeq	r0, {r0, r1, r2, r5}
    3034:	12000027 	andne	r0, r0, #39	; 0x27
    3038:	01006370 	tsteq	r0, r0, ror r3
    303c:	008012cb 	addeq	r1, r0, fp, asr #5
    3040:	27430000 	strbcs	r0, [r3, -r0]
    3044:	27390000 	ldrcs	r0, [r9, -r0]!
    3048:	6f120000 	svcvs	0x00120000
    304c:	cb010070 	blgt	43214 <__HEAP_SIZE+0x42214>
    3050:	0000801a 	andeq	r8, r0, sl, lsl r0
    3054:	00278c00 	eoreq	r8, r7, r0, lsl #24
    3058:	00278600 	eoreq	r8, r7, r0, lsl #12
    305c:	70731200 	rsbsvc	r1, r3, r0, lsl #4
    3060:	23cb0100 	biccs	r0, fp, #0, 2
    3064:	000003a2 	andeq	r0, r0, r2, lsr #7
    3068:	000027bd 			; <UNDEFINED> instruction: 0x000027bd
    306c:	000027b7 			; <UNDEFINED> instruction: 0x000027b7
    3070:	001c4e13 	andseq	r4, ip, r3, lsl lr
    3074:	00071910 	andeq	r1, r7, r0, lsl r9
    3078:	00039800 	andeq	r9, r3, r0, lsl #16
    307c:	50011400 	andpl	r1, r1, r0, lsl #8
    3080:	00007902 	andeq	r7, r0, r2, lsl #18
    3084:	001c5215 	andseq	r5, ip, r5, lsl r2
    3088:	0006b810 	andeq	fp, r6, r0, lsl r8
    308c:	04160000 	ldreq	r0, [r6], #-0
    3090:	00000080 	andeq	r0, r0, r0, lsl #1
    3094:	07eb0117 			; <UNDEFINED> instruction: 0x07eb0117
    3098:	8e010000 	cdphi	0, 0, cr0, cr1, cr0, {0}
    309c:	1c880106 	stfnes	f0, [r8], {6}
    30a0:	1e141000 	cdpne	0, 1, cr1, cr4, cr0, {0}
    30a4:	27e81000 	strbcs	r1, [r8, r0]!
    30a8:	a8010000 	stmdage	r1, {}	; <UNPREDICTABLE>
    30ac:	10000006 	andne	r0, r0, r6
    30b0:	0000073d 	andeq	r0, r0, sp, lsr r7
    30b4:	a2278e01 	eorge	r8, r7, #1, 28
    30b8:	0e000003 	cdpeq	0, 0, cr0, cr0, cr3, {0}
    30bc:	08000028 	stmdaeq	r0, {r3, r5}
    30c0:	10000028 	andne	r0, r0, r8, lsr #32
    30c4:	0000074a 	andeq	r0, r0, sl, asr #14
    30c8:	803b8e01 	eorshi	r8, fp, r1, lsl #28
    30cc:	3e000000 	cdpcc	0, 0, cr0, cr0, cr0, {0}
    30d0:	3a000028 	bcc	3178 <__HEAP_SIZE+0x2178>
    30d4:	11000028 	tstne	r0, r8, lsr #32
    30d8:	0000038a 	andeq	r0, r0, sl, lsl #7
    30dc:	79098f01 	stmdbvc	r9, {r0, r8, r9, sl, fp, pc}
    30e0:	62000000 	andvs	r0, r0, #0
    30e4:	5c000028 	stcpl	0, cr0, [r0], {40}	; 0x28
    30e8:	11000028 	tstne	r0, r8, lsr #32
    30ec:	0000071b 	andeq	r0, r0, fp, lsl r7
    30f0:	79148f01 	ldmdbvc	r4, {r0, r8, r9, sl, fp, pc}
    30f4:	94000000 	strls	r0, [r0], #-0
    30f8:	8c000028 	stchi	0, cr0, [r0], {40}	; 0x28
    30fc:	11000028 	tstne	r0, r8, lsr #32
    3100:	00000138 	andeq	r0, r0, r8, lsr r1
    3104:	a2139001 	andsge	r9, r3, #1
    3108:	f1000003 	cps	#3
    310c:	cb000028 	blgt	31b4 <__HEAP_SIZE+0x21b4>
    3110:	18000028 	stmdane	r0, {r3, r5}
    3114:	0000078f 	andeq	r0, r0, pc, lsl #15
    3118:	d61a9101 	ldrle	r9, [sl], -r1, lsl #2
    311c:	05000001 	streq	r0, [r0, #-1]
    3120:	00019403 	andeq	r9, r1, r3, lsl #8
    3124:	04c31838 	strbeq	r1, [r3], #2104	; 0x838
    3128:	92010000 	andls	r0, r1, #0
    312c:	0006a819 	andeq	sl, r6, r9, lsl r8
    3130:	8c030500 	cfstr32hi	mvfx0, [r3], {-0}
    3134:	13380000 	teqne	r8, #0
    3138:	10001cd8 	ldrdne	r1, [r0], -r8
    313c:	0000081d 	andeq	r0, r0, sp, lsl r8
    3140:	0000045f 	andeq	r0, r0, pc, asr r4
    3144:	02500114 	subseq	r0, r0, #20, 2
    3148:	13000077 	movwne	r0, #119	; 0x77
    314c:	10001cde 	ldrdne	r1, [r0], -lr
    3150:	0000081d 	andeq	r0, r0, sp, lsl r8
    3154:	00000476 	andeq	r0, r0, r6, ror r4
    3158:	05500114 	ldrbeq	r0, [r0, #-276]	; 0xfffffeec
    315c:	00375803 	eorseq	r5, r7, r3, lsl #16
    3160:	e4130010 	ldr	r0, [r3], #-16
    3164:	1d10001c 	ldcne	0, cr0, [r0, #-112]	; 0xffffff90
    3168:	8d000008 	stchi	0, cr0, [r0, #-32]	; 0xffffffe0
    316c:	14000004 	strne	r0, [r0], #-4
    3170:	03055001 	movweq	r5, #20481	; 0x5001
    3174:	10003778 	andne	r3, r0, r8, ror r7
    3178:	1cec1300 	stclne	3, cr1, [ip]
    317c:	082a1000 	stmdaeq	sl!, {ip}
    3180:	04a40000 	strteq	r0, [r4], #0
    3184:	01140000 	tsteq	r4, r0
    3188:	8c030550 	cfstr32hi	mvfx0, [r3], {80}	; 0x50
    318c:	00100037 	andseq	r0, r0, r7, lsr r0
    3190:	001cf413 	andseq	pc, ip, r3, lsl r4	; <UNPREDICTABLE>
    3194:	00082a10 	andeq	r2, r8, r0, lsl sl
    3198:	0004bb00 	andeq	fp, r4, r0, lsl #22
    319c:	50011400 	andpl	r1, r1, r0, lsl #8
    31a0:	37a00305 	strcc	r0, [r0, r5, lsl #6]!
    31a4:	13001000 	movwne	r1, #0
    31a8:	10001cfc 	strdne	r1, [r0], -ip
    31ac:	0000082a 	andeq	r0, r0, sl, lsr #16
    31b0:	000004d2 	ldrdeq	r0, [r0], -r2
    31b4:	05500114 	ldrbeq	r0, [r0, #-276]	; 0xfffffeec
    31b8:	0037b403 	eorseq	fp, r7, r3, lsl #8
    31bc:	04130010 	ldreq	r0, [r3], #-16
    31c0:	2a10001d 	bcs	40323c <__RAM_SIZE+0x30323c>
    31c4:	e9000008 	stmdb	r0, {r3}
    31c8:	14000004 	strne	r0, [r0], #-4
    31cc:	03055001 	movweq	r5, #20481	; 0x5001
    31d0:	100037c8 	andne	r3, r0, r8, asr #15
    31d4:	1d0c1300 	stcne	3, cr1, [ip, #-0]
    31d8:	082a1000 	stmdaeq	sl!, {ip}
    31dc:	05000000 	streq	r0, [r0, #-0]
    31e0:	01140000 	tsteq	r4, r0
    31e4:	dc030550 	cfstr32le	mvfx0, [r3], {80}	; 0x50
    31e8:	00100037 	andseq	r0, r0, r7, lsr r0
    31ec:	001d1413 	andseq	r1, sp, r3, lsl r4
    31f0:	00082a10 	andeq	r2, r8, r0, lsl sl
    31f4:	00051700 	andeq	r1, r5, r0, lsl #14
    31f8:	50011400 	andpl	r1, r1, r0, lsl #8
    31fc:	37f00305 	ldrbcc	r0, [r0, r5, lsl #6]!
    3200:	13001000 	movwne	r1, #0
    3204:	10001d1c 	andne	r1, r0, ip, lsl sp
    3208:	0000082a 	andeq	r0, r0, sl, lsr #16
    320c:	0000052e 	andeq	r0, r0, lr, lsr #10
    3210:	05500114 	ldrbeq	r0, [r0, #-276]	; 0xfffffeec
    3214:	00380403 	eorseq	r0, r8, r3, lsl #8
    3218:	24130010 	ldrcs	r0, [r3], #-16
    321c:	2a10001d 	bcs	403298 <__RAM_SIZE+0x303298>
    3220:	45000008 	strmi	r0, [r0, #-8]
    3224:	14000005 	strne	r0, [r0], #-5
    3228:	03055001 	movweq	r5, #20481	; 0x5001
    322c:	10003818 	andne	r3, r0, r8, lsl r8
    3230:	1d2c1300 	stcne	3, cr1, [ip, #-0]
    3234:	082a1000 	stmdaeq	sl!, {ip}
    3238:	055c0000 	ldrbeq	r0, [ip, #-0]
    323c:	01140000 	tsteq	r4, r0
    3240:	2c030550 	cfstr32cs	mvfx0, [r3], {80}	; 0x50
    3244:	00100038 	andseq	r0, r0, r8, lsr r0
    3248:	001d3413 	andseq	r3, sp, r3, lsl r4
    324c:	00082a10 	andeq	r2, r8, r0, lsl sl
    3250:	00057300 	andeq	r7, r5, r0, lsl #6
    3254:	50011400 	andpl	r1, r1, r0, lsl #8
    3258:	38400305 	stmdacc	r0, {r0, r2, r8, r9}^
    325c:	13001000 	movwne	r1, #0
    3260:	10001d3c 	andne	r1, r0, ip, lsr sp
    3264:	0000082a 	andeq	r0, r0, sl, lsr #16
    3268:	0000058a 	andeq	r0, r0, sl, lsl #11
    326c:	05500114 	ldrbeq	r0, [r0, #-276]	; 0xfffffeec
    3270:	00385403 	eorseq	r5, r8, r3, lsl #8
    3274:	44130010 	ldrmi	r0, [r3], #-16
    3278:	2a10001d 	bcs	4032f4 <__RAM_SIZE+0x3032f4>
    327c:	a1000008 	tstge	r0, r8
    3280:	14000005 	strne	r0, [r0], #-5
    3284:	03055001 	movweq	r5, #20481	; 0x5001
    3288:	10003868 	andne	r3, r0, r8, ror #16
    328c:	1d4c1300 	stclne	3, cr1, [ip, #-0]
    3290:	082a1000 	stmdaeq	sl!, {ip}
    3294:	05b80000 	ldreq	r0, [r8, #0]!
    3298:	01140000 	tsteq	r4, r0
    329c:	7c030550 	cfstr32vc	mvfx0, [r3], {80}	; 0x50
    32a0:	00100038 	andseq	r0, r0, r8, lsr r0
    32a4:	001d5413 	andseq	r5, sp, r3, lsl r4
    32a8:	00082a10 	andeq	r2, r8, r0, lsl sl
    32ac:	0005cf00 	andeq	ip, r5, r0, lsl #30
    32b0:	50011400 	andpl	r1, r1, r0, lsl #8
    32b4:	38900305 	ldmcc	r0, {r0, r2, r8, r9}
    32b8:	13001000 	movwne	r1, #0
    32bc:	10001d5c 	andne	r1, r0, ip, asr sp
    32c0:	0000082a 	andeq	r0, r0, sl, lsr #16
    32c4:	000005e6 	andeq	r0, r0, r6, ror #11
    32c8:	05500114 	ldrbeq	r0, [r0, #-276]	; 0xfffffeec
    32cc:	0038a403 	eorseq	sl, r8, r3, lsl #8
    32d0:	64130010 	ldrvs	r0, [r3], #-16
    32d4:	2a10001d 	bcs	403350 <__RAM_SIZE+0x303350>
    32d8:	fd000008 	stc2	0, cr0, [r0, #-32]	; 0xffffffe0
    32dc:	14000005 	strne	r0, [r0], #-5
    32e0:	03055001 	movweq	r5, #20481	; 0x5001
    32e4:	100038b8 			; <UNDEFINED> instruction: 0x100038b8
    32e8:	1d6a1300 	stclne	3, cr1, [sl, #-0]
    32ec:	081d1000 	ldmdaeq	sp, {ip}
    32f0:	06110000 	ldreq	r0, [r1], -r0
    32f4:	01140000 	tsteq	r4, r0
    32f8:	00770250 	rsbseq	r0, r7, r0, asr r2
    32fc:	1d721300 	ldclne	3, cr1, [r2, #-0]
    3300:	082a1000 	stmdaeq	sl!, {ip}
    3304:	062e0000 	strteq	r0, [lr], -r0
    3308:	01140000 	tsteq	r4, r0
    330c:	cc030550 	cfstr32gt	mvfx0, [r3], {80}	; 0x50
    3310:	14100038 	ldrne	r0, [r0], #-56	; 0xffffffc8
    3314:	76025101 	strvc	r5, [r2], -r1, lsl #2
    3318:	80130000 	andshi	r0, r3, r0
    331c:	c810001d 	ldmdagt	r0, {r0, r2, r3, r4}
    3320:	52000002 	andpl	r0, r0, #2
    3324:	14000006 	strne	r0, [r0], #-6
    3328:	03055001 	movweq	r5, #20481	; 0x5001
    332c:	3800008c 	stmdacc	r0, {r2, r3, r7}
    3330:	02510114 	subseq	r0, r1, #20, 2
    3334:	01144008 	tsteq	r4, r8
    3338:	c0750352 	rsbsgt	r0, r5, r2, asr r3
    333c:	88130000 	ldmdahi	r3, {}	; <UNPREDICTABLE>
    3340:	2a10001d 	bcs	4033bc <__RAM_SIZE+0x3033bc>
    3344:	69000008 	stmdbvs	r0, {r3}
    3348:	14000006 	strne	r0, [r0], #-6
    334c:	03055001 	movweq	r5, #20481	; 0x5001
    3350:	100038e4 	andne	r3, r0, r4, ror #17
    3354:	1d901300 	ldcne	3, cr1, [r0]
    3358:	082a1000 	stmdaeq	sl!, {ip}
    335c:	06800000 	streq	r0, [r0], r0
    3360:	01140000 	tsteq	r4, r0
    3364:	1c030550 	cfstr32ne	mvfx0, [r3], {80}	; 0x50
    3368:	00100036 	andseq	r0, r0, r6, lsr r0
    336c:	001da013 	andseq	sl, sp, r3, lsl r0
    3370:	00082a10 	andeq	r2, r8, r0, lsl sl
    3374:	00069700 	andeq	r9, r6, r0, lsl #14
    3378:	50011400 	andpl	r1, r1, r0, lsl #8
    337c:	361c0305 	ldrcc	r0, [ip], -r5, lsl #6
    3380:	19001000 	stmdbne	r0, {ip}
    3384:	10001dac 	andne	r1, r0, ip, lsr #27
    3388:	0000081d 	andeq	r0, r0, sp, lsl r8
    338c:	02500114 	subseq	r0, r0, #20, 2
    3390:	00000077 	andeq	r0, r0, r7, ror r0
    3394:	0000801a 	andeq	r8, r0, sl, lsl r0
    3398:	0006b800 	andeq	fp, r6, r0, lsl #16
    339c:	00801b00 	addeq	r1, r0, r0, lsl #22
    33a0:	003f0000 	eorseq	r0, pc, r0
    33a4:	0006e41c 	andeq	lr, r6, ip, lsl r4
    33a8:	0d7f0100 	ldfeqe	f0, [pc, #-0]	; 33b0 <__HEAP_SIZE+0x23b0>
    33ac:	00071201 	andeq	r1, r7, r1, lsl #4
    33b0:	001b8400 	andseq	r8, fp, r0, lsl #8
    33b4:	001bba10 	andseq	fp, fp, r0, lsl sl
    33b8:	007d0210 	rsbseq	r0, sp, r0, lsl r2
    33bc:	00071201 	andeq	r1, r7, r1, lsl #4
    33c0:	6e691d00 	cdpvs	13, 6, cr1, cr9, cr0, {0}
    33c4:	7f010073 	svcvc	0x00010073
    33c8:	0000802e 	andeq	r8, r0, lr, lsr #32
    33cc:	0029f700 	eoreq	pc, r9, r0, lsl #14
    33d0:	0029f300 	eoreq	pc, r9, r0, lsl #6
    33d4:	07661100 	strbeq	r1, [r6, -r0, lsl #2]!
    33d8:	83010000 	movwhi	r0, #4096	; 0x1000
    33dc:	0000a60e 	andeq	sl, r0, lr, lsl #12
    33e0:	002a1a00 	eoreq	r1, sl, r0, lsl #20
    33e4:	002a1800 	eoreq	r1, sl, r0, lsl #16
    33e8:	076e1100 	strbeq	r1, [lr, -r0, lsl #2]!
    33ec:	84010000 	strhi	r0, [r1], #-0
    33f0:	0000a60e 	andeq	sl, r0, lr, lsl #12
    33f4:	002a4100 	eoreq	r4, sl, r0, lsl #2
    33f8:	002a2d00 	eoreq	r2, sl, r0, lsl #26
    33fc:	01020000 	mrseq	r0, (UNDEF: 2)
    3400:	0005d202 	andeq	sp, r5, r2, lsl #4
    3404:	07291e00 	streq	r1, [r9, -r0, lsl #28]!
    3408:	74010000 	strvc	r0, [r1], #-0
    340c:	00800115 	addeq	r0, r0, r5, lsl r1
    3410:	1b580000 	blne	1603418 <__RAM_SIZE+0x1503418>
    3414:	1b841000 	blne	fe10741c <__StackTop+0xc600741c>
    3418:	2ae41000 	bcs	ff907420 <__StackTop+0xc7807420>
    341c:	8a010000 	bhi	43424 <__HEAP_SIZE+0x42424>
    3420:	1d000007 	stcne	0, cr0, [r0, #-28]	; 0xffffffe4
    3424:	01006370 	tsteq	r0, r0, ror r3
    3428:	00803474 	addeq	r3, r0, r4, ror r4
    342c:	2b140000 	blcs	503434 <__RAM_SIZE+0x403434>
    3430:	2b100000 	blcs	403438 <__RAM_SIZE+0x303438>
    3434:	c1180000 	tstgt	r8, r0
    3438:	01000000 	mrseq	r0, (UNDEF: 0)
    343c:	078a0e75 			; <UNDEFINED> instruction: 0x078a0e75
    3440:	91020000 	mrsls	r0, (UNDEF: 2)
    3444:	0734117c 			; <UNDEFINED> instruction: 0x0734117c
    3448:	76010000 	strvc	r0, [r1], -r0
    344c:	00008012 	andeq	r8, r0, r2, lsl r0
    3450:	002b3b00 	eoreq	r3, fp, r0, lsl #22
    3454:	002b3500 	eoreq	r3, fp, r0, lsl #10
    3458:	1b5e1f00 	blne	178b060 <__RAM_SIZE+0x168b060>
    345c:	1b741000 	blne	1d07464 <__RAM_SIZE+0x1c07464>
    3460:	69121000 	ldmdbvs	r2, {ip}
    3464:	0e770100 	rpweqs	f0, f7, f0
    3468:	00000079 	andeq	r0, r0, r9, ror r0
    346c:	00002b70 	andeq	r2, r0, r0, ror fp
    3470:	00002b6c 	andeq	r2, r0, ip, ror #22
    3474:	a61a0000 	ldrge	r0, [sl], -r0
    3478:	9a000000 	bls	3480 <__HEAP_SIZE+0x2480>
    347c:	1b000007 	blne	34a0 <__HEAP_SIZE+0x24a0>
    3480:	00000080 	andeq	r0, r0, r0, lsl #1
    3484:	01170001 	tsteq	r7, r1
    3488:	0000028e 	andeq	r0, r0, lr, lsl #5
    348c:	01066901 	tsteq	r6, r1, lsl #18
    3490:	10001bbc 			; <UNDEFINED> instruction: 0x10001bbc
    3494:	10001c0c 	andne	r1, r0, ip, lsl #24
    3498:	00002b8f 	andeq	r2, r0, pc, lsl #23
    349c:	0007fc01 	andeq	pc, r7, r1, lsl #24
    34a0:	1bd21300 	blne	ff4880a8 <__StackTop+0xc73880a8>
    34a4:	082a1000 	stmdaeq	sl!, {ip}
    34a8:	07cc0000 	strbeq	r0, [ip, r0]
    34ac:	01140000 	tsteq	r4, r0
    34b0:	f0030550 			; <UNDEFINED> instruction: 0xf0030550
    34b4:	00100036 	andseq	r0, r0, r6, lsr r0
    34b8:	001bde13 	andseq	sp, fp, r3, lsl lr
    34bc:	00082a10 	andeq	r2, r8, r0, lsl sl
    34c0:	0007e300 	andeq	lr, r7, r0, lsl #6
    34c4:	50011400 	andpl	r1, r1, r0, lsl #8
    34c8:	37140305 	ldrcc	r0, [r4, -r5, lsl #6]
    34cc:	19001000 	stmdbne	r0, {ip}
    34d0:	10001be6 	andne	r1, r0, r6, ror #23
    34d4:	0000082a 	andeq	r0, r0, sl, lsr #16
    34d8:	05500114 	ldrbeq	r0, [r0, #-276]	; 0xfffffeec
    34dc:	00373803 	eorseq	r3, r7, r3, lsl #16
    34e0:	51011410 	tstpl	r1, r0, lsl r4
    34e4:	00003101 	andeq	r3, r0, r1, lsl #2
    34e8:	00070620 	andeq	r0, r7, r0, lsr #12
    34ec:	04630200 	strbteq	r0, [r3], #-512	; 0xfffffe00
    34f0:	00b2011f 	adcseq	r0, r2, pc, lsl r1
    34f4:	1d030000 	stcne	0, cr0, [r3, #-0]
    34f8:	21000008 	tstcs	r0, r8
    34fc:	00000743 	andeq	r0, r0, r3, asr #14
    3500:	0c046502 	cfstr32eq	mvfx6, [r4], {2}
    3504:	000000b2 	strheq	r0, [r0], -r2
    3508:	01012200 	mrseq	r2, R9_usr
    350c:	00000010 	andeq	r0, r0, r0, lsl r0
    3510:	00000006 	andeq	r0, r0, r6
    3514:	01230007 			; <UNDEFINED> instruction: 0x01230007
    3518:	00054601 	andeq	r4, r5, r1, lsl #12
    351c:	00054600 	andeq	r4, r5, r0, lsl #12
    3520:	05c80800 	strbeq	r0, [r8, #2048]	; 0x800
    3524:	00002200 	andeq	r2, r0, r0, lsl #4
    3528:	f3000200 	vhsub.u8	d0, d0, d0
    352c:	04000009 	streq	r0, [r0], #-9
    3530:	00206f01 	eoreq	r6, r0, r1, lsl #30
    3534:	001e2400 	andseq	r2, lr, r0, lsl #8
    3538:	001e9410 	andseq	r9, lr, r0, lsl r4
    353c:	00083210 	andeq	r3, r8, r0, lsl r2
    3540:	00001a00 	andeq	r1, r0, r0, lsl #20
    3544:	00084400 	andeq	r4, r8, r0, lsl #8
    3548:	22800100 	addcs	r0, r0, #0, 2
    354c:	02000000 	andeq	r0, r0, #0
    3550:	000a0700 	andeq	r0, sl, r0, lsl #14
    3554:	e7010400 	str	r0, [r1, -r0, lsl #8]
    3558:	94000020 	strls	r0, [r0], #-32	; 0xffffffe0
    355c:	d810001e 	ldmdale	r0, {r1, r2, r3, r4}
    3560:	5210001e 	andspl	r0, r0, #30
    3564:	1a000008 	bne	358c <__HEAP_SIZE+0x258c>
    3568:	44000000 	strmi	r0, [r0], #-0
    356c:	01000008 	tsteq	r0, r8
    3570:	Address 0x00003570 is out of bounds.


Disassembly of section .debug_abbrev:

00000000 <.debug_abbrev>:
   0:	25011101 	strcs	r1, [r1, #-257]	; 0xfffffeff
   4:	030b130e 	movweq	r1, #45838	; 0xb30e
   8:	550e1b0e 	strpl	r1, [lr, #-2830]	; 0xfffff4f2
   c:	52011106 	andpl	r1, r1, #-2147483647	; 0x80000001
  10:	00061001 	andeq	r1, r6, r1
  14:	00240200 	eoreq	r0, r4, r0, lsl #4
  18:	0b3e0b0b 	bleq	f82c4c <__RAM_SIZE+0xe82c4c>
  1c:	00000e03 	andeq	r0, r0, r3, lsl #28
  20:	03001603 	movweq	r1, #1539	; 0x603
  24:	3b0b3a0e 	blcc	2ce864 <__RAM_SIZE+0x1ce864>
  28:	490b390b 	stmdbmi	fp, {r0, r1, r3, r8, fp, ip, sp}
  2c:	04000013 	streq	r0, [r0], #-19	; 0xffffffed
  30:	0b0b0024 	bleq	2c00c8 <__RAM_SIZE+0x1c00c8>
  34:	08030b3e 	stmdaeq	r3, {r1, r2, r3, r4, r5, r8, r9, fp}
  38:	35050000 	strcc	r0, [r5, #-0]
  3c:	00134900 	andseq	r4, r3, r0, lsl #18
  40:	00260600 	eoreq	r0, r6, r0, lsl #12
  44:	00001349 	andeq	r1, r0, r9, asr #6
  48:	0b011307 	bleq	44c6c <__HEAP_SIZE+0x43c6c>
  4c:	3b0b3a05 	blcc	2ce868 <__RAM_SIZE+0x1ce868>
  50:	010b3905 	tsteq	fp, r5, lsl #18
  54:	08000013 	stmdaeq	r0, {r0, r1, r4}
  58:	0e03000d 	cdpeq	0, 0, cr0, cr3, cr13, {0}
  5c:	053b0b3a 	ldreq	r0, [fp, #-2874]!	; 0xfffff4c6
  60:	13490b39 	movtne	r0, #39737	; 0x9b39
  64:	00000a38 	andeq	r0, r0, r8, lsr sl
  68:	03000d09 	movweq	r0, #3337	; 0xd09
  6c:	3b0b3a08 	blcc	2ce894 <__RAM_SIZE+0x1ce894>
  70:	490b3905 	stmdbmi	fp, {r0, r2, r8, fp, ip, sp}
  74:	000a3813 	andeq	r3, sl, r3, lsl r8
  78:	01010a00 	tsteq	r1, r0, lsl #20
  7c:	13011349 	movwne	r1, #4937	; 0x1349
  80:	210b0000 	mrscs	r0, (UNDEF: 11)
  84:	2f134900 	svccs	0x00134900
  88:	0c00000b 	stceq	0, cr0, [r0], {11}
  8c:	0e030016 	mcreq	0, 0, r0, cr3, cr6, {0}
  90:	053b0b3a 	ldreq	r0, [fp, #-2874]!	; 0xfffff4c6
  94:	13490b39 	movtne	r0, #39737	; 0x9b39
  98:	2e0d0000 	cdpcs	0, 0, cr0, cr13, cr0, {0}
  9c:	030c3f01 	movweq	r3, #52993	; 0xcf01
  a0:	3b0b3a0e 	blcc	2ce8e0 <__RAM_SIZE+0x1ce8e0>
  a4:	270b390b 	strcs	r3, [fp, -fp, lsl #18]
  a8:	1113490c 	tstne	r3, ip, lsl #18
  ac:	40011201 	andmi	r1, r1, r1, lsl #4
  b0:	0c429706 	mcrreq	7, 0, r9, r2, cr6
  b4:	00001301 	andeq	r1, r0, r1, lsl #6
  b8:	0300340e 	movweq	r3, #1038	; 0x40e
  bc:	3b0b3a0e 	blcc	2ce8fc <__RAM_SIZE+0x1ce8fc>
  c0:	490b390b 	stmdbmi	fp, {r0, r1, r3, r8, fp, ip, sp}
  c4:	b7060213 	smladlt	r6, r3, r2, r0
  c8:	00000642 	andeq	r0, r0, r2, asr #12
  cc:	0182890f 	orreq	r8, r2, pc, lsl #18
  d0:	31011100 	mrscc	r1, (UNDEF: 17)
  d4:	10000013 	andne	r0, r0, r3, lsl r0
  d8:	01018289 	smlabbeq	r1, r9, r2, r8
  dc:	13310111 	teqne	r1, #1073741828	; 0x40000004
  e0:	00001301 	andeq	r1, r0, r1, lsl #6
  e4:	01828a11 	orreq	r8, r2, r1, lsl sl
  e8:	910a0200 	mrsls	r0, R10_fiq
  ec:	00000a42 	andeq	r0, r0, r2, asr #20
  f0:	01828912 	orreq	r8, r2, r2, lsl r9
  f4:	31011101 	tstcc	r1, r1, lsl #2
  f8:	13000013 	movwne	r0, #19
  fc:	0c3f012e 	ldfeqs	f0, [pc], #-184	; 4c <__STACKSEAL_SIZE+0x4c>
 100:	0b3a0e03 	bleq	e83914 <__RAM_SIZE+0xd83914>
 104:	0b390b3b 	bleq	e42df8 <__RAM_SIZE+0xd42df8>
 108:	01110c27 	tsteq	r1, r7, lsr #24
 10c:	06400112 			; <UNDEFINED> instruction: 0x06400112
 110:	010c4297 			; <UNDEFINED> instruction: 0x010c4297
 114:	14000013 	strne	r0, [r0], #-19	; 0xffffffed
 118:	0e030034 	mcreq	0, 0, r0, cr3, cr4, {1}
 11c:	0c341349 	ldceq	3, cr1, [r4], #-292	; 0xfffffedc
 120:	00000a02 	andeq	r0, r0, r2, lsl #20
 124:	03003415 	movweq	r3, #1045	; 0x415
 128:	3b0b3a0e 	blcc	2ce968 <__RAM_SIZE+0x1ce968>
 12c:	490b390b 	stmdbmi	fp, {r0, r1, r3, r8, fp, ip, sp}
 130:	000a0213 	andeq	r0, sl, r3, lsl r2
 134:	010b1600 	tsteq	fp, r0, lsl #12
 138:	13010655 	movwne	r0, #5717	; 0x1655
 13c:	34170000 	ldrcc	r0, [r7], #-0
 140:	3a080300 	bcc	200d48 <__RAM_SIZE+0x100d48>
 144:	390b3b0b 	stmdbcc	fp, {r0, r1, r3, r8, r9, fp, ip, sp}
 148:	0213490b 	andseq	r4, r3, #180224	; 0x2c000
 14c:	0642b706 	strbeq	fp, [r2], -r6, lsl #14
 150:	0f180000 	svceq	0x00180000
 154:	490b0b00 	stmdbmi	fp, {r8, r9, fp}
 158:	19000013 	stmdbne	r0, {r0, r1, r4}
 15c:	08030034 	stmdaeq	r3, {r2, r4, r5}
 160:	0b3b0b3a 	bleq	ec2e50 <__RAM_SIZE+0xdc2e50>
 164:	13490b39 	movtne	r0, #39737	; 0x9b39
 168:	00000b1c 	andeq	r0, r0, ip, lsl fp
 16c:	3f002e1a 	svccc	0x00002e1a
 170:	3a0e030c 	bcc	380da8 <__RAM_SIZE+0x280da8>
 174:	390b3b0b 	stmdbcc	fp, {r0, r1, r3, r8, r9, fp, ip, sp}
 178:	110c270b 	tstne	ip, fp, lsl #14
 17c:	40011201 	andmi	r1, r1, r1, lsl #4
 180:	0c42970a 	mcrreq	7, 0, r9, r2, cr10
 184:	2e1b0000 	cdpcs	0, 1, cr0, cr11, cr0, {0}
 188:	3c0c3f00 	stccc	15, cr3, [ip], {-0}
 18c:	0e40870c 	cdpeq	7, 4, cr8, cr0, cr12, {0}
 190:	0b3a0e03 	bleq	e839a4 <__RAM_SIZE+0xd839a4>
 194:	0b390b3b 	bleq	e42e88 <__RAM_SIZE+0xd42e88>
 198:	2e1c0000 	cdpcs	0, 1, cr0, cr12, cr0, {0}
 19c:	3c0c3f00 	stccc	15, cr3, [ip], {-0}
 1a0:	0e40870c 	cdpeq	7, 4, cr8, cr0, cr12, {0}
 1a4:	0b3a0e03 	bleq	e839b8 <__RAM_SIZE+0xd839b8>
 1a8:	00000b3b 	andeq	r0, r0, fp, lsr fp
 1ac:	01110100 	tsteq	r1, r0, lsl #2
 1b0:	0b130e25 	bleq	4c3a4c <__RAM_SIZE+0x3c3a4c>
 1b4:	0e1b0e03 	cdpeq	14, 1, cr0, cr11, cr3, {0}
 1b8:	01110655 	tsteq	r1, r5, asr r6
 1bc:	06100152 			; <UNDEFINED> instruction: 0x06100152
 1c0:	24020000 	strcs	r0, [r2], #-0
 1c4:	3e0b0b00 	vmlacc.f64	d0, d11, d0
 1c8:	000e030b 	andeq	r0, lr, fp, lsl #6
 1cc:	00160300 	andseq	r0, r6, r0, lsl #6
 1d0:	0b3a0e03 	bleq	e839e4 <__RAM_SIZE+0xd839e4>
 1d4:	0b390b3b 	bleq	e42ec8 <__RAM_SIZE+0xd42ec8>
 1d8:	00001349 	andeq	r1, r0, r9, asr #6
 1dc:	0b002404 	bleq	91f4 <__HEAP_SIZE+0x81f4>
 1e0:	030b3e0b 	movweq	r3, #48651	; 0xbe0b
 1e4:	05000008 	streq	r0, [r0, #-8]
 1e8:	13490035 	movtne	r0, #36917	; 0x9035
 1ec:	26060000 	strcs	r0, [r6], -r0
 1f0:	00134900 	andseq	r4, r3, r0, lsl #18
 1f4:	01130700 	tsteq	r3, r0, lsl #14
 1f8:	0b3a050b 	bleq	e8162c <__RAM_SIZE+0xd8162c>
 1fc:	0b39053b 	bleq	e416f0 <__RAM_SIZE+0xd416f0>
 200:	00001301 	andeq	r1, r0, r1, lsl #6
 204:	03000d08 	movweq	r0, #3336	; 0xd08
 208:	3b0b3a0e 	blcc	2cea48 <__RAM_SIZE+0x1cea48>
 20c:	490b3905 	stmdbmi	fp, {r0, r2, r8, fp, ip, sp}
 210:	000a3813 	andeq	r3, sl, r3, lsl r8
 214:	000d0900 	andeq	r0, sp, r0, lsl #18
 218:	0b3a0803 	bleq	e8222c <__RAM_SIZE+0xd8222c>
 21c:	0b39053b 	bleq	e41710 <__RAM_SIZE+0xd41710>
 220:	0a381349 	beq	e04f4c <__RAM_SIZE+0xd04f4c>
 224:	010a0000 	mrseq	r0, (UNDEF: 10)
 228:	01134901 	tsteq	r3, r1, lsl #18
 22c:	0b000013 	bleq	280 <__STACKSEAL_SIZE+0x280>
 230:	13490021 	movtne	r0, #36897	; 0x9021
 234:	00000b2f 	andeq	r0, r0, pc, lsr #22
 238:	0300160c 	movweq	r1, #1548	; 0x60c
 23c:	3b0b3a0e 	blcc	2cea7c <__RAM_SIZE+0x1cea7c>
 240:	490b3905 	stmdbmi	fp, {r0, r2, r8, fp, ip, sp}
 244:	0d000013 	stceq	0, cr0, [r0, #-76]	; 0xffffffb4
 248:	0b0b000f 	bleq	2c028c <__RAM_SIZE+0x1c028c>
 24c:	00001349 	andeq	r1, r0, r9, asr #6
 250:	2700150e 	strcs	r1, [r0, -lr, lsl #10]
 254:	0f00000c 	svceq	0x0000000c
 258:	0e030034 	mcreq	0, 0, r0, cr3, cr4, {1}
 25c:	0b3b0b3a 	bleq	ec2f4c <__RAM_SIZE+0xdc2f4c>
 260:	13490b39 	movtne	r0, #39737	; 0x9b39
 264:	0c3c0c3f 	ldceq	12, cr0, [ip], #-252	; 0xffffff04
 268:	21100000 	tstcs	r0, r0
 26c:	2f134900 	svccs	0x00134900
 270:	11000005 	tstne	r0, r5
 274:	13470034 	movtne	r0, #28724	; 0x7034
 278:	0b3b0b3a 	bleq	ec2f68 <__RAM_SIZE+0xdc2f68>
 27c:	0a020b39 	beq	82f68 <__HEAP_SIZE+0x81f68>
 280:	2e120000 	cdpcs	0, 1, cr0, cr2, cr0, {0}
 284:	030c3f00 	movweq	r3, #52992	; 0xcf00
 288:	3b0b3a0e 	blcc	2ceac8 <__RAM_SIZE+0x1ceac8>
 28c:	270b390b 	strcs	r3, [fp, -fp, lsl #18]
 290:	1201110c 	andne	r1, r1, #12, 2
 294:	970a4001 	strls	r4, [sl, -r1]
 298:	00000c42 	andeq	r0, r0, r2, asr #24
 29c:	01110100 	tsteq	r1, r0, lsl #2
 2a0:	0b130e25 	bleq	4c3b3c <__RAM_SIZE+0x3c3b3c>
 2a4:	0e1b0e03 	cdpeq	14, 1, cr0, cr11, cr3, {0}
 2a8:	01110655 	tsteq	r1, r5, asr r6
 2ac:	06100152 			; <UNDEFINED> instruction: 0x06100152
 2b0:	24020000 	strcs	r0, [r2], #-0
 2b4:	3e0b0b00 	vmlacc.f64	d0, d11, d0
 2b8:	000e030b 	andeq	r0, lr, fp, lsl #6
 2bc:	00260300 	eoreq	r0, r6, r0, lsl #6
 2c0:	00001349 	andeq	r1, r0, r9, asr #6
 2c4:	03001604 	movweq	r1, #1540	; 0x604
 2c8:	3b0b3a0e 	blcc	2ceb08 <__RAM_SIZE+0x1ceb08>
 2cc:	490b390b 	stmdbmi	fp, {r0, r1, r3, r8, fp, ip, sp}
 2d0:	05000013 	streq	r0, [r0, #-19]	; 0xffffffed
 2d4:	0b0b0024 	bleq	2c036c <__RAM_SIZE+0x1c036c>
 2d8:	08030b3e 	stmdaeq	r3, {r1, r2, r3, r4, r5, r8, r9, fp}
 2dc:	13060000 	movwne	r0, #24576	; 0x6000
 2e0:	0b0e0301 	bleq	380eec <__RAM_SIZE+0x280eec>
 2e4:	3b0b3a0b 	blcc	2ceb18 <__RAM_SIZE+0x1ceb18>
 2e8:	0013010b 	andseq	r0, r3, fp, lsl #2
 2ec:	000d0700 	andeq	r0, sp, r0, lsl #14
 2f0:	13490e03 	movtne	r0, #40451	; 0x9e03
 2f4:	0c340a38 			; <UNDEFINED> instruction: 0x0c340a38
 2f8:	0f080000 	svceq	0x00080000
 2fc:	000b0b00 	andeq	r0, fp, r0, lsl #22
 300:	000f0900 	andeq	r0, pc, r0, lsl #18
 304:	13490b0b 	movtne	r0, #39691	; 0x9b0b
 308:	150a0000 	strne	r0, [sl, #-0]
 30c:	010c2701 	tsteq	ip, r1, lsl #14
 310:	0b000013 	bleq	364 <__STACKSEAL_SIZE+0x364>
 314:	13490005 	movtne	r0, #36869	; 0x9005
 318:	130c0000 	movwne	r0, #49152	; 0xc000
 31c:	3a0b0b01 	bcc	2c2f28 <__RAM_SIZE+0x1c2f28>
 320:	390b3b0b 	stmdbcc	fp, {r0, r1, r3, r8, r9, fp, ip, sp}
 324:	0013010b 	andseq	r0, r3, fp, lsl #2
 328:	000d0d00 	andeq	r0, sp, r0, lsl #26
 32c:	0b3a0803 	bleq	e82340 <__RAM_SIZE+0xd82340>
 330:	0b390b3b 	bleq	e43024 <__RAM_SIZE+0xd43024>
 334:	0a381349 	beq	e05060 <__RAM_SIZE+0xd05060>
 338:	2e0e0000 	cdpcs	0, 0, cr0, cr14, cr0, {0}
 33c:	030c3f01 	movweq	r3, #52993	; 0xcf01
 340:	3b0b3a0e 	blcc	2ceb80 <__RAM_SIZE+0x1ceb80>
 344:	270b3905 	strcs	r3, [fp, -r5, lsl #18]
 348:	1113490c 	tstne	r3, ip, lsl #18
 34c:	40011201 	andmi	r1, r1, r1, lsl #4
 350:	0c429706 	mcrreq	7, 0, r9, r2, cr6
 354:	00001301 	andeq	r1, r0, r1, lsl #6
 358:	0300050f 	movweq	r0, #1295	; 0x50f
 35c:	3b0b3a08 	blcc	2ceb84 <__RAM_SIZE+0x1ceb84>
 360:	490b3905 	stmdbmi	fp, {r0, r2, r8, fp, ip, sp}
 364:	b7060213 	smladlt	r6, r3, r2, r0
 368:	00000642 	andeq	r0, r0, r2, asr #12
 36c:	03000510 	movweq	r0, #1296	; 0x510
 370:	3b0b3a0e 	blcc	2cebb0 <__RAM_SIZE+0x1cebb0>
 374:	490b3905 	stmdbmi	fp, {r0, r2, r8, fp, ip, sp}
 378:	000a0213 	andeq	r0, sl, r3, lsl r2
 37c:	00181100 	andseq	r1, r8, r0, lsl #2
 380:	34120000 	ldrcc	r0, [r2], #-0
 384:	3a080300 	bcc	200f8c <__RAM_SIZE+0x100f8c>
 388:	39053b0b 	stmdbcc	r5, {r0, r1, r3, r8, r9, fp, ip, sp}
 38c:	0213490b 	andseq	r4, r3, #180224	; 0x2c000
 390:	1300000a 	movwne	r0, #10
 394:	0e030034 	mcreq	0, 0, r0, cr3, cr4, {1}
 398:	053b0b3a 	ldreq	r0, [fp, #-2874]!	; 0xfffff4c6
 39c:	13490b39 	movtne	r0, #39737	; 0x9b39
 3a0:	00000a02 	andeq	r0, r0, r2, lsl #20
 3a4:	03003414 	movweq	r3, #1044	; 0x414
 3a8:	3b0b3a08 	blcc	2cebd0 <__RAM_SIZE+0x1cebd0>
 3ac:	490b3905 	stmdbmi	fp, {r0, r2, r8, fp, ip, sp}
 3b0:	b7060213 	smladlt	r6, r3, r2, r0
 3b4:	00000642 	andeq	r0, r0, r2, asr #12
 3b8:	01828915 	orreq	r8, r2, r5, lsl r9
 3bc:	31011101 	tstcc	r1, r1, lsl #2
 3c0:	16000013 			; <UNDEFINED> instruction: 0x16000013
 3c4:	0001828a 	andeq	r8, r1, sl, lsl #5
 3c8:	42910a02 	addsmi	r0, r1, #8192	; 0x2000
 3cc:	1700000a 	strne	r0, [r0, -sl]
 3d0:	0e030005 	cdpeq	0, 0, cr0, cr3, cr5, {0}
 3d4:	053b0b3a 	ldreq	r0, [fp, #-2874]!	; 0xfffff4c6
 3d8:	13490b39 	movtne	r0, #39737	; 0x9b39
 3dc:	42b70602 	adcsmi	r0, r7, #2097152	; 0x200000
 3e0:	18000006 	stmdane	r0, {r1, r2}
 3e4:	13490101 	movtne	r0, #37121	; 0x9101
 3e8:	00001301 	andeq	r1, r0, r1, lsl #6
 3ec:	49002119 	stmdbmi	r0, {r0, r3, r4, r8, sp}
 3f0:	000b2f13 	andeq	r2, fp, r3, lsl pc
 3f4:	012e1a00 			; <UNDEFINED> instruction: 0x012e1a00
 3f8:	0b3a0e03 	bleq	e83c0c <__RAM_SIZE+0xd83c0c>
 3fc:	0b39053b 	bleq	e418f0 <__RAM_SIZE+0xd418f0>
 400:	13490c27 	movtne	r0, #39975	; 0x9c27
 404:	01120111 	tsteq	r2, r1, lsl r1
 408:	42970640 	addsmi	r0, r7, #64, 12	; 0x4000000
 40c:	0013010c 	andseq	r0, r3, ip, lsl #2
 410:	00051b00 	andeq	r1, r5, r0, lsl #22
 414:	0b3a0803 	bleq	e82428 <__RAM_SIZE+0xd82428>
 418:	0b39053b 	bleq	e4190c <__RAM_SIZE+0xd4190c>
 41c:	0a021349 	beq	85148 <__HEAP_SIZE+0x84148>
 420:	341c0000 	ldrcc	r0, [ip], #-0
 424:	3a0e0300 	bcc	38102c <__RAM_SIZE+0x28102c>
 428:	39053b0b 	stmdbcc	r5, {r0, r1, r3, r8, r9, fp, ip, sp}
 42c:	0213490b 	andseq	r4, r3, #180224	; 0x2c000
 430:	0642b706 	strbeq	fp, [r2], -r6, lsl #14
 434:	0b1d0000 	bleq	74043c <__RAM_SIZE+0x64043c>
 438:	12011101 	andne	r1, r1, #1073741824	; 0x40000000
 43c:	00130101 	andseq	r0, r3, r1, lsl #2
 440:	010b1e00 	tsteq	fp, r0, lsl #28
 444:	13010655 	movwne	r0, #5717	; 0x1655
 448:	341f0000 	ldrcc	r0, [pc], #-0	; 450 <__STACKSEAL_SIZE+0x450>
 44c:	3a0e0300 	bcc	381054 <__RAM_SIZE+0x281054>
 450:	39053b0b 	stmdbcc	r5, {r0, r1, r3, r8, r9, fp, ip, sp}
 454:	0013490b 	andseq	r4, r3, fp, lsl #18
 458:	82892000 	addhi	r2, r9, #0
 45c:	01110101 	tsteq	r1, r1, lsl #2
 460:	13011331 	movwne	r1, #4913	; 0x1331
 464:	89210000 	stmdbhi	r1!, {}	; <UNPREDICTABLE>
 468:	11010182 	smlabbne	r1, r2, r1, r0
 46c:	00130101 	andseq	r0, r3, r1, lsl #2
 470:	82892200 	addhi	r2, r9, #0, 4
 474:	01110101 	tsteq	r1, r1, lsl #2
 478:	1d230000 	stcne	0, cr0, [r3, #-0]
 47c:	11133101 	tstne	r3, r1, lsl #2
 480:	58011201 	stmdapl	r1, {r0, r9, ip}
 484:	5705590b 	strpl	r5, [r5, -fp, lsl #18]
 488:	0013010b 	andseq	r0, r3, fp, lsl #2
 48c:	00052400 	andeq	r2, r5, r0, lsl #8
 490:	06021331 			; <UNDEFINED> instruction: 0x06021331
 494:	000642b7 			; <UNDEFINED> instruction: 0x000642b7
 498:	00052500 	andeq	r2, r5, r0, lsl #10
 49c:	00001331 	andeq	r1, r0, r1, lsr r3
 4a0:	31003426 	tstcc	r0, r6, lsr #8
 4a4:	b7060213 	smladlt	r6, r3, r2, r0
 4a8:	00000642 	andeq	r0, r0, r2, asr #12
 4ac:	31011d27 	tstcc	r1, r7, lsr #26
 4b0:	b8015213 	stmdalt	r1, {r0, r1, r4, r9, ip, lr}
 4b4:	01110542 	tsteq	r1, r2, asr #10
 4b8:	0b580112 	bleq	1600908 <__RAM_SIZE+0x1500908>
 4bc:	0b570559 	bleq	15c1a28 <__RAM_SIZE+0x14c1a28>
 4c0:	00001301 	andeq	r1, r0, r1, lsl #6
 4c4:	01828928 	orreq	r8, r2, r8, lsr #18
 4c8:	93011101 	movwls	r1, #4353	; 0x1101
 4cc:	13010a42 	movwne	r0, #6722	; 0x1a42
 4d0:	17290000 	strne	r0, [r9, -r0]!
 4d4:	3a0b0b01 	bcc	2c30e0 <__RAM_SIZE+0x1c30e0>
 4d8:	39053b0b 	stmdbcc	r5, {r0, r1, r3, r8, r9, fp, ip, sp}
 4dc:	0013010b 	andseq	r0, r3, fp, lsl #2
 4e0:	000d2a00 	andeq	r2, sp, r0, lsl #20
 4e4:	0b3a0803 	bleq	e824f8 <__RAM_SIZE+0xd824f8>
 4e8:	0b39053b 	bleq	e419dc <__RAM_SIZE+0xd419dc>
 4ec:	00001349 	andeq	r1, r0, r9, asr #6
 4f0:	0182892b 	orreq	r8, r2, fp, lsr #18
 4f4:	31011100 	mrscc	r1, (UNDEF: 17)
 4f8:	2c000013 	stccs	0, cr0, [r0], {19}
 4fc:	0e03012e 	adfeqsp	f0, f3, #0.5
 500:	0b3b0b3a 	bleq	ec31f0 <__RAM_SIZE+0xdc31f0>
 504:	0c270b39 			; <UNDEFINED> instruction: 0x0c270b39
 508:	01111349 	tsteq	r1, r9, asr #6
 50c:	06400112 			; <UNDEFINED> instruction: 0x06400112
 510:	010c4297 			; <UNDEFINED> instruction: 0x010c4297
 514:	2d000013 	stccs	0, cr0, [r0, #-76]	; 0xffffffb4
 518:	08030005 	stmdaeq	r3, {r0, r2}
 51c:	0b3b0b3a 	bleq	ec320c <__RAM_SIZE+0xdc320c>
 520:	13490b39 	movtne	r0, #39737	; 0x9b39
 524:	42b70602 	adcsmi	r0, r7, #2097152	; 0x200000
 528:	2e000006 	cdpcs	0, 0, cr0, cr0, cr6, {0}
 52c:	0e030005 	cdpeq	0, 0, cr0, cr3, cr5, {0}
 530:	0b3b0b3a 	bleq	ec3220 <__RAM_SIZE+0xdc3220>
 534:	13490b39 	movtne	r0, #39737	; 0x9b39
 538:	42b70602 	adcsmi	r0, r7, #2097152	; 0x200000
 53c:	2f000006 	svccs	0x00000006
 540:	0e030034 	mcreq	0, 0, r0, cr3, cr4, {1}
 544:	0b3b0b3a 	bleq	ec3234 <__RAM_SIZE+0xdc3234>
 548:	13490b39 	movtne	r0, #39737	; 0x9b39
 54c:	42b70602 	adcsmi	r0, r7, #2097152	; 0x200000
 550:	30000006 	andcc	r0, r0, r6
 554:	08030034 	stmdaeq	r3, {r2, r4, r5}
 558:	0b3b0b3a 	bleq	ec3248 <__RAM_SIZE+0xdc3248>
 55c:	13490b39 	movtne	r0, #39737	; 0x9b39
 560:	42b70602 	adcsmi	r0, r7, #2097152	; 0x200000
 564:	31000006 	tstcc	r0, r6
 568:	0e03012e 	adfeqsp	f0, f3, #0.5
 56c:	0b3b0b3a 	bleq	ec325c <__RAM_SIZE+0xdc325c>
 570:	0c270b39 			; <UNDEFINED> instruction: 0x0c270b39
 574:	01111349 	tsteq	r1, r9, asr #6
 578:	0a400112 	beq	10009c8 <__RAM_SIZE+0xf009c8>
 57c:	010c4297 			; <UNDEFINED> instruction: 0x010c4297
 580:	32000013 	andcc	r0, r0, #19
 584:	1331011d 	teqne	r1, #1073741831	; 0x40000007
 588:	42b80152 	adcsmi	r0, r8, #-2147483628	; 0x80000014
 58c:	12011105 	andne	r1, r1, #1073741825	; 0x40000001
 590:	590b5801 	stmdbpl	fp, {r0, fp, ip, lr}
 594:	000b570b 	andeq	r5, fp, fp, lsl #14
 598:	012e3300 			; <UNDEFINED> instruction: 0x012e3300
 59c:	0b3a0e03 	bleq	e83db0 <__RAM_SIZE+0xd83db0>
 5a0:	0b390b3b 	bleq	e43294 <__RAM_SIZE+0xd43294>
 5a4:	13490c27 	movtne	r0, #39975	; 0x9c27
 5a8:	13010b20 	movwne	r0, #6944	; 0x1b20
 5ac:	05340000 	ldreq	r0, [r4, #-0]!
 5b0:	3a080300 	bcc	2011b8 <__RAM_SIZE+0x1011b8>
 5b4:	390b3b0b 	stmdbcc	fp, {r0, r1, r3, r8, r9, fp, ip, sp}
 5b8:	0013490b 	andseq	r4, r3, fp, lsl #18
 5bc:	00053500 	andeq	r3, r5, r0, lsl #10
 5c0:	0b3a0e03 	bleq	e83dd4 <__RAM_SIZE+0xd83dd4>
 5c4:	0b390b3b 	bleq	e432b8 <__RAM_SIZE+0xd432b8>
 5c8:	00001349 	andeq	r1, r0, r9, asr #6
 5cc:	03003436 	movweq	r3, #1078	; 0x436
 5d0:	3b0b3a08 	blcc	2cedf8 <__RAM_SIZE+0x1cedf8>
 5d4:	490b390b 	stmdbmi	fp, {r0, r1, r3, r8, fp, ip, sp}
 5d8:	37000013 	smladcc	r0, r3, r0, r0
 5dc:	0e03012e 	adfeqsp	f0, f3, #0.5
 5e0:	0b3b0b3a 	bleq	ec32d0 <__RAM_SIZE+0xdc32d0>
 5e4:	0c270b39 			; <UNDEFINED> instruction: 0x0c270b39
 5e8:	01120111 	tsteq	r2, r1, lsl r1
 5ec:	42960640 	addsmi	r0, r6, #64, 12	; 0x4000000
 5f0:	0013010c 	andseq	r0, r3, ip, lsl #2
 5f4:	012e3800 			; <UNDEFINED> instruction: 0x012e3800
 5f8:	0b3a0e03 	bleq	e83e0c <__RAM_SIZE+0xd83e0c>
 5fc:	0b390b3b 	bleq	e432f0 <__RAM_SIZE+0xd432f0>
 600:	01110c27 	tsteq	r1, r7, lsr #24
 604:	06400112 			; <UNDEFINED> instruction: 0x06400112
 608:	010c4297 			; <UNDEFINED> instruction: 0x010c4297
 60c:	39000013 	stmdbcc	r0, {r0, r1, r4}
 610:	0e03012e 	adfeqsp	f0, f3, #0.5
 614:	0b3b0b3a 	bleq	ec3304 <__RAM_SIZE+0xdc3304>
 618:	0c270b39 			; <UNDEFINED> instruction: 0x0c270b39
 61c:	01120111 	tsteq	r2, r1, lsl r1
 620:	42970a40 	addsmi	r0, r7, #64, 20	; 0x40000
 624:	0013010c 	andseq	r0, r3, ip, lsl #2
 628:	00053a00 	andeq	r3, r5, r0, lsl #20
 62c:	0b3a0e03 	bleq	e83e40 <__RAM_SIZE+0xd83e40>
 630:	0b390b3b 	bleq	e43324 <__RAM_SIZE+0xd43324>
 634:	0a021349 	beq	85360 <__HEAP_SIZE+0x84360>
 638:	053b0000 	ldreq	r0, [fp, #-0]!
 63c:	3a080300 	bcc	201244 <__RAM_SIZE+0x101244>
 640:	390b3b0b 	stmdbcc	fp, {r0, r1, r3, r8, r9, fp, ip, sp}
 644:	0213490b 	andseq	r4, r3, #180224	; 0x2c000
 648:	3c00000a 	stccc	0, cr0, [r0], {10}
 64c:	0c3f002e 	ldceq	0, cr0, [pc], #-184	; 59c <__STACKSEAL_SIZE+0x59c>
 650:	40870c3c 	addmi	r0, r7, ip, lsr ip
 654:	000e030e 	andeq	r0, lr, lr, lsl #6
 658:	002e3d00 	eoreq	r3, lr, r0, lsl #26
 65c:	0c3c0c3f 	ldceq	12, cr0, [ip], #-252	; 0xffffff04
 660:	030e4087 	movweq	r4, #57479	; 0xe087
 664:	3b0b3a0e 	blcc	2ceea4 <__RAM_SIZE+0x1ceea4>
 668:	000b390b 	andeq	r3, fp, fp, lsl #18
 66c:	11010000 	mrsne	r0, (UNDEF: 1)
 670:	130e2501 	movwne	r2, #58625	; 0xe501
 674:	1b0e030b 	blne	3812a8 <__RAM_SIZE+0x2812a8>
 678:	1106550e 	tstne	r6, lr, lsl #10
 67c:	10015201 	andne	r5, r1, r1, lsl #4
 680:	02000006 	andeq	r0, r0, #6
 684:	0b0b0024 	bleq	2c071c <__RAM_SIZE+0x1c071c>
 688:	0e030b3e 	vmoveq.16	d3[0], r0
 68c:	16030000 	strne	r0, [r3], -r0
 690:	3a0e0300 	bcc	381298 <__RAM_SIZE+0x281298>
 694:	390b3b0b 	stmdbcc	fp, {r0, r1, r3, r8, r9, fp, ip, sp}
 698:	0013490b 	andseq	r4, r3, fp, lsl #18
 69c:	00240400 	eoreq	r0, r4, r0, lsl #8
 6a0:	0b3e0b0b 	bleq	f832d4 <__RAM_SIZE+0xe832d4>
 6a4:	00000803 	andeq	r0, r0, r3, lsl #16
 6a8:	49002605 	stmdbmi	r0, {r0, r2, r9, sl, sp}
 6ac:	06000013 			; <UNDEFINED> instruction: 0x06000013
 6b0:	0b0b000f 	bleq	2c06f4 <__RAM_SIZE+0x1c06f4>
 6b4:	00001349 	andeq	r1, r0, r9, asr #6
 6b8:	3f012e07 	svccc	0x00012e07
 6bc:	3a0e030c 	bcc	3812f4 <__RAM_SIZE+0x2812f4>
 6c0:	390b3b0b 	stmdbcc	fp, {r0, r1, r3, r8, r9, fp, ip, sp}
 6c4:	490c270b 	stmdbmi	ip, {r0, r1, r3, r8, r9, sl, sp}
 6c8:	12011113 	andne	r1, r1, #-1073741820	; 0xc0000004
 6cc:	97064001 	strls	r4, [r6, -r1]
 6d0:	13010c42 	movwne	r0, #7234	; 0x1c42
 6d4:	05080000 	streq	r0, [r8, #-0]
 6d8:	3a0e0300 	bcc	3812e0 <__RAM_SIZE+0x2812e0>
 6dc:	390b3b0b 	stmdbcc	fp, {r0, r1, r3, r8, r9, fp, ip, sp}
 6e0:	0213490b 	andseq	r4, r3, #180224	; 0x2c000
 6e4:	0642b706 	strbeq	fp, [r2], -r6, lsl #14
 6e8:	34090000 	strcc	r0, [r9], #-0
 6ec:	3a080300 	bcc	2012f4 <__RAM_SIZE+0x1012f4>
 6f0:	390b3b0b 	stmdbcc	fp, {r0, r1, r3, r8, r9, fp, ip, sp}
 6f4:	0213490b 	andseq	r4, r3, #180224	; 0x2c000
 6f8:	0642b706 	strbeq	fp, [r2], -r6, lsl #14
 6fc:	890a0000 	stmdbhi	sl, {}	; <UNPREDICTABLE>
 700:	11000182 	smlabbne	r0, r2, r1, r0
 704:	00133101 	andseq	r3, r3, r1, lsl #2
 708:	012e0b00 			; <UNDEFINED> instruction: 0x012e0b00
 70c:	0e030c3f 	mcreq	12, 0, r0, cr3, cr15, {1}
 710:	0b3b0b3a 	bleq	ec3400 <__RAM_SIZE+0xdc3400>
 714:	0c270b39 			; <UNDEFINED> instruction: 0x0c270b39
 718:	01120111 	tsteq	r2, r1, lsl r1
 71c:	42970640 	addsmi	r0, r7, #64, 12	; 0x4000000
 720:	0013010c 	andseq	r0, r3, ip, lsl #2
 724:	002e0c00 	eoreq	r0, lr, r0, lsl #24
 728:	0e030c3f 	mcreq	12, 0, r0, cr3, cr15, {1}
 72c:	0b3b0b3a 	bleq	ec341c <__RAM_SIZE+0xdc341c>
 730:	0c270b39 			; <UNDEFINED> instruction: 0x0c270b39
 734:	01120111 	tsteq	r2, r1, lsl r1
 738:	42970a40 	addsmi	r0, r7, #64, 20	; 0x40000
 73c:	0d00000c 	stceq	0, cr0, [r0, #-48]	; 0xffffffd0
 740:	0c3f002e 	ldceq	0, cr0, [pc], #-184	; 690 <__STACKSEAL_SIZE+0x690>
 744:	0b3a0e03 	bleq	e83f58 <__RAM_SIZE+0xd83f58>
 748:	0b390b3b 	bleq	e4343c <__RAM_SIZE+0xd4343c>
 74c:	13490c27 	movtne	r0, #39975	; 0x9c27
 750:	01120111 	tsteq	r2, r1, lsl r1
 754:	42970a40 	addsmi	r0, r7, #64, 20	; 0x40000
 758:	0e00000c 	cdpeq	0, 0, cr0, cr0, cr12, {0}
 75c:	0c3f012e 	ldfeqs	f0, [pc], #-184	; 6ac <__STACKSEAL_SIZE+0x6ac>
 760:	0b3a0e03 	bleq	e83f74 <__RAM_SIZE+0xd83f74>
 764:	0b390b3b 	bleq	e43458 <__RAM_SIZE+0xd43458>
 768:	13490c27 	movtne	r0, #39975	; 0x9c27
 76c:	01120111 	tsteq	r2, r1, lsl r1
 770:	42970a40 	addsmi	r0, r7, #64, 20	; 0x40000
 774:	0f00000c 	svceq	0x0000000c
 778:	08030005 	stmdaeq	r3, {r0, r2}
 77c:	0b3b0b3a 	bleq	ec346c <__RAM_SIZE+0xdc346c>
 780:	13490b39 	movtne	r0, #39737	; 0x9b39
 784:	42b70602 	adcsmi	r0, r7, #2097152	; 0x200000
 788:	00000006 	andeq	r0, r0, r6
 78c:	25011101 	strcs	r1, [r1, #-257]	; 0xfffffeff
 790:	030b130e 	movweq	r1, #45838	; 0xb30e
 794:	550e1b0e 	strpl	r1, [lr, #-2830]	; 0xfffff4f2
 798:	52011106 	andpl	r1, r1, #-2147483647	; 0x80000001
 79c:	00061001 	andeq	r1, r6, r1
 7a0:	00240200 	eoreq	r0, r4, r0, lsl #4
 7a4:	0b3e0b0b 	bleq	f833d8 <__RAM_SIZE+0xe833d8>
 7a8:	00000e03 	andeq	r0, r0, r3, lsl #28
 7ac:	03001603 	movweq	r1, #1539	; 0x603
 7b0:	3b0b3a0e 	blcc	2ceff0 <__RAM_SIZE+0x1ceff0>
 7b4:	490b390b 	stmdbmi	fp, {r0, r1, r3, r8, fp, ip, sp}
 7b8:	04000013 	streq	r0, [r0], #-19	; 0xffffffed
 7bc:	0b0b0024 	bleq	2c0854 <__RAM_SIZE+0x1c0854>
 7c0:	08030b3e 	stmdaeq	r3, {r1, r2, r3, r4, r5, r8, r9, fp}
 7c4:	35050000 	strcc	r0, [r5, #-0]
 7c8:	00134900 	andseq	r4, r3, r0, lsl #18
 7cc:	01130600 	tsteq	r3, r0, lsl #12
 7d0:	0b0b0e03 	bleq	2c3fe4 <__RAM_SIZE+0x1c3fe4>
 7d4:	0b3b0b3a 	bleq	ec34c4 <__RAM_SIZE+0xdc34c4>
 7d8:	13010b39 	movwne	r0, #6969	; 0x1b39
 7dc:	0d070000 	stceq	0, cr0, [r7, #-0]
 7e0:	3a080300 	bcc	2013e8 <__RAM_SIZE+0x1013e8>
 7e4:	390b3b0b 	stmdbcc	fp, {r0, r1, r3, r8, r9, fp, ip, sp}
 7e8:	3813490b 	ldmdacc	r3, {r0, r1, r3, r8, fp, lr}
 7ec:	0800000a 	stmdaeq	r0, {r1, r3}
 7f0:	0e03000d 	cdpeq	0, 0, cr0, cr3, cr13, {0}
 7f4:	0b3b0b3a 	bleq	ec34e4 <__RAM_SIZE+0xdc34e4>
 7f8:	13490b39 	movtne	r0, #39737	; 0x9b39
 7fc:	00000a38 	andeq	r0, r0, r8, lsr sl
 800:	03003409 	movweq	r3, #1033	; 0x409
 804:	3b0b3a0e 	blcc	2cf044 <__RAM_SIZE+0x1cf044>
 808:	490b390b 	stmdbmi	fp, {r0, r1, r3, r8, fp, ip, sp}
 80c:	3c0c3f13 	stccc	15, cr3, [ip], {19}
 810:	0a00000c 	beq	848 <__Vectors_Size+0x88>
 814:	0e030034 	mcreq	0, 0, r0, cr3, cr4, {1}
 818:	0b3b0b3a 	bleq	ec3508 <__RAM_SIZE+0xdc3508>
 81c:	13490b39 	movtne	r0, #39737	; 0x9b39
 820:	0a020c3f 	beq	83924 <__HEAP_SIZE+0x82924>
 824:	2e0b0000 	cdpcs	0, 0, cr0, cr11, cr0, {0}
 828:	030c3f00 	movweq	r3, #52992	; 0xcf00
 82c:	3b0b3a0e 	blcc	2cf06c <__RAM_SIZE+0x1cf06c>
 830:	270b390b 	strcs	r3, [fp, -fp, lsl #18]
 834:	1113490c 	tstne	r3, ip, lsl #18
 838:	40011201 	andmi	r1, r1, r1, lsl #4
 83c:	0c42970a 	mcrreq	7, 0, r9, r2, cr10
 840:	2e0c0000 	cdpcs	0, 0, cr0, cr12, cr0, {0}
 844:	030c3f01 	movweq	r3, #52993	; 0xcf01
 848:	3b0b3a0e 	blcc	2cf088 <__RAM_SIZE+0x1cf088>
 84c:	270b390b 	strcs	r3, [fp, -fp, lsl #18]
 850:	1113490c 	tstne	r3, ip, lsl #18
 854:	40011201 	andmi	r1, r1, r1, lsl #4
 858:	0c42970a 	mcrreq	7, 0, r9, r2, cr10
 85c:	00001301 	andeq	r1, r0, r1, lsl #6
 860:	31011d0d 	tstcc	r1, sp, lsl #26
 864:	b8015213 	stmdalt	r1, {r0, r1, r4, r9, ip, lr}
 868:	01110b42 	tsteq	r1, r2, asr #22
 86c:	0b580112 	bleq	1600cbc <__RAM_SIZE+0x1500cbc>
 870:	0b570b59 	bleq	15c35dc <__RAM_SIZE+0x14c35dc>
 874:	340e0000 	strcc	r0, [lr], #-0
 878:	02133100 	andseq	r3, r3, #0, 2
 87c:	0642b706 	strbeq	fp, [r2], -r6, lsl #14
 880:	2e0f0000 	cdpcs	0, 0, cr0, cr15, cr0, {0}
 884:	030c3f01 	movweq	r3, #52993	; 0xcf01
 888:	3b0b3a0e 	blcc	2cf0c8 <__RAM_SIZE+0x1cf0c8>
 88c:	270b390b 	strcs	r3, [fp, -fp, lsl #18]
 890:	1113490c 	tstne	r3, ip, lsl #18
 894:	40011201 	andmi	r1, r1, r1, lsl #4
 898:	0c429706 	mcrreq	7, 0, r9, r2, cr6
 89c:	00001301 	andeq	r1, r0, r1, lsl #6
 8a0:	03000510 	movweq	r0, #1296	; 0x510
 8a4:	3b0b3a0e 	blcc	2cf0e4 <__RAM_SIZE+0x1cf0e4>
 8a8:	490b390b 	stmdbmi	fp, {r0, r1, r3, r8, fp, ip, sp}
 8ac:	b7060213 	smladlt	r6, r3, r2, r0
 8b0:	00000642 	andeq	r0, r0, r2, asr #12
 8b4:	03003411 	movweq	r3, #1041	; 0x411
 8b8:	3b0b3a0e 	blcc	2cf0f8 <__RAM_SIZE+0x1cf0f8>
 8bc:	490b390b 	stmdbmi	fp, {r0, r1, r3, r8, fp, ip, sp}
 8c0:	b7060213 	smladlt	r6, r3, r2, r0
 8c4:	00000642 	andeq	r0, r0, r2, asr #12
 8c8:	03003412 	movweq	r3, #1042	; 0x412
 8cc:	3b0b3a08 	blcc	2cf0f4 <__RAM_SIZE+0x1cf0f4>
 8d0:	490b390b 	stmdbmi	fp, {r0, r1, r3, r8, fp, ip, sp}
 8d4:	b7060213 	smladlt	r6, r3, r2, r0
 8d8:	00000642 	andeq	r0, r0, r2, asr #12
 8dc:	01828913 	orreq	r8, r2, r3, lsl r9
 8e0:	31011101 	tstcc	r1, r1, lsl #2
 8e4:	00130113 	andseq	r0, r3, r3, lsl r1
 8e8:	828a1400 	addhi	r1, sl, #0, 8
 8ec:	0a020001 	beq	808f8 <__HEAP_SIZE+0x7f8f8>
 8f0:	000a4291 	muleq	sl, r1, r2
 8f4:	82891500 	addhi	r1, r9, #0, 10
 8f8:	01110001 	tsteq	r1, r1
 8fc:	00001331 	andeq	r1, r0, r1, lsr r3
 900:	0b000f16 	bleq	4560 <__HEAP_SIZE+0x3560>
 904:	0013490b 	andseq	r4, r3, fp, lsl #18
 908:	012e1700 			; <UNDEFINED> instruction: 0x012e1700
 90c:	0e030c3f 	mcreq	12, 0, r0, cr3, cr15, {1}
 910:	0b3b0b3a 	bleq	ec3600 <__RAM_SIZE+0xdc3600>
 914:	0c270b39 			; <UNDEFINED> instruction: 0x0c270b39
 918:	01120111 	tsteq	r2, r1, lsl r1
 91c:	42970640 	addsmi	r0, r7, #64, 12	; 0x4000000
 920:	0013010c 	andseq	r0, r3, ip, lsl #2
 924:	00341800 	eorseq	r1, r4, r0, lsl #16
 928:	0b3a0e03 	bleq	e8413c <__RAM_SIZE+0xd8413c>
 92c:	0b390b3b 	bleq	e43620 <__RAM_SIZE+0xd43620>
 930:	0a021349 	beq	8565c <__HEAP_SIZE+0x8465c>
 934:	89190000 	ldmdbhi	r9, {}	; <UNPREDICTABLE>
 938:	11010182 	smlabbne	r1, r2, r1, r0
 93c:	00133101 	andseq	r3, r3, r1, lsl #2
 940:	01011a00 	tsteq	r1, r0, lsl #20
 944:	13011349 	movwne	r1, #4937	; 0x1349
 948:	211b0000 	tstcs	fp, r0
 94c:	2f134900 	svccs	0x00134900
 950:	1c00000b 	stcne	0, cr0, [r0], {11}
 954:	0e03012e 	adfeqsp	f0, f3, #0.5
 958:	0b3b0b3a 	bleq	ec3648 <__RAM_SIZE+0xdc3648>
 95c:	0c270b39 			; <UNDEFINED> instruction: 0x0c270b39
 960:	01111349 	tsteq	r1, r9, asr #6
 964:	0a400112 	beq	1000db4 <__RAM_SIZE+0xf00db4>
 968:	010c4297 			; <UNDEFINED> instruction: 0x010c4297
 96c:	1d000013 	stcne	0, cr0, [r0, #-76]	; 0xffffffb4
 970:	08030005 	stmdaeq	r3, {r0, r2}
 974:	0b3b0b3a 	bleq	ec3664 <__RAM_SIZE+0xdc3664>
 978:	13490b39 	movtne	r0, #39737	; 0x9b39
 97c:	42b70602 	adcsmi	r0, r7, #2097152	; 0x200000
 980:	1e000006 	cdpne	0, 0, cr0, cr0, cr6, {0}
 984:	0e03012e 	adfeqsp	f0, f3, #0.5
 988:	0b3b0b3a 	bleq	ec3678 <__RAM_SIZE+0xdc3678>
 98c:	0c270b39 			; <UNDEFINED> instruction: 0x0c270b39
 990:	01111349 	tsteq	r1, r9, asr #6
 994:	06400112 			; <UNDEFINED> instruction: 0x06400112
 998:	010c4297 			; <UNDEFINED> instruction: 0x010c4297
 99c:	1f000013 	svcne	0x00000013
 9a0:	0111010b 	tsteq	r1, fp, lsl #2
 9a4:	00000112 	andeq	r0, r0, r2, lsl r1
 9a8:	03012e20 	movweq	r2, #7712	; 0x1e20
 9ac:	3b0b3a0e 	blcc	2cf1ec <__RAM_SIZE+0x1cf1ec>
 9b0:	270b3905 	strcs	r3, [fp, -r5, lsl #18]
 9b4:	2013490c 	andscs	r4, r3, ip, lsl #18
 9b8:	0013010b 	andseq	r0, r3, fp, lsl #2
 9bc:	00342100 	eorseq	r2, r4, r0, lsl #2
 9c0:	0b3a0e03 	bleq	e841d4 <__RAM_SIZE+0xd841d4>
 9c4:	0b39053b 	bleq	e41eb8 <__RAM_SIZE+0xd41eb8>
 9c8:	00001349 	andeq	r1, r0, r9, asr #6
 9cc:	3f002e22 	svccc	0x00002e22
 9d0:	870c3c0c 	strhi	r3, [ip, -ip, lsl #24]
 9d4:	0e030e40 	cdpeq	14, 0, cr0, cr3, cr0, {2}
 9d8:	0b3b0b3a 	bleq	ec36c8 <__RAM_SIZE+0xdc36c8>
 9dc:	2e230000 	cdpcs	0, 2, cr0, cr3, cr0, {0}
 9e0:	3c0c3f00 	stccc	15, cr3, [ip], {-0}
 9e4:	0e40870c 	cdpeq	7, 4, cr8, cr0, cr12, {0}
 9e8:	0b3a0e03 	bleq	e841fc <__RAM_SIZE+0xd841fc>
 9ec:	0b390b3b 	bleq	e436e0 <__RAM_SIZE+0xd436e0>
 9f0:	01000000 	mrseq	r0, (UNDEF: 0)
 9f4:	06100011 			; <UNDEFINED> instruction: 0x06100011
 9f8:	01120111 	tsteq	r2, r1, lsl r1
 9fc:	0e1b0e03 	cdpeq	14, 1, cr0, cr11, cr3, {0}
 a00:	05130e25 	ldreq	r0, [r3, #-3621]	; 0xfffff1db
 a04:	01000000 	mrseq	r0, (UNDEF: 0)
 a08:	06100011 			; <UNDEFINED> instruction: 0x06100011
 a0c:	01120111 	tsteq	r2, r1, lsl r1
 a10:	0e1b0e03 	cdpeq	14, 1, cr0, cr11, cr3, {0}
 a14:	05130e25 	ldreq	r0, [r3, #-3621]	; 0xfffff1db
 a18:	Address 0x00000a18 is out of bounds.


Disassembly of section .debug_loc:

00000000 <.debug_loc>:
       0:	1000094c 	andne	r0, r0, ip, asr #18
       4:	1000094e 	andne	r0, r0, lr, asr #18
       8:	007d0002 	rsbseq	r0, sp, r2
       c:	1000094e 	andne	r0, r0, lr, asr #18
      10:	10000978 	andne	r0, r0, r8, ror r9
      14:	087d0002 	ldmdaeq	sp!, {r1}^
	...
      20:	00000001 	andeq	r0, r0, r1
      24:	094e0000 	stmdbeq	lr, {}^	; <UNPREDICTABLE>
      28:	09621000 	stmdbeq	r2!, {ip}^
      2c:	00021000 	andeq	r1, r2, r0
      30:	09629f30 	stmdbeq	r2!, {r4, r5, r8, r9, sl, fp, ip, pc}^
      34:	09661000 	stmdbeq	r6!, {ip}^
      38:	00011000 	andeq	r1, r1, r0
      3c:	00096651 	andeq	r6, r9, r1, asr r6
      40:	00097810 	andeq	r7, r9, r0, lsl r8
      44:	54000110 	strpl	r0, [r0], #-272	; 0xfffffef0
	...
      50:	10000934 	andne	r0, r0, r4, lsr r9
      54:	10000936 	andne	r0, r0, r6, lsr r9
      58:	007d0002 	rsbseq	r0, sp, r2
      5c:	10000936 	andne	r0, r0, r6, lsr r9
      60:	1000094c 	andne	r0, r0, ip, asr #18
      64:	087d0002 	ldmdaeq	sp!, {r1}^
	...
      70:	1000091c 	andne	r0, r0, ip, lsl r9
      74:	1000091e 	andne	r0, r0, lr, lsl r9
      78:	007d0002 	rsbseq	r0, sp, r2
      7c:	1000091e 	andne	r0, r0, lr, lsl r9
      80:	10000934 	andne	r0, r0, r4, lsr r9
      84:	087d0002 	ldmdaeq	sp!, {r1}^
	...
      90:	10000904 	andne	r0, r0, r4, lsl #18
      94:	10000906 	andne	r0, r0, r6, lsl #18
      98:	007d0002 	rsbseq	r0, sp, r2
      9c:	10000906 	andne	r0, r0, r6, lsl #18
      a0:	1000091c 	andne	r0, r0, ip, lsl r9
      a4:	087d0002 	ldmdaeq	sp!, {r1}^
	...
      b0:	100008ec 	andne	r0, r0, ip, ror #17
      b4:	100008ee 	andne	r0, r0, lr, ror #17
      b8:	007d0002 	rsbseq	r0, sp, r2
      bc:	100008ee 	andne	r0, r0, lr, ror #17
      c0:	10000904 	andne	r0, r0, r4, lsl #18
      c4:	087d0002 	ldmdaeq	sp!, {r1}^
	...
      d0:	100008d4 	ldrdne	r0, [r0], -r4
      d4:	100008d6 	ldrdne	r0, [r0], -r6
      d8:	007d0002 	rsbseq	r0, sp, r2
      dc:	100008d6 	ldrdne	r0, [r0], -r6
      e0:	100008ec 	andne	r0, r0, ip, ror #17
      e4:	087d0002 	ldmdaeq	sp!, {r1}^
	...
      f0:	100008b8 			; <UNDEFINED> instruction: 0x100008b8
      f4:	100008ba 			; <UNDEFINED> instruction: 0x100008ba
      f8:	007d0002 	rsbseq	r0, sp, r2
      fc:	100008ba 			; <UNDEFINED> instruction: 0x100008ba
     100:	100008d4 	ldrdne	r0, [r0], -r4
     104:	087d0002 	ldmdaeq	sp!, {r1}^
	...
     110:	10000850 	andne	r0, r0, r0, asr r8
     114:	10000852 	andne	r0, r0, r2, asr r8
     118:	007d0002 	rsbseq	r0, sp, r2
     11c:	10000852 	andne	r0, r0, r2, asr r8
     120:	10000854 	andne	r0, r0, r4, asr r8
     124:	0c7d0002 	ldcleq	0, cr0, [sp], #-8
     128:	10000854 	andne	r0, r0, r4, asr r8
     12c:	100008a6 	andne	r0, r0, r6, lsr #17
     130:	907d0003 	rsbsls	r0, sp, r3
     134:	0008a602 	andeq	sl, r8, r2, lsl #12
     138:	0008b810 	andeq	fp, r8, r0, lsl r8
     13c:	7d000210 	sfmvc	f0, 4, [r0, #-64]	; 0xffffffc0
     140:	0000000c 	andeq	r0, r0, ip
	...
     14c:	66000000 	strvs	r0, [r0], -r0
     150:	69100008 	ldmdbvs	r0, {r3}
     154:	01100008 	tsteq	r0, r8
     158:	08695000 	stmdaeq	r9!, {ip, lr}^
     15c:	08821000 	stmeq	r2, {ip}
     160:	00011000 	andeq	r1, r1, r0
     164:	00088454 	andeq	r8, r8, r4, asr r4
     168:	00088e10 	andeq	r8, r8, r0, lsl lr
     16c:	54000110 	strpl	r0, [r0], #-272	; 0xfffffef0
	...
     17c:	1000086c 	andne	r0, r0, ip, ror #16
     180:	10000872 	andne	r0, r0, r2, ror r8
     184:	72500001 	subsvc	r0, r0, #1
     188:	75100008 	ldrvc	r0, [r0, #-8]
     18c:	01100008 	tsteq	r0, r8
     190:	00005300 	andeq	r5, r0, r0, lsl #6
	...
     1a0:	08760000 	ldmdaeq	r6!, {}^	; <UNPREDICTABLE>
     1a4:	087c1000 	ldmdaeq	ip!, {ip}^
     1a8:	00011000 	andeq	r1, r1, r0
     1ac:	00087c50 	andeq	r7, r8, r0, asr ip
     1b0:	00088410 	andeq	r8, r8, r0, lsl r4
     1b4:	55000110 	strpl	r0, [r0, #-272]	; 0xfffffef0
     1b8:	10000884 	andne	r0, r0, r4, lsl #17
     1bc:	10000888 	andne	r0, r0, r8, lsl #17
     1c0:	88500001 	ldmdahi	r0, {r0}^
     1c4:	a8100008 	ldmdage	r0, {r3}
     1c8:	01100008 	tsteq	r0, r8
     1cc:	00005500 	andeq	r5, r0, r0, lsl #10
     1d0:	00000000 	andeq	r0, r0, r0
     1d4:	00020000 	andeq	r0, r2, r0
     1d8:	08800000 	stmeq	r0, {}	; <UNPREDICTABLE>
     1dc:	08841000 	stmeq	r4, {ip}
     1e0:	00021000 	andeq	r1, r2, r0
     1e4:	088e9f30 	stmeq	lr, {r4, r5, r8, r9, sl, fp, ip, pc}
     1e8:	08a41000 	stmiaeq	r4!, {ip}
     1ec:	00011000 	andeq	r1, r1, r0
     1f0:	00000054 	andeq	r0, r0, r4, asr r0
     1f4:	00000000 	andeq	r0, r0, r0
     1f8:	00080400 	andeq	r0, r8, r0, lsl #8
     1fc:	00080610 	andeq	r0, r8, r0, lsl r6
     200:	7d000210 	sfmvc	f0, 4, [r0, #-64]	; 0xffffffc0
     204:	00080600 	andeq	r0, r8, r0, lsl #12
     208:	00080810 	andeq	r0, r8, r0, lsl r8
     20c:	7d000210 	sfmvc	f0, 4, [r0, #-64]	; 0xffffffc0
     210:	0008080c 	andeq	r0, r8, ip, lsl #16
     214:	00084610 	andeq	r4, r8, r0, lsl r6
     218:	7d000210 	sfmvc	f0, 4, [r0, #-64]	; 0xffffffc0
     21c:	00084618 	andeq	r4, r8, r8, lsl r6
     220:	00085010 	andeq	r5, r8, r0, lsl r0
     224:	7d000210 	sfmvc	f0, 4, [r0, #-64]	; 0xffffffc0
     228:	0000000c 	andeq	r0, r0, ip
     22c:	00000000 	andeq	r0, r0, r0
     230:	01010100 	mrseq	r0, (UNDEF: 17)
     234:	08000101 	stmdaeq	r0, {r0, r8}
     238:	26100008 	ldrcs	r0, [r0], -r8
     23c:	02100008 	andseq	r0, r0, #8
     240:	269f3000 	ldrcs	r3, [pc], r0
     244:	34100008 	ldrcc	r0, [r0], #-8
     248:	02100008 	andseq	r0, r0, #8
     24c:	349f3400 	ldrcc	r3, [pc], #1024	; 254 <__STACKSEAL_SIZE+0x254>
     250:	50100008 	andspl	r0, r0, r8
     254:	02100008 	andseq	r0, r0, #8
     258:	009f3300 	addseq	r3, pc, r0, lsl #6
	...
     268:	02000000 	andeq	r0, r0, #0
     26c:	00007d00 	andeq	r7, r0, r0, lsl #26
     270:	00000000 	andeq	r0, r0, r0
     274:	02000000 	andeq	r0, r0, #0
     278:	00087d00 	andeq	r7, r8, r0, lsl #26
	...
     288:	02000000 	andeq	r0, r0, #0
     28c:	00007d00 	andeq	r7, r0, r0, lsl #26
     290:	00000000 	andeq	r0, r0, r0
     294:	02000000 	andeq	r0, r0, #0
     298:	00087d00 	andeq	r7, r8, r0, lsl #26
	...
     2a8:	02000000 	andeq	r0, r0, #0
     2ac:	00007d00 	andeq	r7, r0, r0, lsl #26
     2b0:	00000000 	andeq	r0, r0, r0
     2b4:	02000000 	andeq	r0, r0, #0
     2b8:	00087d00 	andeq	r7, r8, r0, lsl #26
	...
     2c8:	02000000 	andeq	r0, r0, #0
     2cc:	00007d00 	andeq	r7, r0, r0, lsl #26
     2d0:	00000000 	andeq	r0, r0, r0
     2d4:	02000000 	andeq	r0, r0, #0
     2d8:	00087d00 	andeq	r7, r8, r0, lsl #26
     2dc:	00000000 	andeq	r0, r0, r0
     2e0:	02000000 	andeq	r0, r0, #0
     2e4:	000c7d00 	andeq	r7, ip, r0, lsl #26
     2e8:	00000000 	andeq	r0, r0, r0
     2ec:	02000000 	andeq	r0, r0, #0
     2f0:	00287d00 	eoreq	r7, r8, r0, lsl #26
     2f4:	00000000 	andeq	r0, r0, r0
     2f8:	02000000 	andeq	r0, r0, #0
     2fc:	000c7d00 	andeq	r7, ip, r0, lsl #26
     300:	00000000 	andeq	r0, r0, r0
     304:	02000000 	andeq	r0, r0, #0
     308:	00087d00 	andeq	r7, r8, r0, lsl #26
     30c:	00000000 	andeq	r0, r0, r0
     310:	02000000 	andeq	r0, r0, #0
     314:	00007d00 	andeq	r7, r0, r0, lsl #26
	...
     32c:	50000100 	andpl	r0, r0, r0, lsl #2
	...
     338:	54910002 	ldrpl	r0, [r1], #2
	...
     344:	01f30004 	mvnseq	r0, r4
     348:	00009f50 	andeq	r9, r0, r0, asr pc
	...
     35c:	00010000 	andeq	r0, r1, r0
     360:	00000051 	andeq	r0, r0, r1, asr r0
     364:	00000000 	andeq	r0, r0, r0
     368:	f3000400 	vshl.u8	d0, d0, d0
     36c:	009f5101 	addseq	r5, pc, r1, lsl #2
	...
     380:	50000100 	andpl	r0, r0, r0, lsl #2
	...
     394:	007d0002 	rsbseq	r0, sp, r2
	...
     3a0:	047d0002 	ldrbteq	r0, [sp], #-2
	...
     3ac:	107d0002 	rsbsne	r0, sp, r2
	...
     3b8:	047d0002 	ldrbteq	r0, [sp], #-2
	...
     3d0:	00010000 	andeq	r0, r1, r0
     3d4:	00000050 	andeq	r0, r0, r0, asr r0
     3d8:	00000000 	andeq	r0, r0, r0
     3dc:	51000100 	mrspl	r0, (UNDEF: 16)
	...
     3e8:	01f30004 	mvnseq	r0, r4
     3ec:	00009f50 	andeq	r9, r0, r0, asr pc
	...
     404:	00510001 	subseq	r0, r1, r1
     408:	00000000 	andeq	r0, r0, r0
     40c:	01000000 	mrseq	r0, (UNDEF: 0)
     410:	00005200 	andeq	r5, r0, r0, lsl #4
     414:	00000000 	andeq	r0, r0, r0
     418:	00040000 	andeq	r0, r4, r0
     41c:	9f5101f3 	svcls	0x005101f3
	...
     434:	00010000 	andeq	r0, r1, r0
     438:	00000052 	andeq	r0, r0, r2, asr r0
     43c:	00000000 	andeq	r0, r0, r0
     440:	53000100 	movwpl	r0, #256	; 0x100
	...
     44c:	01f30004 	mvnseq	r0, r4
     450:	00009f52 	andeq	r9, r0, r2, asr pc
	...
     464:	00530001 	subseq	r0, r3, r1
	...
     474:	02000000 	andeq	r0, r0, #0
     478:	00007d00 	andeq	r7, r0, r0, lsl #26
     47c:	00000000 	andeq	r0, r0, r0
     480:	02000000 	andeq	r0, r0, #0
     484:	00047d00 	andeq	r7, r4, r0, lsl #26
     488:	00000000 	andeq	r0, r0, r0
     48c:	02000000 	andeq	r0, r0, #0
     490:	00187d00 	andseq	r7, r8, r0, lsl #26
     494:	00000000 	andeq	r0, r0, r0
     498:	02000000 	andeq	r0, r0, #0
     49c:	00047d00 	andeq	r7, r4, r0, lsl #26
	...
     4b4:	50000100 	andpl	r0, r0, r0, lsl #2
	...
     4c0:	00530001 	subseq	r0, r3, r1
     4c4:	00000000 	andeq	r0, r0, r0
     4c8:	04000000 	streq	r0, [r0], #-0
     4cc:	5001f300 	andpl	pc, r1, r0, lsl #6
     4d0:	0000009f 	muleq	r0, pc, r0	; <UNPREDICTABLE>
	...
     4e0:	01000000 	mrseq	r0, (UNDEF: 0)
     4e4:	00005100 	andeq	r5, r0, r0, lsl #2
	...
     4f4:	00020000 	andeq	r0, r2, r0
     4f8:	0000007d 	andeq	r0, r0, sp, ror r0
     4fc:	00000000 	andeq	r0, r0, r0
     500:	00020000 	andeq	r0, r2, r0
     504:	0000087d 	andeq	r0, r0, sp, ror r8
     508:	00000000 	andeq	r0, r0, r0
     50c:	00020000 	andeq	r0, r2, r0
     510:	0000107d 	andeq	r1, r0, sp, ror r0
     514:	00000000 	andeq	r0, r0, r0
     518:	00020000 	andeq	r0, r2, r0
     51c:	0000207d 	andeq	r2, r0, sp, ror r0
     520:	00000000 	andeq	r0, r0, r0
     524:	00020000 	andeq	r0, r2, r0
     528:	0000107d 	andeq	r1, r0, sp, ror r0
     52c:	00000000 	andeq	r0, r0, r0
     530:	00020000 	andeq	r0, r2, r0
     534:	0000087d 	andeq	r0, r0, sp, ror r8
     538:	00000000 	andeq	r0, r0, r0
     53c:	00020000 	andeq	r0, r2, r0
     540:	0000007d 	andeq	r0, r0, sp, ror r0
	...
     558:	00500001 	subseq	r0, r0, r1
     55c:	00000000 	andeq	r0, r0, r0
     560:	01000000 	mrseq	r0, (UNDEF: 0)
     564:	00005100 	andeq	r5, r0, r0, lsl #2
     568:	00000000 	andeq	r0, r0, r0
     56c:	00040000 	andeq	r0, r4, r0
     570:	9f5001f3 	svcls	0x005001f3
	...
     588:	00010000 	andeq	r0, r1, r0
     58c:	00000051 	andeq	r0, r0, r1, asr r0
     590:	00000000 	andeq	r0, r0, r0
     594:	52000100 	andpl	r0, r0, #0, 2
	...
     5a0:	01f30004 	mvnseq	r0, r4
     5a4:	00009f51 	andeq	r9, r0, r1, asr pc
	...
     5b8:	00500001 	subseq	r0, r0, r1
	...
     5c8:	02000000 	andeq	r0, r0, #0
     5cc:	00007d00 	andeq	r7, r0, r0, lsl #26
     5d0:	00000000 	andeq	r0, r0, r0
     5d4:	02000000 	andeq	r0, r0, #0
     5d8:	000c7d00 	andeq	r7, ip, r0, lsl #26
     5dc:	00000000 	andeq	r0, r0, r0
     5e0:	02000000 	andeq	r0, r0, #0
     5e4:	00107d00 	andseq	r7, r0, r0, lsl #26
     5e8:	00000000 	andeq	r0, r0, r0
     5ec:	02000000 	andeq	r0, r0, #0
     5f0:	00207d00 	eoreq	r7, r0, r0, lsl #26
     5f4:	00000000 	andeq	r0, r0, r0
     5f8:	02000000 	andeq	r0, r0, #0
     5fc:	00107d00 	andseq	r7, r0, r0, lsl #26
     600:	00000000 	andeq	r0, r0, r0
     604:	02000000 	andeq	r0, r0, #0
     608:	000c7d00 	andeq	r7, ip, r0, lsl #26
     60c:	00000000 	andeq	r0, r0, r0
     610:	02000000 	andeq	r0, r0, #0
     614:	00007d00 	andeq	r7, r0, r0, lsl #26
	...
     62c:	50000100 	andpl	r0, r0, r0, lsl #2
	...
     638:	00510001 	subseq	r0, r1, r1
     63c:	00000000 	andeq	r0, r0, r0
     640:	04000000 	streq	r0, [r0], #-0
     644:	5001f300 	andpl	pc, r1, r0, lsl #6
     648:	0000009f 	muleq	r0, pc, r0	; <UNPREDICTABLE>
	...
     658:	01000000 	mrseq	r0, (UNDEF: 0)
     65c:	00005000 	andeq	r5, r0, r0
     660:	00000000 	andeq	r0, r0, r0
     664:	1af40000 	bne	ffd0066c <__StackTop+0xc7c0066c>
     668:	1af61000 	bne	ffd84670 <__StackTop+0xc7c84670>
     66c:	00021000 	andeq	r1, r2, r0
     670:	1af6007d 	bne	ffd8086c <__StackTop+0xc7c8086c>
     674:	1af81000 	bne	ffe0467c <__StackTop+0xc7d0467c>
     678:	00021000 	andeq	r1, r2, r0
     67c:	1af8107d 	bne	ffe04878 <__StackTop+0xc7d04878>
     680:	1afa1000 	bne	ffe84688 <__StackTop+0xc7d84688>
     684:	00021000 	andeq	r1, r2, r0
     688:	1afa147d 	bne	ffe85884 <__StackTop+0xc7d85884>
     68c:	1b121000 	blne	484694 <__RAM_SIZE+0x384694>
     690:	00021000 	andeq	r1, r2, r0
     694:	1b12287d 	blne	48a890 <__RAM_SIZE+0x38a890>
     698:	1b161000 	blne	5846a0 <__RAM_SIZE+0x4846a0>
     69c:	00021000 	andeq	r1, r2, r0
     6a0:	1b16147d 	blne	58589c <__RAM_SIZE+0x48589c>
     6a4:	1b181000 	blne	6046ac <__RAM_SIZE+0x5046ac>
     6a8:	00021000 	andeq	r1, r2, r0
     6ac:	1b18107d 	blne	6048a8 <__RAM_SIZE+0x5048a8>
     6b0:	1b201000 	blne	8046b8 <__RAM_SIZE+0x7046b8>
     6b4:	00021000 	andeq	r1, r2, r0
     6b8:	0000007d 	andeq	r0, r0, sp, ror r0
	...
     6c4:	10001b10 	andne	r1, r0, r0, lsl fp
     6c8:	10001b20 	andne	r1, r0, r0, lsr #22
     6cc:	00500001 	subseq	r0, r0, r1
     6d0:	00000000 	andeq	r0, r0, r0
     6d4:	68000000 	stmdavs	r0, {}	; <UNPREDICTABLE>
     6d8:	6c100014 	ldcvs	0, cr0, [r0], {20}
     6dc:	02100014 	andseq	r0, r0, #20
     6e0:	6c007d00 	stcvs	13, cr7, [r0], {-0}
     6e4:	6e100014 	mrcvs	0, 0, r0, cr0, cr4, {0}
     6e8:	02100014 	andseq	r0, r0, #20
     6ec:	6e247d00 	cdpvs	13, 2, cr7, cr4, cr0, {0}
     6f0:	de100014 	mrcle	0, 0, r0, cr0, cr4, {0}
     6f4:	0310001a 	tsteq	r0, #26
     6f8:	00e07d00 	rsceq	r7, r0, r0, lsl #26
     6fc:	10001ade 	ldrdne	r1, [r0], -lr
     700:	10001ae8 	andne	r1, r0, r8, ror #21
     704:	247d0002 	ldrbtcs	r0, [sp], #-2
	...
     718:	10001468 	andne	r1, r0, r8, ror #8
     71c:	1000147c 	andne	r1, r0, ip, ror r4
     720:	7e500001 	cdpvc	0, 5, cr0, cr0, cr1, {0}
     724:	c4100014 	ldrgt	r0, [r0], #-20	; 0xffffffec
     728:	0110001a 	tsteq	r0, sl, lsl r0
     72c:	1ac45700 	bne	ff116334 <__StackTop+0xc7016334>
     730:	1ac81000 	bne	ff204738 <__StackTop+0xc7104738>
     734:	00011000 	andeq	r1, r1, r0
     738:	001ac850 	andseq	ip, sl, r0, asr r8
     73c:	001ae210 	andseq	lr, sl, r0, lsl r2
     740:	57000110 	smladpl	r0, r0, r1, r0
	...
     754:	14680000 	strbtne	r0, [r8], #-0
     758:	147e1000 	ldrbtne	r1, [lr], #-0
     75c:	00011000 	andeq	r1, r1, r0
     760:	00147e51 	andseq	r7, r4, r1, asr lr
     764:	001ac410 	andseq	ip, sl, r0, lsl r4
     768:	58000110 	stmdapl	r0, {r4, r8}
     76c:	10001ac4 	andne	r1, r0, r4, asr #21
     770:	10001ac8 	andne	r1, r0, r8, asr #21
     774:	c8510001 	ldmdagt	r1, {r0}^
     778:	e210001a 	ands	r0, r0, #26
     77c:	0110001a 	tsteq	r0, sl, lsl r0
     780:	1ae25800 	bne	ff896788 <__StackTop+0xc7796788>
     784:	1ae81000 	bne	ffa0478c <__StackTop+0xc790478c>
     788:	00041000 	andeq	r1, r4, r0
     78c:	9f5101f3 	svcls	0x005101f3
	...
     7a8:	14680000 	strbtne	r0, [r8], #-0
     7ac:	147e1000 	ldrbtne	r1, [lr], #-0
     7b0:	00011000 	andeq	r1, r1, r0
     7b4:	00147e52 	andseq	r7, r4, r2, asr lr
     7b8:	0019e610 	andseq	lr, r9, r0, lsl r6
     7bc:	56000110 			; <UNDEFINED> instruction: 0x56000110
     7c0:	100019e6 	andne	r1, r0, r6, ror #19
     7c4:	100019e8 	andne	r1, r0, r8, ror #19
     7c8:	e85b0001 	ldmda	fp, {r0}^
     7cc:	12100019 	andsne	r0, r0, #25
     7d0:	0110001a 	tsteq	r0, sl, lsl r0
     7d4:	1a125600 	bne	495fdc <__RAM_SIZE+0x395fdc>
     7d8:	1a3c1000 	bne	f047e0 <__RAM_SIZE+0xe047e0>
     7dc:	00011000 	andeq	r1, r1, r0
     7e0:	001a3c5b 	andseq	r3, sl, fp, asr ip
     7e4:	001ac410 	andseq	ip, sl, r0, lsl r4
     7e8:	56000110 			; <UNDEFINED> instruction: 0x56000110
     7ec:	10001ac4 	andne	r1, r0, r4, asr #21
     7f0:	10001ac8 	andne	r1, r0, r8, asr #21
     7f4:	c8520001 	ldmdagt	r2, {r0}^
     7f8:	e210001a 	ands	r0, r0, #26
     7fc:	0110001a 	tsteq	r0, sl, lsl r0
     800:	1ae25600 	bne	ff896008 <__StackTop+0xc7796008>
     804:	1ae81000 	bne	ffa0480c <__StackTop+0xc790480c>
     808:	00041000 	andeq	r1, r4, r0
     80c:	9f5201f3 	svcls	0x005201f3
	...
     81c:	10001468 	andne	r1, r0, r8, ror #8
     820:	1000147e 	andne	r1, r0, lr, ror r4
     824:	c4530001 	ldrbgt	r0, [r3], #-1
     828:	c810001a 	ldmdagt	r0, {r1, r3, r4}
     82c:	0110001a 	tsteq	r0, sl, lsl r0
     830:	00005300 	andeq	r5, r0, r0, lsl #6
     834:	00000000 	andeq	r0, r0, r0
     838:	00010000 	andeq	r0, r1, r0
	...
     850:	14a40000 	strtne	r0, [r4], #0
     854:	14a61000 	strtne	r1, [r6], #0
     858:	00021000 	andeq	r1, r2, r0
     85c:	14a69f30 	strtne	r9, [r6], #3888	; 0xf30
     860:	15a41000 	strne	r1, [r4, #0]!
     864:	00011000 	andeq	r1, r1, r0
     868:	0015a455 	andseq	sl, r5, r5, asr r4
     86c:	0015b610 	andseq	fp, r5, r0, lsl r6
     870:	51000110 	tstpl	r0, r0, lsl r1
     874:	100015b6 			; <UNDEFINED> instruction: 0x100015b6
     878:	100015c0 	andne	r1, r0, r0, asr #11
     87c:	c0550001 	subsgt	r0, r5, r1
     880:	d2100015 	andsle	r0, r0, #21
     884:	01100015 	tsteq	r0, r5, lsl r0
     888:	15d25100 	ldrbne	r5, [r2, #256]	; 0x100
     88c:	17801000 	strne	r1, [r0, r0]
     890:	00011000 	andeq	r1, r1, r0
     894:	00178855 	andseq	r8, r7, r5, asr r8
     898:	0017a410 	andseq	sl, r7, r0, lsl r4
     89c:	55000110 	strpl	r0, [r0, #-272]	; 0xfffffef0
     8a0:	100017a4 	andne	r1, r0, r4, lsr #15
     8a4:	100017c3 	andne	r1, r0, r3, asr #15
     8a8:	40910002 	addsmi	r0, r1, r2
     8ac:	100017c8 	andne	r1, r0, r8, asr #15
     8b0:	1000192c 	andne	r1, r0, ip, lsr #18
     8b4:	9a550001 	bls	15408c0 <__RAM_SIZE+0x14408c0>
     8b8:	f4100019 			; <UNDEFINED> instruction: 0xf4100019
     8bc:	01100019 	tsteq	r0, r9, lsl r0
     8c0:	1a645500 	bne	1915cc8 <__RAM_SIZE+0x1815cc8>
     8c4:	1a9c1000 	bne	fe7048cc <__StackTop+0xc66048cc>
     8c8:	00011000 	andeq	r1, r1, r0
     8cc:	001ab055 	andseq	fp, sl, r5, asr r0
     8d0:	001ab210 	andseq	fp, sl, r0, lsl r2
     8d4:	55000110 	strpl	r0, [r0, #-272]	; 0xfffffef0
	...
     8e0:	00000002 	andeq	r0, r0, r2
	...
     8f0:	00020200 	andeq	r0, r2, r0, lsl #4
     8f4:	14c80000 	strbne	r0, [r8], #0
     8f8:	14da1000 	ldrbne	r1, [sl], #0
     8fc:	00021000 	andeq	r1, r2, r0
     900:	14da9f30 	ldrbne	r9, [sl], #3888	; 0xf30
     904:	15071000 	strne	r1, [r7, #-0]
     908:	00021000 	andeq	r1, r2, r0
     90c:	153a4891 	ldrne	r4, [sl, #-2193]!	; 0xfffff76f
     910:	15421000 	strbne	r1, [r2, #-0]
     914:	00021000 	andeq	r1, r2, r0
     918:	15429f30 	strbne	r9, [r2, #-3888]	; 0xfffff0d0
     91c:	15441000 	strbne	r1, [r4, #-0]
     920:	00011000 	andeq	r1, r1, r0
     924:	00154450 	andseq	r4, r5, r0, asr r4
     928:	00155210 	andseq	r5, r5, r0, lsl r2
     92c:	30000210 	andcc	r0, r0, r0, lsl r2
     930:	0015529f 	mulseq	r5, pc, r2	; <UNPREDICTABLE>
     934:	00155a10 	andseq	r5, r5, r0, lsl sl
     938:	91000210 	tstls	r0, r0, lsl r2
     93c:	00155a48 	andseq	r5, r5, r8, asr #20
     940:	00156210 	andseq	r6, r5, r0, lsl r2
     944:	30000210 	andcc	r0, r0, r0, lsl r2
     948:	0015629f 	mulseq	r5, pc, r2	; <UNPREDICTABLE>
     94c:	00156410 	andseq	r6, r5, r0, lsl r4
     950:	53000110 	movwpl	r0, #272	; 0x110
     954:	10001564 	andne	r1, r0, r4, ror #10
     958:	10001a64 	andne	r1, r0, r4, ror #20
     95c:	48910002 	ldmmi	r1, {r1}
     960:	10001a64 	andne	r1, r0, r4, ror #20
     964:	10001a9a 	mulne	r0, sl, sl
     968:	9f380002 	svcls	0x00380002
     96c:	10001a9a 	mulne	r0, sl, sl
     970:	10001ac4 	andne	r1, r0, r4, asr #21
     974:	48910002 	ldmmi	r1, {r1}
	...
     980:	00000001 	andeq	r0, r0, r1
	...
     99c:	14da0000 	ldrbne	r0, [sl], #0
     9a0:	14e61000 	strbtne	r1, [r6], #0
     9a4:	00021000 	andeq	r1, r2, r0
     9a8:	14e69f30 	strbtne	r9, [r6], #3888	; 0xf30
     9ac:	15071000 	strne	r1, [r7, #-0]
     9b0:	00011000 	andeq	r1, r1, r0
     9b4:	0015645b 	andseq	r6, r5, fp, asr r4
     9b8:	00158a10 	andseq	r8, r5, r0, lsl sl
     9bc:	30000210 	andcc	r0, r0, r0, lsl r2
     9c0:	00158a9f 	mulseq	r5, pc, sl	; <UNPREDICTABLE>
     9c4:	00158c10 	andseq	r8, r5, r0, lsl ip
     9c8:	50000110 	andpl	r0, r0, r0, lsl r1
     9cc:	1000158c 	andne	r1, r0, ip, lsl #11
     9d0:	10001598 	mulne	r0, r8, r5
     9d4:	9f300002 	svcls	0x00300002
     9d8:	10001598 	mulne	r0, r8, r5
     9dc:	10001932 	andne	r1, r0, r2, lsr r9
     9e0:	6e5b0001 	cdpvs	0, 5, cr0, cr11, cr1, {0}
     9e4:	74100019 	ldrvc	r0, [r0], #-25	; 0xffffffe7
     9e8:	01100019 	tsteq	r0, r9, lsl r0
     9ec:	199a5b00 	ldmibne	sl, {r8, r9, fp, ip, lr}
     9f0:	19e41000 	stmibne	r4!, {ip}^
     9f4:	00011000 	andeq	r1, r1, r0
     9f8:	0019e45b 	andseq	lr, r9, fp, asr r4
     9fc:	0019e810 	andseq	lr, r9, r0, lsl r8
     a00:	54000110 	strpl	r0, [r0], #-272	; 0xfffffef0
     a04:	100019e8 	andne	r1, r0, r8, ror #19
     a08:	10001a10 	andne	r1, r0, r0, lsl sl
     a0c:	105b0001 	subsne	r0, fp, r1
     a10:	1410001a 	ldrne	r0, [r0], #-26	; 0xffffffe6
     a14:	0110001a 	tsteq	r0, sl, lsl r0
     a18:	1a145400 	bne	515a20 <__RAM_SIZE+0x415a20>
     a1c:	1a161000 	bne	584a24 <__RAM_SIZE+0x484a24>
     a20:	00011000 	andeq	r1, r1, r0
     a24:	001a1653 	andseq	r1, sl, r3, asr r6
     a28:	001a3010 	andseq	r3, sl, r0, lsl r0
     a2c:	54000110 	strpl	r0, [r0], #-272	; 0xfffffef0
     a30:	10001a30 	andne	r1, r0, r0, lsr sl
     a34:	10001a34 	andne	r1, r0, r4, lsr sl
     a38:	64530001 	ldrbvs	r0, [r3], #-1
     a3c:	c410001a 	ldrgt	r0, [r0], #-26	; 0xffffffe6
     a40:	0110001a 	tsteq	r0, sl, lsl r0
     a44:	00005b00 	andeq	r5, r0, r0, lsl #22
	...
     a50:	00010001 	andeq	r0, r1, r1
     a54:	00010001 	andeq	r0, r1, r1
     a58:	00000001 	andeq	r0, r0, r1
     a5c:	100014c8 	andne	r1, r0, r8, asr #9
     a60:	10001507 	andne	r1, r0, r7, lsl #10
     a64:	9f300002 	svcls	0x00300002
     a68:	10001510 	andne	r1, r0, r0, lsl r5
     a6c:	10001512 	andne	r1, r0, r2, lsl r5
     a70:	9f310002 	svcls	0x00310002
     a74:	1000151a 	andne	r1, r0, sl, lsl r5
     a78:	1000151c 	andne	r1, r0, ip, lsl r5
     a7c:	9f310002 	svcls	0x00310002
     a80:	10001524 	andne	r1, r0, r4, lsr #10
     a84:	10001526 	andne	r1, r0, r6, lsr #10
     a88:	9f310002 	svcls	0x00310002
     a8c:	1000152e 	andne	r1, r0, lr, lsr #10
     a90:	10001530 	andne	r1, r0, r0, lsr r5
     a94:	9f310002 	svcls	0x00310002
     a98:	10001538 	andne	r1, r0, r8, lsr r5
     a9c:	1000153a 	andne	r1, r0, sl, lsr r5
     aa0:	9f310002 	svcls	0x00310002
     aa4:	1000153a 	andne	r1, r0, sl, lsr r5
     aa8:	10001ac4 	andne	r1, r0, r4, asr #21
     aac:	9f300002 	svcls	0x00300002
	...
     ab8:	00000002 	andeq	r0, r0, r2
	...
     b18:	10001474 	andne	r1, r0, r4, ror r4
     b1c:	1000147e 	andne	r1, r0, lr, ror r4
     b20:	9f300002 	svcls	0x00300002
     b24:	1000147e 	andne	r1, r0, lr, ror r4
     b28:	1000148e 	andne	r1, r0, lr, lsl #9
     b2c:	8e540001 	cdphi	0, 5, cr0, cr4, cr1, {0}
     b30:	a0100014 	andsge	r0, r0, r4, lsl r0
     b34:	01100014 	tsteq	r0, r4, lsl r0
     b38:	14a05500 	strtne	r5, [r0], #1280	; 0x500
     b3c:	172a1000 	strne	r1, [sl, -r0]!
     b40:	00011000 	andeq	r1, r1, r0
     b44:	00172a54 	andseq	r2, r7, r4, asr sl
     b48:	00172c10 	andseq	r2, r7, r0, lsl ip
     b4c:	50000110 	andpl	r0, r0, r0, lsl r1
     b50:	1000172c 	andne	r1, r0, ip, lsr #14
     b54:	10001780 	andne	r1, r0, r0, lsl #15
     b58:	80540001 	subshi	r0, r4, r1
     b5c:	88100017 	ldmdahi	r0, {r0, r1, r2, r4}
     b60:	01100017 	tsteq	r0, r7, lsl r0
     b64:	17885000 	strne	r5, [r8, r0]
     b68:	17c61000 	strbne	r1, [r6, r0]
     b6c:	00011000 	andeq	r1, r1, r0
     b70:	0017c654 	andseq	ip, r7, r4, asr r6
     b74:	0017c810 	andseq	ip, r7, r0, lsl r8
     b78:	50000110 	andpl	r0, r0, r0, lsl r1
     b7c:	100017c8 	andne	r1, r0, r8, asr #15
     b80:	10001800 	andne	r1, r0, r0, lsl #16
     b84:	00540001 	subseq	r0, r4, r1
     b88:	02100018 	andseq	r0, r0, #24
     b8c:	01100018 	tsteq	r0, r8, lsl r0
     b90:	18025000 	stmdane	r2, {ip, lr}
     b94:	18541000 	ldmdane	r4, {ip}^
     b98:	00011000 	andeq	r1, r1, r0
     b9c:	00185454 	andseq	r5, r8, r4, asr r4
     ba0:	00185610 	andseq	r5, r8, r0, lsl r6
     ba4:	50000110 	andpl	r0, r0, r0, lsl r1
     ba8:	10001856 	andne	r1, r0, r6, asr r8
     bac:	1000187e 	andne	r1, r0, lr, ror r8
     bb0:	7e540001 	cdpvc	0, 5, cr0, cr4, cr1, {0}
     bb4:	80100018 	andshi	r0, r0, r8, lsl r0
     bb8:	01100018 	tsteq	r0, r8, lsl r0
     bbc:	18805000 	stmne	r0, {ip, lr}
     bc0:	18cc1000 	stmiane	ip, {ip}^
     bc4:	00011000 	andeq	r1, r1, r0
     bc8:	0018cc54 	andseq	ip, r8, r4, asr ip
     bcc:	0018d410 	andseq	sp, r8, r0, lsl r4
     bd0:	50000110 	andpl	r0, r0, r0, lsl r1
     bd4:	100018d4 	ldrdne	r1, [r0], -r4
     bd8:	10001920 	andne	r1, r0, r0, lsr #18
     bdc:	20540001 	subscs	r0, r4, r1
     be0:	28100019 	ldmdacs	r0, {r0, r3, r4}
     be4:	01100019 	tsteq	r0, r9, lsl r0
     be8:	19285000 	stmdbne	r8!, {ip, lr}
     bec:	193c1000 	ldmdbne	ip!, {ip}
     bf0:	00011000 	andeq	r1, r1, r0
     bf4:	00193c54 	andseq	r3, r9, r4, asr ip
     bf8:	00195210 	andseq	r5, r9, r0, lsl r2
     bfc:	5a000110 	bpl	1044 <__HEAP_SIZE+0x44>
     c00:	10001952 	andne	r1, r0, r2, asr r9
     c04:	10001956 	andne	r1, r0, r6, asr r9
     c08:	56520001 	ldrbpl	r0, [r2], -r1
     c0c:	62100019 	andsvs	r0, r0, #25
     c10:	01100019 	tsteq	r0, r9, lsl r0
     c14:	19625a00 	stmdbne	r2!, {r9, fp, ip, lr}^
     c18:	196e1000 	stmdbne	lr!, {ip}^
     c1c:	00011000 	andeq	r1, r1, r0
     c20:	00196e52 	andseq	r6, r9, r2, asr lr
     c24:	00197810 	andseq	r7, r9, r0, lsl r8
     c28:	54000110 	strpl	r0, [r0], #-272	; 0xfffffef0
     c2c:	10001978 	andne	r1, r0, r8, ror r9
     c30:	1000197e 	andne	r1, r0, lr, ror r9
     c34:	7e5a0001 	cdpvc	0, 5, cr0, cr10, cr1, {0}
     c38:	82100019 	andshi	r0, r0, #25
     c3c:	01100019 	tsteq	r0, r9, lsl r0
     c40:	19825200 	stmibne	r2, {r9, ip, lr}
     c44:	198e1000 	stmibne	lr, {ip}
     c48:	00011000 	andeq	r1, r1, r0
     c4c:	00198e55 	andseq	r8, r9, r5, asr lr
     c50:	00199a10 	andseq	r9, r9, r0, lsl sl
     c54:	52000110 	andpl	r0, r0, #16, 2
     c58:	1000199a 	mulne	r0, sl, r9
     c5c:	100019e2 	andne	r1, r0, r2, ror #19
     c60:	e2540001 	subs	r0, r4, #1
     c64:	e8100019 	ldmda	r0, {r0, r3, r4}
     c68:	01100019 	tsteq	r0, r9, lsl r0
     c6c:	19e85200 	stmibne	r8!, {r9, ip, lr}^
     c70:	19f01000 	ldmibne	r0!, {ip}^
     c74:	00011000 	andeq	r1, r1, r0
     c78:	0019f054 	andseq	pc, r9, r4, asr r0	; <UNPREDICTABLE>
     c7c:	0019f810 	andseq	pc, r9, r0, lsl r8	; <UNPREDICTABLE>
     c80:	52000110 	andpl	r0, r0, #16, 2
     c84:	100019f8 	strdne	r1, [r0], -r8
     c88:	10001a04 	andne	r1, r0, r4, lsl #20
     c8c:	04590001 	ldrbeq	r0, [r9], #-1
     c90:	1c10001a 	ldcne	0, cr0, [r0], {26}
     c94:	0110001a 	tsteq	r0, sl, lsl r0
     c98:	1a1c5200 	bne	7154a0 <__RAM_SIZE+0x6154a0>
     c9c:	1a241000 	bne	904ca4 <__RAM_SIZE+0x804ca4>
     ca0:	00011000 	andeq	r1, r1, r0
     ca4:	001a2455 	andseq	r2, sl, r5, asr r4
     ca8:	001a4c10 	andseq	r4, sl, r0, lsl ip
     cac:	52000110 	andpl	r0, r0, #16, 2
     cb0:	10001a4c 	andne	r1, r0, ip, asr #20
     cb4:	10001a58 	andne	r1, r0, r8, asr sl
     cb8:	58550001 	ldmdapl	r5, {r0}^
     cbc:	6410001a 	ldrvs	r0, [r0], #-26	; 0xffffffe6
     cc0:	0110001a 	tsteq	r0, sl, lsl r0
     cc4:	1a645200 	bne	19154cc <__RAM_SIZE+0x18154cc>
     cc8:	1a921000 	bne	fe484cd0 <__StackTop+0xc6384cd0>
     ccc:	00011000 	andeq	r1, r1, r0
     cd0:	001a9254 	andseq	r9, sl, r4, asr r2
     cd4:	001a9a10 	andseq	r9, sl, r0, lsl sl
     cd8:	50000110 	andpl	r0, r0, r0, lsl r1
     cdc:	10001a9a 	mulne	r0, sl, sl
     ce0:	10001a9c 	mulne	r0, ip, sl
     ce4:	9c540001 	mrrcls	0, 0, r0, r4, cr1
     ce8:	b010001a 	andslt	r0, r0, sl, lsl r0
     cec:	0110001a 	tsteq	r0, sl, lsl r0
     cf0:	1ab05500 	bne	fec160f8 <__StackTop+0xc6b160f8>
     cf4:	1ab21000 	bne	fec84cfc <__StackTop+0xc6b84cfc>
     cf8:	00011000 	andeq	r1, r1, r0
     cfc:	001ab254 	andseq	fp, sl, r4, asr r2
     d00:	001ac410 	andseq	ip, sl, r0, lsl r4
     d04:	55000110 	strpl	r0, [r0, #-272]	; 0xfffffef0
     d08:	10001ac4 	andne	r1, r0, r4, asr #21
     d0c:	10001ac8 	andne	r1, r0, r8, asr #21
     d10:	9f300002 	svcls	0x00300002
     d14:	10001ac8 	andne	r1, r0, r8, asr #21
     d18:	10001ae2 	andne	r1, r0, r2, ror #21
     d1c:	e2540001 	subs	r0, r4, #1
     d20:	e810001a 	ldmda	r0, {r1, r3, r4}
     d24:	0110001a 	tsteq	r0, sl, lsl r0
     d28:	00005000 	andeq	r5, r0, r0
     d2c:	00000000 	andeq	r0, r0, r0
     d30:	00010000 	andeq	r0, r1, r0
	...
     d4c:	16be0000 	ldrtne	r0, [lr], r0
     d50:	16c61000 	strbne	r1, [r6], r0
     d54:	00021000 	andeq	r1, r2, r0
     d58:	16c89f3a 			; <UNDEFINED> instruction: 0x16c89f3a
     d5c:	17181000 	ldrne	r1, [r8, -r0]
     d60:	00011000 	andeq	r1, r1, r0
     d64:	00171853 	andseq	r1, r7, r3, asr r8
     d68:	00172710 	andseq	r2, r7, r0, lsl r7
     d6c:	91000310 	tstls	r0, r0, lsl r3
     d70:	17387fa8 	ldrne	r7, [r8, -r8, lsr #31]!
     d74:	17741000 	ldrbne	r1, [r4, -r0]!
     d78:	00011000 	andeq	r1, r1, r0
     d7c:	00177453 	andseq	r7, r7, r3, asr r4
     d80:	00177d10 	andseq	r7, r7, r0, lsl sp
     d84:	91000310 	tstls	r0, r0, lsl r3
     d88:	17887fa8 	strne	r7, [r8, r8, lsr #31]
     d8c:	17ae1000 	strne	r1, [lr, r0]!
     d90:	00011000 	andeq	r1, r1, r0
     d94:	0017ae53 	andseq	sl, r7, r3, asr lr
     d98:	0017c310 	andseq	ip, r7, r0, lsl r3
     d9c:	91000310 	tstls	r0, r0, lsl r3
     da0:	17c87fb0 			; <UNDEFINED> instruction: 0x17c87fb0
     da4:	17f41000 	ldrbne	r1, [r4, r0]!
     da8:	00011000 	andeq	r1, r1, r0
     dac:	0017f453 	andseq	pc, r7, r3, asr r4	; <UNPREDICTABLE>
     db0:	0017fd10 	andseq	pc, r7, r0, lsl sp	; <UNPREDICTABLE>
     db4:	91000310 	tstls	r0, r0, lsl r3
     db8:	18027fa8 	stmdane	r2, {r3, r5, r7, r8, r9, sl, fp, ip, sp, lr}
     dbc:	18481000 	stmdane	r8, {ip}^
     dc0:	00011000 	andeq	r1, r1, r0
     dc4:	00184853 	andseq	r4, r8, r3, asr r8
     dc8:	00185110 	andseq	r5, r8, r0, lsl r1
     dcc:	91000310 	tstls	r0, r0, lsl r3
     dd0:	18567fb0 	ldmdane	r6, {r4, r5, r7, r8, r9, sl, fp, ip, sp, lr}^
     dd4:	186a1000 	stmdane	sl!, {ip}^
     dd8:	00011000 	andeq	r1, r1, r0
     ddc:	00186a53 	andseq	r6, r8, r3, asr sl
     de0:	00187b10 	andseq	r7, r8, r0, lsl fp
     de4:	91000310 	tstls	r0, r0, lsl r3
     de8:	18807fa8 	stmne	r0, {r3, r5, r7, r8, r9, sl, fp, ip, sp, lr}
     dec:	189a1000 	ldmne	sl, {ip}
     df0:	00011000 	andeq	r1, r1, r0
     df4:	00000053 	andeq	r0, r0, r3, asr r0
     df8:	00000000 	andeq	r0, r0, r0
     dfc:	58000000 	stmdapl	r0, {}	; <UNPREDICTABLE>
     e00:	6e100017 	mrcvs	0, 0, r0, cr0, cr7, {0}
     e04:	01100017 	tsteq	r0, r7, lsl r0
     e08:	00005200 	andeq	r5, r0, r0, lsl #4
	...
     e14:	170a0000 	strne	r0, [sl, -r0]
     e18:	17201000 	strne	r1, [r0, -r0]!
     e1c:	00011000 	andeq	r1, r1, r0
     e20:	00172052 	andseq	r2, r7, r2, asr r0
     e24:	00172710 	andseq	r2, r7, r0, lsl r7
     e28:	7d000210 	sfmvc	f0, 4, [r0, #-64]	; 0xffffffc0
	...
     e34:	00000100 	andeq	r0, r0, r0, lsl #2
	...
     e48:	00192800 	andseq	r2, r9, r0, lsl #16
     e4c:	00193210 	andseq	r3, r9, r0, lsl r2
     e50:	31000210 	tstcc	r0, r0, lsl r2
     e54:	0019329f 	mulseq	r9, pc, r2	; <UNPREDICTABLE>
     e58:	00194810 	andseq	r4, r9, r0, lsl r8
     e5c:	59000110 	stmdbpl	r0, {r4, r8}
     e60:	10001952 	andne	r1, r0, r2, asr r9
     e64:	10001962 	andne	r1, r0, r2, ror #18
     e68:	62590001 	subsvs	r0, r9, #1
     e6c:	66100019 			; <UNDEFINED> instruction: 0x66100019
     e70:	01100019 	tsteq	r0, r9, lsl r0
     e74:	19665300 	stmdbne	r6!, {r8, r9, ip, lr}^
     e78:	196e1000 	stmdbne	lr!, {ip}^
     e7c:	00011000 	andeq	r1, r1, r0
     e80:	00196e59 	andseq	r6, r9, r9, asr lr
     e84:	00197810 	andseq	r7, r9, r0, lsl r8
     e88:	31000210 	tstcc	r0, r0, lsl r2
     e8c:	0019789f 	mulseq	r9, pc, r8	; <UNPREDICTABLE>
     e90:	00198010 	andseq	r8, r9, r0, lsl r0
     e94:	59000110 	stmdbpl	r0, {r4, r8}
     e98:	10001980 	andne	r1, r0, r0, lsl #19
     e9c:	1000198e 	andne	r1, r0, lr, lsl #19
     ea0:	8e540001 	cdphi	0, 5, cr0, cr4, cr1, {0}
     ea4:	92100019 	andsls	r0, r0, #25
     ea8:	01100019 	tsteq	r0, r9, lsl r0
     eac:	19925900 	ldmibne	r2, {r8, fp, ip, lr}
     eb0:	199a1000 	ldmibne	sl, {ip}
     eb4:	00011000 	andeq	r1, r1, r0
     eb8:	00000054 	andeq	r0, r0, r4, asr r0
	...
     ec4:	001a1400 	andseq	r1, sl, r0, lsl #8
     ec8:	001a3c10 	andseq	r3, sl, r0, lsl ip
     ecc:	5a000110 	bpl	1314 <__HEAP_SIZE+0x314>
     ed0:	10001a44 	andne	r1, r0, r4, asr #20
     ed4:	10001a48 	andne	r1, r0, r8, asr #20
     ed8:	005a0001 	subseq	r0, sl, r1
	...
     ef8:	0019c800 	andseq	ip, r9, r0, lsl #16
     efc:	0019e810 	andseq	lr, r9, r0, lsl r8
     f00:	59000110 	stmdbpl	r0, {r4, r8}
     f04:	100019ec 	andne	r1, r0, ip, ror #19
     f08:	100019f4 	strdne	r1, [r0], -r4
     f0c:	f4590001 			; <UNDEFINED> instruction: 0xf4590001
     f10:	04100019 	ldreq	r0, [r0], #-25	; 0xffffffe7
     f14:	0110001a 	tsteq	r0, sl, lsl r0
     f18:	1a045500 	bne	116320 <__RAM_SIZE+0x16320>
     f1c:	1a061000 	bne	184f24 <__RAM_SIZE+0x84f24>
     f20:	00011000 	andeq	r1, r1, r0
     f24:	001a0653 	andseq	r0, sl, r3, asr r6
     f28:	001a1410 	andseq	r1, sl, r0, lsl r4
     f2c:	55000110 	strpl	r0, [r0, #-272]	; 0xfffffef0
     f30:	10001a14 	andne	r1, r0, r4, lsl sl
     f34:	10001a3c 	andne	r1, r0, ip, lsr sl
     f38:	44590001 	ldrbmi	r0, [r9], #-1
     f3c:	4a10001a 	bmi	400fac <__RAM_SIZE+0x300fac>
     f40:	0110001a 	tsteq	r0, sl, lsl r0
     f44:	1a4a5900 	bne	129734c <__RAM_SIZE+0x119734c>
     f48:	1a581000 	bne	1604f50 <__RAM_SIZE+0x1504f50>
     f4c:	00011000 	andeq	r1, r1, r0
     f50:	001a5854 	andseq	r5, sl, r4, asr r8
     f54:	001a5c10 	andseq	r5, sl, r0, lsl ip
     f58:	59000110 	stmdbpl	r0, {r4, r8}
     f5c:	10001a5c 	andne	r1, r0, ip, asr sl
     f60:	10001a62 	andne	r1, r0, r2, ror #20
     f64:	62540001 	subsvs	r0, r4, #1
     f68:	6410001a 	ldrvs	r0, [r0], #-26	; 0xffffffe6
     f6c:	0310001a 	tsteq	r0, #26
     f70:	9f017900 	svcls	0x00017900
	...
     f80:	19b20000 	ldmibne	r2!, {}	; <UNPREDICTABLE>
     f84:	19b81000 	ldmibne	r8!, {ip}
     f88:	00011000 	andeq	r1, r1, r0
     f8c:	0019b852 	andseq	fp, r9, r2, asr r8
     f90:	0019c010 	andseq	ip, r9, r0, lsl r0
     f94:	53000110 	movwpl	r0, #272	; 0x110
     f98:	100019c0 	andne	r1, r0, r0, asr #19
     f9c:	100019c4 	andne	r1, r0, r4, asr #19
     fa0:	00520001 	subseq	r0, r2, r1
	...
     fac:	0019b200 	andseq	fp, r9, r0, lsl #4
     fb0:	0019c810 	andseq	ip, r9, r0, lsl r8
     fb4:	59000110 	stmdbpl	r0, {r4, r8}
	...
     fc0:	1a680001 	bne	1a00fcc <__RAM_SIZE+0x1900fcc>
     fc4:	1a9a1000 	bne	fe684fcc <__StackTop+0xc6584fcc>
     fc8:	00021000 	andeq	r1, r2, r0
     fcc:	00009f30 	andeq	r9, r0, r0, lsr pc
     fd0:	00000000 	andeq	r0, r0, r0
     fd4:	00030000 	andeq	r0, r3, r0
     fd8:	100014c8 	andne	r1, r0, r8, asr #9
     fdc:	100014ce 	andne	r1, r0, lr, asr #9
     fe0:	00510001 	subseq	r0, r1, r1
	...
     fec:	00156e00 	andseq	r6, r5, r0, lsl #28
     ff0:	00157410 	andseq	r7, r5, r0, lsl r4
     ff4:	52000110 	andpl	r0, r0, #16, 2
	...
    1000:	10000ce0 	andne	r0, r0, r0, ror #25
    1004:	10000ce4 	andne	r0, r0, r4, ror #25
    1008:	007d0002 	rsbseq	r0, sp, r2
    100c:	10000ce4 	andne	r0, r0, r4, ror #25
    1010:	10000ce8 	andne	r0, r0, r8, ror #25
    1014:	247d0002 	ldrbtcs	r0, [sp], #-2
    1018:	10000ce8 	andne	r0, r0, r8, ror #25
    101c:	10000cea 	andne	r0, r0, sl, ror #25
    1020:	2c7d0002 	ldclcs	0, cr0, [sp], #-8
    1024:	10000cea 	andne	r0, r0, sl, ror #25
    1028:	10000f34 	andne	r0, r0, r4, lsr pc
    102c:	f07d0003 			; <UNDEFINED> instruction: 0xf07d0003
    1030:	000f3400 	andeq	r3, pc, r0, lsl #8
    1034:	000f3810 	andeq	r3, pc, r0, lsl r8	; <UNPREDICTABLE>
    1038:	7d000210 	sfmvc	f0, 4, [r0, #-64]	; 0xffffffc0
    103c:	000f382c 	andeq	r3, pc, ip, lsr #16
    1040:	000f3c10 	andeq	r3, pc, r0, lsl ip	; <UNPREDICTABLE>
    1044:	7d000210 	sfmvc	f0, 4, [r0, #-64]	; 0xffffffc0
    1048:	000f3c24 	andeq	r3, pc, r4, lsr #24
    104c:	0010ca10 	andseq	ip, r0, r0, lsl sl
    1050:	7d000310 	stcvc	3, cr0, [r0, #-64]	; 0xffffffc0
    1054:	000000f0 	strdeq	r0, [r0], -r0	; <UNPREDICTABLE>
	...
    1060:	0ce00000 	stcleq	0, cr0, [r0]
    1064:	0cf81000 	ldcleq	0, cr1, [r8]
    1068:	00011000 	andeq	r1, r1, r0
    106c:	000cf850 	andeq	pc, ip, r0, asr r8	; <UNPREDICTABLE>
    1070:	0010ca10 	andseq	ip, r0, r0, lsl sl
    1074:	5a000110 	bpl	14bc <__HEAP_SIZE+0x4bc>
	...
    1084:	10000ce0 	andne	r0, r0, r0, ror #25
    1088:	10000cfa 	strdne	r0, [r0], -sl
    108c:	fa510001 	blx	1441098 <__RAM_SIZE+0x1341098>
    1090:	ca10000c 	bgt	4010c8 <__RAM_SIZE+0x3010c8>
    1094:	01100010 	tsteq	r0, r0, lsl r0
    1098:	00005400 	andeq	r5, r0, r0, lsl #8
	...
    10b8:	10000ce0 	andne	r0, r0, r0, ror #25
    10bc:	10000cf6 	strdne	r0, [r0], -r6
    10c0:	f6520001 			; <UNDEFINED> instruction: 0xf6520001
    10c4:	3210000c 	andscc	r0, r0, #12
    10c8:	0110000f 	tsteq	r0, pc
    10cc:	0f3c5b00 	svceq	0x003c5b00
    10d0:	10441000 	subne	r1, r4, r0
    10d4:	00011000 	andeq	r1, r1, r0
    10d8:	0010445b 	andseq	r4, r0, fp, asr r4
    10dc:	00105a10 	andseq	r5, r0, r0, lsl sl
    10e0:	50000110 	andpl	r0, r0, r0, lsl r1
    10e4:	1000105a 	andne	r1, r0, sl, asr r0
    10e8:	1000108e 	andne	r1, r0, lr, lsl #1
    10ec:	8e580001 	cdphi	0, 5, cr0, cr8, cr1, {0}
    10f0:	9c100010 	ldcls	0, cr0, [r0], {16}
    10f4:	01100010 	tsteq	r0, r0, lsl r0
    10f8:	109c5000 	addsne	r5, ip, r0
    10fc:	10ac1000 	adcne	r1, ip, r0
    1100:	00011000 	andeq	r1, r1, r0
    1104:	0010ac5b 	andseq	sl, r0, fp, asr ip
    1108:	0010b210 	andseq	fp, r0, r0, lsl r2
    110c:	50000110 	andpl	r0, r0, r0, lsl r1
    1110:	100010b2 	strhne	r1, [r0], -r2
    1114:	100010b4 	strhne	r1, [r0], -r4
    1118:	b4520001 	ldrblt	r0, [r2], #-1
    111c:	be100010 	mrclt	0, 0, r0, cr0, cr0, {0}
    1120:	01100010 	tsteq	r0, r0, lsl r0
    1124:	10be5600 	adcsne	r5, lr, r0, lsl #12
    1128:	10ca1000 	sbcne	r1, sl, r0
    112c:	00011000 	andeq	r1, r1, r0
    1130:	00000052 	andeq	r0, r0, r2, asr r0
	...
    113c:	000ce000 	andeq	lr, ip, r0
    1140:	000cfd10 	andeq	pc, ip, r0, lsl sp	; <UNPREDICTABLE>
    1144:	53000110 	movwpl	r0, #272	; 0x110
    1148:	10000cfd 	strdne	r0, [r0], -sp
    114c:	100010ca 	andne	r1, r0, sl, asr #1
    1150:	00550001 	subseq	r0, r5, r1
	...
    1164:	e0000000 	and	r0, r0, r0
    1168:	4810000c 	ldmdami	r0, {r2, r3}
    116c:	0210000d 	andseq	r0, r0, #13
    1170:	48009100 	stmdami	r0, {r8, ip, pc}
    1174:	1210000d 	andsne	r0, r0, #13
    1178:	0310000f 	tsteq	r0, #15
    117c:	7fa89100 	svcvc	0x00a89100
    1180:	10000f12 	andne	r0, r0, r2, lsl pc
    1184:	10000f32 	andne	r0, r0, r2, lsr pc
    1188:	00910002 	addseq	r0, r1, r2
    118c:	10000f3c 	andne	r0, r0, ip, lsr pc
    1190:	10000f50 	andne	r0, r0, r0, asr pc
    1194:	00910002 	addseq	r0, r1, r2
    1198:	10000f50 	andne	r0, r0, r0, asr pc
    119c:	10001020 	andne	r1, r0, r0, lsr #32
    11a0:	a8910003 	ldmge	r1, {r0, r1}
    11a4:	00109c7f 	andseq	r9, r0, pc, ror ip
    11a8:	0010aa10 	andseq	sl, r0, r0, lsl sl
    11ac:	91000310 	tstls	r0, r0, lsl r3
    11b0:	00007fa8 	andeq	r7, r0, r8, lsr #31
	...
    11c4:	0ce00000 	stcleq	0, cr0, [r0]
    11c8:	0d561000 	ldcleq	0, cr1, [r6, #-0]
    11cc:	00021000 	andeq	r1, r2, r0
    11d0:	0d560891 	ldcleq	8, cr0, [r6, #-580]	; 0xfffffdbc
    11d4:	0f101000 	svceq	0x00101000
    11d8:	00021000 	andeq	r1, r2, r0
    11dc:	0f100891 	svceq	0x00100891
    11e0:	0f121000 	svceq	0x00121000
    11e4:	00011000 	andeq	r1, r1, r0
    11e8:	000f1253 	andeq	r1, pc, r3, asr r2	; <UNPREDICTABLE>
    11ec:	000f8410 	andeq	r8, pc, r0, lsl r4	; <UNPREDICTABLE>
    11f0:	91000210 	tstls	r0, r0, lsl r2
    11f4:	000f8408 	andeq	r8, pc, r8, lsl #8
    11f8:	000fec10 	andeq	lr, pc, r0, lsl ip	; <UNPREDICTABLE>
    11fc:	53000110 	movwpl	r0, #272	; 0x110
    1200:	10000fec 	andne	r0, r0, ip, ror #31
    1204:	100010ca 	andne	r1, r0, sl, asr #1
    1208:	08910002 	ldmeq	r1, {r1}
	...
    1218:	10000ce0 	andne	r0, r0, r0, ror #25
    121c:	10000f3c 	andne	r0, r0, ip, lsr pc
    1220:	0c910002 	ldceq	0, cr0, [r1], {2}
    1224:	10000f3c 	andne	r0, r0, ip, lsr pc
    1228:	100010ca 	andne	r1, r0, sl, asr #1
    122c:	0c910002 	ldceq	0, cr0, [r1], {2}
	...
    1240:	10000ce0 	andne	r0, r0, r0, ror #25
    1244:	10000f3c 	andne	r0, r0, ip, lsr pc
    1248:	10910002 	addsne	r0, r1, r2
    124c:	10000f3c 	andne	r0, r0, ip, lsr pc
    1250:	10000f62 	andne	r0, r0, r2, ror #30
    1254:	10910002 	addsne	r0, r1, r2
    1258:	10000f62 	andne	r0, r0, r2, ror #30
    125c:	10000f66 	andne	r0, r0, r6, ror #30
    1260:	66530001 	ldrbvs	r0, [r3], -r1
    1264:	ca10000f 	bgt	4012a8 <__RAM_SIZE+0x3012a8>
    1268:	02100010 	andseq	r0, r0, #16
    126c:	00109100 	andseq	r9, r0, r0, lsl #2
    1270:	00000000 	andeq	r0, r0, r0
    1274:	01000000 	mrseq	r0, (UNDEF: 0)
    1278:	2e000000 	cdpcs	0, 0, cr0, cr0, cr0, {0}
    127c:	1210000d 	andsne	r0, r0, #13
    1280:	1210000f 	andsne	r0, r0, #15
    1284:	f6009100 			; <UNDEFINED> instruction: 0xf6009100
    1288:	29f42908 	ldmibcs	r4!, {r3, r8, fp, sp}^
    128c:	00000008 	andeq	r0, r0, r8
    1290:	00000000 	andeq	r0, r0, r0
    1294:	3c9f2d00 	ldccc	13, cr2, [pc], {0}
    1298:	ca10000f 	bgt	4012dc <__RAM_SIZE+0x3012dc>
    129c:	12100010 	andsne	r0, r0, #16
    12a0:	f6009100 			; <UNDEFINED> instruction: 0xf6009100
    12a4:	29f42908 	ldmibcs	r4!, {r3, r8, fp, sp}^
    12a8:	00000008 	andeq	r0, r0, r8
    12ac:	00000000 	andeq	r0, r0, r0
    12b0:	009f2d00 	addseq	r2, pc, r0, lsl #26
	...
    12bc:	32000100 	andcc	r0, r0, #0, 2
    12c0:	3810000f 	ldmdacc	r0, {r0, r1, r2, r3}
    12c4:	0810000f 	ldmdaeq	r0, {r0, r1, r2, r3}
    12c8:	93509000 	cmpls	r0, #0
    12cc:	93519004 	cmpls	r1, #4
    12d0:	00100004 	andseq	r0, r0, r4
    12d4:	0010ca10 	andseq	ip, r0, r0, lsl sl
    12d8:	90000810 	andls	r0, r0, r0, lsl r8
    12dc:	90049350 	andls	r9, r4, r0, asr r3
    12e0:	00049351 	andeq	r9, r4, r1, asr r3
	...
    12f4:	60000000 	andvs	r0, r0, r0
    12f8:	7210000d 	andsvc	r0, r0, #13
    12fc:	0410000d 	ldreq	r0, [r0], #-13
    1300:	78817000 	stmvc	r1, {ip, sp, lr}
    1304:	000d729f 	muleq	sp, pc, r2	; <UNPREDICTABLE>
    1308:	000d7510 	andeq	r7, sp, r0, lsl r5
    130c:	50000110 	andpl	r0, r0, r0, lsl r1
    1310:	10000dd6 	ldrdne	r0, [r0], -r6
    1314:	10000dde 	ldrdne	r0, [r0], -lr
    1318:	de500001 	cdple	0, 5, cr0, cr0, cr1, {0}
    131c:	1810000d 	ldmdane	r0, {r0, r2, r3}
    1320:	0110000e 	tsteq	r0, lr
    1324:	0e185700 	cdpeq	7, 1, cr5, cr8, cr0, {0}
    1328:	0ed41000 	cdpeq	0, 13, cr1, cr4, cr0, {0}
    132c:	00041000 	andeq	r1, r4, r0
    1330:	9f788177 	svcls	0x00788177
    1334:	10000f52 	andne	r0, r0, r2, asr pc
    1338:	10000f54 	andne	r0, r0, r4, asr pc
    133c:	81770004 	cmnhi	r7, r4
    1340:	00009f78 	andeq	r9, r0, r8, ror pc
	...
    1350:	00000002 	andeq	r0, r0, r2
    1354:	10000db6 			; <UNDEFINED> instruction: 0x10000db6
    1358:	10000db9 			; <UNDEFINED> instruction: 0x10000db9
    135c:	b9500001 	ldmdblt	r0, {r0}^
    1360:	0c10000d 	ldceq	0, cr0, [r0], {13}
    1364:	0110000f 	tsteq	r0, pc
    1368:	0f525600 	svceq	0x00525600
    136c:	0f5a1000 	svceq	0x005a1000
    1370:	00011000 	andeq	r1, r1, r0
    1374:	000f6256 	andeq	r6, pc, r6, asr r2	; <UNPREDICTABLE>
    1378:	000f6610 	andeq	r6, pc, r0, lsl r6	; <UNPREDICTABLE>
    137c:	30000210 	andcc	r0, r0, r0, lsl r2
    1380:	000f669f 	muleq	pc, pc, r6	; <UNPREDICTABLE>
    1384:	0010b210 	andseq	fp, r0, r0, lsl r2
    1388:	56000110 			; <UNDEFINED> instruction: 0x56000110
	...
    1394:	0e080000 	cdpeq	0, 0, cr0, cr8, cr0, {0}
    1398:	0e481000 	cdpeq	0, 4, cr1, cr8, cr0, {0}
    139c:	00061000 	andeq	r1, r6, r0
    13a0:	59049358 	stmdbpl	r4, {r3, r4, r6, r8, r9, ip, pc}
    13a4:	00000493 	muleq	r0, r3, r4
	...
    13b4:	10000e14 	andne	r0, r0, r4, lsl lr
    13b8:	10000e2e 	andne	r0, r0, lr, lsr #28
    13bc:	93500006 	cmpls	r0, #6
    13c0:	04935104 	ldreq	r5, [r3], #260	; 0x104
    13c4:	10000e2e 	andne	r0, r0, lr, lsr #28
    13c8:	10000f12 	andne	r0, r0, r2, lsl pc
    13cc:	b8910003 	ldmlt	r1, {r0, r1}
    13d0:	000f527f 	andeq	r5, pc, pc, ror r2	; <UNPREDICTABLE>
    13d4:	0010ca10 	andseq	ip, r0, r0, lsl sl
    13d8:	91000310 	tstls	r0, r0, lsl r3
    13dc:	00007fb8 			; <UNDEFINED> instruction: 0x00007fb8
	...
    13e8:	00010100 	andeq	r0, r1, r0, lsl #2
    13ec:	00000000 	andeq	r0, r0, r0
    13f0:	0ed40000 	cdpeq	0, 13, cr0, cr4, cr0, {0}
    13f4:	0f121000 	svceq	0x00121000
    13f8:	00011000 	andeq	r1, r1, r0
    13fc:	000f5657 	andeq	r5, pc, r7, asr r6	; <UNPREDICTABLE>
    1400:	000f6210 	andeq	r6, pc, r0, lsl r2	; <UNPREDICTABLE>
    1404:	57000110 	smladpl	r0, r0, r1, r0
    1408:	10000f62 	andne	r0, r0, r2, ror #30
    140c:	10000f66 	andne	r0, r0, r6, ror #30
    1410:	9f300002 	svcls	0x00300002
    1414:	10000f66 	andne	r0, r0, r6, ror #30
    1418:	10001072 	andne	r1, r0, r2, ror r0
    141c:	72570001 	subsvc	r0, r7, #1
    1420:	9a100010 	bls	401468 <__RAM_SIZE+0x301468>
    1424:	03100010 	tsteq	r0, #16
    1428:	9f017700 	svcls	0x00017700
    142c:	1000109c 	mulne	r0, ip, r0
    1430:	100010b2 	strhne	r1, [r0], -r2
    1434:	00570001 	subseq	r0, r7, r1
    1438:	00000000 	andeq	r0, r0, r0
    143c:	01000000 	mrseq	r0, (UNDEF: 0)
	...
    1448:	000f6600 	andeq	r6, pc, r0, lsl #12
    144c:	000f7010 	andeq	r7, pc, r0, lsl r0	; <UNPREDICTABLE>
    1450:	91000210 	tstls	r0, r0, lsl r2
    1454:	000f700c 	andeq	r7, pc, ip
    1458:	000f7210 	andeq	r7, pc, r0, lsl r2	; <UNPREDICTABLE>
    145c:	58000110 	stmdapl	r0, {r4, r8}
    1460:	10000fec 	andne	r0, r0, ip, ror #31
    1464:	10000ff0 	strdne	r0, [r0], -r0	; <UNPREDICTABLE>
    1468:	f0530001 			; <UNDEFINED> instruction: 0xf0530001
    146c:	5a10000f 	bpl	4014b0 <__RAM_SIZE+0x3014b0>
    1470:	01100010 	tsteq	r0, r0, lsl r0
    1474:	109c5800 	addsne	r5, ip, r0, lsl #16
    1478:	10b21000 	adcsne	r1, r2, r0
    147c:	00011000 	andeq	r1, r1, r0
    1480:	00000058 	andeq	r0, r0, r8, asr r0
    1484:	00000000 	andeq	r0, r0, r0
    1488:	10000100 	andne	r0, r0, r0, lsl #2
    148c:	ca100010 	bgt	4014d4 <__RAM_SIZE+0x3014d4>
    1490:	01100010 	tsteq	r0, r0, lsl r0
    1494:	00005b00 	andeq	r5, r0, r0, lsl #22
    1498:	00000000 	andeq	r0, r0, r0
    149c:	10d00000 	sbcsne	r0, r0, r0
    14a0:	10d41000 	sbcsne	r1, r4, r0
    14a4:	00021000 	andeq	r1, r2, r0
    14a8:	10d4007d 	sbcsne	r0, r4, sp, ror r0
    14ac:	10d81000 	sbcsne	r1, r8, r0
    14b0:	00021000 	andeq	r1, r2, r0
    14b4:	10d8247d 	sbcsne	r2, r8, sp, ror r4
    14b8:	10da1000 	sbcsne	r1, sl, r0
    14bc:	00021000 	andeq	r1, r2, r0
    14c0:	10da2c7d 	sbcsne	r2, sl, sp, ror ip
    14c4:	13f41000 	mvnsne	r1, #0
    14c8:	00031000 	andeq	r1, r3, r0
    14cc:	f401807d 	vst4.16	{d8-d11}, [r1 :256]!
    14d0:	f8100013 			; <UNDEFINED> instruction: 0xf8100013
    14d4:	02100013 	andseq	r0, r0, #19
    14d8:	f82c7d00 			; <UNDEFINED> instruction: 0xf82c7d00
    14dc:	fc100013 	ldc2	0, cr0, [r0], {19}
    14e0:	02100013 	andseq	r0, r0, #19
    14e4:	fc247d00 	vsdot.s8	d7, d4, d0
    14e8:	66100013 			; <UNDEFINED> instruction: 0x66100013
    14ec:	03100014 	tsteq	r0, #20
    14f0:	01807d00 	orreq	r7, r0, r0, lsl #26
	...
    1500:	100010d0 	ldrdne	r1, [r0], -r0
    1504:	100010ee 	andne	r1, r0, lr, ror #1
    1508:	ee500001 	cdp	0, 5, cr0, cr0, cr1, {0}
    150c:	66100010 			; <UNDEFINED> instruction: 0x66100010
    1510:	03100014 	tsteq	r0, #20
    1514:	7f9c9100 	svcvc	0x009c9100
	...
    1524:	100010d0 	ldrdne	r1, [r0], -r0
    1528:	100010f0 	strdne	r1, [r0], -r0
    152c:	f0510001 			; <UNDEFINED> instruction: 0xf0510001
    1530:	66100010 			; <UNDEFINED> instruction: 0x66100010
    1534:	03100014 	tsteq	r0, #20
    1538:	7fa89100 	svcvc	0x00a89100
	...
    1548:	100010d0 	ldrdne	r1, [r0], -r0
    154c:	100010ea 	andne	r1, r0, sl, ror #1
    1550:	ea520001 	b	148155c <__RAM_SIZE+0x138155c>
    1554:	66100010 			; <UNDEFINED> instruction: 0x66100010
    1558:	01100014 	tsteq	r0, r4, lsl r0
    155c:	00005a00 	andeq	r5, r0, r0, lsl #20
	...
    1568:	10d00000 	sbcsne	r0, r0, r0
    156c:	10ec1000 	rscne	r1, ip, r0
    1570:	00011000 	andeq	r1, r1, r0
    1574:	0010ec53 	andseq	lr, r0, r3, asr ip
    1578:	00146610 	andseq	r6, r4, r0, lsl r6
    157c:	5b000110 	blpl	19c4 <__HEAP_SIZE+0x9c4>
	...
    1590:	10d00000 	sbcsne	r0, r0, r0
    1594:	11561000 	cmpne	r6, r0
    1598:	00021000 	andeq	r1, r2, r0
    159c:	11560091 			; <UNDEFINED> instruction: 0x11560091
    15a0:	117a1000 	cmnne	sl, r0
    15a4:	00061000 	andeq	r1, r6, r0
    15a8:	59049358 	stmdbpl	r4, {r3, r4, r6, r8, r9, ip, pc}
    15ac:	117a0493 			; <UNDEFINED> instruction: 0x117a0493
    15b0:	12121000 	andsne	r1, r2, #0
    15b4:	00021000 	andeq	r1, r2, r0
    15b8:	12120091 	andsne	r0, r2, #145	; 0x91
    15bc:	12aa1000 	adcne	r1, sl, #0
    15c0:	00061000 	andeq	r1, r6, r0
    15c4:	59049358 	stmdbpl	r4, {r3, r4, r6, r8, r9, ip, pc}
    15c8:	12ce0493 	sbcne	r0, lr, #-1828716544	; 0x93000000
    15cc:	134a1000 	movtne	r1, #40960	; 0xa000
    15d0:	00061000 	andeq	r1, r6, r0
    15d4:	59049358 	stmdbpl	r4, {r3, r4, r6, r8, r9, ip, pc}
    15d8:	00000493 	muleq	r0, r3, r4
	...
    15e8:	10d00000 	sbcsne	r0, r0, r0
    15ec:	115e1000 	cmpne	lr, r0
    15f0:	00021000 	andeq	r1, r2, r0
    15f4:	11600891 			; <UNDEFINED> instruction: 0x11600891
    15f8:	117a1000 	cmnne	sl, r0
    15fc:	00011000 	andeq	r1, r1, r0
    1600:	00117a55 	andseq	r7, r1, r5, asr sl
    1604:	00121c10 	andseq	r1, r2, r0, lsl ip
    1608:	91000210 	tstls	r0, r0, lsl r2
    160c:	00121c08 	andseq	r1, r2, r8, lsl #24
    1610:	0012ea10 	andseq	lr, r2, r0, lsl sl
    1614:	55000110 	strpl	r0, [r0, #-272]	; 0xfffffef0
	...
    1628:	10d00000 	sbcsne	r0, r0, r0
    162c:	13c01000 	bicne	r1, r0, #0
    1630:	00021000 	andeq	r1, r2, r0
    1634:	13c00c91 	bicne	r0, r0, #37120	; 0x9100
    1638:	14121000 	ldrne	r1, [r2], #-0
    163c:	00021000 	andeq	r1, r2, r0
    1640:	14120c91 	ldrne	r0, [r2], #-3217	; 0xfffff36f
    1644:	14161000 	ldrne	r1, [r6], #-0
    1648:	00011000 	andeq	r1, r1, r0
    164c:	00141653 	andseq	r1, r4, r3, asr r6
    1650:	00142e10 	andseq	r2, r4, r0, lsl lr
    1654:	51000110 	tstpl	r0, r0, lsl r1
    1658:	1000142e 	andne	r1, r0, lr, lsr #8
    165c:	10001466 	andne	r1, r0, r6, ror #8
    1660:	0c910002 	ldceq	0, cr0, [r1], {2}
	...
    1670:	100010d0 	ldrdne	r1, [r0], -r0
    1674:	100013fc 	strdne	r1, [r0], -ip
    1678:	10910002 	addsne	r0, r1, r2
    167c:	100013fc 	strdne	r1, [r0], -ip
    1680:	10001466 	andne	r1, r0, r6, ror #8
    1684:	10910002 	addsne	r0, r1, r2
	...
    1690:	01000002 	tsteq	r0, r2
    1694:	00000001 	andeq	r0, r0, r1
    1698:	00000000 	andeq	r0, r0, r0
    169c:	01000000 	mrseq	r0, (UNDEF: 0)
    16a0:	01000001 	tsteq	r0, r1
    16a4:	00000001 	andeq	r0, r0, r1
    16a8:	01000000 	mrseq	r0, (UNDEF: 0)
    16ac:	00000001 	andeq	r0, r0, r1
    16b0:	00010100 	andeq	r0, r1, r0, lsl #2
    16b4:	00010100 	andeq	r0, r1, r0, lsl #2
    16b8:	00010100 	andeq	r0, r1, r0, lsl #2
    16bc:	10e80000 	rscne	r0, r8, r0
    16c0:	11601000 	cmnne	r0, r0
    16c4:	00021000 	andeq	r1, r2, r0
    16c8:	11609f30 	cmnne	r0, r0, lsr pc
    16cc:	11681000 	cmnne	r8, r0
    16d0:	00011000 	andeq	r1, r1, r0
    16d4:	00116854 	andseq	r6, r1, r4, asr r8
    16d8:	00117810 	andseq	r7, r1, r0, lsl r8
    16dc:	74000310 	strvc	r0, [r0], #-784	; 0xfffffcf0
    16e0:	11789f01 	cmnne	r8, r1, lsl #30
    16e4:	117a1000 	cmnne	sl, r0
    16e8:	00011000 	andeq	r1, r1, r0
    16ec:	00117a54 	andseq	r7, r1, r4, asr sl
    16f0:	00121c10 	andseq	r1, r2, r0, lsl ip
    16f4:	30000210 	andcc	r0, r0, r0, lsl r2
    16f8:	00121c9f 	mulseq	r2, pc, ip	; <UNPREDICTABLE>
    16fc:	00130410 	andseq	r0, r3, r0, lsl r4
    1700:	54000110 	strpl	r0, [r0], #-272	; 0xfffffef0
    1704:	10001304 	andne	r1, r0, r4, lsl #6
    1708:	1000131e 	andne	r1, r0, lr, lsl r3
    170c:	1e520001 	cdpne	0, 5, cr0, cr2, cr1, {0}
    1710:	26100013 			; <UNDEFINED> instruction: 0x26100013
    1714:	01100013 	tsteq	r0, r3, lsl r0
    1718:	13265400 			; <UNDEFINED> instruction: 0x13265400
    171c:	13361000 	teqne	r6, #0
    1720:	00031000 	andeq	r1, r3, r0
    1724:	369f0174 			; <UNDEFINED> instruction: 0x369f0174
    1728:	3c100013 	ldccc	0, cr0, [r0], {19}
    172c:	01100013 	tsteq	r0, r3, lsl r0
    1730:	133c5400 	teqne	ip, #0, 8
    1734:	134a1000 	movtne	r1, #40960	; 0xa000
    1738:	00031000 	andeq	r1, r3, r0
    173c:	4a9f0174 	bmi	fe7c1d14 <__StackTop+0xc66c1d14>
    1740:	66100013 			; <UNDEFINED> instruction: 0x66100013
    1744:	01100013 	tsteq	r0, r3, lsl r0
    1748:	13665400 	cmnne	r6, #0, 8
    174c:	13b61000 			; <UNDEFINED> instruction: 0x13b61000
    1750:	00011000 	andeq	r1, r1, r0
    1754:	0013b651 	andseq	fp, r3, r1, asr r6
    1758:	0013ca10 	andseq	ip, r3, r0, lsl sl
    175c:	54000110 	strpl	r0, [r0], #-272	; 0xfffffef0
    1760:	100013ca 	andne	r1, r0, sl, asr #7
    1764:	100013d8 	ldrdne	r1, [r0], -r8
    1768:	01740003 	cmneq	r4, r3
    176c:	0013d89f 	mulseq	r3, pc, r8	; <UNPREDICTABLE>
    1770:	0013f210 	andseq	pc, r3, r0, lsl r2	; <UNPREDICTABLE>
    1774:	54000110 	strpl	r0, [r0], #-272	; 0xfffffef0
    1778:	100013fc 	strdne	r1, [r0], -ip
    177c:	10001416 	andne	r1, r0, r6, lsl r4
    1780:	16540001 	ldrbne	r0, [r4], -r1
    1784:	24100014 	ldrcs	r0, [r0], #-20	; 0xffffffec
    1788:	03100014 	tsteq	r0, #20
    178c:	9f017400 	svcls	0x00017400
    1790:	10001424 	andne	r1, r0, r4, lsr #8
    1794:	1000143e 	andne	r1, r0, lr, lsr r4
    1798:	3e540001 	cdpcc	0, 5, cr0, cr4, cr1, {0}
    179c:	4c100014 	ldcmi	0, cr0, [r0], {20}
    17a0:	03100014 	tsteq	r0, #20
    17a4:	9f017400 	svcls	0x00017400
    17a8:	1000144c 	andne	r1, r0, ip, asr #8
    17ac:	10001456 	andne	r1, r0, r6, asr r4
    17b0:	56540001 	ldrbpl	r0, [r4], -r1
    17b4:	64100014 	ldrvs	r0, [r0], #-20	; 0xffffffec
    17b8:	03100014 	tsteq	r0, #20
    17bc:	9f017400 	svcls	0x00017400
    17c0:	10001464 	andne	r1, r0, r4, ror #8
    17c4:	10001466 	andne	r1, r0, r6, ror #8
    17c8:	00540001 	subseq	r0, r4, r1
    17cc:	00000000 	andeq	r0, r0, r0
    17d0:	03000000 	movweq	r0, #0
	...
    17dc:	0010e800 	andseq	lr, r0, r0, lsl #16
    17e0:	00126e10 	andseq	r6, r2, r0, lsl lr
    17e4:	9e000a10 	vmovls	s0, r0
    17e8:	00000008 	andeq	r0, r0, r8
    17ec:	00000000 	andeq	r0, r0, r0
    17f0:	00126e00 	andseq	r6, r2, r0, lsl #28
    17f4:	00127010 	andseq	r7, r2, r0, lsl r0
    17f8:	52000610 	andpl	r0, r0, #16, 12	; 0x1000000
    17fc:	93530493 	cmpls	r3, #-1828716544	; 0x93000000
    1800:	00127004 	andseq	r7, r2, r4
    1804:	0012aa10 	andseq	sl, r2, r0, lsl sl
    1808:	91000310 	tstls	r0, r0, lsl r3
    180c:	12aa7fa0 	adcne	r7, sl, #160, 30	; 0x280
    1810:	12ce1000 	sbcne	r1, lr, #0
    1814:	00061000 	andeq	r1, r6, r0
    1818:	58049357 	stmdapl	r4, {r0, r1, r2, r4, r6, r8, r9, ip, pc}
    181c:	12ce0493 	sbcne	r0, lr, #-1828716544	; 0x93000000
    1820:	134a1000 	movtne	r1, #40960	; 0xa000
    1824:	00031000 	andeq	r1, r3, r0
    1828:	007fa091 			; <UNDEFINED> instruction: 0x007fa091
    182c:	00000000 	andeq	r0, r0, r0
    1830:	01000000 	mrseq	r0, (UNDEF: 0)
    1834:	00000000 	andeq	r0, r0, r0
    1838:	00000101 	andeq	r0, r0, r1, lsl #2
    183c:	42000000 	andmi	r0, r0, #0
    1840:	56100011 			; <UNDEFINED> instruction: 0x56100011
    1844:	02100011 	andseq	r0, r0, #17
    1848:	569f3000 	ldrpl	r3, [pc], r0
    184c:	7a100011 	bvc	401898 <__RAM_SIZE+0x301898>
    1850:	03100011 	tsteq	r0, #17
    1854:	7fac9100 	svcvc	0x00ac9100
    1858:	10001202 	andne	r1, r0, r2, lsl #4
    185c:	10001202 	andne	r1, r0, r2, lsl #4
    1860:	9f300002 	svcls	0x00300002
    1864:	10001202 	andne	r1, r0, r2, lsl #4
    1868:	10001218 	andne	r1, r0, r8, lsl r2
    186c:	9f310002 	svcls	0x00310002
    1870:	10001218 	andne	r1, r0, r8, lsl r2
    1874:	100013f2 	strdne	r1, [r0], -r2
    1878:	ac910003 	ldcge	0, cr0, [r1], {3}
    187c:	0013fc7f 	andseq	pc, r3, pc, ror ip	; <UNPREDICTABLE>
    1880:	00146610 	andseq	r6, r4, r0, lsl r6
    1884:	91000310 	tstls	r0, r0, lsl r3
    1888:	00007fac 	andeq	r7, r0, ip, lsr #31
	...
    189c:	10001226 	andne	r1, r0, r6, lsr #4
    18a0:	10001229 	andne	r1, r0, r9, lsr #4
    18a4:	29500001 	ldmdbcs	r0, {r0}^
    18a8:	76100012 			; <UNDEFINED> instruction: 0x76100012
    18ac:	01100013 	tsteq	r0, r3, lsl r0
    18b0:	13765600 	cmnne	r6, #0, 12
    18b4:	13b61000 			; <UNDEFINED> instruction: 0x13b61000
    18b8:	00011000 	andeq	r1, r1, r0
    18bc:	0013b652 	andseq	fp, r3, r2, asr r6
    18c0:	0013f210 	andseq	pc, r3, r0, lsl r2	; <UNPREDICTABLE>
    18c4:	56000110 			; <UNDEFINED> instruction: 0x56000110
    18c8:	100013fc 	strdne	r1, [r0], -ip
    18cc:	10001466 	andne	r1, r0, r6, ror #8
    18d0:	00560001 	subseq	r0, r6, r1
	...
    18dc:	50000000 	andpl	r0, r0, r0
    18e0:	53100012 	tstpl	r0, #18
    18e4:	06100012 			; <UNDEFINED> instruction: 0x06100012
    18e8:	04935200 	ldreq	r5, [r3], #512	; 0x200
    18ec:	53049353 	movwpl	r9, #17235	; 0x4353
    18f0:	6e100012 	mrcvs	0, 0, r0, cr0, cr2, {0}
    18f4:	03100012 	tsteq	r0, #18
    18f8:	7fa09100 	svcvc	0x00a09100
	...
    1904:	01000000 	mrseq	r0, (UNDEF: 0)
    1908:	00000001 	andeq	r0, r0, r1
    190c:	00010100 	andeq	r0, r1, r0, lsl #2
    1910:	10001256 	andne	r1, r0, r6, asr r2
    1914:	10001259 	andne	r1, r0, r9, asr r2
    1918:	59500001 	ldmdbpl	r0, {r0}^
    191c:	8e100012 	mrchi	0, 0, r0, cr0, cr2, {0}
    1920:	01100012 	tsteq	r0, r2, lsl r0
    1924:	128e5700 	addne	r5, lr, #0, 14
    1928:	12921000 	addsne	r1, r2, #0
    192c:	00021000 	andeq	r1, r2, r0
    1930:	12929f30 	addsne	r9, r2, #48, 30	; 0xc0
    1934:	12a81000 	adcne	r1, r8, #0
    1938:	00011000 	andeq	r1, r1, r0
    193c:	0012ce57 	andseq	ip, r2, r7, asr lr
    1940:	00131210 	andseq	r1, r3, r0, lsl r2
    1944:	57000110 	smladpl	r0, r0, r1, r0
    1948:	10001312 	andne	r1, r0, r2, lsl r3
    194c:	1000131e 	andne	r1, r0, lr, lsl r3
    1950:	00510001 	subseq	r0, r1, r1
	...
    195c:	ea000000 	b	1964 <__HEAP_SIZE+0x964>
    1960:	24100012 	ldrcs	r0, [r0], #-18	; 0xffffffee
    1964:	01100013 	tsteq	r0, r3, lsl r0
    1968:	13245500 			; <UNDEFINED> instruction: 0x13245500
    196c:	13381000 	teqne	r8, #0
    1970:	00011000 	andeq	r1, r1, r0
    1974:	00000053 	andeq	r0, r0, r3, asr r0
    1978:	00000000 	andeq	r0, r0, r0
    197c:	000c1400 	andeq	r1, ip, r0, lsl #8
    1980:	000c1810 	andeq	r1, ip, r0, lsl r8
    1984:	7d000210 	sfmvc	f0, 4, [r0, #-64]	; 0xffffffc0
    1988:	000c1800 	andeq	r1, ip, r0, lsl #16
    198c:	000c1a10 	andeq	r1, ip, r0, lsl sl
    1990:	7d000210 	sfmvc	f0, 4, [r0, #-64]	; 0xffffffc0
    1994:	000c1a24 	andeq	r1, ip, r4, lsr #20
    1998:	000cd610 	andeq	sp, ip, r0, lsl r6
    199c:	7d000310 	stcvc	3, cr0, [r0, #-64]	; 0xffffffc0
    19a0:	0cd600f8 	ldcleq	0, cr0, [r6], {248}	; 0xf8
    19a4:	0cda1000 	ldcleq	0, cr1, [sl], {0}
    19a8:	00021000 	andeq	r1, r2, r0
    19ac:	0000247d 	andeq	r2, r0, sp, ror r4
	...
    19bc:	0c140000 	ldceq	0, cr0, [r4], {-0}
    19c0:	0c4a1000 	mareq	acc0, r1, sl
    19c4:	00011000 	andeq	r1, r1, r0
    19c8:	000c4a50 	andeq	r4, ip, r0, asr sl
    19cc:	000ca810 	andeq	sl, ip, r0, lsl r8
    19d0:	91000310 	tstls	r0, r0, lsl r3
    19d4:	0ca87fac 	stceq	15, cr7, [r8], #688	; 0x2b0
    19d8:	0cac1000 	stceq	0, cr1, [ip]
    19dc:	00011000 	andeq	r1, r1, r0
    19e0:	000cac50 	andeq	sl, ip, r0, asr ip
    19e4:	000cda10 	andeq	sp, ip, r0, lsl sl
    19e8:	91000310 	tstls	r0, r0, lsl r3
    19ec:	00007fac 	andeq	r7, r0, ip, lsr #31
	...
    19fc:	0c140000 	ldceq	0, cr0, [r4], {-0}
    1a00:	0c4a1000 	mareq	acc0, r1, sl
    1a04:	00011000 	andeq	r1, r1, r0
    1a08:	000c4a51 	andeq	r4, ip, r1, asr sl
    1a0c:	000ca810 	andeq	sl, ip, r0, lsl r8
    1a10:	91000310 	tstls	r0, r0, lsl r3
    1a14:	0ca87fb0 	stceq	15, cr7, [r8], #704	; 0x2c0
    1a18:	0cac1000 	stceq	0, cr1, [ip]
    1a1c:	00011000 	andeq	r1, r1, r0
    1a20:	000cac51 	andeq	sl, ip, r1, asr ip
    1a24:	000cda10 	andeq	sp, ip, r0, lsl sl
    1a28:	91000310 	tstls	r0, r0, lsl r3
    1a2c:	00007fb0 			; <UNDEFINED> instruction: 0x00007fb0
	...
    1a3c:	0c140000 	ldceq	0, cr0, [r4], {-0}
    1a40:	0c4a1000 	mareq	acc0, r1, sl
    1a44:	00011000 	andeq	r1, r1, r0
    1a48:	000c4a52 	andeq	r4, ip, r2, asr sl
    1a4c:	000ca810 	andeq	sl, ip, r0, lsl r8
    1a50:	91000310 	tstls	r0, r0, lsl r3
    1a54:	0ca87fb4 	stceq	15, cr7, [r8], #720	; 0x2d0
    1a58:	0cac1000 	stceq	0, cr1, [ip]
    1a5c:	00011000 	andeq	r1, r1, r0
    1a60:	000cac52 	andeq	sl, ip, r2, asr ip
    1a64:	000cda10 	andeq	sp, ip, r0, lsl sl
    1a68:	91000310 	tstls	r0, r0, lsl r3
    1a6c:	00007fb4 			; <UNDEFINED> instruction: 0x00007fb4
	...
    1a78:	0c140000 	ldceq	0, cr0, [r4], {-0}
    1a7c:	0c341000 	ldceq	0, cr1, [r4], #-0
    1a80:	00011000 	andeq	r1, r1, r0
    1a84:	000c3453 	andeq	r3, ip, r3, asr r4
    1a88:	000cda10 	andeq	sp, ip, r0, lsl sl
    1a8c:	5b000110 	blpl	1ed4 <__HEAP_SIZE+0xed4>
	...
    1aa0:	0c140000 	ldceq	0, cr0, [r4], {-0}
    1aa4:	0c4a1000 	mareq	acc0, r1, sl
    1aa8:	00021000 	andeq	r1, r2, r0
    1aac:	0c4a0091 	mcrreq	0, 9, r0, sl, cr1
    1ab0:	0c6c1000 	stcleq	0, cr1, [ip], #-0
    1ab4:	00061000 	andeq	r1, r6, r0
    1ab8:	56049355 			; <UNDEFINED> instruction: 0x56049355
    1abc:	0c6c0493 	cfstrdeq	mvd0, [ip], #-588	; 0xfffffdb4
    1ac0:	0c801000 	stceq	0, cr1, [r0], {0}
    1ac4:	00061000 	andeq	r1, r6, r0
    1ac8:	51049350 	tstpl	r4, r0, asr r3
    1acc:	0c800493 	cfstrseq	mvf0, [r0], {147}	; 0x93
    1ad0:	0ca81000 	stceq	0, cr1, [r8]
    1ad4:	00061000 	andeq	r1, r6, r0
    1ad8:	56049355 			; <UNDEFINED> instruction: 0x56049355
    1adc:	0ca80493 	cfstrseq	mvf0, [r8], #588	; 0x24c
    1ae0:	0cac1000 	stceq	0, cr1, [ip]
    1ae4:	00021000 	andeq	r1, r2, r0
    1ae8:	00000091 	muleq	r0, r1, r0
	...
    1af4:	0c140000 	ldceq	0, cr0, [r4], {-0}
    1af8:	0c3a1000 	ldceq	0, cr1, [sl], #-0
    1afc:	00021000 	andeq	r1, r2, r0
    1b00:	0c3a2091 	ldceq	0, cr2, [sl], #-580	; 0xfffffdbc
    1b04:	0cda1000 	ldcleq	0, cr1, [sl], {0}
    1b08:	00011000 	andeq	r1, r1, r0
    1b0c:	0000005a 	andeq	r0, r0, sl, asr r0
    1b10:	00000000 	andeq	r0, r0, r0
    1b14:	00000200 	andeq	r0, r0, r0, lsl #4
	...
    1b20:	000c3000 	andeq	r3, ip, r0
    1b24:	000c4a10 	andeq	r4, ip, r0, lsl sl
    1b28:	30000210 	andcc	r0, r0, r0, lsl r2
    1b2c:	000c4a9f 	muleq	ip, pc, sl	; <UNPREDICTABLE>
    1b30:	000c5410 	andeq	r5, ip, r0, lsl r4
    1b34:	54000110 	strpl	r0, [r0], #-272	; 0xfffffef0
    1b38:	10000c54 	andne	r0, r0, r4, asr ip
    1b3c:	10000c80 	andne	r0, r0, r0, lsl #25
    1b40:	80590001 	subshi	r0, r9, r1
    1b44:	a810000c 	ldmdage	r0, {r2, r3}
    1b48:	0110000c 	tsteq	r0, ip
    1b4c:	0ca85400 	cfstrseq	mvf5, [r8]
    1b50:	0cac1000 	stceq	0, cr1, [ip]
    1b54:	00021000 	andeq	r1, r2, r0
    1b58:	0cac9f30 	stceq	15, cr9, [ip], #192	; 0xc0
    1b5c:	0cda1000 	ldcleq	0, cr1, [sl], {0}
    1b60:	00011000 	andeq	r1, r1, r0
    1b64:	00000059 	andeq	r0, r0, r9, asr r0
	...
    1b70:	000c4a00 	andeq	r4, ip, r0, lsl #20
    1b74:	000c5810 	andeq	r5, ip, r0, lsl r8
    1b78:	53000110 	movwpl	r0, #272	; 0x110
    1b7c:	10000c8e 	andne	r0, r0, lr, lsl #25
    1b80:	10000ca8 	andne	r0, r0, r8, lsr #25
    1b84:	00530001 	subseq	r0, r3, r1
    1b88:	00000000 	andeq	r0, r0, r0
    1b8c:	80000000 	andhi	r0, r0, r0
    1b90:	8210000b 	andshi	r0, r0, #11
    1b94:	0210000b 	andseq	r0, r0, #11
    1b98:	82007d00 	andhi	r7, r0, #0, 26
    1b9c:	8410000b 	ldrhi	r0, [r0], #-11
    1ba0:	0210000b 	andseq	r0, r0, #11
    1ba4:	84147d00 	ldrhi	r7, [r4], #-3328	; 0xfffff300
    1ba8:	1210000b 	andsne	r0, r0, #11
    1bac:	0310000c 	tsteq	r0, #12
    1bb0:	00d87d00 	sbcseq	r7, r8, r0, lsl #26
    1bb4:	10000c12 	andne	r0, r0, r2, lsl ip
    1bb8:	10000c14 	andne	r0, r0, r4, lsl ip
    1bbc:	147d0002 	ldrbtne	r0, [sp], #-2
	...
    1bcc:	10000b80 	andne	r0, r0, r0, lsl #23
    1bd0:	10000c0f 	andne	r0, r0, pc, lsl #24
    1bd4:	0f500001 	svceq	0x00500001
    1bd8:	1410000c 	ldrne	r0, [r0], #-12
    1bdc:	0410000c 	ldreq	r0, [r0], #-12
    1be0:	5001f300 	andpl	pc, r1, r0, lsl #6
    1be4:	0000009f 	muleq	r0, pc, r0	; <UNPREDICTABLE>
	...
    1bf0:	000b8000 	andeq	r8, fp, r0
    1bf4:	000c0f10 	andeq	r0, ip, r0, lsl pc
    1bf8:	51000110 	tstpl	r0, r0, lsl r1
    1bfc:	10000c0f 	andne	r0, r0, pc, lsl #24
    1c00:	10000c14 	andne	r0, r0, r4, lsl ip
    1c04:	01f30004 	mvnseq	r0, r4
    1c08:	00009f51 	andeq	r9, r0, r1, asr pc
	...
    1c14:	0b800000 	bleq	fe001c1c <__StackTop+0xc5f01c1c>
    1c18:	0c0f1000 	stceq	0, cr1, [pc], {-0}
    1c1c:	00011000 	andeq	r1, r1, r0
    1c20:	000c0f52 	andeq	r0, ip, r2, asr pc
    1c24:	000c1410 	andeq	r1, ip, r0, lsl r4
    1c28:	f3000410 	vqshl.u8	d0, d0, d0
    1c2c:	009f5201 	addseq	r5, pc, r1, lsl #4
	...
    1c38:	80000000 	andhi	r0, r0, r0
    1c3c:	0f10000b 	svceq	0x0010000b
    1c40:	0110000c 	tsteq	r0, ip
    1c44:	0c0f5300 	stceq	3, cr5, [pc], {-0}
    1c48:	0c141000 	ldceq	0, cr1, [r4], {-0}
    1c4c:	00041000 	andeq	r1, r4, r0
    1c50:	9f5301f3 	svcls	0x005301f3
	...
    1c64:	0b800000 	bleq	fe001c6c <__StackTop+0xc5f01c6c>
    1c68:	0b9e1000 	bleq	fe785c70 <__StackTop+0xc6685c70>
    1c6c:	00021000 	andeq	r1, r2, r0
    1c70:	0b9e0091 	bleq	fe781ebc <__StackTop+0xc6681ebc>
    1c74:	0bb81000 	bleq	fee05c7c <__StackTop+0xc6d05c7c>
    1c78:	00011000 	andeq	r1, r1, r0
    1c7c:	000bb854 	andeq	fp, fp, r4, asr r8
    1c80:	000bc410 	andeq	ip, fp, r0, lsl r4
    1c84:	5c000110 	stfpls	f0, [r0], {16}
    1c88:	10000bc4 	andne	r0, r0, r4, asr #23
    1c8c:	10000bf2 	strdne	r0, [r0], -r2
    1c90:	f2540001 	vhadd.s16	d16, d4, d1
    1c94:	f410000b 			; <UNDEFINED> instruction: 0xf410000b
    1c98:	0210000b 	andseq	r0, r0, #11
    1c9c:	00009100 	andeq	r9, r0, r0, lsl #2
	...
    1ca8:	80000000 	andhi	r0, r0, r0
    1cac:	9010000b 	andsls	r0, r0, fp
    1cb0:	0210000b 	andseq	r0, r0, #11
    1cb4:	90149100 	andsls	r9, r4, r0, lsl #2
    1cb8:	1410000b 	ldrne	r0, [r0], #-11
    1cbc:	0110000c 	tsteq	r0, ip
    1cc0:	00005600 	andeq	r5, r0, r0, lsl #12
    1cc4:	00000000 	andeq	r0, r0, r0
    1cc8:	00020000 	andeq	r0, r2, r0
	...
    1cd4:	0b8a0000 	bleq	fe281cdc <__StackTop+0xc6181cdc>
    1cd8:	0b9e1000 	bleq	fe785ce0 <__StackTop+0xc6685ce0>
    1cdc:	00021000 	andeq	r1, r2, r0
    1ce0:	0b9e9f30 	bleq	fe7a99a8 <__StackTop+0xc66a99a8>
    1ce4:	0baa1000 	bleq	fea85cec <__StackTop+0xc6985cec>
    1ce8:	00011000 	andeq	r1, r1, r0
    1cec:	000baa5e 	andeq	sl, fp, lr, asr sl
    1cf0:	000bc410 	andeq	ip, fp, r0, lsl r4
    1cf4:	57000110 	smladpl	r0, r0, r1, r0
    1cf8:	10000bc4 	andne	r0, r0, r4, asr #23
    1cfc:	10000bf2 	strdne	r0, [r0], -r2
    1d00:	f25e0001 	vhadd.s16	d16, d14, d1
    1d04:	f410000b 			; <UNDEFINED> instruction: 0xf410000b
    1d08:	0210000b 	andseq	r0, r0, #11
    1d0c:	f49f3000 			; <UNDEFINED> instruction: 0xf49f3000
    1d10:	1410000b 	ldrne	r0, [r0], #-11
    1d14:	0110000c 	tsteq	r0, ip
    1d18:	00005700 	andeq	r5, r0, r0, lsl #14
	...
    1d2c:	0b9e0000 	bleq	fe781d34 <__StackTop+0xc6681d34>
    1d30:	0ba21000 	bleq	fe885d38 <__StackTop+0xc6785d38>
    1d34:	00011000 	andeq	r1, r1, r0
    1d38:	000ba25c 	andeq	sl, fp, ip, asr r2
    1d3c:	000ba610 	andeq	sl, fp, r0, lsl r6
    1d40:	7c000310 	stcvc	3, cr0, [r0], {16}
    1d44:	0ba69f50 	bleq	fe9a9a8c <__StackTop+0xc68a9a8c>
    1d48:	0bc41000 	bleq	ff105d50 <__StackTop+0xc7005d50>
    1d4c:	00121000 	andseq	r1, r2, r0
    1d50:	00740074 	rsbseq	r0, r4, r4, ror r0
    1d54:	007530f7 	ldrshteq	r3, [r5], #-7
    1d58:	f71b30f7 			; <UNDEFINED> instruction: 0xf71b30f7
    1d5c:	1e007500 	cfsh32ne	mvfx7, mvfx0, #0
    1d60:	0bd09f1c 	bleq	ff4299d8 <__StackTop+0xc73299d8>
    1d64:	0be01000 	bleq	ff805d6c <__StackTop+0xc7705d6c>
    1d68:	00011000 	andeq	r1, r1, r0
    1d6c:	000be05c 	andeq	lr, fp, ip, asr r0
    1d70:	000bee10 	andeq	lr, fp, r0, lsl lr
    1d74:	74001210 	strvc	r1, [r0], #-528	; 0xfffffdf0
    1d78:	f7007400 			; <UNDEFINED> instruction: 0xf7007400
    1d7c:	f7007530 			; <UNDEFINED> instruction: 0xf7007530
    1d80:	00f71b30 	rscseq	r1, r7, r0, lsr fp
    1d84:	1c1e0075 	ldcne	0, cr0, [lr], {117}	; 0x75
    1d88:	000bee9f 	muleq	fp, pc, lr	; <UNPREDICTABLE>
    1d8c:	000bf210 	andeq	pc, fp, r0, lsl r2	; <UNPREDICTABLE>
    1d90:	5c000110 	stfpls	f0, [r0], {16}
	...
    1d9c:	10000a48 	andne	r0, r0, r8, asr #20
    1da0:	10000a4c 	andne	r0, r0, ip, asr #20
    1da4:	007d0002 	rsbseq	r0, sp, r2
    1da8:	10000a4c 	andne	r0, r0, ip, asr #20
    1dac:	10000a4e 	andne	r0, r0, lr, asr #20
    1db0:	1c7d0002 	ldclne	0, cr0, [sp], #-8
    1db4:	10000a4e 	andne	r0, r0, lr, asr #20
    1db8:	10000b04 	andne	r0, r0, r4, lsl #22
    1dbc:	307d0002 	rsbscc	r0, sp, r2
    1dc0:	10000b04 	andne	r0, r0, r4, lsl #22
    1dc4:	10000b08 	andne	r0, r0, r8, lsl #22
    1dc8:	1c7d0002 	ldclne	0, cr0, [sp], #-8
    1dcc:	10000b08 	andne	r0, r0, r8, lsl #22
    1dd0:	10000b80 	andne	r0, r0, r0, lsl #23
    1dd4:	307d0002 	rsbscc	r0, sp, r2
	...
    1de4:	0a480000 	beq	1201dec <__RAM_SIZE+0x1101dec>
    1de8:	0b011000 	bleq	45df0 <__HEAP_SIZE+0x44df0>
    1dec:	00011000 	andeq	r1, r1, r0
    1df0:	000b0150 	andeq	r0, fp, r0, asr r1
    1df4:	000b0810 	andeq	r0, fp, r0, lsl r8
    1df8:	f3000410 	vqshl.u8	d0, d0, d0
    1dfc:	089f5001 	ldmeq	pc, {r0, ip, lr}	; <UNPREDICTABLE>
    1e00:	8010000b 	andshi	r0, r0, fp
    1e04:	0110000b 	tsteq	r0, fp
    1e08:	00005000 	andeq	r5, r0, r0
	...
    1e18:	10000a48 	andne	r0, r0, r8, asr #20
    1e1c:	10000b01 	andne	r0, r0, r1, lsl #22
    1e20:	01510001 	cmpeq	r1, r1
    1e24:	0810000b 	ldmdaeq	r0, {r0, r1, r3}
    1e28:	0410000b 	ldreq	r0, [r0], #-11
    1e2c:	5101f300 	mrspl	pc, SP_irq	; <UNPREDICTABLE>
    1e30:	000b089f 	muleq	fp, pc, r8	; <UNPREDICTABLE>
    1e34:	000b8010 	andeq	r8, fp, r0, lsl r0
    1e38:	51000110 	tstpl	r0, r0, lsl r1
	...
    1e48:	0a480000 	beq	1201e50 <__RAM_SIZE+0x1101e50>
    1e4c:	0b011000 	bleq	45e54 <__HEAP_SIZE+0x44e54>
    1e50:	00011000 	andeq	r1, r1, r0
    1e54:	000b0152 	andeq	r0, fp, r2, asr r1
    1e58:	000b0810 	andeq	r0, fp, r0, lsl r8
    1e5c:	f3000410 	vqshl.u8	d0, d0, d0
    1e60:	089f5201 	ldmeq	pc, {r0, r9, ip, lr}	; <UNPREDICTABLE>
    1e64:	8010000b 	andshi	r0, r0, fp
    1e68:	0110000b 	tsteq	r0, fp
    1e6c:	00005200 	andeq	r5, r0, r0, lsl #4
	...
    1e7c:	10000a48 	andne	r0, r0, r8, asr #20
    1e80:	10000b01 	andne	r0, r0, r1, lsl #22
    1e84:	01530001 	cmpeq	r3, r1
    1e88:	0810000b 	ldmdaeq	r0, {r0, r1, r3}
    1e8c:	0410000b 	ldreq	r0, [r0], #-11
    1e90:	5301f300 	movwpl	pc, #4864	; 0x1300	; <UNPREDICTABLE>
    1e94:	000b089f 	muleq	fp, pc, r8	; <UNPREDICTABLE>
    1e98:	000b8010 	andeq	r8, fp, r0, lsl r0
    1e9c:	53000110 	movwpl	r0, #272	; 0x110
	...
    1eac:	10000a48 	andne	r0, r0, r8, asr #20
    1eb0:	10000b08 	andne	r0, r0, r8, lsl #22
    1eb4:	00910002 	addseq	r0, r1, r2
    1eb8:	10000b08 	andne	r0, r0, r8, lsl #22
    1ebc:	10000b80 	andne	r0, r0, r0, lsl #23
    1ec0:	00910002 	addseq	r0, r1, r2
	...
    1ecc:	01000000 	mrseq	r0, (UNDEF: 0)
    1ed0:	01000001 	tsteq	r0, r1
    1ed4:	01000001 	tsteq	r0, r1
    1ed8:	01000001 	tsteq	r0, r1
    1edc:	01000001 	tsteq	r0, r1
    1ee0:	00000001 	andeq	r0, r0, r1
    1ee4:	00000000 	andeq	r0, r0, r0
    1ee8:	00010100 	andeq	r0, r1, r0, lsl #2
    1eec:	00010100 	andeq	r0, r1, r0, lsl #2
    1ef0:	00010100 	andeq	r0, r1, r0, lsl #2
    1ef4:	00010100 	andeq	r0, r1, r0, lsl #2
    1ef8:	00010100 	andeq	r0, r1, r0, lsl #2
    1efc:	0a480000 	beq	1201f04 <__RAM_SIZE+0x1101f04>
    1f00:	0a801000 	beq	fe005f08 <__StackTop+0xc5f05f08>
    1f04:	00021000 	andeq	r1, r2, r0
    1f08:	0a800491 	beq	fe003154 <__StackTop+0xc5f03154>
    1f0c:	0a801000 	beq	fe005f14 <__StackTop+0xc5f05f14>
    1f10:	00011000 	andeq	r1, r1, r0
    1f14:	000a8054 	andeq	r8, sl, r4, asr r0
    1f18:	000a8a10 	andeq	r8, sl, r0, lsl sl
    1f1c:	74000310 	strvc	r0, [r0], #-784	; 0xfffffcf0
    1f20:	0a8a9f01 	beq	fe2a9b2c <__StackTop+0xc61a9b2c>
    1f24:	0aa01000 	beq	fe805f2c <__StackTop+0xc6705f2c>
    1f28:	00011000 	andeq	r1, r1, r0
    1f2c:	000aa054 	andeq	sl, sl, r4, asr r0
    1f30:	000aaa10 	andeq	sl, sl, r0, lsl sl
    1f34:	74000310 	strvc	r0, [r0], #-784	; 0xfffffcf0
    1f38:	0aaa9f01 	beq	feaa9b44 <__StackTop+0xc69a9b44>
    1f3c:	0ad81000 	beq	ff605f44 <__StackTop+0xc7505f44>
    1f40:	00011000 	andeq	r1, r1, r0
    1f44:	000ad854 	andeq	sp, sl, r4, asr r8
    1f48:	000ae210 	andeq	lr, sl, r0, lsl r2
    1f4c:	74000310 	strvc	r0, [r0], #-784	; 0xfffffcf0
    1f50:	0ae29f01 	beq	ff8a9b5c <__StackTop+0xc77a9b5c>
    1f54:	0aec1000 	beq	ffb05f5c <__StackTop+0xc7a05f5c>
    1f58:	00011000 	andeq	r1, r1, r0
    1f5c:	000aec54 	andeq	lr, sl, r4, asr ip
    1f60:	000af610 	andeq	pc, sl, r0, lsl r6	; <UNPREDICTABLE>
    1f64:	74000310 	strvc	r0, [r0], #-784	; 0xfffffcf0
    1f68:	0af69f01 	beq	ffda9b74 <__StackTop+0xc7ca9b74>
    1f6c:	0b081000 	bleq	205f74 <__RAM_SIZE+0x105f74>
    1f70:	00011000 	andeq	r1, r1, r0
    1f74:	000b0854 	andeq	r0, fp, r4, asr r8
    1f78:	000b0c10 	andeq	r0, fp, r0, lsl ip
    1f7c:	74000310 	strvc	r0, [r0], #-784	; 0xfffffcf0
    1f80:	0b0c9f7f 	bleq	329d84 <__RAM_SIZE+0x229d84>
    1f84:	0b1a1000 	bleq	685f8c <__RAM_SIZE+0x585f8c>
    1f88:	00011000 	andeq	r1, r1, r0
    1f8c:	000b1a5c 	andeq	r1, fp, ip, asr sl
    1f90:	000b1c10 	andeq	r1, fp, r0, lsl ip
    1f94:	54000110 	strpl	r0, [r0], #-272	; 0xfffffef0
    1f98:	10000b1c 	andne	r0, r0, ip, lsl fp
    1f9c:	10000b20 	andne	r0, r0, r0, lsr #22
    1fa0:	205c0001 	subscs	r0, ip, r1
    1fa4:	2a10000b 	bcs	401fd8 <__RAM_SIZE+0x301fd8>
    1fa8:	0110000b 	tsteq	r0, fp
    1fac:	0b2a5400 	bleq	a96fb4 <__RAM_SIZE+0x996fb4>
    1fb0:	0b341000 	bleq	d05fb8 <__RAM_SIZE+0xc05fb8>
    1fb4:	00031000 	andeq	r1, r3, r0
    1fb8:	349f0174 	ldrcc	r0, [pc], #372	; 1fc0 <__HEAP_SIZE+0xfc0>
    1fbc:	4010000b 	andsmi	r0, r0, fp
    1fc0:	0110000b 	tsteq	r0, fp
    1fc4:	0b405400 	bleq	1016fcc <__RAM_SIZE+0xf16fcc>
    1fc8:	0b4a1000 	bleq	1285fd0 <__RAM_SIZE+0x1185fd0>
    1fcc:	00031000 	andeq	r1, r3, r0
    1fd0:	4a9f0174 	bmi	fe7c25a8 <__StackTop+0xc66c25a8>
    1fd4:	5010000b 	andspl	r0, r0, fp
    1fd8:	0110000b 	tsteq	r0, fp
    1fdc:	0b505400 	bleq	1416fe4 <__RAM_SIZE+0x1316fe4>
    1fe0:	0b5a1000 	bleq	1685fe8 <__RAM_SIZE+0x1585fe8>
    1fe4:	00031000 	andeq	r1, r3, r0
    1fe8:	5a9f0174 	bpl	fe7c25c0 <__StackTop+0xc66c25c0>
    1fec:	6210000b 	andsvs	r0, r0, #11
    1ff0:	0110000b 	tsteq	r0, fp
    1ff4:	0b625400 	bleq	1896ffc <__RAM_SIZE+0x1796ffc>
    1ff8:	0b6c1000 	bleq	1b06000 <__RAM_SIZE+0x1a06000>
    1ffc:	00031000 	andeq	r1, r3, r0
    2000:	6c9f0174 	ldfvss	f0, [pc], {116}	; 0x74
    2004:	7410000b 	ldrvc	r0, [r0], #-11
    2008:	0110000b 	tsteq	r0, fp
    200c:	0b745400 	bleq	1d17014 <__RAM_SIZE+0x1c17014>
    2010:	0b7e1000 	bleq	1f86018 <__RAM_SIZE+0x1e86018>
    2014:	00031000 	andeq	r1, r3, r0
    2018:	7e9f0174 	mrcvc	1, 4, r0, cr15, cr4, {3}
    201c:	8010000b 	andshi	r0, r0, fp
    2020:	0110000b 	tsteq	r0, fp
    2024:	00005400 	andeq	r5, r0, r0, lsl #8
	...
    2030:	0a480000 	beq	1202038 <__RAM_SIZE+0x1102038>
    2034:	0b081000 	bleq	20603c <__RAM_SIZE+0x10603c>
    2038:	00021000 	andeq	r1, r2, r0
    203c:	0b080891 	bleq	204288 <__RAM_SIZE+0x104288>
    2040:	0b801000 	bleq	fe006048 <__StackTop+0xc5f06048>
    2044:	00021000 	andeq	r1, r2, r0
    2048:	00000891 	muleq	r0, r1, r8
	...
    2054:	0a480000 	beq	120205c <__RAM_SIZE+0x110205c>
    2058:	0b081000 	bleq	206060 <__RAM_SIZE+0x106060>
    205c:	00021000 	andeq	r1, r2, r0
    2060:	0b080c91 	bleq	2052ac <__RAM_SIZE+0x1052ac>
    2064:	0b801000 	bleq	fe00606c <__StackTop+0xc5f0606c>
    2068:	00021000 	andeq	r1, r2, r0
    206c:	00000c91 	muleq	r0, r1, ip
	...
    2078:	0a480000 	beq	1202080 <__RAM_SIZE+0x1102080>
    207c:	0b081000 	bleq	206084 <__RAM_SIZE+0x106084>
    2080:	00021000 	andeq	r1, r2, r0
    2084:	0b081091 	bleq	2062d0 <__RAM_SIZE+0x1062d0>
    2088:	0b801000 	bleq	fe006090 <__StackTop+0xc5f06090>
    208c:	00021000 	andeq	r1, r2, r0
    2090:	00001091 	muleq	r0, r1, r0
	...
    209c:	0a480000 	beq	12020a4 <__RAM_SIZE+0x11020a4>
    20a0:	0a7e1000 	beq	1f860a8 <__RAM_SIZE+0x1e860a8>
    20a4:	00021000 	andeq	r1, r2, r0
    20a8:	0a7e1491 	beq	1f872f4 <__RAM_SIZE+0x1e872f4>
    20ac:	0b801000 	bleq	fe0060b4 <__StackTop+0xc5f060b4>
    20b0:	00011000 	andeq	r1, r1, r0
    20b4:	00000057 	andeq	r0, r0, r7, asr r0
	...
    20c0:	000a4800 	andeq	r4, sl, r0, lsl #16
    20c4:	000b0810 	andeq	r0, fp, r0, lsl r8
    20c8:	91000210 	tstls	r0, r0, lsl r2
    20cc:	000b0818 	andeq	r0, fp, r8, lsl r8
    20d0:	000b8010 	andeq	r8, fp, r0, lsl r0
    20d4:	91000210 	tstls	r0, r0, lsl r2
    20d8:	00000018 	andeq	r0, r0, r8, lsl r0
    20dc:	00000000 	andeq	r0, r0, r0
    20e0:	0009ca00 	andeq	ip, r9, r0, lsl #20
    20e4:	0009ce10 	andeq	ip, r9, r0, lsl lr
    20e8:	7d000210 	sfmvc	f0, 4, [r0, #-64]	; 0xffffffc0
    20ec:	0009ce00 	andeq	ip, r9, r0, lsl #28
    20f0:	0009d010 	andeq	sp, r9, r0, lsl r0
    20f4:	7d000210 	sfmvc	f0, 4, [r0, #-64]	; 0xffffffc0
    20f8:	0009d024 	andeq	sp, r9, r4, lsr #32
    20fc:	000a2e10 	andeq	r2, sl, r0, lsl lr
    2100:	7d000210 	sfmvc	f0, 4, [r0, #-64]	; 0xffffffc0
    2104:	000a2e30 	andeq	r2, sl, r0, lsr lr
    2108:	000a3210 	andeq	r3, sl, r0, lsl r2
    210c:	7d000210 	sfmvc	f0, 4, [r0, #-64]	; 0xffffffc0
    2110:	000a3224 	andeq	r3, sl, r4, lsr #4
    2114:	000a4810 	andeq	r4, sl, r0, lsl r8
    2118:	7d000210 	sfmvc	f0, 4, [r0, #-64]	; 0xffffffc0
    211c:	00000030 	andeq	r0, r0, r0, lsr r0
	...
    2128:	0009ca00 	andeq	ip, r9, r0, lsl #20
    212c:	0009ee10 	andeq	lr, r9, r0, lsl lr
    2130:	50000110 	andpl	r0, r0, r0, lsl r1
    2134:	100009ee 	andne	r0, r0, lr, ror #19
    2138:	10000a48 	andne	r0, r0, r8, asr #20
    213c:	00550001 	subseq	r0, r5, r1
	...
    2148:	ca000000 	bgt	2150 <__HEAP_SIZE+0x1150>
    214c:	ee100009 	cdp	0, 1, cr0, cr0, cr9, {0}
    2150:	01100009 	tsteq	r0, r9
    2154:	09ee5100 	stmibeq	lr!, {r8, ip, lr}^
    2158:	0a481000 	beq	1206160 <__RAM_SIZE+0x1106160>
    215c:	00011000 	andeq	r1, r1, r0
    2160:	00000056 	andeq	r0, r0, r6, asr r0
	...
    2174:	0009ca00 	andeq	ip, r9, r0, lsl #20
    2178:	0009f610 	andeq	pc, r9, r0, lsl r6	; <UNPREDICTABLE>
    217c:	52000110 	andpl	r0, r0, #16, 2
    2180:	100009f6 	strdne	r0, [r0], -r6
    2184:	10000a06 	andne	r0, r0, r6, lsl #20
    2188:	065b0001 	ldrbeq	r0, [fp], -r1
    218c:	1210000a 	andsne	r0, r0, #10
    2190:	0110000a 	tsteq	r0, sl
    2194:	0a125200 	beq	49699c <__RAM_SIZE+0x39699c>
    2198:	0a1e1000 	beq	7861a0 <__RAM_SIZE+0x6861a0>
    219c:	00011000 	andeq	r1, r1, r0
    21a0:	000a1e58 	andeq	r1, sl, r8, asr lr
    21a4:	000a3c10 	andeq	r3, sl, r0, lsl ip
    21a8:	52000110 	andpl	r0, r0, #16, 2
    21ac:	10000a3c 	andne	r0, r0, ip, lsr sl
    21b0:	10000a48 	andne	r0, r0, r8, asr #20
    21b4:	00540001 	subseq	r0, r4, r1
	...
    21c0:	ca000000 	bgt	21c8 <__HEAP_SIZE+0x11c8>
    21c4:	e4100009 	ldr	r0, [r0], #-9
    21c8:	01100009 	tsteq	r0, r9
    21cc:	09e45300 	stmibeq	r4!, {r8, r9, ip, lr}^
    21d0:	0a481000 	beq	12061d8 <__RAM_SIZE+0x11061d8>
    21d4:	00011000 	andeq	r1, r1, r0
    21d8:	00000057 	andeq	r0, r0, r7, asr r0
	...
    21e4:	0009ca00 	andeq	ip, r9, r0, lsl #20
    21e8:	000a3210 	andeq	r3, sl, r0, lsl r2
    21ec:	91000210 	tstls	r0, r0, lsl r2
    21f0:	000a3200 	andeq	r3, sl, r0, lsl #4
    21f4:	000a4810 	andeq	r4, sl, r0, lsl r8
    21f8:	91000210 	tstls	r0, r0, lsl r2
	...
    2208:	0009ca00 	andeq	ip, r9, r0, lsl #20
    220c:	000a0c10 	andeq	r0, sl, r0, lsl ip
    2210:	91000210 	tstls	r0, r0, lsl r2
    2214:	000a0c04 	andeq	r0, sl, r4, lsl #24
    2218:	000a2a10 	andeq	r2, sl, r0, lsl sl
    221c:	54000110 	strpl	r0, [r0], #-272	; 0xfffffef0
	...
    222c:	100009ca 	andne	r0, r0, sl, asr #19
    2230:	10000a32 	andne	r0, r0, r2, lsr sl
    2234:	08910002 	ldmeq	r1, {r1}
    2238:	10000a32 	andne	r0, r0, r2, lsr sl
    223c:	10000a48 	andne	r0, r0, r8, asr #20
    2240:	08910002 	ldmeq	r1, {r1}
	...
    2250:	100009ca 	andne	r0, r0, sl, asr #19
    2254:	10000a32 	andne	r0, r0, r2, lsr sl
    2258:	0c910002 	ldceq	0, cr0, [r1], {2}
    225c:	10000a32 	andne	r0, r0, r2, lsr sl
    2260:	10000a48 	andne	r0, r0, r8, asr #20
    2264:	0c910002 	ldceq	0, cr0, [r1], {2}
	...
    2270:	00000001 	andeq	r0, r0, r1
    2274:	09e20000 	stmibeq	r2!, {}^	; <UNPREDICTABLE>
    2278:	09ee1000 	stmibeq	lr!, {ip}^
    227c:	00011000 	andeq	r1, r1, r0
    2280:	0009ee52 	andeq	lr, r9, r2, asr lr
    2284:	000a0c10 	andeq	r0, sl, r0, lsl ip
    2288:	91000210 	tstls	r0, r0, lsl r2
    228c:	000a0c54 	andeq	r0, sl, r4, asr ip
    2290:	000a4810 	andeq	r4, sl, r0, lsl r8
    2294:	f3000410 	vqshl.u8	d0, d0, d0
    2298:	009f5201 	addseq	r5, pc, r1, lsl #4
	...
    22a4:	0009ee00 	andeq	lr, r9, r0, lsl #28
    22a8:	000a0c10 	andeq	r0, sl, r0, lsl ip
    22ac:	58000110 	stmdapl	r0, {r4, r8}
	...
    22bc:	100009a6 	andne	r0, r0, r6, lsr #19
    22c0:	100009aa 	andne	r0, r0, sl, lsr #19
    22c4:	aa500001 	bge	14022d0 <__RAM_SIZE+0x13022d0>
    22c8:	ca100009 	bgt	4022f4 <__RAM_SIZE+0x3022f4>
    22cc:	01100009 	tsteq	r0, r9
    22d0:	00005100 	andeq	r5, r0, r0, lsl #2
    22d4:	00000000 	andeq	r0, r0, r0
    22d8:	00010000 	andeq	r0, r1, r0
    22dc:	00000000 	andeq	r0, r0, r0
    22e0:	100009a8 	andne	r0, r0, r8, lsr #19
    22e4:	100009ac 	andne	r0, r0, ip, lsr #19
    22e8:	9f300002 	svcls	0x00300002
    22ec:	100009ac 	andne	r0, r0, ip, lsr #19
    22f0:	100009b0 			; <UNDEFINED> instruction: 0x100009b0
    22f4:	bc500001 	mrrclt	0, 0, r0, r0, cr1	; <UNPREDICTABLE>
    22f8:	ca100009 	bgt	402324 <__RAM_SIZE+0x302324>
    22fc:	01100009 	tsteq	r0, r9
    2300:	00005000 	andeq	r5, r0, r0
	...
    230c:	09c00000 	stmibeq	r0, {}^	; <UNPREDICTABLE>
    2310:	09c21000 	stmibeq	r2, {ip}^
    2314:	00011000 	andeq	r1, r1, r0
    2318:	0009c253 	andeq	ip, r9, r3, asr r2
    231c:	0009c410 	andeq	ip, r9, r0, lsl r4
    2320:	73000310 	movwvc	r0, #784	; 0x310
    2324:	00009f30 	andeq	r9, r0, r0, lsr pc
	...
    2334:	00020000 	andeq	r0, r2, r0
    2338:	0000007d 	andeq	r0, r0, sp, ror r0
    233c:	00000000 	andeq	r0, r0, r0
    2340:	00020000 	andeq	r0, r2, r0
    2344:	0000087d 	andeq	r0, r0, sp, ror r8
    2348:	00000000 	andeq	r0, r0, r0
    234c:	00020000 	andeq	r0, r2, r0
    2350:	0000007d 	andeq	r0, r0, sp, ror r0
	...
    2368:	00500001 	subseq	r0, r0, r1
    236c:	00000000 	andeq	r0, r0, r0
    2370:	04000000 	streq	r0, [r0], #-0
    2374:	5001f300 	andpl	pc, r1, r0, lsl #6
    2378:	0000009f 	muleq	r0, pc, r0	; <UNPREDICTABLE>
    237c:	00000000 	andeq	r0, r0, r0
    2380:	50000100 	andpl	r0, r0, r0, lsl #2
	...
    2398:	00010000 	andeq	r0, r1, r0
    239c:	00000051 	andeq	r0, r0, r1, asr r0
    23a0:	00000000 	andeq	r0, r0, r0
    23a4:	f3000400 	vshl.u8	d0, d0, d0
    23a8:	009f5101 	addseq	r5, pc, r1, lsl #2
    23ac:	00000000 	andeq	r0, r0, r0
    23b0:	01000000 	mrseq	r0, (UNDEF: 0)
    23b4:	00005100 	andeq	r5, r0, r0, lsl #2
	...
    23cc:	00520001 	subseq	r0, r2, r1
    23d0:	00000000 	andeq	r0, r0, r0
    23d4:	04000000 	streq	r0, [r0], #-0
    23d8:	5201f300 	andpl	pc, r1, #0, 6
    23dc:	0000009f 	muleq	r0, pc, r0	; <UNPREDICTABLE>
    23e0:	00000000 	andeq	r0, r0, r0
    23e4:	52000100 	andpl	r0, r0, #0, 2
	...
    23fc:	00010000 	andeq	r0, r1, r0
    2400:	00000053 	andeq	r0, r0, r3, asr r0
    2404:	00000000 	andeq	r0, r0, r0
    2408:	f3000400 	vshl.u8	d0, d0, d0
    240c:	009f5301 	addseq	r5, pc, r1, lsl #6
    2410:	00000000 	andeq	r0, r0, r0
    2414:	01000000 	mrseq	r0, (UNDEF: 0)
    2418:	00005300 	andeq	r5, r0, r0, lsl #6
    241c:	00000000 	andeq	r0, r0, r0
    2420:	1ae80000 	bne	ffa02428 <__StackTop+0xc7902428>
    2424:	1aee1000 	bne	ffb8642c <__StackTop+0xc7a8642c>
    2428:	00021000 	andeq	r1, r2, r0
    242c:	1aee007d 	bne	ffb82628 <__StackTop+0xc7a82628>
    2430:	1af41000 	bne	ffd06438 <__StackTop+0xc7c06438>
    2434:	00021000 	andeq	r1, r2, r0
    2438:	0000087d 	andeq	r0, r0, sp, ror r8
	...
    2444:	1ae80000 	bne	ffa0244c <__StackTop+0xc790244c>
    2448:	1af11000 	bne	ffc46450 <__StackTop+0xc7b46450>
    244c:	00011000 	andeq	r1, r1, r0
    2450:	001af150 	andseq	pc, sl, r0, asr r1	; <UNPREDICTABLE>
    2454:	001af410 	andseq	pc, sl, r0, lsl r4	; <UNPREDICTABLE>
    2458:	f3000410 	vqshl.u8	d0, d0, d0
    245c:	009f5001 	addseq	r5, pc, r1
	...
    2468:	e8000000 	stmda	r0, {}	; <UNPREDICTABLE>
    246c:	f110001a 			; <UNDEFINED> instruction: 0xf110001a
    2470:	0110001a 	tsteq	r0, sl, lsl r0
    2474:	1af15100 	bne	ffc5687c <__StackTop+0xc7b5687c>
    2478:	1af41000 	bne	ffd06480 <__StackTop+0xc7c06480>
    247c:	00041000 	andeq	r1, r4, r0
    2480:	9f5101f3 	svcls	0x005101f3
	...
    2490:	10001ae8 	andne	r1, r0, r8, ror #21
    2494:	10001af1 	strdne	r1, [r0], -r1	; <UNPREDICTABLE>
    2498:	f1520001 			; <UNDEFINED> instruction: 0xf1520001
    249c:	f410001a 			; <UNDEFINED> instruction: 0xf410001a
    24a0:	0410001a 	ldreq	r0, [r0], #-26	; 0xffffffe6
    24a4:	5201f300 	andpl	pc, r1, #0, 6
    24a8:	0000009f 	muleq	r0, pc, r0	; <UNPREDICTABLE>
	...
    24b4:	001ae800 	andseq	lr, sl, r0, lsl #16
    24b8:	001af110 	andseq	pc, sl, r0, lsl r1	; <UNPREDICTABLE>
    24bc:	53000110 	movwpl	r0, #272	; 0x110
    24c0:	10001af1 	strdne	r1, [r0], -r1	; <UNPREDICTABLE>
    24c4:	10001af4 	strdne	r1, [r0], -r4
    24c8:	01f30004 	mvnseq	r0, r4
    24cc:	00009f53 	andeq	r9, r0, r3, asr pc
	...
    24dc:	00020000 	andeq	r0, r2, r0
    24e0:	0000007d 	andeq	r0, r0, sp, ror r0
    24e4:	00000000 	andeq	r0, r0, r0
    24e8:	00020000 	andeq	r0, r2, r0
    24ec:	0000107d 	andeq	r1, r0, sp, ror r0
	...
    2500:	00010000 	andeq	r0, r1, r0
    2504:	00000050 	andeq	r0, r0, r0, asr r0
    2508:	00000000 	andeq	r0, r0, r0
    250c:	56000100 	strpl	r0, [r0], -r0, lsl #2
	...
    2524:	00510001 	subseq	r0, r1, r1
    2528:	00000000 	andeq	r0, r0, r0
    252c:	01000000 	mrseq	r0, (UNDEF: 0)
    2530:	00005500 	andeq	r5, r0, r0, lsl #10
    2534:	00000000 	andeq	r0, r0, r0
    2538:	00010000 	andeq	r0, r1, r0
    253c:	00000100 	andeq	r0, r0, r0, lsl #2
	...
    2548:	9f300002 	svcls	0x00300002
	...
    2554:	00500001 	subseq	r0, r0, r1
    2558:	00000000 	andeq	r0, r0, r0
    255c:	01000000 	mrseq	r0, (UNDEF: 0)
    2560:	00005000 	andeq	r5, r0, r0
    2564:	00000000 	andeq	r0, r0, r0
    2568:	00020000 	andeq	r0, r2, r0
	...
    2574:	00020000 	andeq	r0, r2, r0
    2578:	00009f30 	andeq	r9, r0, r0, lsr pc
    257c:	00000000 	andeq	r0, r0, r0
    2580:	00010000 	andeq	r0, r1, r0
    2584:	00000054 	andeq	r0, r0, r4, asr r0
	...
    2594:	7d000200 	sfmvc	f0, 4, [r0, #-0]
	...
    25a0:	7d000200 	sfmvc	f0, 4, [r0, #-0]
    25a4:	00000008 	andeq	r0, r0, r8
	...
    25b8:	50000100 	andpl	r0, r0, r0, lsl #2
	...
    25c4:	00540001 	subseq	r0, r4, r1
    25c8:	00000000 	andeq	r0, r0, r0
    25cc:	01000000 	mrseq	r0, (UNDEF: 0)
    25d0:	001b2000 	andseq	r2, fp, r0
    25d4:	001b3410 	andseq	r3, fp, r0, lsl r4
    25d8:	50000110 	andpl	r0, r0, r0, lsl r1
	...
    25e4:	1e180100 	mufnee	f0, f0, f0
    25e8:	1e181000 	cdpne	0, 1, cr1, cr8, cr0, {0}
    25ec:	00011000 	andeq	r1, r1, r0
    25f0:	00000050 	andeq	r0, r0, r0, asr r0
    25f4:	00000000 	andeq	r0, r0, r0
    25f8:	001c0c00 	andseq	r0, ip, r0, lsl #24
    25fc:	001c1010 	andseq	r1, ip, r0, lsl r0
    2600:	7d000210 	sfmvc	f0, 4, [r0, #-64]	; 0xffffffc0
    2604:	001c1000 	andseq	r1, ip, r0
    2608:	001c8810 	andseq	r8, ip, r0, lsl r8
    260c:	7d000210 	sfmvc	f0, 4, [r0, #-64]	; 0xffffffc0
    2610:	00000020 	andeq	r0, r0, r0, lsr #32
	...
    2620:	001c0c00 	andseq	r0, ip, r0, lsl #24
    2624:	001c2610 	andseq	r2, ip, r0, lsl r6
    2628:	50000110 	andpl	r0, r0, r0, lsl r1
    262c:	10001c26 	andne	r1, r0, r6, lsr #24
    2630:	10001c60 	andne	r1, r0, r0, ror #24
    2634:	60580001 	subsvs	r0, r8, r1
    2638:	6610001c 			; <UNDEFINED> instruction: 0x6610001c
    263c:	0410001c 	ldreq	r0, [r0], #-28	; 0xffffffe4
    2640:	5001f300 	andpl	pc, r1, r0, lsl #6
    2644:	001c669f 	mulseq	ip, pc, r6	; <UNPREDICTABLE>
    2648:	001c8810 	andseq	r8, ip, r0, lsl r8
    264c:	50000110 	andpl	r0, r0, r0, lsl r1
	...
    2660:	10001c0c 	andne	r1, r0, ip, lsl #24
    2664:	10001c26 	andne	r1, r0, r6, lsr #24
    2668:	26510001 	ldrbcs	r0, [r1], -r1
    266c:	6010001c 	andsvs	r0, r0, ip, lsl r0
    2670:	0110001c 	tsteq	r0, ip, lsl r0
    2674:	1c605700 	stclne	7, cr5, [r0], #-0
    2678:	1c661000 	stclne	0, cr1, [r6], #-0
    267c:	00041000 	andeq	r1, r4, r0
    2680:	9f5101f3 	svcls	0x005101f3
    2684:	10001c66 	andne	r1, r0, r6, ror #24
    2688:	10001c88 	andne	r1, r0, r8, lsl #25
    268c:	00510001 	subseq	r0, r1, r1
	...
    269c:	001c0c00 	andseq	r0, ip, r0, lsl #24
    26a0:	001c2610 	andseq	r2, ip, r0, lsl r6
    26a4:	52000110 	andpl	r0, r0, #16, 2
    26a8:	10001c26 	andne	r1, r0, r6, lsr #24
    26ac:	10001c66 	andne	r1, r0, r6, ror #24
    26b0:	01f30004 	mvnseq	r0, r4
    26b4:	1c669f52 	stclne	15, cr9, [r6], #-328	; 0xfffffeb8
    26b8:	1c881000 	stcne	0, cr1, [r8], {0}
    26bc:	00011000 	andeq	r1, r1, r0
    26c0:	00000052 	andeq	r0, r0, r2, asr r0
	...
    26d0:	001c0c00 	andseq	r0, ip, r0, lsl #24
    26d4:	001c2610 	andseq	r2, ip, r0, lsl r6
    26d8:	53000110 	movwpl	r0, #272	; 0x110
    26dc:	10001c26 	andne	r1, r0, r6, lsr #24
    26e0:	10001c60 	andne	r1, r0, r0, ror #24
    26e4:	60550001 	subsvs	r0, r5, r1
    26e8:	6610001c 			; <UNDEFINED> instruction: 0x6610001c
    26ec:	0410001c 	ldreq	r0, [r0], #-28	; 0xffffffe4
    26f0:	5301f300 	movwpl	pc, #4864	; 0x1300	; <UNPREDICTABLE>
    26f4:	001c669f 	mulseq	ip, pc, r6	; <UNPREDICTABLE>
    26f8:	001c8810 	andseq	r8, ip, r0, lsl r8
    26fc:	53000110 	movwpl	r0, #272	; 0x110
	...
    2708:	00000001 	andeq	r0, r0, r1
    270c:	1c100000 	ldcne	0, cr0, [r0], {-0}
    2710:	1c261000 	stcne	0, cr1, [r6], #-0
    2714:	00021000 	andeq	r1, r2, r0
    2718:	1c269f30 	stcne	15, cr9, [r6], #-192	; 0xffffff40
    271c:	1c601000 	stclne	0, cr1, [r0], #-0
    2720:	00011000 	andeq	r1, r1, r0
    2724:	001c6656 	andseq	r6, ip, r6, asr r6
    2728:	001c7c10 	andseq	r7, ip, r0, lsl ip
    272c:	30000210 	andcc	r0, r0, r0, lsl r2
    2730:	0000009f 	muleq	r0, pc, r0	; <UNPREDICTABLE>
    2734:	00000000 	andeq	r0, r0, r0
    2738:	00000200 	andeq	r0, r0, r0, lsl #4
    273c:	00000101 	andeq	r0, r0, r1, lsl #2
    2740:	10000000 	andne	r0, r0, r0
    2744:	2610001c 			; <UNDEFINED> instruction: 0x2610001c
    2748:	0210001c 	andseq	r0, r0, #28
    274c:	309f3000 	addscc	r3, pc, r0
    2750:	4210001c 	andsmi	r0, r0, #28
    2754:	0110001c 	tsteq	r0, ip, lsl r0
    2758:	1c425200 	sfmne	f5, 2, [r2], {-0}
    275c:	1c461000 	marne	acc0, r1, r6
    2760:	00031000 	andeq	r1, r3, r0
    2764:	469f7f72 			; <UNDEFINED> instruction: 0x469f7f72
    2768:	6010001c 	andsvs	r0, r0, ip, lsl r0
    276c:	0110001c 	tsteq	r0, ip, lsl r0
    2770:	1c665900 			; <UNDEFINED> instruction: 0x1c665900
    2774:	1c881000 	stcne	0, cr1, [r8], {0}
    2778:	00021000 	andeq	r1, r2, r0
    277c:	00009f30 	andeq	r9, r0, r0, lsr pc
    2780:	00000000 	andeq	r0, r0, r0
    2784:	00020000 	andeq	r0, r2, r0
    2788:	00000000 	andeq	r0, r0, r0
    278c:	10001c10 	andne	r1, r0, r0, lsl ip
    2790:	10001c26 	andne	r1, r0, r6, lsr #24
    2794:	9f300002 	svcls	0x00300002
    2798:	10001c4e 	andne	r1, r0, lr, asr #24
    279c:	10001c51 	andne	r1, r0, r1, asr ip
    27a0:	66500001 	ldrbvs	r0, [r0], -r1
    27a4:	8810001c 	ldmdahi	r0, {r2, r3, r4}
    27a8:	0210001c 	andseq	r0, r0, #28
    27ac:	009f3000 	addseq	r3, pc, r0
    27b0:	00000000 	andeq	r0, r0, r0
    27b4:	02000000 	andeq	r0, r0, #0
    27b8:	00000000 	andeq	r0, r0, r0
    27bc:	001c1000 	andseq	r1, ip, r0
    27c0:	001c2610 	andseq	r2, ip, r0, lsl r6
    27c4:	30000210 	andcc	r0, r0, r0, lsl r2
    27c8:	001c269f 	mulseq	ip, pc, r6	; <UNPREDICTABLE>
    27cc:	001c6010 	andseq	r6, ip, r0, lsl r0
    27d0:	54000110 	strpl	r0, [r0], #-272	; 0xfffffef0
    27d4:	10001c66 	andne	r1, r0, r6, ror #24
    27d8:	10001c88 	andne	r1, r0, r8, lsl #25
    27dc:	9f300002 	svcls	0x00300002
	...
    27e8:	10001c88 	andne	r1, r0, r8, lsl #25
    27ec:	10001c8a 	andne	r1, r0, sl, lsl #25
    27f0:	007d0002 	rsbseq	r0, sp, r2
    27f4:	10001c8a 	andne	r1, r0, sl, lsl #25
    27f8:	10001e14 	andne	r1, r0, r4, lsl lr
    27fc:	187d0002 	ldmdane	sp!, {r1}^
	...
    280c:	1c880000 	stcne	0, cr0, [r8], {0}
    2810:	1cd41000 	ldclne	0, cr1, [r4], {0}
    2814:	00011000 	andeq	r1, r1, r0
    2818:	001cd450 	andseq	sp, ip, r0, asr r4
    281c:	001d8210 	andseq	r8, sp, r0, lsl r2
    2820:	55000110 	strpl	r0, [r0, #-272]	; 0xfffffef0
    2824:	10001d82 	andne	r1, r0, r2, lsl #27
    2828:	10001e14 	andne	r1, r0, r4, lsl lr
    282c:	01f30004 	mvnseq	r0, r4
    2830:	00009f50 	andeq	r9, r0, r0, asr pc
	...
    283c:	1c880000 	stcne	0, cr0, [r8], {0}
    2840:	1cd71000 	ldclne	0, cr1, [r7], {0}
    2844:	00011000 	andeq	r1, r1, r0
    2848:	001cd751 	andseq	sp, ip, r1, asr r7
    284c:	001e1410 	andseq	r1, lr, r0, lsl r4
    2850:	56000110 			; <UNDEFINED> instruction: 0x56000110
	...
    285c:	00000001 	andeq	r0, r0, r1
    2860:	1c8e0000 	stcne	0, cr0, [lr], {0}
    2864:	1d821000 	stcne	0, cr1, [r2]
    2868:	00021000 	andeq	r1, r2, r0
    286c:	1d829f30 	stcne	15, cr9, [r2, #192]	; 0xc0
    2870:	1d841000 	stcne	0, cr1, [r4]
    2874:	00011000 	andeq	r1, r1, r0
    2878:	001d8450 	andseq	r8, sp, r0, asr r4
    287c:	001e1410 	andseq	r1, lr, r0, lsl r4
    2880:	55000110 	strpl	r0, [r0, #-272]	; 0xfffffef0
	...
    288c:	01010101 	tsteq	r1, r1, lsl #2
    2890:	00000001 	andeq	r0, r0, r1
    2894:	10001c8e 	andne	r1, r0, lr, lsl #25
    2898:	10001d72 	andne	r1, r0, r2, ror sp
    289c:	9f300002 	svcls	0x00300002
    28a0:	10001d72 	andne	r1, r0, r2, ror sp
    28a4:	10001d90 	mulne	r0, r0, sp
    28a8:	9f400002 	svcls	0x00400002
    28ac:	10001d90 	mulne	r0, r0, sp
    28b0:	10001d94 	mulne	r0, r4, sp
    28b4:	9f300002 	svcls	0x00300002
    28b8:	10001d94 	mulne	r0, r4, sp
    28bc:	10001e14 	andne	r1, r0, r4, lsl lr
    28c0:	00540001 	subseq	r0, r4, r1
    28c4:	00000000 	andeq	r0, r0, r0
    28c8:	02000000 	andeq	r0, r0, #0
    28cc:	01010505 	tsteq	r1, r5, lsl #10
    28d0:	01010101 	tsteq	r1, r1, lsl #2
    28d4:	01010101 	tsteq	r1, r1, lsl #2
    28d8:	01010101 	tsteq	r1, r1, lsl #2
    28dc:	01010101 	tsteq	r1, r1, lsl #2
    28e0:	01010101 	tsteq	r1, r1, lsl #2
    28e4:	01010101 	tsteq	r1, r1, lsl #2
    28e8:	01010101 	tsteq	r1, r1, lsl #2
    28ec:	00000000 	andeq	r0, r0, r0
    28f0:	001c8e00 	andseq	r8, ip, r0, lsl #28
    28f4:	001c8e10 	andseq	r8, ip, r0, lsl lr
    28f8:	50000110 	andpl	r0, r0, r0, lsl r1
    28fc:	10001c8e 	andne	r1, r0, lr, lsl #25
    2900:	10001c94 	mulne	r0, r4, ip
    2904:	04700003 	ldrbteq	r0, [r0], #-3
    2908:	001c949f 	mulseq	ip, pc, r4	; <UNPREDICTABLE>
    290c:	001c9810 	andseq	r9, ip, r0, lsl r8
    2910:	70000310 	andvc	r0, r0, r0, lsl r3
    2914:	1c989f08 	ldcne	15, cr9, [r8], {8}
    2918:	1c9c1000 	ldcne	0, cr1, [ip], {0}
    291c:	00031000 	andeq	r1, r3, r0
    2920:	9c9f0c70 	ldcls	12, cr0, [pc], {112}	; 0x70
    2924:	a010001c 	andsge	r0, r0, ip, lsl r0
    2928:	0310001c 	tsteq	r0, #28
    292c:	9f107000 	svcls	0x00107000
    2930:	10001ca0 	andne	r1, r0, r0, lsr #25
    2934:	10001ca4 	andne	r1, r0, r4, lsr #25
    2938:	14700003 	ldrbtne	r0, [r0], #-3
    293c:	001ca49f 	mulseq	ip, pc, r4	; <UNPREDICTABLE>
    2940:	001ca810 	andseq	sl, ip, r0, lsl r8
    2944:	70000310 	andvc	r0, r0, r0, lsl r3
    2948:	1ca89f18 	stcne	15, cr9, [r8], #96	; 0x60
    294c:	1cac1000 	stcne	0, cr1, [ip]
    2950:	00031000 	andeq	r1, r3, r0
    2954:	ac9f1c70 	ldcge	12, cr1, [pc], {112}	; 0x70
    2958:	b010001c 	andslt	r0, r0, ip, lsl r0
    295c:	0310001c 	tsteq	r0, #28
    2960:	9f207000 	svcls	0x00207000
    2964:	10001cb0 			; <UNDEFINED> instruction: 0x10001cb0
    2968:	10001cb4 			; <UNDEFINED> instruction: 0x10001cb4
    296c:	24700003 	ldrbtcs	r0, [r0], #-3
    2970:	001cb49f 	mulseq	ip, pc, r4	; <UNPREDICTABLE>
    2974:	001cb810 	andseq	fp, ip, r0, lsl r8
    2978:	70000310 	andvc	r0, r0, r0, lsl r3
    297c:	1cb89f28 	ldcne	15, cr9, [r8], #160	; 0xa0
    2980:	1cbc1000 	ldcne	0, cr1, [ip]
    2984:	00031000 	andeq	r1, r3, r0
    2988:	bc9f2c70 	ldclt	12, cr2, [pc], {112}	; 0x70
    298c:	c010001c 	andsgt	r0, r0, ip, lsl r0
    2990:	0310001c 	tsteq	r0, #28
    2994:	9f307000 	svcls	0x00307000
    2998:	10001cc0 	andne	r1, r0, r0, asr #25
    299c:	10001cc4 	andne	r1, r0, r4, asr #25
    29a0:	34700003 	ldrbtcc	r0, [r0], #-3
    29a4:	001cc49f 	mulseq	ip, pc, r4	; <UNPREDICTABLE>
    29a8:	001cc810 	andseq	ip, ip, r0, lsl r8
    29ac:	70000310 	andvc	r0, r0, r0, lsl r3
    29b0:	1cc89f38 	stclne	15, cr9, [r8], {56}	; 0x38
    29b4:	1ccc1000 	stclne	0, cr1, [ip], {0}
    29b8:	00031000 	andeq	r1, r3, r0
    29bc:	cc9f3c70 	ldcgt	12, cr3, [pc], {112}	; 0x70
    29c0:	d410001c 	ldrle	r0, [r0], #-28	; 0xffffffe4
    29c4:	0410001c 	ldreq	r0, [r0], #-28	; 0xffffffe4
    29c8:	00c07000 	sbceq	r7, r0, r0
    29cc:	001cd49f 	mulseq	ip, pc, r4	; <UNPREDICTABLE>
    29d0:	001d8210 	andseq	r8, sp, r0, lsl r2
    29d4:	75000410 	strvc	r0, [r0, #-1040]	; 0xfffffbf0
    29d8:	829f00c0 	addshi	r0, pc, #192	; 0xc0
    29dc:	1410001d 	ldrne	r0, [r0], #-29	; 0xffffffe3
    29e0:	0610001e 			; <UNDEFINED> instruction: 0x0610001e
    29e4:	5001f300 	andpl	pc, r1, r0, lsl #6
    29e8:	009f4023 	addseq	r4, pc, r3, lsr #32
	...
    29f4:	84000000 	strhi	r0, [r0], #-0
    29f8:	8a10001b 	bhi	402a6c <__RAM_SIZE+0x302a6c>
    29fc:	0110001b 	tsteq	r0, fp, lsl r0
    2a00:	1b8a5000 	blne	fe296a08 <__StackTop+0xc6196a08>
    2a04:	1bba1000 	blne	fee86a0c <__StackTop+0xc6d86a0c>
    2a08:	00041000 	andeq	r1, r4, r0
    2a0c:	9f5001f3 	svcls	0x005001f3
	...
    2a18:	1b880000 	blne	fe202a20 <__StackTop+0xc6102a20>
    2a1c:	1bba1000 	blne	fee86a24 <__StackTop+0xc6d86a24>
    2a20:	00011000 	andeq	r1, r1, r0
    2a24:	00000053 	andeq	r0, r0, r3, asr r0
	...
    2a40:	001b8e00 	andseq	r8, fp, r0, lsl #28
    2a44:	001ba810 	andseq	sl, fp, r0, lsl r8
    2a48:	50000110 	andpl	r0, r0, r0, lsl r1
    2a4c:	10001ba8 	andne	r1, r0, r8, lsr #23
    2a50:	10001baa 	andne	r1, r0, sl, lsr #23
    2a54:	01f3000a 	mvnseq	r0, sl
    2a58:	0a254050 	beq	952ba0 <__RAM_SIZE+0x852ba0>
    2a5c:	9f1af800 	svcls	0x001af800
    2a60:	10001baa 	andne	r1, r0, sl, lsr #23
    2a64:	10001bac 	andne	r1, r0, ip, lsr #23
    2a68:	ac500001 	mrrcge	0, 0, r0, r0, cr1	; <UNPREDICTABLE>
    2a6c:	ae10001b 	mrcge	0, 0, r0, cr0, cr11, {0}
    2a70:	0a10001b 	beq	402ae4 <__RAM_SIZE+0x302ae4>
    2a74:	5001f300 	andpl	pc, r1, r0, lsl #6
    2a78:	000a2540 	andeq	r2, sl, r0, asr #10
    2a7c:	ae9f1af8 			; <UNDEFINED> instruction: 0xae9f1af8
    2a80:	b010001b 	andslt	r0, r0, fp, lsl r0
    2a84:	0110001b 	tsteq	r0, fp, lsl r0
    2a88:	1bb05000 	blne	fec16a90 <__StackTop+0xc6b16a90>
    2a8c:	1bb21000 	blne	fec86a94 <__StackTop+0xc6b86a94>
    2a90:	000a1000 	andeq	r1, sl, r0
    2a94:	405001f3 	ldrshmi	r0, [r0], #-19	; 0xffffffed
    2a98:	f8000a25 			; <UNDEFINED> instruction: 0xf8000a25
    2a9c:	1bb29f1a 	blne	fecaa70c <__StackTop+0xc6baa70c>
    2aa0:	1bb41000 	blne	fed06aa8 <__StackTop+0xc6c06aa8>
    2aa4:	00011000 	andeq	r1, r1, r0
    2aa8:	001bb450 	andseq	fp, fp, r0, asr r4
    2aac:	001bb610 	andseq	fp, fp, r0, lsl r6
    2ab0:	f3000a10 	vpmin.u8	d0, d0, d0
    2ab4:	25405001 	strbcs	r5, [r0, #-1]
    2ab8:	1af8000a 	bne	ffe02ae8 <__StackTop+0xc7d02ae8>
    2abc:	001bb69f 	mulseq	fp, pc, r6	; <UNPREDICTABLE>
    2ac0:	001bb810 	andseq	fp, fp, r0, lsl r8
    2ac4:	50000110 	andpl	r0, r0, r0, lsl r1
    2ac8:	10001bb8 			; <UNDEFINED> instruction: 0x10001bb8
    2acc:	10001bba 			; <UNDEFINED> instruction: 0x10001bba
    2ad0:	01f3000a 	mvnseq	r0, sl
    2ad4:	0a254050 	beq	952c1c <__RAM_SIZE+0x852c1c>
    2ad8:	9f1af800 	svcls	0x001af800
	...
    2ae4:	10001b58 	andne	r1, r0, r8, asr fp
    2ae8:	10001b5a 	andne	r1, r0, sl, asr fp
    2aec:	007d0002 	rsbseq	r0, sp, r2
    2af0:	10001b5a 	andne	r1, r0, sl, asr fp
    2af4:	10001b82 	andne	r1, r0, r2, lsl #23
    2af8:	087d0002 	ldmdaeq	sp!, {r1}^
    2afc:	10001b82 	andne	r1, r0, r2, lsl #23
    2b00:	10001b84 	andne	r1, r0, r4, lsl #23
    2b04:	007d0002 	rsbseq	r0, sp, r2
	...
    2b14:	10001b58 	andne	r1, r0, r8, asr fp
    2b18:	10001b78 	andne	r1, r0, r8, ror fp
    2b1c:	78500001 	ldmdavc	r0, {r0}^
    2b20:	8410001b 	ldrhi	r0, [r0], #-27	; 0xffffffe5
    2b24:	0410001b 	ldreq	r0, [r0], #-27	; 0xffffffe5
    2b28:	5001f300 	andpl	pc, r1, r0, lsl #6
    2b2c:	0000009f 	muleq	r0, pc, r0	; <UNPREDICTABLE>
    2b30:	00000000 	andeq	r0, r0, r0
    2b34:	00000100 	andeq	r0, r0, r0, lsl #2
    2b38:	5e000000 	cdppl	0, 0, cr0, cr0, cr0, {0}
    2b3c:	7c10001b 	ldcvc	0, cr0, [r0], {27}
    2b40:	0210001b 	andseq	r0, r0, #27
    2b44:	7c9f3000 	ldcvc	0, cr3, [pc], {0}
    2b48:	8010001b 	andshi	r0, r0, fp, lsl r0
    2b4c:	0810001b 	ldmdaeq	r0, {r0, r1, r3, r4}
    2b50:	40007000 	andmi	r7, r0, r0
    2b54:	21007324 	tstcs	r0, r4, lsr #6
    2b58:	001b809f 	mulseq	fp, pc, r0	; <UNPREDICTABLE>
    2b5c:	001b8410 	andseq	r8, fp, r0, lsl r4
    2b60:	50000110 	andpl	r0, r0, r0, lsl r1
	...
    2b6c:	00000003 	andeq	r0, r0, r3
    2b70:	10001b5e 	andne	r1, r0, lr, asr fp
    2b74:	10001b60 	andne	r1, r0, r0, ror #22
    2b78:	9f300002 	svcls	0x00300002
    2b7c:	10001b60 	andne	r1, r0, r0, ror #22
    2b80:	10001b7c 	andne	r1, r0, ip, ror fp
    2b84:	00530001 	subseq	r0, r3, r1
    2b88:	00000000 	andeq	r0, r0, r0
    2b8c:	bc000000 	stclt	0, cr0, [r0], {-0}
    2b90:	be10001b 	mrclt	0, 0, r0, cr0, cr11, {0}
    2b94:	0210001b 	andseq	r0, r0, #27
    2b98:	be007d00 	cdplt	13, 0, cr7, cr0, cr0, {0}
    2b9c:	0c10001b 	ldceq	0, cr0, [r0], {27}
    2ba0:	0210001c 	andseq	r0, r0, #28
    2ba4:	00087d00 	andeq	r7, r8, r0, lsl #26
    2ba8:	00000000 	andeq	r0, r0, r0
    2bac:	Address 0x00002bac is out of bounds.


Disassembly of section .debug_aranges:

00000000 <.debug_aranges>:
   0:	0000007c 	andeq	r0, r0, ip, ror r0
   4:	00000002 	andeq	r0, r0, r2
   8:	00040000 	andeq	r0, r4, r0
   c:	00000000 	andeq	r0, r0, r0
  10:	10000800 	andne	r0, r0, r0, lsl #16
  14:	00000002 	andeq	r0, r0, r2
  18:	00000000 	andeq	r0, r0, r0
  1c:	00000010 	andeq	r0, r0, r0, lsl r0
  20:	00000000 	andeq	r0, r0, r0
  24:	00000010 	andeq	r0, r0, r0, lsl r0
  28:	00000000 	andeq	r0, r0, r0
  2c:	00000020 	andeq	r0, r0, r0, lsr #32
  30:	10000804 	andne	r0, r0, r4, lsl #16
  34:	0000004c 	andeq	r0, r0, ip, asr #32
  38:	10000850 	andne	r0, r0, r0, asr r8
  3c:	00000068 	andeq	r0, r0, r8, rrx
  40:	100008b8 			; <UNDEFINED> instruction: 0x100008b8
  44:	0000001c 	andeq	r0, r0, ip, lsl r0
  48:	100008d4 	ldrdne	r0, [r0], -r4
  4c:	00000018 	andeq	r0, r0, r8, lsl r0
  50:	100008ec 	andne	r0, r0, ip, ror #17
  54:	00000018 	andeq	r0, r0, r8, lsl r0
  58:	10000904 	andne	r0, r0, r4, lsl #18
  5c:	00000018 	andeq	r0, r0, r8, lsl r0
  60:	1000091c 	andne	r0, r0, ip, lsl r9
  64:	00000018 	andeq	r0, r0, r8, lsl r0
  68:	10000934 	andne	r0, r0, r4, lsr r9
  6c:	00000018 	andeq	r0, r0, r8, lsl r0
  70:	1000094c 	andne	r0, r0, ip, asr #18
  74:	0000002c 	andeq	r0, r0, ip, lsr #32
	...
  80:	00000024 	andeq	r0, r0, r4, lsr #32
  84:	0a650002 	beq	1940094 <__RAM_SIZE+0x1840094>
  88:	00040000 	andeq	r0, r4, r0
	...
  94:	00000010 	andeq	r0, r0, r0, lsl r0
  98:	10000978 	andne	r0, r0, r8, ror r9
  9c:	0000002c 	andeq	r0, r0, ip, lsr #32
	...
  a8:	000000a4 	andeq	r0, r0, r4, lsr #1
  ac:	0f4e0002 	svceq	0x004e0002
  b0:	00040000 	andeq	r0, r4, r0
	...
  bc:	00000008 	andeq	r0, r0, r8
  c0:	100009a4 	andne	r0, r0, r4, lsr #19
  c4:	00000002 	andeq	r0, r0, r2
  c8:	00000000 	andeq	r0, r0, r0
  cc:	0000000e 	andeq	r0, r0, lr
  d0:	100009a6 	andne	r0, r0, r6, lsr #19
  d4:	00000024 	andeq	r0, r0, r4, lsr #32
  d8:	100009ca 	andne	r0, r0, sl, asr #19
  dc:	0000007e 	andeq	r0, r0, lr, ror r0
  e0:	10000a48 	andne	r0, r0, r8, asr #20
  e4:	00000138 	andeq	r0, r0, r8, lsr r1
  e8:	10000b80 	andne	r0, r0, r0, lsl #23
  ec:	00000094 	muleq	r0, r4, r0
  f0:	10000c14 	andne	r0, r0, r4, lsl ip
  f4:	000000c6 	andeq	r0, r0, r6, asr #1
  f8:	10000ce0 	andne	r0, r0, r0, ror #25
  fc:	000003ea 	andeq	r0, r0, sl, ror #7
 100:	100010d0 	ldrdne	r1, [r0], -r0
 104:	00000396 	muleq	r0, r6, r3
 108:	10001468 	andne	r1, r0, r8, ror #8
 10c:	00000680 	andeq	r0, r0, r0, lsl #13
 110:	10001ae8 	andne	r1, r0, r8, ror #21
 114:	0000000c 	andeq	r0, r0, ip
 118:	10001af4 	strdne	r1, [r0], -r4
 11c:	0000002c 	andeq	r0, r0, ip, lsr #32
 120:	00000000 	andeq	r0, r0, r0
 124:	0000002c 	andeq	r0, r0, ip, lsr #32
 128:	00000000 	andeq	r0, r0, r0
 12c:	00000028 	andeq	r0, r0, r8, lsr #32
 130:	00000000 	andeq	r0, r0, r0
 134:	00000020 	andeq	r0, r0, r0, lsr #32
 138:	00000000 	andeq	r0, r0, r0
 13c:	0000001c 	andeq	r0, r0, ip, lsl r0
 140:	00000000 	andeq	r0, r0, r0
 144:	00000030 	andeq	r0, r0, r0, lsr r0
	...
 150:	0000003c 	andeq	r0, r0, ip, lsr r0
 154:	2b130002 	blcs	4c0164 <__RAM_SIZE+0x3c0164>
 158:	00040000 	andeq	r0, r4, r0
 15c:	00000000 	andeq	r0, r0, r0
 160:	10001b20 	andne	r1, r0, r0, lsr #22
 164:	00000014 	andeq	r0, r0, r4, lsl r0
 168:	00000000 	andeq	r0, r0, r0
 16c:	00000014 	andeq	r0, r0, r4, lsl r0
 170:	10001b34 	andne	r1, r0, r4, lsr fp
 174:	00000024 	andeq	r0, r0, r4, lsr #32
 178:	00000000 	andeq	r0, r0, r0
 17c:	00000014 	andeq	r0, r0, r4, lsl r0
 180:	00000000 	andeq	r0, r0, r0
 184:	00000020 	andeq	r0, r0, r0, lsr #32
	...
 190:	0000004c 	andeq	r0, r0, ip, asr #32
 194:	2cec0002 	stclcs	0, cr0, [ip], #8
 198:	00040000 	andeq	r0, r4, r0
 19c:	00000000 	andeq	r0, r0, r0
 1a0:	10001b58 	andne	r1, r0, r8, asr fp
 1a4:	0000002c 	andeq	r0, r0, ip, lsr #32
 1a8:	10001b84 	andne	r1, r0, r4, lsl #23
 1ac:	00000036 	andeq	r0, r0, r6, lsr r0
 1b0:	10001bbc 			; <UNDEFINED> instruction: 0x10001bbc
 1b4:	00000050 	andeq	r0, r0, r0, asr r0
 1b8:	10001c0c 	andne	r1, r0, ip, lsl #24
 1bc:	0000007c 	andeq	r0, r0, ip, ror r0
 1c0:	10001c88 	andne	r1, r0, r8, lsl #25
 1c4:	0000018c 	andeq	r0, r0, ip, lsl #3
 1c8:	10001e14 	andne	r1, r0, r4, lsl lr
 1cc:	00000006 	andeq	r0, r0, r6
 1d0:	10001e1c 	andne	r1, r0, ip, lsl lr
 1d4:	00000008 	andeq	r0, r0, r8
	...
 1e0:	0000001c 	andeq	r0, r0, ip, lsl r0
 1e4:	35250002 	strcc	r0, [r5, #-2]!
 1e8:	00040000 	andeq	r0, r4, r0
 1ec:	00000000 	andeq	r0, r0, r0
 1f0:	10001e24 	andne	r1, r0, r4, lsr #28
 1f4:	00000070 	andeq	r0, r0, r0, ror r0
	...
 200:	0000001c 	andeq	r0, r0, ip, lsl r0
 204:	354b0002 	strbcc	r0, [fp, #-2]
 208:	00040000 	andeq	r0, r4, r0
 20c:	00000000 	andeq	r0, r0, r0
 210:	10001e94 	mulne	r0, r4, lr
 214:	00000044 	andeq	r0, r0, r4, asr #32
	...

Disassembly of section .debug_ranges:

00000000 <.debug_ranges>:
   0:	10000880 	andne	r0, r0, r0, lsl #17
   4:	10000884 	andne	r0, r0, r4, lsl #17
   8:	1000088e 	andne	r0, r0, lr, lsl #17
   c:	1000089e 	mulne	r0, lr, r8
	...
  18:	10000800 	andne	r0, r0, r0, lsl #16
  1c:	10000802 	andne	r0, r0, r2, lsl #16
  20:	00000001 	andeq	r0, r0, r1
  24:	00000001 	andeq	r0, r0, r1
  28:	00000001 	andeq	r0, r0, r1
  2c:	00000001 	andeq	r0, r0, r1
  30:	00000001 	andeq	r0, r0, r1
  34:	00000001 	andeq	r0, r0, r1
  38:	10000804 	andne	r0, r0, r4, lsl #16
  3c:	10000850 	andne	r0, r0, r0, asr r8
  40:	10000850 	andne	r0, r0, r0, asr r8
  44:	100008b8 			; <UNDEFINED> instruction: 0x100008b8
  48:	100008b8 			; <UNDEFINED> instruction: 0x100008b8
  4c:	100008d4 	ldrdne	r0, [r0], -r4
  50:	100008d4 	ldrdne	r0, [r0], -r4
  54:	100008ec 	andne	r0, r0, ip, ror #17
  58:	100008ec 	andne	r0, r0, ip, ror #17
  5c:	10000904 	andne	r0, r0, r4, lsl #18
  60:	10000904 	andne	r0, r0, r4, lsl #18
  64:	1000091c 	andne	r0, r0, ip, lsl r9
  68:	1000091c 	andne	r0, r0, ip, lsl r9
  6c:	10000934 	andne	r0, r0, r4, lsr r9
  70:	10000934 	andne	r0, r0, r4, lsr r9
  74:	1000094c 	andne	r0, r0, ip, asr #18
  78:	1000094c 	andne	r0, r0, ip, asr #18
  7c:	10000978 	andne	r0, r0, r8, ror r9
	...
  88:	00000001 	andeq	r0, r0, r1
  8c:	00000001 	andeq	r0, r0, r1
  90:	10000978 	andne	r0, r0, r8, ror r9
  94:	100009a4 	andne	r0, r0, r4, lsr #19
	...
  a0:	100009ea 	andne	r0, r0, sl, ror #19
  a4:	100009ec 	andne	r0, r0, ip, ror #19
  a8:	100009ee 	andne	r0, r0, lr, ror #19
  ac:	10000a0c 	andne	r0, r0, ip, lsl #20
	...
  b8:	10000b9e 	mulne	r0, lr, fp
  bc:	10000bb8 			; <UNDEFINED> instruction: 0x10000bb8
  c0:	10000bc0 	andne	r0, r0, r0, asr #23
  c4:	10000bc4 	andne	r0, r0, r4, asr #23
  c8:	10000bc4 	andne	r0, r0, r4, asr #23
  cc:	10000bf2 	strdne	r0, [r0], -r2
	...
  d8:	10000c4a 	andne	r0, r0, sl, asr #24
  dc:	10000c6c 	andne	r0, r0, ip, ror #24
  e0:	10000c7a 	andne	r0, r0, sl, ror ip
  e4:	10000c80 	andne	r0, r0, r0, lsl #25
  e8:	10000c80 	andne	r0, r0, r0, lsl #25
  ec:	10000ca8 	andne	r0, r0, r8, lsr #25
	...
  f8:	1000147c 	andne	r1, r0, ip, ror r4
  fc:	1000147e 	andne	r1, r0, lr, ror r4
 100:	10001928 	andne	r1, r0, r8, lsr #18
 104:	1000199a 	mulne	r0, sl, r9
	...
 110:	100016fa 	strdne	r1, [r0], -sl
 114:	1000172c 	andne	r1, r0, ip, lsr #14
 118:	10001880 	andne	r1, r0, r0, lsl #17
 11c:	1000189a 	mulne	r0, sl, r8
	...
 128:	1000174a 	andne	r1, r0, sl, asr #14
 12c:	10001780 	andne	r1, r0, r0, lsl #15
 130:	10001802 	andne	r1, r0, r2, lsl #16
 134:	1000181e 	andne	r1, r0, lr, lsl r8
	...
 140:	10001788 	andne	r1, r0, r8, lsl #15
 144:	100017c6 	andne	r1, r0, r6, asr #15
 148:	100017c8 	andne	r1, r0, r8, asr #15
 14c:	100017d0 	ldrdne	r1, [r0], -r0
	...
 158:	00000001 	andeq	r0, r0, r1
 15c:	00000001 	andeq	r0, r0, r1
 160:	100009a4 	andne	r0, r0, r4, lsr #19
 164:	100009a6 	andne	r0, r0, r6, lsr #19
 168:	00000001 	andeq	r0, r0, r1
 16c:	00000001 	andeq	r0, r0, r1
 170:	100009a6 	andne	r0, r0, r6, lsr #19
 174:	100009ca 	andne	r0, r0, sl, asr #19
 178:	100009ca 	andne	r0, r0, sl, asr #19
 17c:	10000a48 	andne	r0, r0, r8, asr #20
 180:	10000a48 	andne	r0, r0, r8, asr #20
 184:	10000b80 	andne	r0, r0, r0, lsl #23
 188:	10000b80 	andne	r0, r0, r0, lsl #23
 18c:	10000c14 	andne	r0, r0, r4, lsl ip
 190:	10000c14 	andne	r0, r0, r4, lsl ip
 194:	10000cda 	ldrdne	r0, [r0], -sl
 198:	10000ce0 	andne	r0, r0, r0, ror #25
 19c:	100010ca 	andne	r1, r0, sl, asr #1
 1a0:	100010d0 	ldrdne	r1, [r0], -r0
 1a4:	10001466 	andne	r1, r0, r6, ror #8
 1a8:	10001468 	andne	r1, r0, r8, ror #8
 1ac:	10001ae8 	andne	r1, r0, r8, ror #21
 1b0:	10001ae8 	andne	r1, r0, r8, ror #21
 1b4:	10001af4 	strdne	r1, [r0], -r4
 1b8:	10001af4 	strdne	r1, [r0], -r4
 1bc:	10001b20 	andne	r1, r0, r0, lsr #22
 1c0:	00000001 	andeq	r0, r0, r1
 1c4:	00000001 	andeq	r0, r0, r1
 1c8:	00000001 	andeq	r0, r0, r1
 1cc:	00000001 	andeq	r0, r0, r1
 1d0:	00000001 	andeq	r0, r0, r1
 1d4:	00000001 	andeq	r0, r0, r1
 1d8:	00000001 	andeq	r0, r0, r1
 1dc:	00000001 	andeq	r0, r0, r1
 1e0:	00000001 	andeq	r0, r0, r1
 1e4:	00000001 	andeq	r0, r0, r1
	...
 1f0:	10001b20 	andne	r1, r0, r0, lsr #22
 1f4:	10001b34 	andne	r1, r0, r4, lsr fp
 1f8:	00000001 	andeq	r0, r0, r1
 1fc:	00000001 	andeq	r0, r0, r1
 200:	10001b34 	andne	r1, r0, r4, lsr fp
 204:	10001b58 	andne	r1, r0, r8, asr fp
 208:	00000001 	andeq	r0, r0, r1
 20c:	00000001 	andeq	r0, r0, r1
 210:	00000001 	andeq	r0, r0, r1
 214:	00000001 	andeq	r0, r0, r1
	...
 220:	10001b58 	andne	r1, r0, r8, asr fp
 224:	10001b84 	andne	r1, r0, r4, lsl #23
 228:	10001b84 	andne	r1, r0, r4, lsl #23
 22c:	10001bba 			; <UNDEFINED> instruction: 0x10001bba
 230:	10001bbc 			; <UNDEFINED> instruction: 0x10001bbc
 234:	10001c0c 	andne	r1, r0, ip, lsl #24
 238:	10001c0c 	andne	r1, r0, ip, lsl #24
 23c:	10001c88 	andne	r1, r0, r8, lsl #25
 240:	10001c88 	andne	r1, r0, r8, lsl #25
 244:	10001e14 	andne	r1, r0, r4, lsl lr
 248:	10001e14 	andne	r1, r0, r4, lsl lr
 24c:	10001e1a 	andne	r1, r0, sl, lsl lr
 250:	10001e1c 	andne	r1, r0, ip, lsl lr
 254:	10001e24 	andne	r1, r0, r4, lsr #28
	...

Disassembly of section .debug_line:

00000000 <.debug_line>:
       0:	000003f6 	strdeq	r0, [r0], -r6
       4:	01db0003 	bicseq	r0, fp, r3
       8:	01020000 	mrseq	r0, (UNDEF: 2)
       c:	000d0efb 	strdeq	r0, [sp], -fp
      10:	01010101 	tsteq	r1, r1, lsl #2
      14:	01000000 	mrseq	r0, (UNDEF: 0)
      18:	63010000 	movwvs	r0, #4096	; 0x1000
      1c:	73755c3a 	cmnvc	r5, #14848	; 0x3a00
      20:	5c737265 	lfmpl	f7, 2, [r3], #-404	; 0xfffffe6c
      24:	6f646978 	svcvs	0x00646978
      28:	72705c6e 	rsbsvc	r5, r0, #28160	; 0x6e00
      2c:	6172676f 	cmnvs	r2, pc, ror #14
      30:	72615c6d 	rsbvc	r5, r1, #27904	; 0x6d00
      34:	63675f6d 	cmnvs	r7, #436	; 0x1b4
      38:	63675c63 	cmnvs	r7, #25344	; 0x6300
      3c:	72612d63 	rsbvc	r2, r1, #6336	; 0x18c0
      40:	6f6e2d6d 	svcvs	0x006e2d6d
      44:	652d656e 	strvs	r6, [sp, #-1390]!	; 0xfffffa92
      48:	2d696261 	sfmcs	f6, 2, [r9, #-388]!	; 0xfffffe7c
      4c:	332e3031 			; <UNDEFINED> instruction: 0x332e3031
      50:	3230322d 	eorscc	r3, r0, #-805306366	; 0xd0000002
      54:	30312e31 	eorscc	r2, r1, r1, lsr lr
      58:	6d72615c 	ldfvse	f6, [r2, #-368]!	; 0xfffffe90
      5c:	6e6f6e2d 	cdpvs	14, 6, cr6, cr15, cr13, {1}
      60:	61652d65 	cmnvs	r5, r5, ror #26
      64:	695c6962 	ldmdbvs	ip, {r1, r5, r6, r8, fp, sp, lr}^
      68:	756c636e 	strbvc	r6, [ip, #-878]!	; 0xfffffc92
      6c:	6d5c6564 	cfldr64vs	mvdx6, [ip, #-400]	; 0xfffffe70
      70:	69686361 	stmdbvs	r8!, {r0, r5, r6, r8, r9, sp, lr}^
      74:	6300656e 	movwvs	r6, #1390	; 0x56e
      78:	73755c3a 	cmnvc	r5, #14848	; 0x3a00
      7c:	5c737265 	lfmpl	f7, 2, [r3], #-404	; 0xfffffe6c
      80:	6f646978 	svcvs	0x00646978
      84:	72705c6e 	rsbsvc	r5, r0, #28160	; 0x6e00
      88:	6172676f 	cmnvs	r2, pc, ror #14
      8c:	72615c6d 	rsbvc	r5, r1, #27904	; 0x6d00
      90:	63675f6d 	cmnvs	r7, #436	; 0x1b4
      94:	63675c63 	cmnvs	r7, #25344	; 0x6300
      98:	72612d63 	rsbvc	r2, r1, #6336	; 0x18c0
      9c:	6f6e2d6d 	svcvs	0x006e2d6d
      a0:	652d656e 	strvs	r6, [sp, #-1390]!	; 0xfffffa92
      a4:	2d696261 	sfmcs	f6, 2, [r9, #-388]!	; 0xfffffe7c
      a8:	332e3031 			; <UNDEFINED> instruction: 0x332e3031
      ac:	3230322d 	eorscc	r3, r0, #-805306366	; 0xd0000002
      b0:	30312e31 	eorscc	r2, r1, r1, lsr lr
      b4:	6d72615c 	ldfvse	f6, [r2, #-368]!	; 0xfffffe90
      b8:	6e6f6e2d 	cdpvs	14, 6, cr6, cr15, cr13, {1}
      bc:	61652d65 	cmnvs	r5, r5, ror #26
      c0:	695c6962 	ldmdbvs	ip, {r1, r5, r6, r8, fp, sp, lr}^
      c4:	756c636e 	strbvc	r6, [ip, #-878]!	; 0xfffffc92
      c8:	735c6564 	cmpvc	ip, #100, 10	; 0x19000000
      cc:	2e007379 	mcrcs	3, 0, r7, cr0, cr9, {3}
      d0:	72442f2e 	subvc	r2, r4, #46, 30	; 0xb8
      d4:	72657669 	rsbvc	r7, r5, #110100480	; 0x6900000
      d8:	4d432f73 	stclmi	15, cr2, [r3, #-460]	; 0xfffffe34
      dc:	5f534953 	svcpl	0x00534953
      e0:	4d432f35 	stclmi	15, cr2, [r3, #-212]	; 0xffffff2c
      e4:	2f534953 	svccs	0x00534953
      e8:	65726f43 	ldrbvs	r6, [r2, #-3907]!	; 0xfffff0bd
      ec:	636e492f 	cmnvs	lr, #770048	; 0xbc000
      f0:	6564756c 	strbvs	r7, [r4, #-1388]!	; 0xfffffa94
      f4:	2f2e2e00 	svccs	0x002e2e00
      f8:	65726f43 	ldrbvs	r6, [r2, #-3907]!	; 0xfffff0bd
      fc:	636e492f 	cmnvs	lr, #770048	; 0xbc000
     100:	2f2e2e00 	svccs	0x002e2e00
     104:	2e2f2e2e 	cdpcs	14, 2, cr2, cr15, cr14, {1}
     108:	696c2f2e 	stmdbvs	ip!, {r1, r2, r3, r5, r8, r9, sl, fp, sp}^
     10c:	69747562 	ldmdbvs	r4!, {r1, r5, r6, r8, sl, ip, sp, lr}^
     110:	662f736c 	strtvs	r7, [pc], -ip, ror #6
     114:	746c7561 	strbtvc	r7, [ip], #-1377	; 0xfffffa9f
     118:	6d75642d 	cfldrdvs	mvd6, [r5, #-180]!	; 0xffffff4c
     11c:	6e692f70 	mcrvs	15, 3, r2, cr9, cr0, {3}
     120:	3a630063 	bcc	18c02b4 <__RAM_SIZE+0x17c02b4>
     124:	6573755c 	ldrbvs	r7, [r3, #-1372]!	; 0xfffffaa4
     128:	785c7372 	ldmdavc	ip, {r1, r4, r5, r6, r8, r9, ip, sp, lr}^
     12c:	6e6f6469 	cdpvs	4, 6, cr6, cr15, cr9, {3}
     130:	6f72705c 	svcvs	0x0072705c
     134:	6d617267 	sfmvs	f7, 2, [r1, #-412]!	; 0xfffffe64
     138:	6d72615c 	ldfvse	f6, [r2, #-368]!	; 0xfffffe90
     13c:	6363675f 	cmnvs	r3, #24903680	; 0x17c0000
     140:	6363675c 	cmnvs	r3, #92, 14	; 0x1700000
     144:	6d72612d 	ldfvse	f6, [r2, #-180]!	; 0xffffff4c
     148:	6e6f6e2d 	cdpvs	14, 6, cr6, cr15, cr13, {1}
     14c:	61652d65 	cmnvs	r5, r5, ror #26
     150:	312d6962 			; <UNDEFINED> instruction: 0x312d6962
     154:	2d332e30 	ldccs	14, cr2, [r3, #-192]!	; 0xffffff40
     158:	31323032 	teqcc	r2, r2, lsr r0
     15c:	5c30312e 	ldfpls	f3, [r0], #-184	; 0xffffff48
     160:	2d6d7261 	sfmcs	f7, 2, [sp, #-388]!	; 0xfffffe7c
     164:	656e6f6e 	strbvs	r6, [lr, #-3950]!	; 0xfffff092
     168:	6261652d 	rsbvs	r6, r1, #188743680	; 0xb400000
     16c:	6e695c69 	cdpvs	12, 6, cr5, cr9, cr9, {3}
     170:	64756c63 	ldrbtvs	r6, [r5], #-3171	; 0xfffff39d
     174:	6d000065 	stcvs	0, cr0, [r0, #-404]	; 0xfffffe6c
     178:	2e6e6961 	vnmulcs.f16	s13, s28, s3	; <UNPREDICTABLE>
     17c:	00000063 	andeq	r0, r0, r3, rrx
     180:	65645f00 	strbvs	r5, [r4, #-3840]!	; 0xfffff100
     184:	6c756166 	ldfvse	f6, [r5], #-408	; 0xfffffe68
     188:	79745f74 	ldmdbvc	r4!, {r2, r4, r5, r6, r8, r9, sl, fp, ip, lr}^
     18c:	2e736570 	mrccs	5, 3, r6, cr3, cr0, {3}
     190:	00010068 	andeq	r0, r1, r8, rrx
     194:	74735f00 	ldrbtvc	r5, [r3], #-3840	; 0xfffff100
     198:	746e6964 	strbtvc	r6, [lr], #-2404	; 0xfffff69c
     19c:	0200682e 	andeq	r6, r0, #3014656	; 0x2e0000
     1a0:	6f630000 	svcvs	0x00630000
     1a4:	635f6572 	cmpvs	pc, #478150656	; 0x1c800000
     1a8:	2e33336d 	cdpcs	3, 3, cr3, cr3, cr13, {3}
     1ac:	00030068 	andeq	r0, r3, r8, rrx
     1b0:	72617500 	rsbvc	r7, r1, #0, 10
     1b4:	00682e74 	rsbeq	r2, r8, r4, ror lr
     1b8:	66000004 	strvs	r0, [r0], -r4
     1bc:	746c7561 	strbtvc	r7, [ip], #-1377	; 0xfffffa9f
     1c0:	6d75642d 	cfldrdvs	mvd6, [r5, #-180]!	; 0xffffff4c
     1c4:	00682e70 	rsbeq	r2, r8, r0, ror lr
     1c8:	73000005 	movwvc	r0, #5
     1cc:	6f696474 	svcvs	0x00696474
     1d0:	0600682e 	streq	r6, [r0], -lr, lsr #16
     1d4:	623c0000 	eorsvs	r0, ip, #0
     1d8:	746c6975 	strbtvc	r6, [ip], #-2421	; 0xfffff68b
     1dc:	3e6e692d 	vmulcc.f16	s13, s28, s27	; <UNPREDICTABLE>
     1e0:	00000000 	andeq	r0, r0, r0
     1e4:	00230500 	eoreq	r0, r3, r0, lsl #10
     1e8:	08000205 	stmdaeq	r0, {r0, r2, r9}
     1ec:	05191000 	ldreq	r1, [r9, #-0]
     1f0:	01021401 	tsteq	r2, r1, lsl #8
     1f4:	05010100 	streq	r0, [r1, #-256]	; 0xffffff00
     1f8:	02050026 	andeq	r0, r5, #38	; 0x26
     1fc:	00000000 	andeq	r0, r0, r0
     200:	05010b03 	streq	r0, [r1, #-2819]	; 0xfffff4fd
     204:	01052105 	tsteq	r5, r5, lsl #2
     208:	04023d06 	streq	r3, [r2], #-3334	; 0xfffff2fa
     20c:	05010100 	streq	r0, [r1, #-256]	; 0xffffff00
     210:	0205001c 	andeq	r0, r5, #28
     214:	00000000 	andeq	r0, r0, r0
     218:	05010f03 	streq	r0, [r1, #-3843]	; 0xfffff0fd
     21c:	01052105 	tsteq	r5, r5, lsl #2
     220:	04023d06 	streq	r3, [r2], #-3334	; 0xfffff2fa
     224:	05010100 	streq	r0, [r1, #-256]	; 0xffffff00
     228:	02050023 	andeq	r0, r5, #35	; 0x23
     22c:	00000000 	andeq	r0, r0, r0
     230:	05011303 	streq	r1, [r1, #-771]	; 0xfffffcfd
     234:	05142105 	ldreq	r2, [r4, #-261]	; 0xfffffefb
     238:	0501060e 	streq	r0, [r1, #-1550]	; 0xfffff9f2
     23c:	13590605 	cmpne	r9, #5242880	; 0x500000
     240:	4b060105 	blmi	18065c <__RAM_SIZE+0x8065c>
     244:	01000602 	tsteq	r0, r2, lsl #12
     248:	00220501 	eoreq	r0, r2, r1, lsl #10
     24c:	08040205 	stmdaeq	r4, {r0, r2, r9}
     250:	1b031000 	blne	c4258 <__HEAP_SIZE+0xc3258>
     254:	2f050501 	svccs	0x00050501
     258:	06120513 			; <UNDEFINED> instruction: 0x06120513
     25c:	06050501 	streq	r0, [r5], -r1, lsl #10
     260:	060e052f 	streq	r0, [lr], -pc, lsr #10
     264:	06050501 	streq	r0, [r5], -r1, lsl #10
     268:	0d05135a 	stceq	3, cr1, [r5, #-360]	; 0xfffffe98
     26c:	0b050106 	bleq	14068c <__RAM_SIZE+0x4068c>
     270:	06050520 	streq	r0, [r5], -r0, lsr #10
     274:	05136721 	ldreq	r6, [r3, #-1825]	; 0xfffff8df
     278:	0501060d 	streq	r0, [r1, #-1549]	; 0xfffff9f3
     27c:	0505200b 	streq	r2, [r5, #-11]
     280:	13592106 	cmpne	r9, #-2147483647	; 0x80000001
     284:	01060d05 	tsteq	r6, r5, lsl #26
     288:	052e0b05 	streq	r0, [lr, #-2821]!	; 0xfffff4fb
     28c:	05210605 	streq	r0, [r1, #-1541]!	; 0xfffff9fb
     290:	02590601 	subseq	r0, r9, #1048576	; 0x100000
     294:	01010006 	tsteq	r1, r6
     298:	05001b05 	streq	r1, [r0, #-2821]	; 0xfffff4fb
     29c:	00085002 	andeq	r5, r8, r2
     2a0:	012b0310 			; <UNDEFINED> instruction: 0x012b0310
     2a4:	052f0505 	streq	r0, [pc, #-1285]!	; fffffda7 <__StackTop+0xc7effda7>
     2a8:	05010612 	streq	r0, [r1, #-1554]	; 0xfffff9ee
     2ac:	05670605 	strbeq	r0, [r7, #-1541]!	; 0xfffff9fb
     2b0:	0501061a 	streq	r0, [r1, #-1562]	; 0xfffff9e6
     2b4:	053d0605 	ldreq	r0, [sp, #-1541]!	; 0xfffff9fb
     2b8:	2e01061a 	mcrcs	6, 0, r0, cr1, cr10, {0}
     2bc:	21060505 	tstcs	r6, r5, lsl #10
     2c0:	01061105 	tsteq	r6, r5, lsl #2
     2c4:	0605053c 			; <UNDEFINED> instruction: 0x0605053c
     2c8:	0608052f 	streq	r0, [r8], -pc, lsr #10
     2cc:	06090501 	streq	r0, [r9], -r1, lsl #10
     2d0:	06200631 			; <UNDEFINED> instruction: 0x06200631
     2d4:	010e052f 	tsteq	lr, pc, lsr #10
     2d8:	01061205 	tsteq	r6, r5, lsl #4
     2dc:	20200905 	eorcs	r0, r0, r5, lsl #18
     2e0:	2e060f06 	cdpcs	15, 0, cr0, cr6, cr6, {0}
     2e4:	02000d05 	andeq	r0, r0, #320	; 0x140
     2e8:	40060304 	andmi	r0, r6, r4, lsl #6
     2ec:	02002405 	andeq	r2, r0, #83886080	; 0x5000000
     2f0:	05570304 	ldrbeq	r0, [r7, #-772]	; 0xfffffcfc
     2f4:	04020025 	streq	r0, [r2], #-37	; 0xffffffdb
     2f8:	05010603 	streq	r0, [r1, #-1539]	; 0xfffff9fd
     2fc:	04020019 	streq	r0, [r2], #-25	; 0xffffffe7
     300:	05200601 	streq	r0, [r0, #-1537]!	; 0xfffff9ff
     304:	04020009 	streq	r0, [r2], #-9
     308:	06010601 	streq	r0, [r1], -r1, lsl #12
     30c:	06010531 			; <UNDEFINED> instruction: 0x06010531
     310:	08022e3e 	stmdaeq	r2, {r1, r2, r3, r4, r5, r9, sl, fp, sp}
     314:	05010100 	streq	r0, [r1, #-256]	; 0xffffff00
     318:	02050012 	andeq	r0, r5, #18
     31c:	100008b8 			; <UNDEFINED> instruction: 0x100008b8
     320:	05013b03 	streq	r3, [r1, #-2819]	; 0xfffff4fd
     324:	304b2105 	subcc	r2, fp, r5, lsl #2
     328:	2f060105 	svccs	0x00060105
     32c:	01000502 	tsteq	r0, r2, lsl #10
     330:	00120501 	andseq	r0, r2, r1, lsl #10
     334:	08d40205 	ldmeq	r4, {r0, r2, r9}^
     338:	c2031000 	andgt	r1, r3, #0
     33c:	05050100 	streq	r0, [r5, #-256]	; 0xffffff00
     340:	01054b21 	tsteq	r5, r1, lsr #22
     344:	05022f06 	streq	r2, [r2, #-3846]	; 0xfffff0fa
     348:	05010100 	streq	r0, [r1, #-256]	; 0xffffff00
     34c:	02050012 	andeq	r0, r5, #18
     350:	100008ec 	andne	r0, r0, ip, ror #17
     354:	0100c703 	tsteq	r0, r3, lsl #14
     358:	4b210505 	blmi	841774 <__RAM_SIZE+0x741774>
     35c:	2f060105 	svccs	0x00060105
     360:	01000502 	tsteq	r0, r2, lsl #10
     364:	00120501 	andseq	r0, r2, r1, lsl #10
     368:	09040205 	stmdbeq	r4, {r0, r2, r9}
     36c:	cc031000 	stcgt	0, cr1, [r3], {-0}
     370:	05050100 	streq	r0, [r5, #-256]	; 0xffffff00
     374:	01054b21 	tsteq	r5, r1, lsr #22
     378:	05022f06 	streq	r2, [r2, #-3846]	; 0xfffff0fa
     37c:	05010100 	streq	r0, [r1, #-256]	; 0xffffff00
     380:	02050012 	andeq	r0, r5, #18
     384:	1000091c 	andne	r0, r0, ip, lsl r9
     388:	0100d103 	tsteq	r0, r3, lsl #2
     38c:	4b210505 	blmi	8417a8 <__RAM_SIZE+0x7417a8>
     390:	2f060105 	svccs	0x00060105
     394:	01000502 	tsteq	r0, r2, lsl #10
     398:	00120501 	andseq	r0, r2, r1, lsl #10
     39c:	09340205 	ldmdbeq	r4!, {r0, r2, r9}
     3a0:	d6031000 	strle	r1, [r3], -r0
     3a4:	05050100 	streq	r0, [r5, #-256]	; 0xffffff00
     3a8:	01054b21 	tsteq	r5, r1, lsr #22
     3ac:	05022f06 	streq	r2, [r2, #-3846]	; 0xfffff0fa
     3b0:	05010100 	streq	r0, [r1, #-256]	; 0xffffff00
     3b4:	02050010 	andeq	r0, r5, #16
     3b8:	1000094c 	andne	r0, r0, ip, asr #18
     3bc:	0100db03 	tsteq	r0, r3, lsl #22
     3c0:	13210505 			; <UNDEFINED> instruction: 0x13210505
     3c4:	052f3d30 	streq	r3, [pc, #-3376]!	; fffff69c <__StackTop+0xc7eff69c>
     3c8:	05290609 	streq	r0, [r9, #-1545]!	; 0xfffff9f7
     3cc:	04020005 	streq	r0, [r2], #-5
     3d0:	05270601 	streq	r0, [r7, #-1537]!	; 0xfffff9ff
     3d4:	04020009 	streq	r0, [r2], #-9
     3d8:	02001301 	andeq	r1, r0, #67108864	; 0x4000000
     3dc:	00210104 	eoreq	r0, r1, r4, lsl #2
     3e0:	06010402 	streq	r0, [r1], -r2, lsl #8
     3e4:	000b0520 	andeq	r0, fp, r0, lsr #10
     3e8:	06010402 	streq	r0, [r1], -r2, lsl #8
     3ec:	0009053a 	andeq	r0, r9, sl, lsr r5
     3f0:	06010402 	streq	r0, [r1], -r2, lsl #8
     3f4:	00060214 	andeq	r0, r6, r4, lsl r2
     3f8:	01c30101 	biceq	r0, r3, r1, lsl #2
     3fc:	00030000 	andeq	r0, r3, r0
     400:	00000173 	andeq	r0, r0, r3, ror r1
     404:	0efb0102 	cdpeq	1, 15, cr0, cr11, cr2, {0}
     408:	0101000d 	tsteq	r1, sp
     40c:	00000101 	andeq	r0, r0, r1, lsl #2
     410:	00000100 	andeq	r0, r0, r0, lsl #2
     414:	5c3a6301 	ldcpl	3, cr6, [sl], #-4
     418:	72657375 	rsbvc	r7, r5, #-738197503	; 0xd4000001
     41c:	69785c73 	ldmdbvs	r8!, {r0, r1, r4, r5, r6, sl, fp, ip, lr}^
     420:	5c6e6f64 	stclpl	15, cr6, [lr], #-400	; 0xfffffe70
     424:	676f7270 			; <UNDEFINED> instruction: 0x676f7270
     428:	5c6d6172 	stfple	f6, [sp], #-456	; 0xfffffe38
     42c:	5f6d7261 	svcpl	0x006d7261
     430:	5c636367 	stclpl	3, cr6, [r3], #-412	; 0xfffffe64
     434:	2d636367 	stclcs	3, cr6, [r3, #-412]!	; 0xfffffe64
     438:	2d6d7261 	sfmcs	f7, 2, [sp, #-388]!	; 0xfffffe7c
     43c:	656e6f6e 	strbvs	r6, [lr, #-3950]!	; 0xfffff092
     440:	6261652d 	rsbvs	r6, r1, #188743680	; 0xb400000
     444:	30312d69 	eorscc	r2, r1, r9, ror #26
     448:	322d332e 	eorcc	r3, sp, #-1207959552	; 0xb8000000
     44c:	2e313230 	mrccs	2, 1, r3, cr1, cr0, {1}
     450:	615c3031 	cmpvs	ip, r1, lsr r0
     454:	6e2d6d72 	mcrvs	13, 1, r6, cr13, cr2, {3}
     458:	2d656e6f 	stclcs	14, cr6, [r5, #-444]!	; 0xfffffe44
     45c:	69626165 	stmdbvs	r2!, {r0, r2, r5, r6, r8, sp, lr}^
     460:	636e695c 	cmnvs	lr, #92, 18	; 0x170000
     464:	6564756c 	strbvs	r7, [r4, #-1388]!	; 0xfffffa94
     468:	63616d5c 	cmnvs	r1, #92, 26	; 0x1700
     46c:	656e6968 	strbvs	r6, [lr, #-2408]!	; 0xfffff698
     470:	5c3a6300 	ldcpl	3, cr6, [sl], #-0
     474:	72657375 	rsbvc	r7, r5, #-738197503	; 0xd4000001
     478:	69785c73 	ldmdbvs	r8!, {r0, r1, r4, r5, r6, sl, fp, ip, lr}^
     47c:	5c6e6f64 	stclpl	15, cr6, [lr], #-400	; 0xfffffe70
     480:	676f7270 			; <UNDEFINED> instruction: 0x676f7270
     484:	5c6d6172 	stfple	f6, [sp], #-456	; 0xfffffe38
     488:	5f6d7261 	svcpl	0x006d7261
     48c:	5c636367 	stclpl	3, cr6, [r3], #-412	; 0xfffffe64
     490:	2d636367 	stclcs	3, cr6, [r3, #-412]!	; 0xfffffe64
     494:	2d6d7261 	sfmcs	f7, 2, [sp, #-388]!	; 0xfffffe7c
     498:	656e6f6e 	strbvs	r6, [lr, #-3950]!	; 0xfffff092
     49c:	6261652d 	rsbvs	r6, r1, #188743680	; 0xb400000
     4a0:	30312d69 	eorscc	r2, r1, r9, ror #26
     4a4:	322d332e 	eorcc	r3, sp, #-1207959552	; 0xb8000000
     4a8:	2e313230 	mrccs	2, 1, r3, cr1, cr0, {1}
     4ac:	615c3031 	cmpvs	ip, r1, lsr r0
     4b0:	6e2d6d72 	mcrvs	13, 1, r6, cr13, cr2, {3}
     4b4:	2d656e6f 	stclcs	14, cr6, [r5, #-444]!	; 0xfffffe44
     4b8:	69626165 	stmdbvs	r2!, {r0, r2, r5, r6, r8, sp, lr}^
     4bc:	636e695c 	cmnvs	lr, #92, 18	; 0x170000
     4c0:	6564756c 	strbvs	r7, [r4, #-1388]!	; 0xfffffa94
     4c4:	7379735c 	cmnvc	r9, #92, 6	; 0x70000001
     4c8:	2f2e2e00 	svccs	0x002e2e00
     4cc:	76697244 	strbtvc	r7, [r9], -r4, asr #4
     4d0:	2f737265 	svccs	0x00737265
     4d4:	49534d43 	ldmdbmi	r3, {r0, r1, r6, r8, sl, fp, lr}^
     4d8:	2f355f53 	svccs	0x00355f53
     4dc:	49534d43 	ldmdbmi	r3, {r0, r1, r6, r8, sl, fp, lr}^
     4e0:	6f432f53 	svcvs	0x00432f53
     4e4:	492f6572 	stmdbmi	pc!, {r1, r4, r5, r6, r8, sl, sp, lr}	; <UNPREDICTABLE>
     4e8:	756c636e 	strbvc	r6, [ip, #-878]!	; 0xfffffc92
     4ec:	2e006564 	cfsh32cs	mvfx6, mvfx0, #52
     4f0:	72442f2e 	subvc	r2, r4, #46, 30	; 0xb8
     4f4:	72657669 	rsbvc	r7, r5, #110100480	; 0x6900000
     4f8:	4d432f73 	stclmi	15, cr2, [r3, #-460]	; 0xfffffe34
     4fc:	5f534953 	svcpl	0x00534953
     500:	65442f35 	strbvs	r2, [r4, #-3893]	; 0xfffff0cb
     504:	65636976 	strbvs	r6, [r3, #-2422]!	; 0xfffff68a
     508:	4d52412f 	ldfmie	f4, [r2, #-188]	; 0xffffff44
     50c:	4d52412f 	ldfmie	f4, [r2, #-188]	; 0xffffff44
     510:	33334d43 	teqcc	r3, #4288	; 0x10c0
     514:	636e492f 	cmnvs	lr, #770048	; 0xbc000
     518:	6564756c 	strbvs	r7, [r4, #-1388]!	; 0xfffffa94
     51c:	79730000 	ldmdbvc	r3!, {}^	; <UNPREDICTABLE>
     520:	6d657473 	cfstrdvs	mvd7, [r5, #-460]!	; 0xfffffe34
     524:	4d52415f 	ldfmie	f4, [r2, #-380]	; 0xfffffe84
     528:	33334d43 	teqcc	r3, #4288	; 0x10c0
     52c:	0000632e 	andeq	r6, r0, lr, lsr #6
     530:	645f0000 	ldrbvs	r0, [pc], #-0	; 538 <__STACKSEAL_SIZE+0x538>
     534:	75616665 	strbvc	r6, [r1, #-1637]!	; 0xfffff99b
     538:	745f746c 	ldrbvc	r7, [pc], #-1132	; 540 <__STACKSEAL_SIZE+0x540>
     53c:	73657079 	cmnvc	r5, #121	; 0x79
     540:	0100682e 	tsteq	r0, lr, lsr #16
     544:	735f0000 	cmpvc	pc, #0
     548:	6e696474 	mcrvs	4, 3, r6, cr9, cr4, {3}
     54c:	00682e74 	rsbeq	r2, r8, r4, ror lr
     550:	63000002 	movwvs	r0, #2
     554:	5f65726f 	svcpl	0x0065726f
     558:	33336d63 	teqcc	r3, #6336	; 0x18c0
     55c:	0300682e 	movweq	r6, #2094	; 0x82e
     560:	79730000 	ldmdbvc	r3!, {}^	; <UNPREDICTABLE>
     564:	6d657473 	cfstrdvs	mvd7, [r5, #-460]!	; 0xfffffe34
     568:	4d52415f 	ldfmie	f4, [r2, #-380]	; 0xfffffe84
     56c:	33334d43 	teqcc	r3, #4288	; 0x10c0
     570:	0400682e 	streq	r6, [r0], #-2094	; 0xfffff7d2
     574:	05000000 	streq	r0, [r0, #-0]
     578:	02050001 	andeq	r0, r5, #1
     57c:	00000000 	andeq	r0, r0, r0
     580:	0100c403 	tsteq	r0, r3, lsl #8
     584:	05130305 	ldreq	r0, [r3, #-773]	; 0xfffffcfb
     588:	05010613 	streq	r0, [r1, #-1555]	; 0xfffff9ed
     58c:	05023d01 	streq	r3, [r2, #-3329]	; 0xfffff2ff
     590:	05010100 	streq	r0, [r1, #-256]	; 0xffffff00
     594:	02050001 	andeq	r0, r5, #1
     598:	10000978 	andne	r0, r0, r8, ror r9
     59c:	0100cc03 	tsteq	r0, r3, lsl #24
     5a0:	05150305 	ldreq	r0, [r5, #-773]	; 0xfffffcfb
     5a4:	0501060d 	streq	r0, [r1, #-1549]	; 0xfffff9f3
     5a8:	05400603 	strbeq	r0, [r0, #-1539]	; 0xfffff9fd
     5ac:	0501060e 	streq	r0, [r1, #-1550]	; 0xfffff9f2
     5b0:	0c030603 	stceq	6, cr0, [r3], {3}
     5b4:	06130566 	ldreq	r0, [r3], -r6, ror #10
     5b8:	3d010501 	cfstr32cc	mvfx0, [r1, #-4]
     5bc:	01000a02 	tsteq	r0, r2, lsl #20
     5c0:	00120d01 	andseq	r0, r2, r1, lsl #26
     5c4:	a1000300 	mrsge	r0, LR_irq
     5c8:	02000001 	andeq	r0, r0, #1
     5cc:	0d0efb01 	vstreq	d15, [lr, #-4]
     5d0:	01010100 	mrseq	r0, (UNDEF: 17)
     5d4:	00000001 	andeq	r0, r0, r1
     5d8:	01000001 	tsteq	r0, r1
     5dc:	432f2e2e 			; <UNDEFINED> instruction: 0x432f2e2e
     5e0:	2f65726f 	svccs	0x0065726f
     5e4:	00637253 	rsbeq	r7, r3, r3, asr r2
     5e8:	755c3a63 	ldrbvc	r3, [ip, #-2659]	; 0xfffff59d
     5ec:	73726573 	cmnvc	r2, #482344960	; 0x1cc00000
     5f0:	6469785c 	strbtvs	r7, [r9], #-2140	; 0xfffff7a4
     5f4:	705c6e6f 	subsvc	r6, ip, pc, ror #28
     5f8:	72676f72 	rsbvc	r6, r7, #456	; 0x1c8
     5fc:	615c6d61 	cmpvs	ip, r1, ror #26
     600:	675f6d72 			; <UNDEFINED> instruction: 0x675f6d72
     604:	675c6363 	ldrbvs	r6, [ip, -r3, ror #6]
     608:	612d6363 			; <UNDEFINED> instruction: 0x612d6363
     60c:	6e2d6d72 	mcrvs	13, 1, r6, cr13, cr2, {3}
     610:	2d656e6f 	stclcs	14, cr6, [r5, #-444]!	; 0xfffffe44
     614:	69626165 	stmdbvs	r2!, {r0, r2, r5, r6, r8, sp, lr}^
     618:	2e30312d 	rsfcssp	f3, f0, #5.0
     61c:	30322d33 	eorscc	r2, r2, r3, lsr sp
     620:	312e3132 			; <UNDEFINED> instruction: 0x312e3132
     624:	72615c30 	rsbvc	r5, r1, #48, 24	; 0x3000
     628:	6f6e2d6d 	svcvs	0x006e2d6d
     62c:	652d656e 	strvs	r6, [sp, #-1390]!	; 0xfffffa92
     630:	5c696261 	sfmpl	f6, 2, [r9], #-388	; 0xfffffe7c
     634:	6c636e69 	stclvs	14, cr6, [r3], #-420	; 0xfffffe5c
     638:	5c656475 	cfstrdpl	mvd6, [r5], #-468	; 0xfffffe2c
     63c:	6863616d 	stmdavs	r3!, {r0, r2, r3, r5, r6, r8, sp, lr}^
     640:	00656e69 	rsbeq	r6, r5, r9, ror #28
     644:	755c3a63 	ldrbvc	r3, [ip, #-2659]	; 0xfffff59d
     648:	73726573 	cmnvc	r2, #482344960	; 0x1cc00000
     64c:	6469785c 	strbtvs	r7, [r9], #-2140	; 0xfffff7a4
     650:	705c6e6f 	subsvc	r6, ip, pc, ror #28
     654:	72676f72 	rsbvc	r6, r7, #456	; 0x1c8
     658:	615c6d61 	cmpvs	ip, r1, ror #26
     65c:	675f6d72 			; <UNDEFINED> instruction: 0x675f6d72
     660:	675c6363 	ldrbvs	r6, [ip, -r3, ror #6]
     664:	612d6363 			; <UNDEFINED> instruction: 0x612d6363
     668:	6e2d6d72 	mcrvs	13, 1, r6, cr13, cr2, {3}
     66c:	2d656e6f 	stclcs	14, cr6, [r5, #-444]!	; 0xfffffe44
     670:	69626165 	stmdbvs	r2!, {r0, r2, r5, r6, r8, sp, lr}^
     674:	2e30312d 	rsfcssp	f3, f0, #5.0
     678:	30322d33 	eorscc	r2, r2, r3, lsr sp
     67c:	312e3132 			; <UNDEFINED> instruction: 0x312e3132
     680:	72615c30 	rsbvc	r5, r1, #48, 24	; 0x3000
     684:	6f6e2d6d 	svcvs	0x006e2d6d
     688:	652d656e 	strvs	r6, [sp, #-1390]!	; 0xfffffa92
     68c:	5c696261 	sfmpl	f6, 2, [r9], #-388	; 0xfffffe7c
     690:	6c636e69 	stclvs	14, cr6, [r3], #-420	; 0xfffffe5c
     694:	5c656475 	cfstrdpl	mvd6, [r5], #-468	; 0xfffffe2c
     698:	00737973 	rsbseq	r7, r3, r3, ror r9
     69c:	755c3a63 	ldrbvc	r3, [ip, #-2659]	; 0xfffff59d
     6a0:	73726573 	cmnvc	r2, #482344960	; 0x1cc00000
     6a4:	6469785c 	strbtvs	r7, [r9], #-2140	; 0xfffff7a4
     6a8:	705c6e6f 	subsvc	r6, ip, pc, ror #28
     6ac:	72676f72 	rsbvc	r6, r7, #456	; 0x1c8
     6b0:	615c6d61 	cmpvs	ip, r1, ror #26
     6b4:	675f6d72 			; <UNDEFINED> instruction: 0x675f6d72
     6b8:	675c6363 	ldrbvs	r6, [ip, -r3, ror #6]
     6bc:	612d6363 			; <UNDEFINED> instruction: 0x612d6363
     6c0:	6e2d6d72 	mcrvs	13, 1, r6, cr13, cr2, {3}
     6c4:	2d656e6f 	stclcs	14, cr6, [r5, #-444]!	; 0xfffffe44
     6c8:	69626165 	stmdbvs	r2!, {r0, r2, r5, r6, r8, sp, lr}^
     6cc:	2e30312d 	rsfcssp	f3, f0, #5.0
     6d0:	30322d33 	eorscc	r2, r2, r3, lsr sp
     6d4:	312e3132 			; <UNDEFINED> instruction: 0x312e3132
     6d8:	696c5c30 	stmdbvs	ip!, {r4, r5, sl, fp, ip, lr}^
     6dc:	63675c62 	cmnvs	r7, #25088	; 0x6200
     6e0:	72615c63 	rsbvc	r5, r1, #25344	; 0x6300
     6e4:	6f6e2d6d 	svcvs	0x006e2d6d
     6e8:	652d656e 	strvs	r6, [sp, #-1390]!	; 0xfffffa92
     6ec:	5c696261 	sfmpl	f6, 2, [r9], #-388	; 0xfffffe7c
     6f0:	332e3031 			; <UNDEFINED> instruction: 0x332e3031
     6f4:	695c312e 	ldmdbvs	ip, {r1, r2, r3, r5, r8, ip, sp}^
     6f8:	756c636e 	strbvc	r6, [ip, #-878]!	; 0xfffffc92
     6fc:	2e006564 	cfsh32cs	mvfx6, mvfx0, #52
     700:	6f432f2e 	svcvs	0x00432f2e
     704:	492f6572 	stmdbmi	pc!, {r1, r4, r5, r6, r8, sl, sp, lr}	; <UNPREDICTABLE>
     708:	0000636e 	andeq	r6, r0, lr, ror #6
     70c:	6e697270 	mcrvs	2, 3, r7, cr9, cr0, {3}
     710:	632e6674 			; <UNDEFINED> instruction: 0x632e6674
     714:	00000100 	andeq	r0, r0, r0, lsl #2
     718:	6665645f 			; <UNDEFINED> instruction: 0x6665645f
     71c:	746c7561 	strbtvc	r7, [ip], #-1377	; 0xfffffa9f
     720:	7079745f 	rsbsvc	r7, r9, pc, asr r4
     724:	682e7365 	stmdavs	lr!, {r0, r2, r5, r6, r8, r9, ip, sp, lr}
     728:	00000200 	andeq	r0, r0, r0, lsl #4
     72c:	6474735f 	ldrbtvs	r7, [r4], #-863	; 0xfffffca1
     730:	2e746e69 	cdpcs	14, 7, cr6, cr4, cr9, {3}
     734:	00030068 	andeq	r0, r3, r8, rrx
     738:	64747300 	ldrbtvs	r7, [r4], #-768	; 0xfffffd00
     73c:	2e677261 	cdpcs	2, 6, cr7, cr7, cr1, {3}
     740:	00040068 	andeq	r0, r4, r8, rrx
     744:	64747300 	ldrbtvs	r7, [r4], #-768	; 0xfffffd00
     748:	2e666564 	cdpcs	5, 6, cr6, cr6, cr4, {3}
     74c:	00040068 	andeq	r0, r4, r8, rrx
     750:	75623c00 	strbvc	r3, [r2, #-3072]!	; 0xfffff400
     754:	2d746c69 	ldclcs	12, cr6, [r4, #-420]!	; 0xfffffe5c
     758:	003e6e69 	eorseq	r6, lr, r9, ror #28
     75c:	70000000 	andvc	r0, r0, r0
     760:	746e6972 	strbtvc	r6, [lr], #-2418	; 0xfffff68e
     764:	00682e66 	rsbeq	r2, r8, r6, ror #28
     768:	00000005 	andeq	r0, r0, r5
     76c:	05000105 	streq	r0, [r0, #-261]	; 0xfffffefb
     770:	00000002 	andeq	r0, r0, r2
     774:	01850300 	orreq	r0, r5, r0, lsl #6
     778:	13030501 	movwne	r0, #13569	; 0x3501
     77c:	01060605 	tsteq	r6, r5, lsl #12
     780:	2f060505 	svccs	0x00060505
     784:	01061a05 	tsteq	r6, r5, lsl #20
     788:	02220105 	eoreq	r0, r2, #1073741825	; 0x40000001
     78c:	01010001 	tsteq	r1, r1
     790:	05000105 	streq	r0, [r0, #-261]	; 0xfffffefb
     794:	0009a402 	andeq	sl, r9, r2, lsl #8
     798:	018e0310 	orreq	r0, lr, r0, lsl r3
     79c:	13030501 	movwne	r0, #13569	; 0x3501
     7a0:	05011405 	streq	r1, [r1, #-1029]	; 0xfffffbfb
     7a4:	2d050122 	stfcss	f0, [r5, #-136]	; 0xffffff78
     7a8:	06010501 	streq	r0, [r1], -r1, lsl #10
     7ac:	00010213 	andeq	r0, r1, r3, lsl r2
     7b0:	01050101 	tsteq	r5, r1, lsl #2
     7b4:	00020500 	andeq	r0, r2, r0, lsl #10
     7b8:	03000000 	movweq	r0, #0
     7bc:	0501019f 	streq	r0, [r1, #-415]	; 0xfffffe61
     7c0:	0e051303 	cdpeq	3, 0, cr1, cr5, cr3, {0}
     7c4:	13030501 	movwne	r0, #13569	; 0x3501
     7c8:	01060605 	tsteq	r6, r5, lsl #12
     7cc:	051e0105 	ldreq	r0, [lr, #-261]	; 0xfffffefb
     7d0:	05240605 	streq	r0, [r4, #-1541]!	; 0xfffff9fb
     7d4:	05010621 	streq	r0, [r1, #-1569]	; 0xfffff9df
     7d8:	05202006 	streq	r2, [r0, #-6]!
     7dc:	02202201 	eoreq	r2, r0, #268435456	; 0x10000000
     7e0:	01010001 	tsteq	r1, r1
     7e4:	05000105 	streq	r0, [r0, #-261]	; 0xfffffefb
     7e8:	0009a602 	andeq	sl, r9, r2, lsl #12
     7ec:	01bc0310 			; <UNDEFINED> instruction: 0x01bc0310
     7f0:	05010601 	streq	r0, [r1, #-1537]	; 0xfffff9ff
     7f4:	13210603 			; <UNDEFINED> instruction: 0x13210603
     7f8:	11061005 	tstne	r6, r5
     7fc:	05210905 	streq	r0, [r1, #-2309]!	; 0xfffff6fb
     800:	05210605 	streq	r0, [r1, #-1541]!	; 0xfffff9fb
     804:	0501060b 	streq	r0, [r1, #-1547]	; 0xfffff9f5
     808:	22052e2a 	andcs	r2, r5, #672	; 0x2a0
     80c:	2011052e 	andscs	r0, r1, lr, lsr #10
     810:	052e0705 	streq	r0, [lr, #-1797]!	; 0xfffff8fb
     814:	051f0609 	ldreq	r0, [pc, #-1545]	; 213 <__STACKSEAL_SIZE+0x213>
     818:	05010615 	streq	r0, [r1, #-1557]	; 0xfffff9eb
     81c:	1405200a 	strne	r2, [r5], #-10
     820:	20760306 	rsbscs	r0, r6, r6, lsl #6
     824:	05140305 	ldreq	r0, [r4, #-773]	; 0xfffffcfb
     828:	20010616 	andcs	r0, r1, r6, lsl r6
     82c:	1a090520 	bne	241cb4 <__RAM_SIZE+0x141cb4>
     830:	31060305 	tstcc	r6, r5, lsl #6
     834:	13060105 	movwne	r0, #24837	; 0x6105
     838:	01000102 	tsteq	r0, r2, lsl #2
     83c:	00010501 	andeq	r0, r1, r1, lsl #10
     840:	09ca0205 	stmibeq	sl, {r0, r2, r9}^
     844:	c7031000 	strgt	r1, [r3, -r0]
     848:	01060101 	tsteq	r6, r1, lsl #2
     84c:	bb060305 	bllt	181468 <__RAM_SIZE+0x81468>
     850:	06060515 			; <UNDEFINED> instruction: 0x06060515
     854:	11052001 	tstne	r5, r1
     858:	001a053d 	andseq	r0, sl, sp, lsr r5
     85c:	06010402 	streq	r0, [r1], -r2, lsl #8
     860:	0005052e 	andeq	r0, r5, lr, lsr #10
     864:	06010402 	streq	r0, [r1], -r2, lsl #8
     868:	00070501 	andeq	r0, r7, r1, lsl #10
     86c:	06030402 	streq	r0, [r3], -r2, lsl #8
     870:	0402002f 	streq	r0, [r2], #-47	; 0xffffffd1
     874:	052e0603 	streq	r0, [lr, #-1539]!	; 0xfffff9fd
     878:	04020025 	streq	r0, [r2], #-37	; 0xffffffdb
     87c:	05490603 	strbeq	r0, [r9, #-1539]	; 0xfffff9fd
     880:	04020026 	streq	r0, [r2], #-38	; 0xffffffda
     884:	05010603 	streq	r0, [r1, #-1539]	; 0xfffff9fd
     888:	04020007 	streq	r0, [r2], #-7
     88c:	02002f03 	andeq	r2, r0, #3, 30
     890:	002e0304 	eoreq	r0, lr, r4, lsl #6
     894:	3c030402 	cfstrscc	mvf0, [r3], {2}
     898:	18060505 	stmdane	r6, {r0, r2, r8, sl}
     89c:	052e2006 	streq	r2, [lr, #-6]!
     8a0:	05650609 	strbeq	r0, [r5, #-1545]!	; 0xfffff9f7
     8a4:	06053303 	streq	r3, [r5], -r3, lsl #6
     8a8:	01050106 	tsteq	r5, r6, lsl #2
     8ac:	060b0551 			; <UNDEFINED> instruction: 0x060b0551
     8b0:	054a7a03 	strbeq	r7, [sl, #-2563]	; 0xfffff5fd
     8b4:	05010610 	streq	r0, [r1, #-1552]	; 0xfffff9f0
     8b8:	07052e0b 	streq	r2, [r5, -fp, lsl #28]
     8bc:	20062f06 	andcs	r2, r6, r6, lsl #30
     8c0:	01000602 	tsteq	r0, r2, lsl #12
     8c4:	00010501 	andeq	r0, r1, r1, lsl #10
     8c8:	0a480205 	beq	12010e4 <__RAM_SIZE+0x11010e4>
     8cc:	e3031000 	movw	r1, #12288	; 0x3000
     8d0:	01060101 	tsteq	r6, r1, lsl #2
     8d4:	ca060305 	bgt	1814f0 <__RAM_SIZE+0x814f0>
     8d8:	01060605 	tsteq	r6, r5, lsl #12
     8dc:	3d060505 	cfstr32cc	mvfx0, [r6, #-20]	; 0xffffffec
     8e0:	01060805 	tsteq	r6, r5, lsl #16
     8e4:	02000f05 	andeq	r0, r0, #5, 30
     8e8:	05200104 	streq	r0, [r0, #-260]!	; 0xfffffefc
     8ec:	0402002a 	streq	r0, [r2], #-42	; 0xffffffd6
     8f0:	37053c02 	strcc	r3, [r5, -r2, lsl #24]
     8f4:	03040200 	movweq	r0, #16896	; 0x4200
     8f8:	0607053c 			; <UNDEFINED> instruction: 0x0607053c
     8fc:	060c053d 			; <UNDEFINED> instruction: 0x060c053d
     900:	07052001 	streq	r2, [r5, -r1]
     904:	12052306 	andne	r2, r5, #402653184	; 0x18000000
     908:	0e050106 	adfeqs	f0, f5, f6
     90c:	060b054a 	streq	r0, [fp], -sl, asr #10
     910:	0019051f 	andseq	r0, r9, pc, lsl r5
     914:	06010402 	streq	r0, [r1], -r2, lsl #8
     918:	060b052e 	streq	r0, [fp], -lr, lsr #10
     91c:	00240531 	eoreq	r0, r4, r1, lsr r5
     920:	06010402 	streq	r0, [r1], -r2, lsl #8
     924:	0035053c 	eorseq	r0, r5, ip, lsr r5
     928:	2e020402 	cdpcs	4, 0, cr0, cr2, cr2, {0}
     92c:	2f060705 	svccs	0x00060705
     930:	01061205 	tsteq	r6, r5, lsl #4
     934:	204a0e05 	subcs	r0, sl, r5, lsl #28
     938:	25060305 	strcs	r0, [r6, #-773]	; 0xfffffcfb
     93c:	01060605 	tsteq	r6, r5, lsl #12
     940:	3d060505 	cfstr32cc	mvfx0, [r6, #-20]	; 0xffffffec
     944:	01060805 	tsteq	r6, r5, lsl #16
     948:	02002405 	andeq	r2, r0, #83886080	; 0x5000000
     94c:	053c0104 	ldreq	r0, [ip, #-260]!	; 0xfffffefc
     950:	0402002b 	streq	r0, [r2], #-43	; 0xffffffd5
     954:	3d052002 	stccc	0, cr2, [r5, #-8]
     958:	03040200 	movweq	r0, #16896	; 0x4200
     95c:	0605052e 	streq	r0, [r5], -lr, lsr #10
     960:	06080534 			; <UNDEFINED> instruction: 0x06080534
     964:	060a0501 	streq	r0, [sl], -r1, lsl #10
     968:	060d053f 			; <UNDEFINED> instruction: 0x060d053f
     96c:	060a0501 	streq	r0, [sl], -r1, lsl #10
     970:	060d053f 			; <UNDEFINED> instruction: 0x060d053f
     974:	06050501 	streq	r0, [r5], -r1, lsl #10
     978:	0608053f 			; <UNDEFINED> instruction: 0x0608053f
     97c:	06070501 	streq	r0, [r7], -r1, lsl #10
     980:	0612052f 	ldreq	r0, [r2], -pc, lsr #10
     984:	4a0e0501 	bmi	381d90 <__RAM_SIZE+0x281d90>
     988:	24060305 	strcs	r0, [r6], #-773	; 0xfffffcfb
     98c:	01060605 	tsteq	r6, r5, lsl #12
     990:	2f060505 	svccs	0x00060505
     994:	01060805 	tsteq	r6, r5, lsl #16
     998:	3d060705 	stccc	7, cr0, [r6, #-20]	; 0xffffffec
     99c:	01061205 	tsteq	r6, r5, lsl #4
     9a0:	054a0e05 	strbeq	r0, [sl, #-3589]	; 0xfffff1fb
     9a4:	0a030603 	beq	c21b8 <__HEAP_SIZE+0xc11b8>
     9a8:	060a0520 	streq	r0, [sl], -r0, lsr #10
     9ac:	67010501 	strvs	r0, [r1, -r1, lsl #10]
     9b0:	03060705 	movweq	r0, #26373	; 0x6705
     9b4:	05133c60 	ldreq	r3, [r3, #-3168]	; 0xfffff3a0
     9b8:	2e01060a 	cfmadd32cs	mvax0, mvfx0, mvfx1, mvfx10
     9bc:	02000f05 	andeq	r0, r0, #5, 30
     9c0:	05200104 	streq	r0, [r0, #-260]!	; 0xfffffefc
     9c4:	09053b0a 	stmdbeq	r5, {r1, r3, r8, r9, fp, ip, sp}
     9c8:	0c053006 	stceq	0, cr3, [r5], {6}
     9cc:	05200106 	streq	r0, [r0, #-262]!	; 0xfffffefa
     9d0:	17051e0a 	strne	r1, [r5, -sl, lsl #28]
     9d4:	01040200 	mrseq	r0, R12_usr
     9d8:	00350533 	eorseq	r0, r5, r3, lsr r5
     9dc:	3c020402 	cfstrscc	mvf0, [r2], {2}
     9e0:	2f060705 	svccs	0x00060705
     9e4:	01061205 	tsteq	r6, r5, lsl #4
     9e8:	054a0e05 	strbeq	r0, [sl, #-3589]	; 0xfffff1fb
     9ec:	1c052012 	stcne	0, cr2, [r5], {18}
     9f0:	01040200 	mrseq	r0, R12_usr
     9f4:	00390522 	eorseq	r0, r9, r2, lsr #10
     9f8:	3c020402 	cfstrscc	mvf0, [r2], {2}
     9fc:	2f060705 	svccs	0x00060705
     a00:	01061205 	tsteq	r6, r5, lsl #4
     a04:	054a0e05 	strbeq	r0, [sl, #-3589]	; 0xfffff1fb
     a08:	1b052012 	blne	148a58 <__RAM_SIZE+0x48a58>
     a0c:	01040200 	mrseq	r0, R12_usr
     a10:	06070522 	streq	r0, [r7], -r2, lsr #10
     a14:	0612052f 	ldreq	r0, [r2], -pc, lsr #10
     a18:	4a0e0501 	bmi	381e24 <__RAM_SIZE+0x281e24>
     a1c:	060a0520 	streq	r0, [sl], -r0, lsr #10
     a20:	05200b03 	streq	r0, [r0, #-2819]!	; 0xfffff4fd
     a24:	0501060d 	streq	r0, [r1, #-1549]	; 0xfffff9f3
     a28:	053d0607 	ldreq	r0, [sp, #-1543]!	; 0xfffff9f9
     a2c:	05010612 	streq	r0, [r1, #-1554]	; 0xfffff9ee
     a30:	05204a0e 	streq	r4, [r0, #-2574]!	; 0xfffff5f2
     a34:	0522060a 	streq	r0, [r2, #-1546]!	; 0xfffff9f6
     a38:	0501060d 	streq	r0, [r1, #-1549]	; 0xfffff9f3
     a3c:	053d0607 	ldreq	r0, [sp, #-1543]!	; 0xfffff9f9
     a40:	05010612 	streq	r0, [r1, #-1554]	; 0xfffff9ee
     a44:	02204a0e 	eoreq	r4, r0, #57344	; 0xe000
     a48:	01010001 	tsteq	r1, r1
     a4c:	05000105 	streq	r0, [r0, #-261]	; 0xfffffefb
     a50:	000b8002 	andeq	r8, fp, r2
     a54:	02990310 	addseq	r0, r9, #16, 6	; 0x40000000
     a58:	05010601 	streq	r0, [r1, #-1537]	; 0xfffff9ff
     a5c:	13590603 	cmpne	r9, #3145728	; 0x300000
     a60:	06060515 			; <UNDEFINED> instruction: 0x06060515
     a64:	06050501 	streq	r0, [r5], -r1, lsl #10
     a68:	060b0521 	streq	r0, [fp], -r1, lsr #10
     a6c:	06030501 	streq	r0, [r3], -r1, lsl #10
     a70:	06060532 			; <UNDEFINED> instruction: 0x06060532
     a74:	00220501 	eoreq	r0, r2, r1, lsl #10
     a78:	3c010402 	cfstrscc	mvf0, [r1], {2}
     a7c:	02001205 	andeq	r1, r0, #1342177280	; 0x50000000
     a80:	004d0104 	subeq	r0, sp, r4, lsl #2
     a84:	2e010402 	cdpcs	4, 0, cr0, cr1, cr2, {0}
     a88:	02000e05 	andeq	r0, r0, #5, 28	; 0x50
     a8c:	052e0804 	streq	r0, [lr, #-2052]!	; 0xfffff7fc
     a90:	04020012 	streq	r0, [r2], #-18	; 0xffffffee
     a94:	07052e08 	streq	r2, [r5, -r8, lsl #28]
     a98:	08040200 	stmdaeq	r4, {r9}
     a9c:	0d055906 	vstreq.16	s10, [r5, #-12]	; <UNPREDICTABLE>
     aa0:	08040200 	stmdaeq	r4, {r9}
     aa4:	02000106 	andeq	r0, r0, #-2147483647	; 0x80000001
     aa8:	002e0804 	eoreq	r0, lr, r4, lsl #16
     aac:	06080402 	streq	r0, [r8], -r2, lsl #8
     ab0:	00050513 	andeq	r0, r5, r3, lsl r5
     ab4:	06080402 	streq	r0, [r8], -r2, lsl #8
     ab8:	00140501 	andseq	r0, r4, r1, lsl #10
     abc:	2e010402 	cdpcs	4, 0, cr0, cr1, cr2, {0}
     ac0:	052c0e05 	streq	r0, [ip, #-3589]!	; 0xfffff1fb
     ac4:	0520210d 	streq	r2, [r0, #-269]!	; 0xfffffef3
     ac8:	050f0605 	streq	r0, [pc, #-1541]	; 4cb <__STACKSEAL_SIZE+0x4cb>
     acc:	27051307 	strcs	r1, [r5, -r7, lsl #6]
     ad0:	12050106 	andne	r0, r5, #-2147483647	; 0x80000001
     ad4:	0607054a 	streq	r0, [r7], -sl, asr #10
     ad8:	0612052f 	ldreq	r0, [r2], -pc, lsr #10
     adc:	00550501 	subseq	r0, r5, r1, lsl #10
     ae0:	3c020402 	cfstrscc	mvf0, [r2], {2}
     ae4:	0402003c 	streq	r0, [r2], #-60	; 0xffffffc4
     ae8:	02002007 	andeq	r2, r0, #7
     aec:	05200704 	streq	r0, [r0, #-1796]!	; 0xfffff8fc
     af0:	04020012 	streq	r0, [r2], #-18	; 0xffffffee
     af4:	55052e07 	strpl	r2, [r5, #-3591]	; 0xfffff1f9
     af8:	0a052e58 	beq	14c460 <__RAM_SIZE+0x4c460>
     afc:	05017503 	streq	r7, [r1, #-1283]	; 0xfffffafd
     b00:	10030603 	andne	r0, r3, r3, lsl #12
     b04:	060a0520 	streq	r0, [sl], -r0, lsr #10
     b08:	d7010501 	strle	r0, [r1, -r1, lsl #10]
     b0c:	0101002e 	tsteq	r1, lr, lsr #32
     b10:	05000105 	streq	r0, [r0, #-261]	; 0xfffffefb
     b14:	000c1402 	andeq	r1, ip, r2, lsl #8
     b18:	02b20310 	adcseq	r0, r2, #16, 6	; 0x40000000
     b1c:	05010601 	streq	r0, [r1, #-1537]	; 0xfffff9ff
     b20:	13d70603 	bicsne	r0, r7, #3145728	; 0x300000
     b24:	06060515 			; <UNDEFINED> instruction: 0x06060515
     b28:	05052e01 	streq	r2, [r5, #-3585]	; 0xfffff1ff
     b2c:	0b052106 	bleq	148f4c <__RAM_SIZE+0x48f4c>
     b30:	03050106 	movweq	r0, #20742	; 0x5106
     b34:	06053206 	streq	r3, [r5], -r6, lsl #4
     b38:	22050106 	andcs	r0, r5, #-2147483647	; 0x80000001
     b3c:	01040200 	mrseq	r0, R12_usr
     b40:	0012053c 	andseq	r0, r2, ip, lsr r5
     b44:	5b010402 	blpl	41b54 <__HEAP_SIZE+0x40b54>
     b48:	02000e05 	andeq	r0, r0, #5, 28	; 0x50
     b4c:	053c0804 	ldreq	r0, [ip, #-2052]!	; 0xfffff7fc
     b50:	04020012 	streq	r0, [r2], #-18	; 0xffffffee
     b54:	02002e08 	andeq	r2, r0, #8, 28	; 0x80
     b58:	052e0804 	streq	r0, [lr, #-2052]!	; 0xfffff7fc
     b5c:	04020007 	streq	r0, [r2], #-7
     b60:	054b0608 	strbeq	r0, [fp, #-1544]	; 0xfffff9f8
     b64:	0402000d 	streq	r0, [r2], #-13
     b68:	00010608 	andeq	r0, r1, r8, lsl #12
     b6c:	66080402 	strvs	r0, [r8], -r2, lsl #8
     b70:	08040200 	stmdaeq	r4, {r9}
     b74:	05051306 	streq	r1, [r5, #-774]	; 0xfffffcfa
     b78:	08040200 	stmdaeq	r4, {r9}
     b7c:	14050106 	strne	r0, [r5], #-262	; 0xfffffefa
     b80:	01040200 	mrseq	r0, R12_usr
     b84:	3a0e054a 	bcc	3820b4 <__RAM_SIZE+0x2820b4>
     b88:	2e210d05 	cdpcs	13, 2, cr0, cr1, cr5, {0}
     b8c:	0f060505 	svceq	0x00060505
     b90:	05130705 	ldreq	r0, [r3, #-1797]	; 0xfffff8fb
     b94:	05010627 	streq	r0, [r1, #-1575]	; 0xfffff9d9
     b98:	07056612 	smladeq	r5, r2, r6, r6
     b9c:	12052106 	andne	r2, r5, #-2147483647	; 0x80000001
     ba0:	55050106 	strpl	r0, [r5, #-262]	; 0xfffffefa
     ba4:	02040200 	andeq	r0, r4, #0, 4
     ba8:	02003c2e 	andeq	r3, r0, #11776	; 0x2e00
     bac:	05200704 	streq	r0, [r0, #-1796]!	; 0xfffff8fc
     bb0:	04020012 	streq	r0, [r2], #-18	; 0xffffffee
     bb4:	55052e07 	strpl	r2, [r5, #-3591]	; 0xfffff1f9
     bb8:	0a052e3c 	beq	14c4b0 <__RAM_SIZE+0x4c4b0>
     bbc:	05017503 	streq	r7, [r1, #-1283]	; 0xfffffafd
     bc0:	10030603 	andne	r0, r3, r3, lsl #12
     bc4:	060a052e 	streq	r0, [sl], -lr, lsr #10
     bc8:	08010501 	stmdaeq	r1, {r0, r8, sl}
     bcc:	01003c3d 	tsteq	r0, sp, lsr ip
     bd0:	00010501 	andeq	r0, r1, r1, lsl #10
     bd4:	0ce00205 	sfmeq	f0, 2, [r0], #20
     bd8:	d3031000 	movwle	r1, #12288	; 0x3000
     bdc:	01060103 	tsteq	r6, r3, lsl #2
     be0:	92060305 	andls	r0, r6, #335544320	; 0x14000000
     be4:	01060605 	tsteq	r6, r5, lsl #12
     be8:	2e20202e 	cdpcs	0, 2, cr2, cr0, cr14, {1}
     bec:	02001805 	andeq	r1, r0, #327680	; 0x50000
     bf0:	053c0104 	ldreq	r0, [ip, #-260]!	; 0xfffffefc
     bf4:	0402002d 	streq	r0, [r2], #-45	; 0xffffffd3
     bf8:	03059e02 	movweq	r9, #24066	; 0x5e02
     bfc:	0513b106 	ldreq	fp, [r3, #-262]	; 0xfffffefa
     c00:	05010606 	streq	r0, [r1, #-1542]	; 0xfffff9fa
     c04:	05cd0603 	strbeq	r0, [sp, #1539]	; 0x603
     c08:	05010606 	streq	r0, [r1, #-1542]	; 0xfffff9fa
     c0c:	0305590a 	movweq	r5, #22794	; 0x590a
     c10:	13173306 	tstne	r7, #402653184	; 0x18000000
     c14:	3c060e05 	stccc	14, cr0, [r6], {5}
     c18:	2f060305 	svccs	0x00060305
     c1c:	01061405 	tsteq	r6, r5, lsl #8
     c20:	052e2c05 	streq	r2, [lr, #-3077]!	; 0xfffff3fb
     c24:	055a0603 	ldrbeq	r0, [sl, #-1539]	; 0xfffff9fd
     c28:	2e01062d 	cfmadd32cs	mvax1, mvfx0, mvfx1, mvfx13
     c2c:	5826052e 	stmdapl	r6!, {r1, r2, r3, r5, r8, sl}
     c30:	05744b05 	ldrbeq	r4, [r4, #-2821]!	; 0xfffff4fb
     c34:	41056652 	tstmi	r5, r2, asr r6
     c38:	4a070574 	bmi	1c2210 <__RAM_SIZE+0xc2210>
     c3c:	3e060305 	cdpcc	3, 0, cr0, cr6, cr5, {0}
     c40:	01061705 	tsteq	r6, r5, lsl #14
     c44:	742b052e 	strtvc	r0, [fp], #-1326	; 0xfffffad2
     c48:	054a0805 	strbeq	r0, [sl, #-2053]	; 0xfffff7fb
     c4c:	053d0603 	ldreq	r0, [sp, #-1539]!	; 0xfffff9fd
     c50:	4a01061c 	bmi	424c8 <__HEAP_SIZE+0x414c8>
     c54:	05583705 	ldrbeq	r3, [r8, #-1797]	; 0xfffff8fb
     c58:	03059e10 	movweq	r9, #24080	; 0x5e10
     c5c:	10056706 	andne	r6, r5, r6, lsl #14
     c60:	03050106 	movweq	r0, #20742	; 0x5106
     c64:	1c056706 	stcne	7, cr6, [r5], {6}
     c68:	24050106 	strcs	r0, [r5], #-262	; 0xfffffefa
     c6c:	0603052e 	streq	r0, [r3], -lr, lsr #10
     c70:	06130584 	ldreq	r0, [r3], -r4, lsl #11
     c74:	1c053c01 	stcne	12, cr3, [r5], {1}
     c78:	3c058258 	sfmcc	f0, 1, [r5], {88}	; 0x58
     c7c:	66370520 	ldrtvs	r0, [r7], -r0, lsr #10
     c80:	05663105 	strbeq	r3, [r6, #-261]!	; 0xfffffefb
     c84:	26054a2b 	strcs	r4, [r5], -fp, lsr #20
     c88:	66200566 	strtvs	r0, [r0], -r6, ror #10
     c8c:	05661705 	strbeq	r1, [r6, #-1797]!	; 0xfffff8fb
     c90:	0a054a0f 	beq	1534d4 <__RAM_SIZE+0x534d4>
     c94:	0603054a 	streq	r0, [r3], -sl, asr #10
     c98:	06060584 	streq	r0, [r6], -r4, lsl #11
     c9c:	06050501 	streq	r0, [r5], -r1, lsl #10
     ca0:	060b0559 			; <UNDEFINED> instruction: 0x060b0559
     ca4:	06050501 	streq	r0, [r5], -r1, lsl #10
     ca8:	060c0521 	streq	r0, [ip], -r1, lsr #10
     cac:	06030501 	streq	r0, [r3], -r1, lsl #10
     cb0:	062b0586 	strteq	r0, [fp], -r6, lsl #11
     cb4:	2e440501 	cdpcs	5, 4, cr0, cr4, cr1, {0}
     cb8:	0003052e 	andeq	r0, r3, lr, lsr #10
     cbc:	06040402 	streq	r0, [r4], -r2, lsl #8
     cc0:	00060523 	andeq	r0, r6, r3, lsr #10
     cc4:	06040402 	streq	r0, [r4], -r2, lsl #8
     cc8:	06050501 	streq	r0, [r5], -r1, lsl #10
     ccc:	0608054c 	streq	r0, [r8], -ip, asr #10
     cd0:	00190501 	andseq	r0, r9, r1, lsl #10
     cd4:	ac010402 	cfstrsge	mvf0, [r1], {2}
     cd8:	91060705 	tstls	r6, r5, lsl #14
     cdc:	01060a05 	tsteq	r6, r5, lsl #20
     ce0:	3d060905 	vstrcc.16	s0, [r6, #-10]	; <UNPREDICTABLE>
     ce4:	01062505 	tsteq	r6, r5, lsl #10
     ce8:	2e202e05 	cdpcs	14, 2, cr2, cr0, cr5, {0}
     cec:	03060505 	movweq	r0, #25861	; 0x6505
     cf0:	0c052051 	stceq	0, cr2, [r5], {81}	; 0x51
     cf4:	01050106 	tsteq	r5, r6, lsl #2
     cf8:	f200e403 	vshl.s8	d14, d3, d0
     cfc:	0605053c 			; <UNDEFINED> instruction: 0x0605053c
     d00:	2e7fa203 	cdpcs	2, 7, cr10, cr15, cr3, {0}
     d04:	01060b05 	tsteq	r6, r5, lsl #22
     d08:	0344059e 	movteq	r0, #17822	; 0x459e
     d0c:	05202022 	streq	r2, [r0, #-34]!	; 0xffffffde
     d10:	200a030e 	andcs	r0, sl, lr, lsl #6
     d14:	30060705 	andcc	r0, r6, r5, lsl #14
     d18:	01060d05 	tsteq	r6, r5, lsl #26
     d1c:	4c060705 	stcmi	7, cr0, [r6], {5}
     d20:	06100513 			; <UNDEFINED> instruction: 0x06100513
     d24:	03052111 	movweq	r2, #20753	; 0x5111
     d28:	200b0306 	andcs	r0, fp, r6, lsl #6
     d2c:	06060513 			; <UNDEFINED> instruction: 0x06060513
     d30:	06050501 	streq	r0, [r5], -r1, lsl #10
     d34:	060c053e 			; <UNDEFINED> instruction: 0x060c053e
     d38:	07052e01 	streq	r2, [r5, -r1, lsl #28]
     d3c:	20760306 	rsbscs	r0, r6, r6, lsl #6
     d40:	01060a05 	tsteq	r6, r5, lsl #20
     d44:	02001605 	andeq	r1, r0, #5242880	; 0x500000
     d48:	053c0104 	ldreq	r0, [ip, #-260]!	; 0xfffffefc
     d4c:	063d0609 	ldrteq	r0, [sp], -r9, lsl #12
     d50:	030c053c 	movweq	r0, #50492	; 0xc53c
     d54:	0134020c 	teqeq	r4, ip, lsl #4
     d58:	30060305 	andcc	r0, r6, r5, lsl #6
     d5c:	01060605 	tsteq	r6, r5, lsl #12
     d60:	02001c05 	andeq	r1, r0, #1280	; 0x500
     d64:	054a0104 	strbeq	r0, [sl, #-260]	; 0xfffffefc
     d68:	0305220c 	movweq	r2, #21004	; 0x520c
     d6c:	06053206 	streq	r3, [r5], -r6, lsl #4
     d70:	05050106 	streq	r0, [r5, #-262]	; 0xfffffefa
     d74:	12052106 	andne	r2, r5, #-2147483647	; 0x80000001
     d78:	0b050106 	bleq	141198 <__RAM_SIZE+0x41198>
     d7c:	0603052e 	streq	r0, [r3], -lr, lsr #10
     d80:	0905136a 	stmdbeq	r5, {r1, r3, r5, r6, r8, r9, ip}
     d84:	02000106 	andeq	r0, r0, #-2147483647	; 0x80000001
     d88:	05820404 	streq	r0, [r2, #1028]	; 0x404
     d8c:	04020003 	streq	r0, [r2], #-3
     d90:	23080604 	movwcs	r0, #34308	; 0x8604
     d94:	02000605 	andeq	r0, r0, #5242880	; 0x500000
     d98:	01060404 	tsteq	r6, r4, lsl #8
     d9c:	3e060505 	cfsh32cc	mvfx0, mvfx6, #5
     da0:	04040200 	streq	r0, [r4], #-512	; 0xfffffe00
     da4:	02006606 	andeq	r6, r0, #6291456	; 0x600000
     da8:	002e0404 	eoreq	r0, lr, r4, lsl #8
     dac:	06040402 	streq	r0, [r4], -r2, lsl #8
     db0:	0047055a 	subeq	r0, r7, sl, asr r5
     db4:	06040402 	streq	r0, [r4], -r2, lsl #8
     db8:	000b0501 	andeq	r0, fp, r1, lsl #10
     dbc:	4a040402 	bmi	101dcc <__RAM_SIZE+0x1dcc>
     dc0:	04040200 	streq	r0, [r4], #-512	; 0xfffffe00
     dc4:	0005053c 	andeq	r0, r5, ip, lsr r5
     dc8:	06040402 	streq	r0, [r4], -r2, lsl #8
     dcc:	000805d8 	ldrdeq	r0, [r8], -r8
     dd0:	06040402 	streq	r0, [r4], -r2, lsl #8
     dd4:	04020001 	streq	r0, [r2], #-1
     dd8:	09056604 	stmdbeq	r5, {r2, r9, sl, sp, lr}
     ddc:	01040200 	mrseq	r0, R12_usr
     de0:	00207703 	eoreq	r7, r0, r3, lsl #14
     de4:	74010402 	strvc	r0, [r1], #-1026	; 0xfffffbfe
     de8:	05250505 	streq	r0, [r5, #-1285]!	; 0xfffffafb
     dec:	04020027 	streq	r0, [r2], #-39	; 0xffffffd9
     df0:	00410602 	subeq	r0, r1, r2, lsl #12
     df4:	06020402 	streq	r0, [r2], -r2, lsl #8
     df8:	000d0520 	andeq	r0, sp, r0, lsr #10
     dfc:	06010402 	streq	r0, [r1], -r2, lsl #8
     e00:	00120558 	andseq	r0, r2, r8, asr r5
     e04:	06010402 	streq	r0, [r1], -r2, lsl #8
     e08:	000d0501 	andeq	r0, sp, r1, lsl #10
     e0c:	2e010402 	cdpcs	4, 0, cr0, cr1, cr2, {0}
     e10:	01040200 	mrseq	r0, R12_usr
     e14:	0002022e 	andeq	r0, r2, lr, lsr #4
     e18:	01050101 	tsteq	r5, r1, lsl #2
     e1c:	d0020500 	andle	r0, r2, r0, lsl #10
     e20:	03100010 	tsteq	r0, #16
     e24:	060102d3 			; <UNDEFINED> instruction: 0x060102d3
     e28:	06030501 	streq	r0, [r3], -r1, lsl #10
     e2c:	151313bb 	ldrne	r1, [r3, #-955]	; 0xfffffc45
     e30:	06060515 			; <UNDEFINED> instruction: 0x06060515
     e34:	20202001 	eorcs	r2, r0, r1
     e38:	06030520 	streq	r0, [r3], -r0, lsr #10
     e3c:	0606054c 	streq	r0, [r6], -ip, asr #10
     e40:	06030501 	streq	r0, [r3], -r1, lsl #10
     e44:	060605a0 	streq	r0, [r6], -r0, lsr #11
     e48:	06030501 	streq	r0, [r3], -r1, lsl #10
     e4c:	06060595 			; <UNDEFINED> instruction: 0x06060595
     e50:	00220501 	eoreq	r0, r2, r1, lsl #10
     e54:	90010402 	andls	r0, r1, r2, lsl #8
     e58:	03060305 	movweq	r0, #25349	; 0x6305
     e5c:	05139009 	ldreq	r9, [r3, #-9]
     e60:	05010606 	streq	r0, [r1, #-1542]	; 0xfffff9fa
     e64:	03058108 	movweq	r8, #20744	; 0x5108
     e68:	06053506 	streq	r3, [r5], -r6, lsl #10
     e6c:	0a050106 	beq	14128c <__RAM_SIZE+0x4128c>
     e70:	0609054b 	streq	r0, [r9], -fp, asr #10
     e74:	002a0523 	eoreq	r0, sl, r3, lsr #10
     e78:	06010402 	streq	r0, [r1], -r2, lsl #8
     e7c:	0605052e 	streq	r0, [r5], -lr, lsr #10
     e80:	0610052f 	ldreq	r0, [r0], -pc, lsr #10
     e84:	06050501 	streq	r0, [r5], -r1, lsl #10
     e88:	06090567 	streq	r0, [r9], -r7, ror #10
     e8c:	1f0c0501 	svcne	0x000c0501
     e90:	06050520 	streq	r0, [r5], -r0, lsr #10
     e94:	05206303 	streq	r6, [r0, #-771]!	; 0xfffffcfd
     e98:	0501060c 	streq	r0, [r1, #-1548]	; 0xfffff9f4
     e9c:	05e60605 	strbeq	r0, [r6, #1541]!	; 0x605
     ea0:	0501060c 	streq	r0, [r1, #-1548]	; 0xfffff9f4
     ea4:	05e60605 	strbeq	r0, [r6, #1541]!	; 0x605
     ea8:	0001060c 	andeq	r0, r1, ip, lsl #12
     eac:	58040402 	stmdapl	r4, {r1, sl}
     eb0:	04020020 	streq	r0, [r2], #-32	; 0xffffffe0
     eb4:	05c82008 	strbeq	r2, [r8, #8]
     eb8:	05500605 	ldrbeq	r0, [r0, #-1541]	; 0xfffff9fb
     ebc:	0501060c 	streq	r0, [r1, #-1548]	; 0xfffff9f4
     ec0:	09030605 	stmdbeq	r3, {r0, r2, r9, sl}
     ec4:	0b0513d6 	bleq	145e24 <__RAM_SIZE+0x45e24>
     ec8:	0e050106 	adfeqs	f0, f5, f6
     ecc:	420a0581 	andmi	r0, sl, #541065216	; 0x20400000
     ed0:	36060305 	strcc	r0, [r6], -r5, lsl #6
     ed4:	01060705 	tsteq	r6, r5, lsl #14
     ed8:	59060305 	stmdbpl	r6, {r0, r2, r8, r9}
     edc:	01061705 	tsteq	r6, r5, lsl #14
     ee0:	6627052e 	strtvs	r0, [r7], -lr, lsr #10
     ee4:	05580a05 	ldrbeq	r0, [r8, #-2565]	; 0xfffff5fb
     ee8:	05830603 	streq	r0, [r3, #1539]	; 0x603
     eec:	2e010611 	mcrcs	6, 0, r0, cr1, cr1, {0}
     ef0:	21060305 	tstcs	r6, r5, lsl #6
     ef4:	01060e05 	tsteq	r6, r5, lsl #28
     ef8:	2e08052e 	cfsh32cs	mvfx0, mvfx8, #30
     efc:	84060305 	strhi	r0, [r6], #-773	; 0xfffffcfb
     f00:	01060605 	tsteq	r6, r5, lsl #12
     f04:	06050520 	streq	r0, [r5], -r0, lsr #10
     f08:	0e05224b 	cdpeq	2, 0, cr2, cr5, cr11, {2}
     f0c:	08050106 	stmdaeq	r5, {r1, r2, r8}
     f10:	06070558 			; <UNDEFINED> instruction: 0x06070558
     f14:	0c051359 	stceq	3, cr1, [r5], {89}	; 0x59
     f18:	03051f06 	movweq	r1, #24326	; 0x5f06
     f1c:	200b0306 	andcs	r0, fp, r6, lsl #6
     f20:	01060605 	tsteq	r6, r5, lsl #12
     f24:	21060505 	tstcs	r6, r5, lsl #10
     f28:	01061405 	tsteq	r6, r5, lsl #8
     f2c:	58580a05 	ldmdapl	r8, {r0, r2, r9, fp}^
     f30:	21060505 	tstcs	r6, r5, lsl #10
     f34:	01060805 	tsteq	r6, r5, lsl #16
     f38:	02001805 	andeq	r1, r0, #327680	; 0x50000
     f3c:	05580204 	ldrbeq	r0, [r8, #-516]	; 0xfffffdfc
     f40:	04020029 	streq	r0, [r2], #-41	; 0xffffffd7
     f44:	07058203 	streq	r8, [r5, -r3, lsl #4]
     f48:	20063f06 	andcs	r3, r6, r6, lsl #30
     f4c:	03060805 	movweq	r0, #26629	; 0x6805
     f50:	0b052074 	bleq	149128 <__RAM_SIZE+0x49128>
     f54:	08050106 	stmdaeq	r5, {r1, r2, r8}
     f58:	0b058406 	bleq	161f78 <__RAM_SIZE+0x61f78>
     f5c:	19050106 	stmdbne	r5, {r1, r2, r8}
     f60:	01040200 	mrseq	r0, R12_usr
     f64:	06050520 	streq	r0, [r5], -r0, lsr #10
     f68:	0520063e 	streq	r0, [r0, #-1598]!	; 0xfffff9c2
     f6c:	0e03060b 	cfmadd32eq	mvax0, mvfx0, mvfx3, mvfx11
     f70:	2f070520 	svccs	0x00070520
     f74:	06270521 	strteq	r0, [r7], -r1, lsr #10
     f78:	900e0501 	andls	r0, lr, r1, lsl #10
     f7c:	05201405 	streq	r1, [r0, #-1029]!	; 0xfffffbfb
     f80:	07052012 	smladeq	r5, r2, r0, r2
     f84:	0a056706 	beq	15aba4 <__RAM_SIZE+0x5aba4>
     f88:	12050106 	andne	r0, r5, #-2147483647	; 0x80000001
     f8c:	1f0e052e 	svcne	0x000e052e
     f90:	060b052e 	streq	r0, [fp], -lr, lsr #10
     f94:	00350526 	eorseq	r0, r5, r6, lsr #10
     f98:	06010402 	streq	r0, [r1], -r2, lsl #8
     f9c:	002c052e 	eoreq	r0, ip, lr, lsr #10
     fa0:	20010402 	andcs	r0, r1, r2, lsl #8
     fa4:	21060705 	tstcs	r6, r5, lsl #14
     fa8:	01061205 	tsteq	r6, r5, lsl #4
     fac:	05653505 	strbeq	r3, [r5, #-1285]!	; 0xfffffafb
     fb0:	0520210e 	streq	r2, [r0, #-270]!	; 0xfffffef2
     fb4:	05220605 	streq	r0, [r2, #-1541]!	; 0xfffff9fb
     fb8:	05010608 	streq	r0, [r1, #-1544]	; 0xfffff9f8
     fbc:	05300607 	ldreq	r0, [r0, #-1543]!	; 0xfffff9f9
     fc0:	05010612 	streq	r0, [r1, #-1554]	; 0xfffff9ee
     fc4:	0520660e 	streq	r6, [r0, #-1550]!	; 0xfffff9f2
     fc8:	05170609 	ldreq	r0, [r7, #-1545]	; 0xfffff9f7
     fcc:	25052f05 	strcs	r2, [r5, #-3845]	; 0xfffff0fb
     fd0:	0c050106 	stfeqs	f0, [r5], {6}
     fd4:	201205ac 	andscs	r0, r2, ip, lsr #11
     fd8:	05201005 	streq	r1, [r0, #-5]!
     fdc:	05670605 	strbeq	r0, [r7, #-1541]!	; 0xfffff9fb
     fe0:	05010611 	streq	r0, [r1, #-1553]	; 0xfffff9ef
     fe4:	0c052008 	stceq	0, cr2, [r5], {8}
     fe8:	05c8081f 	strbeq	r0, [r8, #2079]	; 0x81f
     fec:	05270603 	streq	r0, [r7, #-1539]!	; 0xfffff9fd
     ff0:	0501061d 	streq	r0, [r1, #-1565]	; 0xfffff9e3
     ff4:	03053c06 	movweq	r3, #23558	; 0x5c06
     ff8:	2e090306 	cdpcs	3, 0, cr0, cr9, cr6, {0}
     ffc:	01060605 	tsteq	r6, r5, lsl #12
    1000:	2f060505 	svccs	0x00060505
    1004:	01060805 	tsteq	r6, r5, lsl #16
    1008:	3d060705 	stccc	7, cr0, [r6, #-20]	; 0xffffffec
    100c:	01061205 	tsteq	r6, r5, lsl #4
    1010:	05660e05 	strbeq	r0, [r6, #-3589]!	; 0xfffff1fb
    1014:	0a030603 	beq	c2828 <__HEAP_SIZE+0xc1828>
    1018:	060a0520 	streq	r0, [sl], -r0, lsr #10
    101c:	c9010501 	stmdbgt	r1, {r0, r8, sl}
    1020:	03060505 	movweq	r0, #25861	; 0x6505
    1024:	0805586b 	stmdaeq	r5, {r0, r1, r3, r5, r6, fp, ip, lr}
    1028:	0f050106 	svceq	0x00050106
    102c:	01040200 	mrseq	r0, R12_usr
    1030:	001c052e 	andseq	r0, ip, lr, lsr #10
    1034:	2e020402 	cdpcs	4, 0, cr0, cr2, cr2, {0}
    1038:	4b060705 	blmi	182c54 <__RAM_SIZE+0x82c54>
    103c:	01060c05 	tsteq	r6, r5, lsl #24
    1040:	0607053c 			; <UNDEFINED> instruction: 0x0607053c
    1044:	06120531 			; <UNDEFINED> instruction: 0x06120531
    1048:	660e0501 	strvs	r0, [lr], -r1, lsl #10
    104c:	1f060b05 	svcne	0x00060b05
    1050:	02001a05 	andeq	r1, r0, #20480	; 0x5000
    1054:	2e060104 	adfcss	f0, f6, f4
    1058:	01040200 	mrseq	r0, R12_usr
    105c:	060a053c 			; <UNDEFINED> instruction: 0x060a053c
    1060:	054a0903 	strbeq	r0, [sl, #-2307]	; 0xfffff6fd
    1064:	0501060d 	streq	r0, [r1, #-1549]	; 0xfffff9f3
    1068:	054b0607 	strbeq	r0, [fp, #-1543]	; 0xfffff9f9
    106c:	05010612 	streq	r0, [r1, #-1554]	; 0xfffff9ee
    1070:	0520660e 	streq	r6, [r0, #-1550]!	; 0xfffff9f2
    1074:	0522060a 	streq	r0, [r2, #-1546]!	; 0xfffff9f6
    1078:	0501060d 	streq	r0, [r1, #-1549]	; 0xfffff9f3
    107c:	054b0607 	strbeq	r0, [fp, #-1543]	; 0xfffff9f9
    1080:	05010612 	streq	r0, [r1, #-1554]	; 0xfffff9ee
    1084:	0220660e 	eoreq	r6, r0, #14680064	; 0xe00000
    1088:	01010001 	tsteq	r1, r1
    108c:	05000105 	streq	r0, [r0, #-261]	; 0xfffffefb
    1090:	00146802 	andseq	r6, r4, r2, lsl #16
    1094:	04c10310 	strbeq	r0, [r1], #784	; 0x310
    1098:	05010601 	streq	r0, [r1, #-1537]	; 0xfffff9ff
    109c:	13670603 	cmnne	r7, #3145728	; 0x300000
    10a0:	06060514 			; <UNDEFINED> instruction: 0x06060514
    10a4:	03090501 	movweq	r0, #38145	; 0x9501
    10a8:	204a01d3 	ldrdcs	r0, [sl], #-19	; 0xffffffed
    10ac:	7eb20306 	cdpvc	3, 11, cr0, cr2, cr6, {0}
    10b0:	060a0501 	streq	r0, [sl], -r1, lsl #10
    10b4:	2e090501 	cfsh32cs	mvfx0, mvfx9, #1
    10b8:	3f060505 	svccc	0x00060505
    10bc:	01060805 	tsteq	r6, r5, lsl #16
    10c0:	30060705 	andcc	r0, r6, r5, lsl #14
    10c4:	4b062006 	blmi	1890e4 <__RAM_SIZE+0x890e4>
    10c8:	01060d05 	tsteq	r6, r5, lsl #26
    10cc:	3d060705 	stccc	7, cr0, [r6, #-20]	; 0xffffffec
    10d0:	06221006 	strteq	r1, [r2], -r6
    10d4:	060d0524 	streq	r0, [sp], -r4, lsr #10
    10d8:	06050501 	streq	r0, [r5], -r1, lsl #10
    10dc:	060b0532 			; <UNDEFINED> instruction: 0x060b0532
    10e0:	06050501 	streq	r0, [r5], -r1, lsl #10
    10e4:	13070521 	movwne	r0, #29985	; 0x7521
    10e8:	01060f05 	tsteq	r6, r5, lsl #30
    10ec:	052e0705 	streq	r0, [lr, #-1797]!	; 0xfffff8fb
    10f0:	05ec060d 	strbeq	r0, [ip, #1549]!	; 0x60d
    10f4:	05131505 	ldreq	r1, [r3, #-1285]	; 0xfffffafb
    10f8:	7ccd0314 	stclvc	3, cr0, [sp], {20}
    10fc:	14030501 	strne	r0, [r3], #-1281	; 0xfffffaff
    1100:	01061605 	tsteq	r6, r5, lsl #12
    1104:	0308053c 	movweq	r0, #34108	; 0x853c
    1108:	050103b1 	streq	r0, [r1, #-945]	; 0xfffffc4f
    110c:	0531060a 	ldreq	r0, [r1, #-1546]!	; 0xfffff9f6
    1110:	0501060d 	streq	r0, [r1, #-1549]	; 0xfffff9f3
    1114:	05052a0b 	streq	r2, [r5, #-2571]	; 0xfffff5f5
    1118:	2e110306 	cdpcs	3, 1, cr0, cr1, cr6, {0}
    111c:	06090513 			; <UNDEFINED> instruction: 0x06090513
    1120:	2e080501 	cfsh32cs	mvfx0, mvfx8, #1
    1124:	052d0f05 	streq	r0, [sp, #-3845]!	; 0xfffff0fb
    1128:	0f030605 	svceq	0x00030605
    112c:	060d052e 	streq	r0, [sp], -lr, lsr #10
    1130:	2e050501 	cfsh32cs	mvfx0, mvfx5, #1
    1134:	03061305 	movweq	r1, #25349	; 0x6305
    1138:	1905e456 	stmdbne	r5, {r1, r2, r4, r6, sl, sp, lr, pc}
    113c:	2b050106 	blcs	14155c <__RAM_SIZE+0x4155c>
    1140:	31052e06 	tstcc	r5, r6, lsl #28
    1144:	35050106 	strcc	r0, [r5, #-262]	; 0xfffffefa
    1148:	3d052e06 	stccc	14, cr2, [r5, #-24]	; 0xffffffe8
    114c:	190d0501 	stmdbne	sp, {r0, r8, sl}
    1150:	7a031305 	bvc	c5d6c <__HEAP_SIZE+0xc4d6c>
    1154:	06190520 	ldreq	r0, [r9], -r0, lsr #10
    1158:	062b0501 	strteq	r0, [fp], -r1, lsl #10
    115c:	0631052e 	ldrteq	r0, [r1], -lr, lsr #10
    1160:	06350501 	ldrteq	r0, [r5], -r1, lsl #10
    1164:	013d052e 	teqeq	sp, lr, lsr #10
    1168:	05180d05 	ldreq	r0, [r8, #-3333]	; 0xfffff2fb
    116c:	19051b13 	stmdbne	r5, {r0, r1, r4, r8, r9, fp, ip}
    1170:	2b050106 	blcs	141590 <__RAM_SIZE+0x41590>
    1174:	31052e06 	tstcc	r5, r6, lsl #28
    1178:	35050106 	strcc	r0, [r5, #-262]	; 0xfffffefa
    117c:	3d052e06 	stccc	14, cr2, [r5, #-24]	; 0xffffffe8
    1180:	170d0501 	strne	r0, [sp, -r1, lsl #10]
    1184:	051c1305 	ldreq	r1, [ip, #-773]	; 0xfffffcfb
    1188:	05010619 	streq	r0, [r1, #-1561]	; 0xfffff9e7
    118c:	052e062b 	streq	r0, [lr, #-1579]!	; 0xfffff9d5
    1190:	05010631 	streq	r0, [r1, #-1585]	; 0xfffff9cf
    1194:	052e0635 	streq	r0, [lr, #-1589]!	; 0xfffff9cb
    1198:	0d05013d 	stfeqs	f0, [r5, #-244]	; 0xffffff0c
    119c:	1d130516 	cfldr32ne	mvfx0, [r3, #-88]	; 0xffffffa8
    11a0:	01061905 	tsteq	r6, r5, lsl #18
    11a4:	2e062b05 	vmlacs.f64	d2, d6, d5
    11a8:	01063105 	tsteq	r6, r5, lsl #2
    11ac:	2e063505 	cfsh32cs	mvfx3, mvfx6, #5
    11b0:	05013d05 	streq	r3, [r1, #-3333]	; 0xfffff2fb
    11b4:	0705150d 	streq	r1, [r5, -sp, lsl #10]
    11b8:	060f0525 	streq	r0, [pc], -r5, lsr #10
    11bc:	07054a01 	streq	r4, [r5, -r1, lsl #20]
    11c0:	11052306 	tstne	r5, r6, lsl #6
    11c4:	07050106 	streq	r0, [r5, -r6, lsl #2]
    11c8:	0a054b06 	beq	153de8 <__RAM_SIZE+0x53de8>
    11cc:	09050106 	stmdbeq	r5, {r1, r2, r8}
    11d0:	0f053306 	svceq	0x00053306
    11d4:	07050106 	streq	r0, [r5, -r6, lsl #2]
    11d8:	0d052206 	sfmeq	f2, 4, [r5, #-24]	; 0xffffffe8
    11dc:	09050106 	stmdbeq	r5, {r1, r2, r8}
    11e0:	4a7a0306 	bmi	1e81e00 <__RAM_SIZE+0x1d81e00>
    11e4:	01060f05 	tsteq	r6, r5, lsl #30
    11e8:	2f060905 	svccs	0x00060905
    11ec:	01061f05 	tsteq	r6, r5, lsl #30
    11f0:	0705202e 	streq	r2, [r5, -lr, lsr #32]
    11f4:	010b0306 	tsteq	fp, r6, lsl #6
    11f8:	01060d05 	tsteq	r6, r5, lsl #26
    11fc:	2f060705 	svccs	0x00060705
    1200:	01060d05 	tsteq	r6, r5, lsl #26
    1204:	2f060705 	svccs	0x00060705
    1208:	01060b05 	tsteq	r6, r5, lsl #22
    120c:	03061405 	movweq	r1, #25605	; 0x6405
    1210:	05207cb9 	streq	r7, [r0, #-3257]!	; 0xfffff347
    1214:	16051403 	strne	r1, [r5], -r3, lsl #8
    1218:	053c0106 	ldreq	r0, [ip, #-262]!	; 0xfffffefa
    121c:	03c5030a 	biceq	r0, r5, #671088640	; 0x28000000
    1220:	060c0501 	streq	r0, [ip], -r1, lsl #10
    1224:	060f0531 			; <UNDEFINED> instruction: 0x060f0531
    1228:	2e790301 	cdpcs	3, 7, cr0, cr9, cr1, {0}
    122c:	41060905 	tstmi	r6, r5, lsl #18
    1230:	01061505 	tsteq	r6, r5, lsl #10
    1234:	0609054a 	streq	r0, [r9], -sl, asr #10
    1238:	06130523 	ldreq	r0, [r3], -r3, lsr #10
    123c:	06090501 	streq	r0, [r9], -r1, lsl #10
    1240:	0633054b 	ldrteq	r0, [r3], -fp, asr #10
    1244:	06090501 	streq	r0, [r9], -r1, lsl #10
    1248:	060f052f 	streq	r0, [pc], -pc, lsr #10
    124c:	09054a01 	stmdbeq	r5, {r0, r9, fp, lr}
    1250:	0f051906 	svceq	0x00051906
    1254:	09050106 	stmdbeq	r5, {r1, r2, r8}
    1258:	0f052f06 	svceq	0x00052f06
    125c:	09050106 	stmdbeq	r5, {r1, r2, r8}
    1260:	0d052f06 	stceq	15, cr2, [r5, #-24]	; 0xffffffe8
    1264:	0c050106 	stfeqs	f0, [r5], {6}
    1268:	2c0f0520 	cfstr32cs	mvfx0, [pc], {32}
    126c:	31060b05 	tstcc	r6, r5, lsl #22
    1270:	01061105 	tsteq	r6, r5, lsl #2
    1274:	2f060b05 	svccs	0x00060b05
    1278:	01061105 	tsteq	r6, r5, lsl #2
    127c:	40060905 	andmi	r0, r6, r5, lsl #18
    1280:	01060f05 	tsteq	r6, r5, lsl #30
    1284:	2f060905 	svccs	0x00060905
    1288:	01060f05 	tsteq	r6, r5, lsl #30
    128c:	2f060905 	svccs	0x00060905
    1290:	01060d05 	tsteq	r6, r5, lsl #26
    1294:	05200c05 	streq	r0, [r0, #-3077]!	; 0xfffff3fb
    1298:	0b052c0f 	bleq	14c2dc <__RAM_SIZE+0x4c2dc>
    129c:	11053106 	tstne	r5, r6, lsl #2
    12a0:	0b050106 	bleq	1416c0 <__RAM_SIZE+0x416c0>
    12a4:	11052f06 	tstne	r5, r6, lsl #30
    12a8:	09050106 	stmdbeq	r5, {r1, r2, r8}
    12ac:	0f054106 	svceq	0x00054106
    12b0:	09050106 	stmdbeq	r5, {r1, r2, r8}
    12b4:	0f052f06 	svceq	0x00052f06
    12b8:	09050106 	stmdbeq	r5, {r1, r2, r8}
    12bc:	05052f06 	streq	r2, [r5, #-3846]	; 0xfffff0fa
    12c0:	05010f03 	streq	r0, [r1, #-3843]	; 0xfffff0fd
    12c4:	0501060d 	streq	r0, [r1, #-1549]	; 0xfffff9f3
    12c8:	09052e05 	stmdbeq	r5, {r0, r2, r9, sl, fp, sp}
    12cc:	02740306 	rsbseq	r0, r4, #402653184	; 0x18000000
    12d0:	0f05015b 	svceq	0x0005015b
    12d4:	09050106 	stmdbeq	r5, {r1, r2, r8}
    12d8:	0f052f06 	svceq	0x00052f06
    12dc:	09050106 	stmdbeq	r5, {r1, r2, r8}
    12e0:	05222f06 	streq	r2, [r2, #-3846]!	; 0xfffff0fa
    12e4:	0501060f 	streq	r0, [r1, #-1551]	; 0xfffff9f1
    12e8:	052f0609 	streq	r0, [pc, #-1545]!	; ce7 <__Vectors_Size+0x527>
    12ec:	0501060f 	streq	r0, [r1, #-1551]	; 0xfffff9f1
    12f0:	032f0609 			; <UNDEFINED> instruction: 0x032f0609
    12f4:	0513200f 	ldreq	r2, [r3, #-15]
    12f8:	0501060c 	streq	r0, [r1, #-1548]	; 0xfffff9f4
    12fc:	0402001c 	streq	r0, [r2], #-28	; 0xffffffe4
    1300:	0e052e01 	cdpeq	14, 0, cr2, cr5, cr1, {0}
    1304:	11053106 	tstne	r5, r6, lsl #2
    1308:	0e050106 	adfeqs	f0, f5, f6
    130c:	11053106 	tstne	r5, r6, lsl #2
    1310:	0b050106 	bleq	141730 <__RAM_SIZE+0x41730>
    1314:	05133206 	ldreq	r3, [r3, #-518]	; 0xfffffdfa
    1318:	05010611 	streq	r0, [r1, #-1553]	; 0xfffff9ef
    131c:	77032d10 	smladvc	r3, r0, sp, r2
    1320:	0609052e 	streq	r0, [r9], -lr, lsr #10
    1324:	05200d03 	streq	r0, [r0, #-3331]!	; 0xfffff2fd
    1328:	0501060c 	streq	r0, [r1, #-1548]	; 0xfffff9f4
    132c:	05330609 	ldreq	r0, [r3, #-1545]!	; 0xfffff9f7
    1330:	0501060c 	streq	r0, [r1, #-1548]	; 0xfffff9f4
    1334:	0402001e 	streq	r0, [r2], #-30	; 0xffffffe2
    1338:	0b052e01 	bleq	14cb44 <__RAM_SIZE+0x4cb44>
    133c:	11052f06 	tstne	r5, r6, lsl #30
    1340:	09050106 	stmdbeq	r5, {r1, r2, r8}
    1344:	0c053206 	sfmeq	f3, 4, [r5], {6}
    1348:	0b050106 	bleq	141768 <__RAM_SIZE+0x41768>
    134c:	11053d06 	tstne	r5, r6, lsl #26
    1350:	09050106 	stmdbeq	r5, {r1, r2, r8}
    1354:	0c053206 	sfmeq	f3, 4, [r5], {6}
    1358:	1e050106 	adfnes	f0, f5, f6
    135c:	01040200 	mrseq	r0, R12_usr
    1360:	060b052e 	streq	r0, [fp], -lr, lsr #10
    1364:	052e1303 	streq	r1, [lr, #-771]!	; 0xfffffcfd
    1368:	0501060e 	streq	r0, [r1, #-1550]	; 0xfffff9f2
    136c:	054f0610 	strbeq	r0, [pc, #-1552]	; d64 <__Vectors_Size+0x5a4>
    1370:	05010613 	streq	r0, [r1, #-1555]	; 0xfffff9ed
    1374:	054e060d 	strbeq	r0, [lr, #-1549]	; 0xfffff9f3
    1378:	05010667 	streq	r0, [r1, #-1639]	; 0xfffff999
    137c:	0d054a4e 	vstreq	s8, [r5, #-312]	; 0xfffffec8
    1380:	08040200 	stmdaeq	r4, {r9}
    1384:	13054b06 	movwne	r4, #23302	; 0x5b06
    1388:	08040200 	stmdaeq	r4, {r9}
    138c:	02000106 	andeq	r0, r0, #-2147483647	; 0x80000001
    1390:	00740804 	rsbseq	r0, r4, r4, lsl #16
    1394:	4a080402 	bmi	2023a4 <__RAM_SIZE+0x1023a4>
    1398:	08040200 	stmdaeq	r4, {r9}
    139c:	0402004a 	streq	r0, [r2], #-74	; 0xffffffb6
    13a0:	02002008 	andeq	r2, r0, #8
    13a4:	05200804 	streq	r0, [r0, #-2052]!	; 0xfffff7fc
    13a8:	01470310 	cmpeq	r7, r0, lsl r3
    13ac:	0b053131 	bleq	14d878 <__RAM_SIZE+0x4d878>
    13b0:	11053606 	tstne	r5, r6, lsl #12
    13b4:	052e0106 	streq	r0, [lr, #-262]!	; 0xfffffefa
    13b8:	1003060b 	andne	r0, r3, fp, lsl #12
    13bc:	060e0520 	streq	r0, [lr], -r0, lsr #10
    13c0:	06100501 	ldreq	r0, [r0], -r1, lsl #10
    13c4:	06130542 	ldreq	r0, [r3], -r2, asr #10
    13c8:	060d0501 	streq	r0, [sp], -r1, lsl #10
    13cc:	064c0541 	strbeq	r0, [ip], -r1, asr #10
    13d0:	3c3c0501 	cfldr32cc	mvfx0, [ip], #-4
    13d4:	02000d05 	andeq	r0, r0, #320	; 0x140
    13d8:	4b060804 	blmi	1833f0 <__RAM_SIZE+0x833f0>
    13dc:	02003805 	andeq	r3, r0, #327680	; 0x50000
    13e0:	01060804 	tsteq	r6, r4, lsl #16
    13e4:	02001305 	andeq	r1, r0, #335544320	; 0x14000000
    13e8:	004a0804 	subeq	r0, sl, r4, lsl #16
    13ec:	74080402 	strvc	r0, [r8], #-1026	; 0xfffffbfe
    13f0:	08040200 	stmdaeq	r4, {r9}
    13f4:	0402003c 	streq	r0, [r2], #-60	; 0xffffffc4
    13f8:	02005808 	andeq	r5, r0, #8, 16	; 0x80000
    13fc:	05200804 	streq	r0, [r0, #-2052]!	; 0xfffff7fc
    1400:	12030609 	andne	r0, r3, #9437184	; 0x900000
    1404:	060f0501 	streq	r0, [pc], -r1, lsl #10
    1408:	06090501 	streq	r0, [r9], -r1, lsl #10
    140c:	030d053d 	movweq	r0, #54589	; 0xd53d
    1410:	1d052063 	stcne	0, cr2, [r5, #-396]	; 0xfffffe74
    1414:	0d050106 	stfeqs	f0, [r5, #-24]	; 0xffffffe8
    1418:	3d058306 	stccc	3, cr8, [r5, #-24]	; 0xffffffe8
    141c:	13050106 	movwne	r0, #20742	; 0x5106
    1420:	ac582e4a 	mrrcge	14, 4, r2, r8, cr10
    1424:	203d0520 	eorscs	r0, sp, r0, lsr #10
    1428:	4e060d05 	cdpmi	13, 0, cr0, cr6, cr5, {0}
    142c:	01061805 	tsteq	r6, r5, lsl #16
    1430:	4b060d05 	blmi	18484c <__RAM_SIZE+0x8484c>
    1434:	01063805 	tsteq	r6, r5, lsl #16
    1438:	9e4a1305 	cdpls	3, 4, cr1, cr10, cr5, {0}
    143c:	81052058 	qaddhi	r2, r8, r5
    1440:	04020001 	streq	r0, [r2], #-1
    1444:	71052302 	tstvc	r5, r2, lsl #6
    1448:	3c66053c 	cfstr64cc	mvdx0, [r6], #-240	; 0xffffff10
    144c:	3c018105 	stfccd	f0, [r1], {5}
    1450:	060d0558 			; <UNDEFINED> instruction: 0x060d0558
    1454:	0613051a 			; <UNDEFINED> instruction: 0x0613051a
    1458:	584a0801 	stmdapl	sl, {r0, fp}^
    145c:	060d0520 	streq	r0, [sp], -r0, lsr #10
    1460:	06130524 	ldreq	r0, [r3], -r4, lsr #10
    1464:	20909e01 	addscs	r9, r0, r1, lsl #28
    1468:	0001ae05 	andeq	sl, r1, r5, lsl #28
    146c:	23020402 	movwcs	r0, #9218	; 0x2402
    1470:	3c019505 	cfstr32cc	mvfx9, [r1], {5}
    1474:	5801ae05 	stmdapl	r1, {r0, r2, r9, sl, fp, sp, pc}
    1478:	06090558 			; <UNDEFINED> instruction: 0x06090558
    147c:	05010a03 	streq	r0, [r1, #-2563]	; 0xfffff5fd
    1480:	0501060c 	streq	r0, [r1, #-1548]	; 0xfffff9f4
    1484:	052f0609 	streq	r0, [pc, #-1545]!	; e83 <__Vectors_Size+0x6c3>
    1488:	0501060f 	streq	r0, [r1, #-1551]	; 0xfffff9f1
    148c:	67080609 	strvs	r0, [r8, -r9, lsl #12]
    1490:	01060f05 	tsteq	r6, r5, lsl #30
    1494:	3d060905 	vstrcc.16	s0, [r6, #-10]	; <UNPREDICTABLE>
    1498:	02001d05 	andeq	r1, r0, #320	; 0x140
    149c:	051d0104 	ldreq	r0, [sp, #-260]	; 0xfffffefc
    14a0:	04020023 	streq	r0, [r2], #-35	; 0xffffffdd
    14a4:	00010601 	andeq	r0, r1, r1, lsl #12
    14a8:	2e010402 	cdpcs	4, 0, cr0, cr1, cr2, {0}
    14ac:	03060905 	movweq	r0, #26885	; 0x6905
    14b0:	0c052009 	stceq	0, cr2, [r5], {9}
    14b4:	1d050106 	stfnes	f0, [r5, #-24]	; 0xffffffe8
    14b8:	02040200 	andeq	r0, r4, #0, 4
    14bc:	0031052e 	eorseq	r0, r1, lr, lsr #10
    14c0:	06030402 	streq	r0, [r3], -r2, lsl #8
    14c4:	0037052e 	eorseq	r0, r7, lr, lsr #10
    14c8:	06030402 	streq	r0, [r3], -r2, lsl #8
    14cc:	06090501 	streq	r0, [r9], -r1, lsl #10
    14d0:	060c052f 	streq	r0, [ip], -pc, lsr #10
    14d4:	001d0501 	andseq	r0, sp, r1, lsl #10
    14d8:	2e020402 	cdpcs	4, 0, cr0, cr2, cr2, {0}
    14dc:	02003105 	andeq	r3, r0, #1073741825	; 0x40000001
    14e0:	2e060304 	cdpcs	3, 0, cr0, cr6, cr4, {0}
    14e4:	02003705 	andeq	r3, r0, #1310720	; 0x140000
    14e8:	01060304 	tsteq	r6, r4, lsl #6
    14ec:	2f060905 	svccs	0x00060905
    14f0:	01060f05 	tsteq	r6, r5, lsl #30
    14f4:	08060905 	stmdaeq	r6, {r0, r2, r8, fp}
    14f8:	060f0567 	streq	r0, [pc], -r7, ror #10
    14fc:	06090501 	streq	r0, [r9], -r1, lsl #10
    1500:	0514243d 	ldreq	r2, [r4, #-1085]	; 0xfffffbc3
    1504:	2e01060c 	cfmadd32cs	mvax0, mvfx0, mvfx1, mvfx12
    1508:	051e1605 	ldreq	r1, [lr, #-1541]	; 0xfffff9fb
    150c:	05360609 	ldreq	r0, [r6, #-1545]!	; 0xfffff9f7
    1510:	05010613 	streq	r0, [r1, #-1555]	; 0xfffff9ed
    1514:	062e3c09 	strteq	r3, [lr], -r9, lsl #24
    1518:	060c055a 			; <UNDEFINED> instruction: 0x060c055a
    151c:	06090501 	streq	r0, [r9], -r1, lsl #10
    1520:	060f0525 	streq	r0, [pc], -r5, lsr #10
    1524:	06090501 	streq	r0, [r9], -r1, lsl #10
    1528:	030d053d 	movweq	r0, #54589	; 0xd53d
    152c:	2e062e74 	mcrcs	14, 0, r2, cr6, cr4, {3}
    1530:	05491305 	strbeq	r1, [r9, #-773]	; 0xfffffcfb
    1534:	1105210d 	tstne	r5, sp, lsl #2
    1538:	13051f06 	movwne	r1, #24326	; 0x5f06
    153c:	11050106 	tstne	r5, r6, lsl #2
    1540:	16052e2e 	strne	r2, [r5], -lr, lsr #28
    1544:	3c2e3c2b 	stccc	12, cr3, [lr], #-172	; 0xffffff54
    1548:	03060d05 	movweq	r0, #27909	; 0x6d05
    154c:	2006200c 	andcs	r2, r6, ip
    1550:	05491305 	strbeq	r1, [r9, #-773]	; 0xfffffcfb
    1554:	1105210d 	tstne	r5, sp, lsl #2
    1558:	13051f06 	movwne	r1, #24326	; 0x5f06
    155c:	11050106 	tstne	r5, r6, lsl #2
    1560:	052e2e2e 	streq	r2, [lr, #-3630]!	; 0xfffff1d2
    1564:	09030609 	stmdbeq	r3, {r0, r3, r9, sl}
    1568:	06150501 	ldreq	r0, [r5], -r1, lsl #10
    156c:	06090501 	streq	r0, [r9], -r1, lsl #10
    1570:	061a0559 			; <UNDEFINED> instruction: 0x061a0559
    1574:	06260501 	strteq	r0, [r6], -r1, lsl #10
    1578:	747b9003 	ldrbtvc	r9, [fp], #-3
    157c:	05012205 	streq	r2, [r1, #-517]	; 0xfffffdfb
    1580:	052e061e 	streq	r0, [lr, #-1566]!	; 0xfffff9e2
    1584:	05200611 	streq	r0, [r0, #-1553]!	; 0xfffff9ef
    1588:	052e0603 	streq	r0, [lr, #-1539]!	; 0xfffff9fd
    158c:	1405201e 	strne	r2, [r5], #-30	; 0xffffffe2
    1590:	06030520 	streq	r0, [r3], -r0, lsr #10
    1594:	061b052f 	ldreq	r0, [fp], -pc, lsr #10
    1598:	09052e01 	stmdbeq	r5, {r0, r9, sl, fp, sp}
    159c:	04f10306 	ldrbteq	r0, [r1], #774	; 0x306
    15a0:	060c0501 	streq	r0, [ip], -r1, lsl #10
    15a4:	060b0501 	streq	r0, [fp], -r1, lsl #10
    15a8:	060d054b 	streq	r0, [sp], -fp, asr #10
    15ac:	06090501 	streq	r0, [r9], -r1, lsl #10
    15b0:	060c053e 			; <UNDEFINED> instruction: 0x060c053e
    15b4:	202e4a01 	eorcs	r4, lr, r1, lsl #20
    15b8:	1b1a0520 	blne	682a40 <__RAM_SIZE+0x582a40>
    15bc:	0d052e2e 	stceq	14, cr2, [r5, #-184]	; 0xffffff48
    15c0:	2e063506 	cfsh32cs	mvfx3, mvfx6, #6
    15c4:	05491305 	strbeq	r1, [r9, #-773]	; 0xfffffcfb
    15c8:	1105210d 	tstne	r5, sp, lsl #2
    15cc:	13051f06 	movwne	r1, #24326	; 0x5f06
    15d0:	11050106 	tstne	r5, r6, lsl #2
    15d4:	2e130520 	cfmul64cs	mvdx0, mvdx3, mvdx0
    15d8:	4505203c 	strmi	r2, [r5, #-60]	; 0xffffffc4
    15dc:	060b0525 	streq	r0, [fp], -r5, lsr #10
    15e0:	06120521 	ldreq	r0, [r2], -r1, lsr #10
    15e4:	2e0b0501 	cfsh32cs	mvfx0, mvfx11, #1
    15e8:	060f0520 	streq	r0, [pc], -r0, lsr #10
    15ec:	06110549 	ldreq	r0, [r1], -r9, asr #10
    15f0:	2e0f0501 	cfsh32cs	mvfx0, mvfx15, #1
    15f4:	02001a05 	andeq	r1, r0, #20480	; 0x5000
    15f8:	05200104 	streq	r0, [r0, #-260]!	; 0xfffffefc
    15fc:	04020045 	streq	r0, [r2], #-69	; 0xffffffbb
    1600:	39052e02 	stmdbcc	r5, {r1, r9, sl, fp, sp}
    1604:	02040200 	andeq	r0, r4, #0, 4
    1608:	320c0520 	andcc	r0, ip, #32, 10	; 0x8000000
    160c:	2e060905 	vmlacs.f16	s0, s12, s10	; <UNPREDICTABLE>
    1610:	01060c05 	tsteq	r6, r5, lsl #24
    1614:	33060905 	movwcc	r0, #26885	; 0x6905
    1618:	01060f05 	tsteq	r6, r5, lsl #30
    161c:	3d060905 	vstrcc.16	s0, [r6, #-10]	; <UNPREDICTABLE>
    1620:	052e2006 	streq	r2, [lr, #-6]!
    1624:	061c060d 	ldreq	r0, [ip], -sp, lsl #12
    1628:	49130520 	ldmdbmi	r3, {r5, r8, sl}
    162c:	05210d05 	streq	r0, [r1, #-3333]!	; 0xfffff2fb
    1630:	051f0611 	ldreq	r0, [pc, #-1553]	; 1027 <__HEAP_SIZE+0x27>
    1634:	05010613 	streq	r0, [r1, #-1555]	; 0xfffff9ed
    1638:	202e2e11 	eorcs	r2, lr, r1, lsl lr
    163c:	06090520 	streq	r0, [r9], -r0, lsr #10
    1640:	13010903 	movwne	r0, #6403	; 0x1903
    1644:	01060f05 	tsteq	r6, r5, lsl #30
    1648:	30060905 	andcc	r0, r6, r5, lsl #18
    164c:	170b0513 	smladne	fp, r3, r5, r0
    1650:	01065105 	tsteq	r6, r5, lsl #2
    1654:	054a1105 	strbeq	r1, [sl, #-261]	; 0xfffffefb
    1658:	16080609 	strne	r0, [r8], -r9, lsl #12
    165c:	01060f05 	tsteq	r6, r5, lsl #30
    1660:	3d060905 	vstrcc.16	s0, [r6, #-10]	; <UNPREDICTABLE>
    1664:	16062006 	strne	r2, [r6], -r6
    1668:	59062006 	stmdbpl	r6, {r1, r2, sp}
    166c:	01060f05 	tsteq	r6, r5, lsl #30
    1670:	3d060905 	vstrcc.16	s0, [r6, #-10]	; <UNPREDICTABLE>
    1674:	06221006 	strteq	r1, [r2], -r6
    1678:	06200623 	strteq	r0, [r0], -r3, lsr #12
    167c:	060f054b 	streq	r0, [pc], -fp, asr #10
    1680:	06090501 	streq	r0, [r9], -r1, lsl #10
    1684:	2210063d 	andscs	r0, r0, #63963136	; 0x3d00000
    1688:	207df803 	rsbscs	pc, sp, r3, lsl #16
    168c:	03060305 	movweq	r0, #25349	; 0x6305
    1690:	002e028d 	eoreq	r0, lr, sp, lsl #5
    1694:	06010402 	streq	r0, [r1], -r2, lsl #8
    1698:	02002e2e 	andeq	r2, r0, #736	; 0x2e0
    169c:	00200404 	eoreq	r0, r0, r4, lsl #8
    16a0:	06040402 	streq	r0, [r4], -r2, lsl #8
    16a4:	0001054d 	andeq	r0, r1, sp, asr #10
    16a8:	06040402 	streq	r0, [r4], -r2, lsl #8
    16ac:	04020013 	streq	r0, [r2], #-19	; 0xffffffed
    16b0:	03024a04 	movweq	r4, #10756	; 0x2a04
    16b4:	05010100 	streq	r0, [r1, #-256]	; 0xffffff00
    16b8:	02050001 	andeq	r0, r5, #1
    16bc:	10001ae8 	andne	r1, r0, r8, ror #21
    16c0:	01019503 	tsteq	r1, r3, lsl #10
    16c4:	05130305 	ldreq	r0, [r3, #-773]	; 0xfffffcfb
    16c8:	1c050111 	stfnes	f0, [r5], {17}
    16cc:	13030501 	movwne	r0, #13569	; 0x3501
    16d0:	01060605 	tsteq	r6, r5, lsl #12
    16d4:	052c0105 	streq	r0, [ip, #-261]!	; 0xfffffefb
    16d8:	05230605 	streq	r0, [r3, #-1541]!	; 0xfffff9fb
    16dc:	02300601 	eorseq	r0, r0, #1048576	; 0x100000
    16e0:	01010001 	tsteq	r1, r1
    16e4:	05000105 	streq	r0, [r0, #-261]	; 0xfffffefb
    16e8:	001af402 	andseq	pc, sl, r2, lsl #8
    16ec:	06de0310 			; <UNDEFINED> instruction: 0x06de0310
    16f0:	05010601 	streq	r0, [r1, #-1537]	; 0xfffff9ff
    16f4:	13670603 	cmnne	r7, #3145728	; 0x300000
    16f8:	13051321 	movwne	r1, #21281	; 0x5321
    16fc:	03050106 	movweq	r0, #20742	; 0x5106
    1700:	05137506 	ldreq	r7, [r3, #-1286]	; 0xfffffafa
    1704:	02130601 	andseq	r0, r3, #1048576	; 0x100000
    1708:	01010008 	tsteq	r1, r8
    170c:	05000105 	streq	r0, [r0, #-261]	; 0xfffffefb
    1710:	00000002 	andeq	r0, r0, r2
    1714:	06e90300 	strbteq	r0, [r9], r0, lsl #6
    1718:	05010601 	streq	r0, [r1, #-1537]	; 0xfffff9ff
    171c:	13750603 	cmnne	r5, #3145728	; 0x300000
    1720:	06130521 	ldreq	r0, [r3], -r1, lsr #10
    1724:	03054a01 	movweq	r4, #23041	; 0x5a01
    1728:	05132f06 	ldreq	r2, [r3, #-3846]	; 0xfffff0fa
    172c:	02130601 	andseq	r0, r3, #1048576	; 0x100000
    1730:	01010008 	tsteq	r1, r8
    1734:	05000105 	streq	r0, [r0, #-261]	; 0xfffffefb
    1738:	00000002 	andeq	r0, r0, r2
    173c:	06f30300 	ldrbteq	r0, [r3], r0, lsl #6
    1740:	05010601 	streq	r0, [r1, #-1537]	; 0xfffff9ff
    1744:	13750603 	cmnne	r5, #3145728	; 0x300000
    1748:	06130521 	ldreq	r0, [r3], -r1, lsr #10
    174c:	05202e01 	streq	r2, [r0, #-3585]!	; 0xfffff1ff
    1750:	132f0603 			; <UNDEFINED> instruction: 0x132f0603
    1754:	13060105 	movwne	r0, #24837	; 0x6105
    1758:	01000702 	tsteq	r0, r2, lsl #14
    175c:	00010501 	andeq	r0, r1, r1, lsl #10
    1760:	00000205 	andeq	r0, r0, r5, lsl #4
    1764:	fd030000 	stc2	0, cr0, [r3, #-0]
    1768:	01060106 	tsteq	r6, r6, lsl #2
    176c:	3d060305 	stccc	3, cr0, [r6, #-20]	; 0xffffffec
    1770:	060a0513 			; <UNDEFINED> instruction: 0x060a0513
    1774:	05204a01 	streq	r4, [r0, #-2561]!	; 0xfffff5ff
    1778:	06022f01 	streq	r2, [r2], -r1, lsl #30
    177c:	05010100 	streq	r0, [r1, #-256]	; 0xffffff00
    1780:	02050001 	andeq	r0, r5, #1
    1784:	00000000 	andeq	r0, r0, r0
    1788:	01078403 	tsteq	r7, r3, lsl #8
    178c:	03050106 	movweq	r0, #20742	; 0x5106
    1790:	0a052f06 	beq	14d3b0 <__RAM_SIZE+0x4d3b0>
    1794:	202e0106 	eorcs	r0, lr, r6, lsl #2
    1798:	01052020 	tsteq	r5, r0, lsr #32
    179c:	0005022f 	andeq	r0, r5, pc, lsr #4
    17a0:	01050101 	tsteq	r5, r1, lsl #2
    17a4:	00020500 	andeq	r0, r2, r0, lsl #10
    17a8:	03000000 	movweq	r0, #0
    17ac:	0601078a 	streq	r0, [r1], -sl, lsl #15
    17b0:	06030501 	streq	r0, [r3], -r1, lsl #10
    17b4:	05211367 	streq	r1, [r1, #-871]!	; 0xfffffc99
    17b8:	0501061b 	streq	r0, [r1, #-1563]	; 0xfffff9e5
    17bc:	052f0603 	streq	r0, [pc, #-1539]!	; 11c1 <__HEAP_SIZE+0x1c1>
    17c0:	58010613 	stmdapl	r1, {r0, r1, r4, r9, sl}
    17c4:	2f060305 	svccs	0x00060305
    17c8:	06010513 			; <UNDEFINED> instruction: 0x06010513
    17cc:	00080213 	andeq	r0, r8, r3, lsl r2
    17d0:	03130101 	tsteq	r3, #1073741824	; 0x40000000
    17d4:	00030000 	andeq	r0, r3, r0
    17d8:	000001cc 	andeq	r0, r0, ip, asr #3
    17dc:	0efb0102 	cdpeq	1, 15, cr0, cr11, cr2, {0}
    17e0:	0101000d 	tsteq	r1, sp
    17e4:	00000101 	andeq	r0, r0, r1, lsl #2
    17e8:	00000100 	andeq	r0, r0, r0, lsl #2
    17ec:	2f2e2e01 	svccs	0x002e2e01
    17f0:	65726f43 	ldrbvs	r6, [r2, #-3907]!	; 0xfffff0bd
    17f4:	6372532f 	cmnvs	r2, #-1140850688	; 0xbc000000
    17f8:	5c3a6300 	ldcpl	3, cr6, [sl], #-0
    17fc:	72657375 	rsbvc	r7, r5, #-738197503	; 0xd4000001
    1800:	69785c73 	ldmdbvs	r8!, {r0, r1, r4, r5, r6, sl, fp, ip, lr}^
    1804:	5c6e6f64 	stclpl	15, cr6, [lr], #-400	; 0xfffffe70
    1808:	676f7270 			; <UNDEFINED> instruction: 0x676f7270
    180c:	5c6d6172 	stfple	f6, [sp], #-456	; 0xfffffe38
    1810:	5f6d7261 	svcpl	0x006d7261
    1814:	5c636367 	stclpl	3, cr6, [r3], #-412	; 0xfffffe64
    1818:	2d636367 	stclcs	3, cr6, [r3, #-412]!	; 0xfffffe64
    181c:	2d6d7261 	sfmcs	f7, 2, [sp, #-388]!	; 0xfffffe7c
    1820:	656e6f6e 	strbvs	r6, [lr, #-3950]!	; 0xfffff092
    1824:	6261652d 	rsbvs	r6, r1, #188743680	; 0xb400000
    1828:	30312d69 	eorscc	r2, r1, r9, ror #26
    182c:	322d332e 	eorcc	r3, sp, #-1207959552	; 0xb8000000
    1830:	2e313230 	mrccs	2, 1, r3, cr1, cr0, {1}
    1834:	615c3031 	cmpvs	ip, r1, lsr r0
    1838:	6e2d6d72 	mcrvs	13, 1, r6, cr13, cr2, {3}
    183c:	2d656e6f 	stclcs	14, cr6, [r5, #-444]!	; 0xfffffe44
    1840:	69626165 	stmdbvs	r2!, {r0, r2, r5, r6, r8, sp, lr}^
    1844:	636e695c 	cmnvs	lr, #92, 18	; 0x170000
    1848:	6564756c 	strbvs	r7, [r4, #-1388]!	; 0xfffffa94
    184c:	63616d5c 	cmnvs	r1, #92, 26	; 0x1700
    1850:	656e6968 	strbvs	r6, [lr, #-2408]!	; 0xfffff698
    1854:	5c3a6300 	ldcpl	3, cr6, [sl], #-0
    1858:	72657375 	rsbvc	r7, r5, #-738197503	; 0xd4000001
    185c:	69785c73 	ldmdbvs	r8!, {r0, r1, r4, r5, r6, sl, fp, ip, lr}^
    1860:	5c6e6f64 	stclpl	15, cr6, [lr], #-400	; 0xfffffe70
    1864:	676f7270 			; <UNDEFINED> instruction: 0x676f7270
    1868:	5c6d6172 	stfple	f6, [sp], #-456	; 0xfffffe38
    186c:	5f6d7261 	svcpl	0x006d7261
    1870:	5c636367 	stclpl	3, cr6, [r3], #-412	; 0xfffffe64
    1874:	2d636367 	stclcs	3, cr6, [r3, #-412]!	; 0xfffffe64
    1878:	2d6d7261 	sfmcs	f7, 2, [sp, #-388]!	; 0xfffffe7c
    187c:	656e6f6e 	strbvs	r6, [lr, #-3950]!	; 0xfffff092
    1880:	6261652d 	rsbvs	r6, r1, #188743680	; 0xb400000
    1884:	30312d69 	eorscc	r2, r1, r9, ror #26
    1888:	322d332e 	eorcc	r3, sp, #-1207959552	; 0xb8000000
    188c:	2e313230 	mrccs	2, 1, r3, cr1, cr0, {1}
    1890:	6c5c3031 	mrrcvs	0, 3, r3, ip, cr1
    1894:	675c6269 	ldrbvs	r6, [ip, -r9, ror #4]
    1898:	615c6363 	cmpvs	ip, r3, ror #6
    189c:	6e2d6d72 	mcrvs	13, 1, r6, cr13, cr2, {3}
    18a0:	2d656e6f 	stclcs	14, cr6, [r5, #-444]!	; 0xfffffe44
    18a4:	69626165 	stmdbvs	r2!, {r0, r2, r5, r6, r8, sp, lr}^
    18a8:	2e30315c 	mrccs	1, 1, r3, cr0, cr12, {2}
    18ac:	5c312e33 	ldcpl	14, cr2, [r1], #-204	; 0xffffff34
    18b0:	6c636e69 	stclvs	14, cr6, [r3], #-420	; 0xfffffe5c
    18b4:	00656475 	rsbeq	r6, r5, r5, ror r4
    18b8:	755c3a63 	ldrbvc	r3, [ip, #-2659]	; 0xfffff59d
    18bc:	73726573 	cmnvc	r2, #482344960	; 0x1cc00000
    18c0:	6469785c 	strbtvs	r7, [r9], #-2140	; 0xfffff7a4
    18c4:	705c6e6f 	subsvc	r6, ip, pc, ror #28
    18c8:	72676f72 	rsbvc	r6, r7, #456	; 0x1c8
    18cc:	615c6d61 	cmpvs	ip, r1, ror #26
    18d0:	675f6d72 			; <UNDEFINED> instruction: 0x675f6d72
    18d4:	675c6363 	ldrbvs	r6, [ip, -r3, ror #6]
    18d8:	612d6363 			; <UNDEFINED> instruction: 0x612d6363
    18dc:	6e2d6d72 	mcrvs	13, 1, r6, cr13, cr2, {3}
    18e0:	2d656e6f 	stclcs	14, cr6, [r5, #-444]!	; 0xfffffe44
    18e4:	69626165 	stmdbvs	r2!, {r0, r2, r5, r6, r8, sp, lr}^
    18e8:	2e30312d 	rsfcssp	f3, f0, #5.0
    18ec:	30322d33 	eorscc	r2, r2, r3, lsr sp
    18f0:	312e3132 			; <UNDEFINED> instruction: 0x312e3132
    18f4:	72615c30 	rsbvc	r5, r1, #48, 24	; 0x3000
    18f8:	6f6e2d6d 	svcvs	0x006e2d6d
    18fc:	652d656e 	strvs	r6, [sp, #-1390]!	; 0xfffffa92
    1900:	5c696261 	sfmpl	f6, 2, [r9], #-388	; 0xfffffe7c
    1904:	6c636e69 	stclvs	14, cr6, [r3], #-420	; 0xfffffe5c
    1908:	5c656475 	cfstrdpl	mvd6, [r5], #-468	; 0xfffffe2c
    190c:	00737973 	rsbseq	r7, r3, r3, ror r9
    1910:	755c3a63 	ldrbvc	r3, [ip, #-2659]	; 0xfffff59d
    1914:	73726573 	cmnvc	r2, #482344960	; 0x1cc00000
    1918:	6469785c 	strbtvs	r7, [r9], #-2140	; 0xfffff7a4
    191c:	705c6e6f 	subsvc	r6, ip, pc, ror #28
    1920:	72676f72 	rsbvc	r6, r7, #456	; 0x1c8
    1924:	615c6d61 	cmpvs	ip, r1, ror #26
    1928:	675f6d72 			; <UNDEFINED> instruction: 0x675f6d72
    192c:	675c6363 	ldrbvs	r6, [ip, -r3, ror #6]
    1930:	612d6363 			; <UNDEFINED> instruction: 0x612d6363
    1934:	6e2d6d72 	mcrvs	13, 1, r6, cr13, cr2, {3}
    1938:	2d656e6f 	stclcs	14, cr6, [r5, #-444]!	; 0xfffffe44
    193c:	69626165 	stmdbvs	r2!, {r0, r2, r5, r6, r8, sp, lr}^
    1940:	2e30312d 	rsfcssp	f3, f0, #5.0
    1944:	30322d33 	eorscc	r2, r2, r3, lsr sp
    1948:	312e3132 			; <UNDEFINED> instruction: 0x312e3132
    194c:	72615c30 	rsbvc	r5, r1, #48, 24	; 0x3000
    1950:	6f6e2d6d 	svcvs	0x006e2d6d
    1954:	652d656e 	strvs	r6, [sp, #-1390]!	; 0xfffffa92
    1958:	5c696261 	sfmpl	f6, 2, [r9], #-388	; 0xfffffe7c
    195c:	6c636e69 	stclvs	14, cr6, [r3], #-420	; 0xfffffe5c
    1960:	00656475 	rsbeq	r6, r5, r5, ror r4
    1964:	72617500 	rsbvc	r7, r1, #0, 10
    1968:	00632e74 	rsbeq	r2, r3, r4, ror lr
    196c:	5f000001 	svcpl	0x00000001
    1970:	61666564 	cmnvs	r6, r4, ror #10
    1974:	5f746c75 	svcpl	0x00746c75
    1978:	65707974 	ldrbvs	r7, [r0, #-2420]!	; 0xfffff68c
    197c:	00682e73 	rsbeq	r2, r8, r3, ror lr
    1980:	73000002 	movwvc	r0, #2
    1984:	65646474 	strbvs	r6, [r4, #-1140]!	; 0xfffffb8c
    1988:	00682e66 	rsbeq	r2, r8, r6, ror #28
    198c:	5f000003 	svcpl	0x00000003
    1990:	69647473 	stmdbvs	r4!, {r0, r1, r4, r5, r6, sl, ip, sp, lr}^
    1994:	682e746e 	stmdavs	lr!, {r1, r2, r3, r5, r6, sl, ip, sp, lr}
    1998:	00000400 	andeq	r0, r0, r0, lsl #8
    199c:	69647473 	stmdbvs	r4!, {r0, r1, r4, r5, r6, sl, ip, sp, lr}^
    19a0:	00682e6f 	rsbeq	r2, r8, pc, ror #28
    19a4:	00000005 	andeq	r0, r0, r5
    19a8:	05001305 	streq	r1, [r0, #-773]	; 0xfffffcfb
    19ac:	001b2002 	andseq	r2, fp, r2
    19b0:	01240310 			; <UNDEFINED> instruction: 0x01240310
    19b4:	02002405 	andeq	r2, r0, #83886080	; 0x5000000
    19b8:	05130104 	ldreq	r0, [r3, #-260]	; 0xfffffefc
    19bc:	0402000b 	streq	r0, [r2], #-11
    19c0:	0c050101 	stfeqs	f0, [r5], {1}
    19c4:	01040200 	mrseq	r0, R12_usr
    19c8:	0b050106 	bleq	141de8 <__RAM_SIZE+0x41de8>
    19cc:	01040200 	mrseq	r0, R12_usr
    19d0:	0605052e 	streq	r0, [r5], -lr, lsr #10
    19d4:	0616053d 			; <UNDEFINED> instruction: 0x0616053d
    19d8:	06050501 	streq	r0, [r5], -r1, lsl #10
    19dc:	0601052f 	streq	r0, [r1], -pc, lsr #10
    19e0:	00030213 	andeq	r0, r3, r3, lsl r2
    19e4:	13050101 	movwne	r0, #20737	; 0x5101
    19e8:	00020500 	andeq	r0, r2, r0, lsl #10
    19ec:	03000000 	movweq	r0, #0
    19f0:	2b05012a 	blcs	141ea0 <__RAM_SIZE+0x41ea0>
    19f4:	01040200 	mrseq	r0, R12_usr
    19f8:	000b0513 	andeq	r0, fp, r3, lsl r5
    19fc:	01010402 	tsteq	r1, r2, lsl #8
    1a00:	02000d05 	andeq	r0, r0, #320	; 0x140
    1a04:	01060104 	tsteq	r6, r4, lsl #2
    1a08:	02000b05 	andeq	r0, r0, #5120	; 0x1400
    1a0c:	052e0104 	streq	r0, [lr, #-260]!	; 0xfffffefc
    1a10:	053d0605 	ldreq	r0, [sp, #-1541]!	; 0xfffff9fb
    1a14:	0501060c 	streq	r0, [r1, #-1548]	; 0xfffff9f4
    1a18:	03022f01 	movweq	r2, #12033	; 0x2f01
    1a1c:	05010100 	streq	r0, [r1, #-256]	; 0xffffff00
    1a20:	02050016 	andeq	r0, r5, #22
    1a24:	10001b34 	andne	r1, r0, r4, lsr fp
    1a28:	05012f03 	streq	r2, [r1, #-3843]	; 0xfffff0fd
    1a2c:	16051305 	strne	r1, [r5], -r5, lsl #6
    1a30:	05050106 	streq	r0, [r5, #-262]	; 0xfffffefa
    1a34:	16053d06 	strne	r3, [r5], -r6, lsl #26
    1a38:	05050106 	streq	r0, [r5, #-262]	; 0xfffffefa
    1a3c:	16052f06 	strne	r2, [r5], -r6, lsl #30
    1a40:	05050106 	streq	r0, [r5, #-262]	; 0xfffffefa
    1a44:	16052f06 	strne	r2, [r5], -r6, lsl #30
    1a48:	05050106 	streq	r0, [r5, #-262]	; 0xfffffefa
    1a4c:	16053d06 	strne	r3, [r5], -r6, lsl #26
    1a50:	05050106 	streq	r0, [r5, #-262]	; 0xfffffefa
    1a54:	16052f06 	strne	r2, [r5], -r6, lsl #30
    1a58:	01050106 	tsteq	r5, r6, lsl #2
    1a5c:	0004022f 	andeq	r0, r4, pc, lsr #4
    1a60:	24050101 	strcs	r0, [r5], #-257	; 0xfffffeff
    1a64:	00020500 	andeq	r0, r2, r0, lsl #10
    1a68:	03000000 	movweq	r0, #0
    1a6c:	01060138 	tsteq	r6, r8, lsr r1
    1a70:	2f060505 	svccs	0x00060505
    1a74:	01060b05 	tsteq	r6, r5, lsl #22
    1a78:	21060905 	tstcs	r6, r5, lsl #18
    1a7c:	060f052f 	streq	r0, [pc], -pc, lsr #10
    1a80:	060b0501 	streq	r0, [fp], -r1, lsl #10
    1a84:	060c051e 			; <UNDEFINED> instruction: 0x060c051e
    1a88:	200b0501 	andcs	r0, fp, r1, lsl #10
    1a8c:	20320105 	eorscs	r0, r2, r5, lsl #2
    1a90:	05010100 	streq	r0, [r1, #-256]	; 0xffffff00
    1a94:	02050030 	andeq	r0, r5, #48	; 0x30
    1a98:	00000000 	andeq	r0, r0, r0
    1a9c:	06013f03 	streq	r3, [r1], -r3, lsl #30
    1aa0:	06050501 	streq	r0, [r5], -r1, lsl #10
    1aa4:	0c05133d 	stceq	3, cr1, [r5], {61}	; 0x3d
    1aa8:	09050106 	stmdbeq	r5, {r1, r2, r8}
    1aac:	14053406 	strne	r3, [r5], #-1030	; 0xfffffbfa
    1ab0:	09050106 	stmdbeq	r5, {r1, r2, r8}
    1ab4:	0c052106 	stfeqs	f2, [r5], {6}
    1ab8:	0b050106 	bleq	141ed8 <__RAM_SIZE+0x41ed8>
    1abc:	207a0306 	rsbscs	r0, sl, r6, lsl #6
    1ac0:	05010505 	streq	r0, [r1, #-1285]	; 0xfffffafb
    1ac4:	0e051309 	cdpeq	3, 0, cr1, cr5, cr9, {0}
    1ac8:	0c050106 	stfeqs	f0, [r5], {6}
    1acc:	0609052e 	streq	r0, [r9], -lr, lsr #10
    1ad0:	060b0521 	streq	r0, [fp], -r1, lsr #10
    1ad4:	00170501 	andseq	r0, r7, r1, lsl #10
    1ad8:	2e010402 	cdpcs	4, 0, cr0, cr1, cr2, {0}
    1adc:	34060505 	strcc	r0, [r6], #-1285	; 0xfffffafb
    1ae0:	13060105 	movwne	r0, #24837	; 0x6105
    1ae4:	01002020 	tsteq	r0, r0, lsr #32
    1ae8:	00058201 	andeq	r8, r5, r1, lsl #4
    1aec:	5b000300 	blpl	26f4 <__HEAP_SIZE+0x16f4>
    1af0:	02000002 	andeq	r0, r0, #2
    1af4:	0d0efb01 	vstreq	d15, [lr, #-4]
    1af8:	01010100 	mrseq	r0, (UNDEF: 17)
    1afc:	00000001 	andeq	r0, r0, r1
    1b00:	01000001 	tsteq	r0, r1
    1b04:	2e2f2e2e 	cdpcs	14, 2, cr2, cr15, cr14, {1}
    1b08:	2e2e2f2e 	cdpcs	15, 2, cr2, cr14, cr14, {1}
    1b0c:	62696c2f 	rsbvs	r6, r9, #12032	; 0x2f00
    1b10:	6c697475 	cfstrdvs	mvd7, [r9], #-468	; 0xfffffe2c
    1b14:	61662f73 	smcvs	25331	; 0x62f3
    1b18:	2d746c75 	ldclcs	12, cr6, [r4, #-468]!	; 0xfffffe2c
    1b1c:	706d7564 	rsbvc	r7, sp, r4, ror #10
    1b20:	6372732f 	cmnvs	r2, #-1140850688	; 0xbc000000
    1b24:	2f2e2e00 	svccs	0x002e2e00
    1b28:	76697244 	strbtvc	r7, [r9], -r4, asr #4
    1b2c:	2f737265 	svccs	0x00737265
    1b30:	49534d43 	ldmdbmi	r3, {r0, r1, r6, r8, sl, fp, lr}^
    1b34:	2f355f53 	svccs	0x00355f53
    1b38:	49534d43 	ldmdbmi	r3, {r0, r1, r6, r8, sl, fp, lr}^
    1b3c:	6f432f53 	svcvs	0x00432f53
    1b40:	492f6572 	stmdbmi	pc!, {r1, r4, r5, r6, r8, sl, sp, lr}	; <UNPREDICTABLE>
    1b44:	756c636e 	strbvc	r6, [ip, #-878]!	; 0xfffffc92
    1b48:	63006564 	movwvs	r6, #1380	; 0x564
    1b4c:	73755c3a 	cmnvc	r5, #14848	; 0x3a00
    1b50:	5c737265 	lfmpl	f7, 2, [r3], #-404	; 0xfffffe6c
    1b54:	6f646978 	svcvs	0x00646978
    1b58:	72705c6e 	rsbsvc	r5, r0, #28160	; 0x6e00
    1b5c:	6172676f 	cmnvs	r2, pc, ror #14
    1b60:	72615c6d 	rsbvc	r5, r1, #27904	; 0x6d00
    1b64:	63675f6d 	cmnvs	r7, #436	; 0x1b4
    1b68:	63675c63 	cmnvs	r7, #25344	; 0x6300
    1b6c:	72612d63 	rsbvc	r2, r1, #6336	; 0x18c0
    1b70:	6f6e2d6d 	svcvs	0x006e2d6d
    1b74:	652d656e 	strvs	r6, [sp, #-1390]!	; 0xfffffa92
    1b78:	2d696261 	sfmcs	f6, 2, [r9, #-388]!	; 0xfffffe7c
    1b7c:	332e3031 			; <UNDEFINED> instruction: 0x332e3031
    1b80:	3230322d 	eorscc	r3, r0, #-805306366	; 0xd0000002
    1b84:	30312e31 	eorscc	r2, r1, r1, lsr lr
    1b88:	6d72615c 	ldfvse	f6, [r2, #-368]!	; 0xfffffe90
    1b8c:	6e6f6e2d 	cdpvs	14, 6, cr6, cr15, cr13, {1}
    1b90:	61652d65 	cmnvs	r5, r5, ror #26
    1b94:	695c6962 	ldmdbvs	ip, {r1, r5, r6, r8, fp, sp, lr}^
    1b98:	756c636e 	strbvc	r6, [ip, #-878]!	; 0xfffffc92
    1b9c:	6d5c6564 	cfldr64vs	mvdx6, [ip, #-400]	; 0xfffffe70
    1ba0:	69686361 	stmdbvs	r8!, {r0, r5, r6, r8, r9, sp, lr}^
    1ba4:	6300656e 	movwvs	r6, #1390	; 0x56e
    1ba8:	73755c3a 	cmnvc	r5, #14848	; 0x3a00
    1bac:	5c737265 	lfmpl	f7, 2, [r3], #-404	; 0xfffffe6c
    1bb0:	6f646978 	svcvs	0x00646978
    1bb4:	72705c6e 	rsbsvc	r5, r0, #28160	; 0x6e00
    1bb8:	6172676f 	cmnvs	r2, pc, ror #14
    1bbc:	72615c6d 	rsbvc	r5, r1, #27904	; 0x6d00
    1bc0:	63675f6d 	cmnvs	r7, #436	; 0x1b4
    1bc4:	63675c63 	cmnvs	r7, #25344	; 0x6300
    1bc8:	72612d63 	rsbvc	r2, r1, #6336	; 0x18c0
    1bcc:	6f6e2d6d 	svcvs	0x006e2d6d
    1bd0:	652d656e 	strvs	r6, [sp, #-1390]!	; 0xfffffa92
    1bd4:	2d696261 	sfmcs	f6, 2, [r9, #-388]!	; 0xfffffe7c
    1bd8:	332e3031 			; <UNDEFINED> instruction: 0x332e3031
    1bdc:	3230322d 	eorscc	r3, r0, #-805306366	; 0xd0000002
    1be0:	30312e31 	eorscc	r2, r1, r1, lsr lr
    1be4:	62696c5c 	rsbvs	r6, r9, #92, 24	; 0x5c00
    1be8:	6363675c 	cmnvs	r3, #92, 14	; 0x1700000
    1bec:	6d72615c 	ldfvse	f6, [r2, #-368]!	; 0xfffffe90
    1bf0:	6e6f6e2d 	cdpvs	14, 6, cr6, cr15, cr13, {1}
    1bf4:	61652d65 	cmnvs	r5, r5, ror #26
    1bf8:	315c6962 	cmpcc	ip, r2, ror #18
    1bfc:	2e332e30 	mrccs	14, 1, r2, cr3, cr0, {1}
    1c00:	6e695c31 	mcrvs	12, 3, r5, cr9, cr1, {1}
    1c04:	64756c63 	ldrbtvs	r6, [r5], #-3171	; 0xfffff39d
    1c08:	3a630065 	bcc	18c1da4 <__RAM_SIZE+0x17c1da4>
    1c0c:	6573755c 	ldrbvs	r7, [r3, #-1372]!	; 0xfffffaa4
    1c10:	785c7372 	ldmdavc	ip, {r1, r4, r5, r6, r8, r9, ip, sp, lr}^
    1c14:	6e6f6469 	cdpvs	4, 6, cr6, cr15, cr9, {3}
    1c18:	6f72705c 	svcvs	0x0072705c
    1c1c:	6d617267 	sfmvs	f7, 2, [r1, #-412]!	; 0xfffffe64
    1c20:	6d72615c 	ldfvse	f6, [r2, #-368]!	; 0xfffffe90
    1c24:	6363675f 	cmnvs	r3, #24903680	; 0x17c0000
    1c28:	6363675c 	cmnvs	r3, #92, 14	; 0x1700000
    1c2c:	6d72612d 	ldfvse	f6, [r2, #-180]!	; 0xffffff4c
    1c30:	6e6f6e2d 	cdpvs	14, 6, cr6, cr15, cr13, {1}
    1c34:	61652d65 	cmnvs	r5, r5, ror #26
    1c38:	312d6962 			; <UNDEFINED> instruction: 0x312d6962
    1c3c:	2d332e30 	ldccs	14, cr2, [r3, #-192]!	; 0xffffff40
    1c40:	31323032 	teqcc	r2, r2, lsr r0
    1c44:	5c30312e 	ldfpls	f3, [r0], #-184	; 0xffffff48
    1c48:	2d6d7261 	sfmcs	f7, 2, [sp, #-388]!	; 0xfffffe7c
    1c4c:	656e6f6e 	strbvs	r6, [lr, #-3950]!	; 0xfffff092
    1c50:	6261652d 	rsbvs	r6, r1, #188743680	; 0xb400000
    1c54:	6e695c69 	cdpvs	12, 6, cr5, cr9, cr9, {3}
    1c58:	64756c63 	ldrbtvs	r6, [r5], #-3171	; 0xfffff39d
    1c5c:	79735c65 	ldmdbvc	r3!, {r0, r2, r5, r6, sl, fp, ip, lr}^
    1c60:	2e2e0073 	mcrcs	0, 1, r0, cr14, cr3, {3}
    1c64:	2f2e2e2f 	svccs	0x002e2e2f
    1c68:	6c2f2e2e 	stcvs	14, cr2, [pc], #-184	; 1bb8 <__HEAP_SIZE+0xbb8>
    1c6c:	74756269 	ldrbtvc	r6, [r5], #-617	; 0xfffffd97
    1c70:	2f736c69 	svccs	0x00736c69
    1c74:	6c756166 	ldfvse	f6, [r5], #-408	; 0xfffffe68
    1c78:	75642d74 	strbvc	r2, [r4, #-3444]!	; 0xfffff28c
    1c7c:	692f706d 	stmdbvs	pc!, {r0, r2, r3, r5, r6, ip, sp, lr}	; <UNPREDICTABLE>
    1c80:	6300636e 	movwvs	r6, #878	; 0x36e
    1c84:	73755c3a 	cmnvc	r5, #14848	; 0x3a00
    1c88:	5c737265 	lfmpl	f7, 2, [r3], #-404	; 0xfffffe6c
    1c8c:	6f646978 	svcvs	0x00646978
    1c90:	72705c6e 	rsbsvc	r5, r0, #28160	; 0x6e00
    1c94:	6172676f 	cmnvs	r2, pc, ror #14
    1c98:	72615c6d 	rsbvc	r5, r1, #27904	; 0x6d00
    1c9c:	63675f6d 	cmnvs	r7, #436	; 0x1b4
    1ca0:	63675c63 	cmnvs	r7, #25344	; 0x6300
    1ca4:	72612d63 	rsbvc	r2, r1, #6336	; 0x18c0
    1ca8:	6f6e2d6d 	svcvs	0x006e2d6d
    1cac:	652d656e 	strvs	r6, [sp, #-1390]!	; 0xfffffa92
    1cb0:	2d696261 	sfmcs	f6, 2, [r9, #-388]!	; 0xfffffe7c
    1cb4:	332e3031 			; <UNDEFINED> instruction: 0x332e3031
    1cb8:	3230322d 	eorscc	r3, r0, #-805306366	; 0xd0000002
    1cbc:	30312e31 	eorscc	r2, r1, r1, lsr lr
    1cc0:	6d72615c 	ldfvse	f6, [r2, #-368]!	; 0xfffffe90
    1cc4:	6e6f6e2d 	cdpvs	14, 6, cr6, cr15, cr13, {1}
    1cc8:	61652d65 	cmnvs	r5, r5, ror #26
    1ccc:	695c6962 	ldmdbvs	ip, {r1, r5, r6, r8, fp, sp, lr}^
    1cd0:	756c636e 	strbvc	r6, [ip, #-878]!	; 0xfffffc92
    1cd4:	00006564 	andeq	r6, r0, r4, ror #10
    1cd8:	6c756166 	ldfvse	f6, [r5], #-408	; 0xfffffe68
    1cdc:	75642d74 	strbvc	r2, [r4, #-3444]!	; 0xfffff28c
    1ce0:	632e706d 			; <UNDEFINED> instruction: 0x632e706d
    1ce4:	00000100 	andeq	r0, r0, r0, lsl #2
    1ce8:	69736d63 	ldmdbvs	r3!, {r0, r1, r5, r6, r8, sl, fp, sp, lr}^
    1cec:	63675f73 	cmnvs	r7, #460	; 0x1cc
    1cf0:	00682e63 	rsbeq	r2, r8, r3, ror #28
    1cf4:	5f000002 	svcpl	0x00000002
    1cf8:	61666564 	cmnvs	r6, r4, ror #10
    1cfc:	5f746c75 	svcpl	0x00746c75
    1d00:	65707974 	ldrbvs	r7, [r0, #-2420]!	; 0xfffff68c
    1d04:	00682e73 	rsbeq	r2, r8, r3, ror lr
    1d08:	73000003 	movwvc	r0, #3
    1d0c:	65646474 	strbvs	r6, [r4, #-1140]!	; 0xfffffb8c
    1d10:	00682e66 	rsbeq	r2, r8, r6, ror #28
    1d14:	5f000004 	svcpl	0x00000004
    1d18:	69647473 	stmdbvs	r4!, {r0, r1, r4, r5, r6, sl, ip, sp, lr}^
    1d1c:	682e746e 	stmdavs	lr!, {r1, r2, r3, r5, r6, sl, ip, sp, lr}
    1d20:	00000500 	andeq	r0, r0, r0, lsl #10
    1d24:	6c756166 	ldfvse	f6, [r5], #-408	; 0xfffffe68
    1d28:	75642d74 	strbvc	r2, [r4, #-3444]!	; 0xfffff28c
    1d2c:	682e706d 	stmdavs	lr!, {r0, r2, r3, r5, r6, ip, sp, lr}
    1d30:	00000600 	andeq	r0, r0, r0, lsl #12
    1d34:	6975623c 	ldmdbvs	r5!, {r2, r3, r4, r5, r9, sp, lr}^
    1d38:	692d746c 	pushvs	{r2, r3, r5, r6, sl, ip, sp, lr}
    1d3c:	00003e6e 	andeq	r3, r0, lr, ror #28
    1d40:	74730000 	ldrbtvc	r0, [r3], #-0
    1d44:	2e6f6964 	vnmulcs.f16	s13, s30, s9	; <UNPREDICTABLE>
    1d48:	00070068 	andeq	r0, r7, r8, rrx
    1d4c:	38050000 	stmdacc	r5, {}	; <UNPREDICTABLE>
    1d50:	58020500 	stmdapl	r2, {r8, sl}
    1d54:	0310001b 	tsteq	r0, #27
    1d58:	060100f3 			; <UNDEFINED> instruction: 0x060100f3
    1d5c:	06050501 	streq	r0, [r5], -r1, lsl #10
    1d60:	060e0521 	streq	r0, [lr], -r1, lsr #10
    1d64:	06050501 	streq	r0, [r5], -r1, lsl #10
    1d68:	0a05132f 	beq	146a2c <__RAM_SIZE+0x46a2c>
    1d6c:	06050501 	streq	r0, [r5], -r1, lsl #10
    1d70:	00090501 	andeq	r0, r9, r1, lsl #10
    1d74:	06030402 	streq	r0, [r3], -r2, lsl #8
    1d78:	00140521 	andseq	r0, r4, r1, lsr #10
    1d7c:	06030402 	streq	r0, [r3], -r2, lsl #8
    1d80:	00120501 	andseq	r0, r2, r1, lsl #10
    1d84:	2e030402 	cdpcs	4, 0, cr0, cr3, cr2, {0}
    1d88:	02003d05 	andeq	r3, r0, #320	; 0x140
    1d8c:	57060304 	strpl	r0, [r6, -r4, lsl #6]
    1d90:	02003e05 	andeq	r3, r0, #5, 28	; 0x50
    1d94:	01060304 	tsteq	r6, r4, lsl #6
    1d98:	02001505 	andeq	r1, r0, #20971520	; 0x1400000
    1d9c:	20060104 	andcs	r0, r6, r4, lsl #2
    1da0:	02000505 	andeq	r0, r0, #20971520	; 0x1400000
    1da4:	01060104 	tsteq	r6, r4, lsl #2
    1da8:	22053106 	andcs	r3, r5, #-2147483647	; 0x80000001
    1dac:	052f0106 	streq	r0, [pc, #-262]!	; 1cae <__HEAP_SIZE+0xcae>
    1db0:	052f0605 	streq	r0, [pc, #-1541]!	; 17b3 <__HEAP_SIZE+0x7b3>
    1db4:	2e130601 	cfmsub32cs	mvax0, mvfx0, mvfx3, mvfx1
    1db8:	01000202 	tsteq	r0, r2, lsl #4
    1dbc:	00330501 	eorseq	r0, r3, r1, lsl #10
    1dc0:	1b840205 	blne	fe1025dc <__StackTop+0xc60025dc>
    1dc4:	fe031000 	cdp2	0, 0, cr1, cr3, cr0, {0}
    1dc8:	05050100 	streq	r0, [r5, #-256]	; 0xffffff00
    1dcc:	060e0516 			; <UNDEFINED> instruction: 0x060e0516
    1dd0:	06050501 	streq	r0, [r5], -r1, lsl #10
    1dd4:	0632052f 	ldrteq	r0, [r2], -pc, lsr #10
    1dd8:	200e0501 	andcs	r0, lr, r1, lsl #10
    1ddc:	2f060505 	svccs	0x00060505
    1de0:	01060805 	tsteq	r6, r5, lsl #16
    1de4:	02002605 	andeq	r2, r0, #5242880	; 0x500000
    1de8:	053c0104 	ldreq	r0, [ip, #-260]!	; 0xfffffefc
    1dec:	053f0605 	ldreq	r0, [pc, #-1541]!	; 17ef <__HEAP_SIZE+0x7ef>
    1df0:	05010608 	streq	r0, [r1, #-1544]	; 0xfffff9f8
    1df4:	04020026 	streq	r0, [r2], #-38	; 0xffffffda
    1df8:	0c053c01 	stceq	12, cr3, [r5], {1}
    1dfc:	1005203f 	andne	r2, r5, pc, lsr r0
    1e00:	2020201b 	eorcs	r2, r0, fp, lsl r0
    1e04:	05202023 	streq	r2, [r0, #-35]!	; 0xffffffdd
    1e08:	01022301 	tsteq	r2, r1, lsl #6
    1e0c:	05010100 	streq	r0, [r1, #-256]	; 0xffffff00
    1e10:	0205001c 	andeq	r0, r5, #28
    1e14:	10001bbc 			; <UNDEFINED> instruction: 0x10001bbc
    1e18:	0100e803 	tsteq	r0, r3, lsl #16
    1e1c:	05210505 	streq	r0, [r1, #-1285]!	; 0xfffffafb
    1e20:	0501061a 	streq	r0, [r1, #-1562]	; 0xfffff9e6
    1e24:	05052018 	streq	r2, [r5, #-24]	; 0xffffffe8
    1e28:	1a052f06 	bne	14da48 <__RAM_SIZE+0x4da48>
    1e2c:	18050106 	stmdane	r5, {r1, r2, r8}
    1e30:	06050520 	streq	r0, [r5], -r0, lsr #10
    1e34:	05684c2f 	strbeq	r4, [r8, #-3119]!	; 0xfffff3d1
    1e38:	024c0601 	subeq	r0, ip, #1048576	; 0x100000
    1e3c:	01010013 	tsteq	r1, r3, lsl r0
    1e40:	05007305 	streq	r7, [r0, #-773]	; 0xfffffcfb
    1e44:	001c0c02 	andseq	r0, ip, r2, lsl #24
    1e48:	01c80310 	biceq	r0, r8, r0, lsl r3
    1e4c:	05010601 	streq	r0, [r1, #-1537]	; 0xfffff9ff
    1e50:	132f0605 			; <UNDEFINED> instruction: 0x132f0605
    1e54:	06080513 			; <UNDEFINED> instruction: 0x06080513
    1e58:	001a0501 	andseq	r0, sl, r1, lsl #10
    1e5c:	58010402 	stmdapl	r1, {r1, sl}
    1e60:	23060505 	movwcs	r0, #25861	; 0x6505
    1e64:	01040200 	mrseq	r0, R12_usr
    1e68:	09052006 	stmdbeq	r5, {r1, r2, sp}
    1e6c:	00050529 	andeq	r0, r5, r9, lsr #10
    1e70:	06020402 	streq	r0, [r2], -r2, lsl #8
    1e74:	04020036 	streq	r0, [r2], #-54	; 0xffffffca
    1e78:	02002001 	andeq	r2, r0, #1
    1e7c:	20060304 	andcs	r0, r6, r4, lsl #6
    1e80:	30060905 	andcc	r0, r6, r5, lsl #18
    1e84:	01060c05 	tsteq	r6, r5, lsl #24
    1e88:	22060905 	andcs	r0, r6, #81920	; 0x14000
    1e8c:	01061305 	tsteq	r6, r5, lsl #6
    1e90:	05200c05 	streq	r0, [r0, #-3077]!	; 0xfffff3fb
    1e94:	0402002f 	streq	r0, [r2], #-47	; 0xffffffd1
    1e98:	26052e01 	strcs	r2, [r5], -r1, lsl #28
    1e9c:	01040200 	mrseq	r0, R12_usr
    1ea0:	06090520 	streq	r0, [r9], -r0, lsr #10
    1ea4:	060c0532 			; <UNDEFINED> instruction: 0x060c0532
    1ea8:	06090501 	streq	r0, [r9], -r1, lsl #10
    1eac:	0c051440 	cfstrseq	mvf1, [r5], {64}	; 0x40
    1eb0:	09050106 	stmdbeq	r5, {r1, r2, r8}
    1eb4:	0c053006 	stceq	0, cr3, [r5], {6}
    1eb8:	09050106 	stmdbeq	r5, {r1, r2, r8}
    1ebc:	0e052406 	cdpeq	4, 0, cr2, cr5, cr6, {0}
    1ec0:	09050106 	stmdbeq	r5, {r1, r2, r8}
    1ec4:	0e053e06 	cdpeq	14, 0, cr3, cr5, cr6, {0}
    1ec8:	0c050106 	stfeqs	f0, [r5], {6}
    1ecc:	0609052e 	streq	r0, [r9], -lr, lsr #10
    1ed0:	06170532 			; <UNDEFINED> instruction: 0x06170532
    1ed4:	06090501 	streq	r0, [r9], -r1, lsl #10
    1ed8:	060f052f 	streq	r0, [pc], -pc, lsr #10
    1edc:	06090501 	streq	r0, [r9], -r1, lsl #10
    1ee0:	060c0521 	streq	r0, [ip], -r1, lsr #10
    1ee4:	33010501 	movwcc	r0, #5377	; 0x1501
    1ee8:	5a031005 	bpl	c5f04 <__HEAP_SIZE+0xc4f04>
    1eec:	583f3c3c 	ldmdapl	pc!, {r2, r3, r4, r5, sl, fp, ip, sp}	; <UNPREDICTABLE>
    1ef0:	01000602 	tsteq	r0, r2, lsl #12
    1ef4:	00430501 	subeq	r0, r3, r1, lsl #10
    1ef8:	1c880205 	sfmne	f0, 4, [r8], {5}
    1efc:	8d031000 	stchi	0, cr1, [r3, #-0]
    1f00:	01060101 	tsteq	r6, r1, lsl #2
    1f04:	3d060505 	cfstr32cc	mvfx0, [r6, #-20]	; 0xffffffec
    1f08:	14131313 	ldrne	r1, [r3], #-787	; 0xfffffced
    1f0c:	01061805 	tsteq	r6, r5, lsl #16
    1f10:	05201605 	streq	r1, [r0, #-1541]!	; 0xfffff9fb
    1f14:	052f0605 	streq	r0, [pc, #-1541]!	; 1917 <__HEAP_SIZE+0x917>
    1f18:	05010618 	streq	r0, [r1, #-1560]	; 0xfffff9e8
    1f1c:	05052016 	streq	r2, [r5, #-22]	; 0xffffffea
    1f20:	18052106 	stmdane	r5, {r1, r2, r8, sp}
    1f24:	16050106 	strne	r0, [r5], -r6, lsl #2
    1f28:	06050520 	streq	r0, [r5], -r0, lsr #10
    1f2c:	06180521 	ldreq	r0, [r8], -r1, lsr #10
    1f30:	20160501 	andscs	r0, r6, r1, lsl #10
    1f34:	21060505 	tstcs	r6, r5, lsl #10
    1f38:	01061805 	tsteq	r6, r5, lsl #16
    1f3c:	05201605 	streq	r1, [r0, #-1541]!	; 0xfffff9fb
    1f40:	05210605 	streq	r0, [r1, #-1541]!	; 0xfffff9fb
    1f44:	05010618 	streq	r0, [r1, #-1560]	; 0xfffff9e8
    1f48:	05052016 	streq	r2, [r5, #-22]	; 0xffffffea
    1f4c:	18052106 	stmdane	r5, {r1, r2, r8, sp}
    1f50:	16050106 	strne	r0, [r5], -r6, lsl #2
    1f54:	06050520 	streq	r0, [r5], -r0, lsr #10
    1f58:	06180521 	ldreq	r0, [r8], -r1, lsr #10
    1f5c:	20160501 	andscs	r0, r6, r1, lsl #10
    1f60:	21060505 	tstcs	r6, r5, lsl #10
    1f64:	01061805 	tsteq	r6, r5, lsl #16
    1f68:	05201605 	streq	r1, [r0, #-1541]!	; 0xfffff9fb
    1f6c:	05210605 	streq	r0, [r1, #-1541]!	; 0xfffff9fb
    1f70:	05010618 	streq	r0, [r1, #-1560]	; 0xfffff9e8
    1f74:	05052016 	streq	r2, [r5, #-22]	; 0xffffffea
    1f78:	18052106 	stmdane	r5, {r1, r2, r8, sp}
    1f7c:	16050106 	strne	r0, [r5], -r6, lsl #2
    1f80:	06050520 	streq	r0, [r5], -r0, lsr #10
    1f84:	06180521 	ldreq	r0, [r8], -r1, lsr #10
    1f88:	20160501 	andscs	r0, r6, r1, lsl #10
    1f8c:	21060505 	tstcs	r6, r5, lsl #10
    1f90:	01061805 	tsteq	r6, r5, lsl #16
    1f94:	05201605 	streq	r1, [r0, #-1541]!	; 0xfffff9fb
    1f98:	05210605 	streq	r0, [r1, #-1541]!	; 0xfffff9fb
    1f9c:	05010618 	streq	r0, [r1, #-1560]	; 0xfffff9e8
    1fa0:	05052016 	streq	r2, [r5, #-22]	; 0xffffffea
    1fa4:	18052106 	stmdane	r5, {r1, r2, r8, sp}
    1fa8:	16050106 	strne	r0, [r5], -r6, lsl #2
    1fac:	06050520 	streq	r0, [r5], -r0, lsr #10
    1fb0:	06180521 	ldreq	r0, [r8], -r1, lsr #10
    1fb4:	20160501 	andscs	r0, r6, r1, lsl #10
    1fb8:	22060505 	andcs	r0, r6, #20971520	; 0x1400000
    1fbc:	2f062e06 	svccs	0x00062e06
    1fc0:	4b4b3d3d 	blmi	12d14bc <__RAM_SIZE+0x11d14bc>
    1fc4:	4b4b4b4b 	blmi	12d4cf8 <__RAM_SIZE+0x11d4cf8>
    1fc8:	4b4b4b4b 	blmi	12d4cfc <__RAM_SIZE+0x11d4cfc>
    1fcc:	4b4b4b4b 	blmi	12d4d00 <__RAM_SIZE+0x11d4d00>
    1fd0:	4c3d4b4b 			; <UNDEFINED> instruction: 0x4c3d4b4b
    1fd4:	060d0513 			; <UNDEFINED> instruction: 0x060d0513
    1fd8:	06050501 	streq	r0, [r5], -r1, lsl #10
    1fdc:	06200686 	strteq	r0, [r0], -r6, lsl #13
    1fe0:	10054b2f 	andne	r4, r5, pc, lsr #22
    1fe4:	05050106 	streq	r0, [r5, #-262]	; 0xfffffefa
    1fe8:	00090520 	andeq	r0, r9, r0, lsr #10
    1fec:	06030402 	streq	r0, [r3], -r2, lsl #8
    1ff0:	00240521 	eoreq	r0, r4, r1, lsr #10
    1ff4:	65030402 	strvs	r0, [r3, #-1026]	; 0xfffffbfe
    1ff8:	02002905 	andeq	r2, r0, #81920	; 0x14000
    1ffc:	01060304 	tsteq	r6, r4, lsl #6
    2000:	02001505 	andeq	r1, r0, #20971520	; 0x1400000
    2004:	20060104 	andcs	r0, r6, r4, lsl #2
    2008:	02000505 	andeq	r0, r0, #20971520	; 0x1400000
    200c:	01060104 	tsteq	r6, r4, lsl #2
    2010:	02003106 	andeq	r3, r0, #-2147483647	; 0x80000001
    2014:	053d0104 	ldreq	r0, [sp, #-260]!	; 0xfffffefc
    2018:	0402000e 	streq	r0, [r2], #-14
    201c:	0b050101 	bleq	142428 <__RAM_SIZE+0x42428>
    2020:	01040200 	mrseq	r0, R12_usr
    2024:	00340201 	eorseq	r0, r4, r1, lsl #4
    2028:	2e050101 	adfcss	f0, f5, f1
    202c:	14020500 	strne	r0, [r2], #-1280	; 0xfffffb00
    2030:	0310001e 	tsteq	r0, #30
    2034:	050101f4 	streq	r0, [r1, #-500]	; 0xfffffe0c
    2038:	02041305 	andeq	r1, r4, #335544320	; 0x14000000
    203c:	ed031f05 	stc	15, cr1, [r3, #-20]	; 0xffffffec
    2040:	03050106 	movweq	r0, #20742	; 0x5106
    2044:	062f1414 			; <UNDEFINED> instruction: 0x062f1414
    2048:	05010401 	streq	r0, [r1, #-1025]	; 0xfffffbff
    204c:	798f0301 	stmibvc	pc, {r0, r8, r9}	; <UNPREDICTABLE>
    2050:	00010201 	andeq	r0, r1, r1, lsl #4
    2054:	2e050101 	adfcss	f0, f5, f1
    2058:	1c020500 	cfstr32ne	mvfx0, [r2], {-0}
    205c:	0310001e 	tsteq	r0, #30
    2060:	050101f8 	streq	r0, [r1, #-504]	; 0xfffffe08
    2064:	01051305 	tsteq	r5, r5, lsl #6
    2068:	04021306 	streq	r1, [r2], #-774	; 0xfffffcfa
    206c:	74010100 	strvc	r0, [r1], #-256	; 0xffffff00
    2070:	03000000 	movweq	r0, #0
    2074:	00002800 	andeq	r2, r0, r0, lsl #16
    2078:	fb010200 	blx	42882 <__HEAP_SIZE+0x41882>
    207c:	01000d0e 	tsteq	r0, lr, lsl #26
    2080:	00010101 	andeq	r0, r1, r1, lsl #2
    2084:	00010000 	andeq	r0, r1, r0
    2088:	73000100 	movwvc	r0, #256	; 0x100
    208c:	74726174 	ldrbtvc	r6, [r2], #-372	; 0xfffffe8c
    2090:	415f7075 	cmpmi	pc, r5, ror r0	; <UNPREDICTABLE>
    2094:	4d434d52 	stclmi	13, cr4, [r3, #-328]	; 0xfffffeb8
    2098:	732e3333 			; <UNDEFINED> instruction: 0x732e3333
    209c:	00000000 	andeq	r0, r0, r0
    20a0:	02050000 	andeq	r0, r5, #0
    20a4:	10001e24 	andne	r1, r0, r4, lsr #28
    20a8:	0100d303 	tsteq	r0, r3, lsl #6
    20ac:	2f213021 	svccs	0x00213021
    20b0:	23213036 			; <UNDEFINED> instruction: 0x23213036
    20b4:	21212121 			; <UNDEFINED> instruction: 0x21212121
    20b8:	21212321 			; <UNDEFINED> instruction: 0x21212321
    20bc:	21222121 			; <UNDEFINED> instruction: 0x21222121
    20c0:	21232123 			; <UNDEFINED> instruction: 0x21232123
    20c4:	21212121 			; <UNDEFINED> instruction: 0x21212121
    20c8:	21212123 			; <UNDEFINED> instruction: 0x21212123
    20cc:	03232122 			; <UNDEFINED> instruction: 0x03232122
    20d0:	09032e0e 	stmdbeq	r3, {r1, r2, r3, r9, sl, fp, sp}
    20d4:	7faf0320 	svcvc	0x00af0320
    20d8:	0c03312e 	stfeqs	f3, [r3], {46}	; 0x2e
    20dc:	15032f2e 	strne	r2, [r3, #-3886]	; 0xfffff0d2
    20e0:	02022f2e 	andeq	r2, r2, #46, 30	; 0xb8
    20e4:	7d010100 	stfvcs	f0, [r1, #-0]
    20e8:	03000000 	movweq	r0, #0
    20ec:	00004e00 	andeq	r4, r0, r0, lsl #28
    20f0:	fb010200 	blx	428fa <__HEAP_SIZE+0x418fa>
    20f4:	01000d0e 	tsteq	r0, lr, lsl #26
    20f8:	00010101 	andeq	r0, r1, r1, lsl #2
    20fc:	00010000 	andeq	r0, r1, r0
    2100:	2e2e0100 	sufcse	f0, f6, f0
    2104:	2f2e2e2f 	svccs	0x002e2e2f
    2108:	6c2f2e2e 	stcvs	14, cr2, [pc], #-184	; 2058 <__HEAP_SIZE+0x1058>
    210c:	74756269 	ldrbtvc	r6, [r5], #-617	; 0xfffffd97
    2110:	2f736c69 	svccs	0x00736c69
    2114:	6c756166 	ldfvse	f6, [r5], #-408	; 0xfffffe68
    2118:	75642d74 	strbvc	r2, [r4, #-3444]!	; 0xfffff28c
    211c:	632f706d 			; <UNDEFINED> instruction: 0x632f706d
    2120:	632f7570 			; <UNDEFINED> instruction: 0x632f7570
    2124:	6574726f 	ldrbvs	r7, [r4, #-623]!	; 0xfffffd91
    2128:	336d2d78 	cmncc	sp, #120, 26	; 0x1e00
    212c:	66000033 			; <UNDEFINED> instruction: 0x66000033
    2130:	746c7561 	strbtvc	r7, [ip], #-1377	; 0xfffffa9f
    2134:	6363672d 	cmnvs	r3, #11796480	; 0xb40000
    2138:	0100732e 	tsteq	r0, lr, lsr #6
    213c:	00000000 	andeq	r0, r0, r0
    2140:	1e940205 	cdpne	2, 9, cr0, cr4, cr5, {0}
    2144:	19031000 	stmdbne	r3, {ip}
    2148:	21212101 			; <UNDEFINED> instruction: 0x21212101
    214c:	2f212f22 	svccs	0x00212f22
    2150:	21212130 			; <UNDEFINED> instruction: 0x21212130
    2154:	212f3022 			; <UNDEFINED> instruction: 0x212f3022
    2158:	2121302f 			; <UNDEFINED> instruction: 0x2121302f
    215c:	302e6803 	eorcc	r6, lr, r3, lsl #16
    2160:	022e1503 	eoreq	r1, lr, #12582912	; 0xc00000
    2164:	01010002 	tsteq	r1, r2

Disassembly of section .debug_str:

00000000 <.debug_str>:
   0:	53434344 	movtpl	r4, #13124	; 0x3344
   4:	5f5f0057 	svcpl	0x005f0057
   8:	6c697562 	cfstr64vs	mvdx7, [r9], #-392	; 0xfffffe78
   c:	5f6e6974 	svcpl	0x006e6974
  10:	73747570 	cmnvc	r4, #112, 10	; 0x1c000000
  14:	64646100 	strbtvs	r6, [r4], #-256	; 0xffffff00
  18:	3a430072 	bcc	10c01e8 <__RAM_SIZE+0xfc01e8>
  1c:	6573555c 	ldrbvs	r5, [r3, #-1372]!	; 0xfffffaa4
  20:	785c7372 	ldmdavc	ip, {r1, r4, r5, r6, r8, r9, ip, sp, lr}^
  24:	6e6f6469 	cdpvs	4, 6, cr6, cr15, cr9, {3}
  28:	646f635c 	strbtvs	r6, [pc], #-860	; 30 <__STACKSEAL_SIZE+0x30>
  2c:	69675c65 	stmdbvs	r7!, {r0, r2, r5, r6, sl, fp, ip, lr}^
  30:	62756874 	rsbsvs	r6, r5, #116, 16	; 0x740000
  34:	6d65715c 	stfvse	f7, [r5, #-368]!	; 0xfffffe90
  38:	69732d75 	ldmdbvs	r3!, {r0, r2, r4, r5, r6, r8, sl, fp, sp}^
  3c:	616c756d 	cmnvs	ip, sp, ror #10
  40:	5c726f74 	ldclpl	15, cr6, [r2], #-464	; 0xfffffe30
  44:	72616f62 	rsbvc	r6, r1, #392	; 0x188
  48:	6d5c7364 	ldclvs	3, cr7, [ip, #-400]	; 0xfffffe70
  4c:	2d327370 	ldccs	3, cr7, [r2, #-448]!	; 0xfffffe40
  50:	30356e61 	eorscc	r6, r5, r1, ror #28
  54:	43475c35 	movtmi	r5, #31797	; 0x7c35
  58:	65532d43 	ldrbvs	r2, [r3, #-3395]	; 0xfffff2bd
  5c:	65727563 	ldrbvs	r7, [r2, #-1379]!	; 0xfffffa9d
  60:	464d4d00 	strbmi	r4, [sp], -r0, lsl #26
  64:	4d005241 	sfmmi	f5, 4, [r0, #-260]	; 0xfffffefc
  68:	30524656 	subscc	r4, r2, r6, asr r6
  6c:	6f687300 	svcvs	0x00687300
  70:	69207472 	stmdbvs	r0!, {r1, r4, r5, r6, sl, ip, sp, lr}
  74:	4d00746e 	cfstrsmi	mvf7, [r0, #-440]	; 0xfffffe48
  78:	31524656 	cmpcc	r2, r6, asr r6
  7c:	5f444900 	svcpl	0x00444900
  80:	00524650 	subseq	r4, r2, r0, asr r6
  84:	74726175 	ldrbtvc	r6, [r2], #-373	; 0xfffffe8b
  88:	696e695f 	stmdbvs	lr!, {r0, r1, r2, r3, r4, r6, r8, fp, sp, lr}^
  8c:	616d0074 	smcvs	53252	; 0xd004
  90:	6c006e69 	stcvs	14, cr6, [r0], {105}	; 0x69
  94:	20676e6f 	rsbcs	r6, r7, pc, ror #28
  98:	62756f64 	rsbsvs	r6, r5, #100, 30	; 0x190
  9c:	5f00656c 	svcpl	0x0000656c
  a0:	6e69755f 	mcrvs	5, 3, r7, cr9, cr15, {2}
  a4:	5f323374 	svcpl	0x00323374
  a8:	43440074 	movtmi	r0, #16500	; 0x4074
  ac:	564d4943 	strbpl	r4, [sp], -r3, asr #18
  b0:	49004341 	stmdbmi	r0, {r0, r6, r8, r9, lr}
  b4:	4d4d5f44 	stclmi	15, cr5, [sp, #-272]	; 0xfffffef0
  b8:	43005246 	movwmi	r5, #582	; 0x246
  bc:	44495550 	strbmi	r5, [r9], #-1360	; 0xfffffab0
  c0:	6c617600 	stclvs	6, cr7, [r1], #-0
  c4:	5f006575 	svcpl	0x00006575
  c8:	6975625f 	ldmdbvs	r5!, {r0, r1, r2, r3, r4, r6, r9, sp, lr}^
  cc:	6e69746c 	cdpvs	4, 6, cr7, cr9, cr12, {3}
  d0:	6d656d5f 	stclvs	13, cr6, [r5, #-380]!	; 0xfffffe84
  d4:	00746573 	rsbseq	r6, r4, r3, ror r5
  d8:	45534552 	ldrbmi	r4, [r3, #-1362]	; 0xfffffaae
  dc:	44455652 	strbmi	r5, [r5], #-1618	; 0xfffff9ae
  e0:	61660034 	cmnvs	r6, r4, lsr r0
  e4:	5f746c75 	svcpl	0x00746c75
  e8:	706d7564 	rsbvc	r7, sp, r4, ror #10
  ec:	5f6d625f 	svcpl	0x006d625f
  f0:	63617473 	cmnvs	r1, #1929379840	; 0x73000000
  f4:	74735f6b 	ldrbtvc	r5, [r3], #-3947	; 0xfffff095
  f8:	00747261 	rsbseq	r7, r4, r1, ror #4
  fc:	45534552 	ldrbmi	r4, [r3, #-1362]	; 0xfffffaae
 100:	44455652 	strbmi	r5, [r5], #-1618	; 0xfffff9ae
 104:	65740036 	ldrbvs	r0, [r4, #-54]!	; 0xffffffca
 108:	00317473 	eorseq	r7, r1, r3, ror r4
 10c:	74736574 	ldrbtvc	r6, [r3], #-1396	; 0xfffffa8c
 110:	65740032 	ldrbvs	r0, [r4, #-50]!	; 0xffffffce
 114:	00337473 	eorseq	r7, r3, r3, ror r4
 118:	52495453 	subpl	r5, r9, #1392508928	; 0x53000000
 11c:	5f444900 	svcpl	0x00444900
 120:	00524641 	subseq	r4, r2, r1, asr #12
 124:	6c756166 	ldfvse	f6, [r5], #-408	; 0xfffffe68
 128:	75645f74 	strbvc	r5, [r4, #-3956]!	; 0xfffff08c
 12c:	625f706d 	subsvs	r7, pc, #109	; 0x6d
 130:	74735f6d 	ldrbtvc	r5, [r3], #-3949	; 0xfffff093
 134:	5f6b6361 	svcpl	0x006b6361
 138:	6e696f70 	mcrvs	15, 3, r6, cr9, cr0, {3}
 13c:	43440074 	movtmi	r0, #16500	; 0x4074
 140:	00575349 	subseq	r5, r7, r9, asr #6
 144:	64726148 	ldrbtvs	r6, [r2], #-328	; 0xfffffeb8
 148:	6c756146 	ldfvse	f6, [r5], #-280	; 0xfffffee8
 14c:	61485f74 	hvcvs	34292	; 0x85f4
 150:	656c646e 	strbvs	r6, [ip, #-1134]!	; 0xfffffb92
 154:	654c5f72 	strbvs	r5, [ip, #-3954]	; 0xfffff08e
 158:	636e6567 	cmnvs	lr, #432013312	; 0x19c00000
 15c:	564d0079 			; <UNDEFINED> instruction: 0x564d0079
 160:	00325246 	eorseq	r5, r2, r6, asr #4
 164:	676e6f6c 	strbvs	r6, [lr, -ip, ror #30]!
 168:	6e6f6c20 	cdpvs	12, 6, cr6, cr15, cr0, {1}
 16c:	6e692067 	cdpvs	0, 6, cr2, cr9, cr7, {3}
 170:	46420074 			; <UNDEFINED> instruction: 0x46420074
 174:	43005241 	movwmi	r5, #577	; 0x241
 178:	44495343 	strbmi	r5, [r9], #-835	; 0xfffffcbd
 17c:	5f5f0052 	svcpl	0x005f0052
 180:	746e6975 	strbtvc	r6, [lr], #-2421	; 0xfffff68b
 184:	00745f38 	rsbseq	r5, r4, r8, lsr pc
 188:	20554e47 	subscs	r4, r5, r7, asr #28
 18c:	20373143 	eorscs	r3, r7, r3, asr #2
 190:	332e3031 			; <UNDEFINED> instruction: 0x332e3031
 194:	3220312e 	eorcc	r3, r0, #-2147483637	; 0x8000000b
 198:	30313230 	eorscc	r3, r1, r0, lsr r2
 19c:	20343238 	eorscs	r3, r4, r8, lsr r2
 1a0:	6c657228 	sfmvs	f7, 2, [r5], #-160	; 0xffffff60
 1a4:	65736165 	ldrbvs	r6, [r3, #-357]!	; 0xfffffe9b
 1a8:	6d2d2029 	stcvs	0, cr2, [sp, #-164]!	; 0xffffff5c
 1ac:	3d757063 	ldclcc	0, cr7, [r5, #-396]!	; 0xfffffe74
 1b0:	74726f63 	ldrbtvc	r6, [r2], #-3939	; 0xfffff09d
 1b4:	6d2d7865 	stcvs	8, cr7, [sp, #-404]!	; 0xfffffe6c
 1b8:	2d203333 	stccs	3, cr3, [r0, #-204]!	; 0xffffff34
 1bc:	7570666d 	ldrbvc	r6, [r0, #-1645]!	; 0xfffff993
 1c0:	7670663d 			; <UNDEFINED> instruction: 0x7670663d
 1c4:	70732d35 	rsbsvc	r2, r3, r5, lsr sp
 1c8:	3631642d 	ldrtcc	r6, [r1], -sp, lsr #8
 1cc:	666d2d20 	strbtvs	r2, [sp], -r0, lsr #26
 1d0:	74616f6c 	strbtvc	r6, [r1], #-3948	; 0xfffff094
 1d4:	6962612d 	stmdbvs	r2!, {r0, r2, r3, r5, r8, sp, lr}^
 1d8:	7261683d 	rsbvc	r6, r1, #3997696	; 0x3d0000
 1dc:	6d2d2064 	stcvs	0, cr2, [sp, #-400]!	; 0xfffffe70
 1e0:	6d756874 	ldclvs	8, cr6, [r5, #-464]!	; 0xfffffe30
 1e4:	6d2d2062 	stcvs	0, cr2, [sp, #-392]!	; 0xfffffe78
 1e8:	68637261 	stmdavs	r3!, {r0, r5, r6, r9, ip, sp, lr}^
 1ec:	6d72613d 	ldfvse	f6, [r2, #-244]!	; 0xffffff0c
 1f0:	6d2d3876 	stcvs	8, cr3, [sp, #-472]!	; 0xfffffe28
 1f4:	69616d2e 	stmdbvs	r1!, {r1, r2, r3, r5, r8, sl, fp, sp, lr}^
 1f8:	73642b6e 	cmnvc	r4, #112640	; 0x1b800
 1fc:	70662b70 	rsbvc	r2, r6, r0, ror fp
 200:	20672d20 	rsbcs	r2, r7, r0, lsr #26
 204:	7764672d 	strbvc	r6, [r4, -sp, lsr #14]!
 208:	2d667261 	sfmcs	f7, 2, [r6, #-388]!	; 0xfffffe7c
 20c:	4f2d2032 	svcmi	0x002d2032
 210:	662d2067 	strtvs	r2, [sp], -r7, rrx
 214:	61746164 	cmnvs	r4, r4, ror #2
 218:	6365732d 	cmnvs	r5, #-1275068416	; 0xb4000000
 21c:	6e6f6974 			; <UNDEFINED> instruction: 0x6e6f6974
 220:	662d2073 			; <UNDEFINED> instruction: 0x662d2073
 224:	636e7566 	cmnvs	lr, #427819008	; 0x19800000
 228:	6e6f6974 			; <UNDEFINED> instruction: 0x6e6f6974
 22c:	6365732d 	cmnvs	r5, #-1275068416	; 0xb4000000
 230:	6e6f6974 			; <UNDEFINED> instruction: 0x6e6f6974
 234:	662d2073 			; <UNDEFINED> instruction: 0x662d2073
 238:	652d6f6e 	strvs	r6, [sp, #-3950]!	; 0xfffff092
 23c:	70656378 	rsbvc	r6, r5, r8, ror r3
 240:	6e6f6974 			; <UNDEFINED> instruction: 0x6e6f6974
 244:	61660073 	smcvs	24579	; 0x6003
 248:	5f746c75 	svcpl	0x00746c75
 24c:	706d7564 	rsbvc	r7, sp, r4, ror #10
 250:	6c61635f 	stclvs	3, cr6, [r1], #-380	; 0xfffffe84
 254:	6174736c 	cmnvs	r4, ip, ror #6
 258:	43006b63 	movwmi	r6, #2915	; 0xb63
 25c:	00525346 	subseq	r5, r2, r6, asr #6
 260:	41494349 	cmpmi	r9, r9, asr #6
 264:	00554c4c 	subseq	r4, r5, ip, asr #24
 268:	4d494344 	stclmi	3, cr4, [r9, #-272]	; 0xfffffef0
 26c:	00434156 	subeq	r4, r3, r6, asr r1
 270:	69736e75 	ldmdbvs	r3!, {r0, r2, r4, r5, r6, r9, sl, fp, sp, lr}^
 274:	64656e67 	strbtvs	r6, [r5], #-3687	; 0xfffff199
 278:	61686320 	cmnvs	r8, r0, lsr #6
 27c:	43490072 	movtmi	r0, #36978	; 0x9072
 280:	41564d49 	cmpmi	r6, r9, asr #26
 284:	44490055 	strbmi	r0, [r9], #-85	; 0xffffffab
 288:	4153495f 	cmpmi	r3, pc, asr r9
 28c:	61660052 	qdsubvs	r0, r2, r6
 290:	5f746c75 	svcpl	0x00746c75
 294:	706d7564 	rsbvc	r7, sp, r4, ror #10
 298:	696e695f 	stmdbvs	lr!, {r0, r1, r2, r3, r4, r6, r8, fp, sp, lr}^
 29c:	43530074 	cmpmi	r3, #116	; 0x74
 2a0:	79545f42 	ldmdbvc	r4, {r1, r6, r8, r9, sl, fp, ip, lr}^
 2a4:	53006570 	movwpl	r6, #1392	; 0x570
 2a8:	00525048 	subseq	r5, r2, r8, asr #32
 2ac:	676e6f6c 	strbvs	r6, [lr, -ip, ror #30]!
 2b0:	6e6f6c20 	cdpvs	12, 6, cr6, cr15, cr0, {1}
 2b4:	6e752067 	cdpvs	0, 7, cr2, cr5, cr7, {3}
 2b8:	6e676973 			; <UNDEFINED> instruction: 0x6e676973
 2bc:	69206465 	stmdbvs	r0!, {r0, r2, r5, r6, sl, sp, lr}
 2c0:	6600746e 	strvs	r7, [r0], -lr, ror #8
 2c4:	746c7561 	strbtvc	r7, [ip], #-1377	; 0xfffffa9f
 2c8:	616e755f 	cmnvs	lr, pc, asr r5
 2cc:	6e67696c 	vnmulvs.f16	s13, s14, s25	; <UNPREDICTABLE>
 2d0:	6972745f 	ldmdbvs	r2!, {r0, r1, r2, r3, r4, r6, sl, ip, sp, lr}^
 2d4:	72656767 	rsbvc	r6, r5, #27000832	; 0x19c0000
 2d8:	53465300 	movtpl	r5, #25344	; 0x6300
 2dc:	48530052 	ldmdami	r3, {r1, r4, r6}^
 2e0:	00525343 	subseq	r5, r2, r3, asr #6
 2e4:	4d434344 	stclmi	3, cr4, [r3, #-272]	; 0xfffffef0
 2e8:	00434156 	subeq	r4, r3, r6, asr r1
 2ec:	4341534e 	movtmi	r5, #4942	; 0x134e
 2f0:	5f5f0052 	svcpl	0x005f0052
 2f4:	636e7566 	cmnvs	lr, #427819008	; 0x19800000
 2f8:	43005f5f 	movwmi	r5, #3935	; 0xf5f
 2fc:	4c455353 	mcrrmi	3, 5, r5, r5, cr3
 300:	68730052 	ldmdavs	r3!, {r1, r4, r6}^
 304:	2074726f 	rsbscs	r7, r4, pc, ror #4
 308:	69736e75 	ldmdbvs	r3!, {r0, r2, r4, r5, r6, r9, sl, fp, sp, lr}^
 30c:	64656e67 	strbtvs	r6, [r5], #-3687	; 0xfffff199
 310:	746e6920 	strbtvc	r6, [lr], #-2336	; 0xfffff6e0
 314:	43434400 	movtmi	r4, #13312	; 0x3400
 318:	5541564d 	strbpl	r5, [r1, #-1613]	; 0xfffff9b3
 31c:	66654400 	strbtvs	r4, [r5], -r0, lsl #8
 320:	746c7561 	strbtvc	r7, [ip], #-1377	; 0xfffffa9f
 324:	6e61485f 	mcrvs	8, 3, r4, cr1, cr15, {2}
 328:	72656c64 	rsbvc	r6, r5, #100, 24	; 0x6400
 32c:	4f545600 	svcmi	0x00545600
 330:	46440052 			; <UNDEFINED> instruction: 0x46440052
 334:	48005253 	stmdami	r0, {r0, r1, r4, r6, r9, ip, lr}
 338:	00525346 	subseq	r5, r2, r6, asr #6
 33c:	45534552 	ldrbmi	r4, [r3, #-1362]	; 0xfffffaae
 340:	44455652 	strbmi	r5, [r5], #-1618	; 0xfffff9ae
 344:	616d0033 	cmnvs	sp, r3, lsr r0
 348:	632e6e69 			; <UNDEFINED> instruction: 0x632e6e69
 34c:	53455200 	movtpl	r5, #20992	; 0x5200
 350:	45565245 	ldrbmi	r5, [r6, #-581]	; 0xfffffdbb
 354:	53003544 	movwpl	r3, #1348	; 0x544
 358:	00524146 	subseq	r4, r2, r6, asr #2
 35c:	6c756166 	ldfvse	f6, [r5], #-408	; 0xfffffe68
 360:	69645f74 	stmdbvs	r4!, {r2, r4, r5, r6, r8, r9, sl, fp, ip, lr}^
 364:	657a5f76 	ldrbvs	r5, [sl, #-3958]!	; 0xfffff08a
 368:	745f6f72 	ldrbvc	r6, [pc], #-3954	; 370 <__STACKSEAL_SIZE+0x370>
 36c:	67676972 			; <UNDEFINED> instruction: 0x67676972
 370:	44007265 	strmi	r7, [r0], #-613	; 0xfffffd9b
 374:	53494343 	movtpl	r4, #37699	; 0x9343
 378:	45520057 	ldrbmi	r0, [r2, #-87]	; 0xffffffa9
 37c:	56524553 			; <UNDEFINED> instruction: 0x56524553
 380:	00374445 	eorseq	r4, r7, r5, asr #8
 384:	44494c43 	strbmi	r4, [r9], #-3139	; 0xfffff3bd
 388:	6f630052 	svcvs	0x00630052
 38c:	00746e75 	rsbseq	r6, r4, r5, ror lr
 390:	65615f5f 	strbvs	r5, [r1, #-3935]!	; 0xfffff0a1
 394:	5f696261 	svcpl	0x00696261
 398:	69776e75 	ldmdbvs	r7!, {r0, r2, r4, r5, r6, r9, sl, fp, sp, lr}^
 39c:	635f646e 	cmpvs	pc, #1845493760	; 0x6e000000
 3a0:	705f7070 	subsvc	r7, pc, r0, ror r0	; <UNPREDICTABLE>
 3a4:	74003072 	strvc	r3, [r0], #-114	; 0xffffff8e
 3a8:	30747365 	rsbscc	r7, r4, r5, ror #6
 3ac:	73657400 	cmnvc	r5, #0, 8
 3b0:	74003474 	strvc	r3, [r0], #-1140	; 0xfffffb8c
 3b4:	35747365 	ldrbcc	r7, [r4, #-869]!	; 0xfffffc9b
 3b8:	53464100 	movtpl	r4, #24832	; 0x6100
 3bc:	50420052 	subpl	r0, r2, r2, asr r0
 3c0:	4c4c4149 	stfmie	f4, [ip], {73}	; 0x49
 3c4:	5f444900 	svcpl	0x00444900
 3c8:	00524644 	subseq	r4, r2, r4, asr #12
 3cc:	52534349 	subspl	r4, r3, #603979777	; 0x24000001
 3d0:	41504300 	cmpmi	r0, r0, lsl #6
 3d4:	41005243 	tstmi	r0, r3, asr #4
 3d8:	52435249 	subpl	r5, r3, #-1879048188	; 0x90000004
 3dc:	73795300 	cmnvc	r9, #0, 6
 3e0:	436d6574 	cmnmi	sp, #116, 10	; 0x1d000000
 3e4:	4365726f 	cmnmi	r5, #-268435450	; 0xf0000006
 3e8:	6b636f6c 	blvs	18dc1a0 <__RAM_SIZE+0x17dc1a0>
 3ec:	61647055 	qdsubvs	r7, r5, r4
 3f0:	53006574 	movwpl	r6, #1396	; 0x574
 3f4:	65747379 	ldrbvs	r7, [r4, #-889]!	; 0xfffffc87
 3f8:	726f436d 	rsbvc	r4, pc, #-1275068415	; 0xb4000001
 3fc:	6f6c4365 	svcvs	0x006c4365
 400:	5f006b63 	svcpl	0x00006b63
 404:	6365565f 	cmnvs	r5, #99614720	; 0x5f00000
 408:	73726f74 	cmnvc	r2, #116, 30	; 0x1d0
 40c:	73795300 	cmnvc	r9, #0, 6
 410:	496d6574 	stmdbmi	sp!, {r2, r4, r5, r6, r8, sl, sp, lr}^
 414:	0074696e 	rsbseq	r6, r4, lr, ror #18
 418:	74737973 	ldrbtvc	r7, [r3], #-2419	; 0xfffff68d
 41c:	415f6d65 	cmpmi	pc, r5, ror #26
 420:	4d434d52 	stclmi	13, cr4, [r3, #-328]	; 0xfffffeb8
 424:	632e3333 			; <UNDEFINED> instruction: 0x632e3333
 428:	43455600 	movtmi	r5, #22016	; 0x5600
 42c:	5f524f54 	svcpl	0x00524f54
 430:	4c424154 	stfmie	f4, [r2], {84}	; 0x54
 434:	79545f45 	ldmdbvc	r4, {r0, r2, r6, r8, r9, sl, fp, ip, lr}^
 438:	70006570 	andvc	r6, r0, r0, ror r5
 43c:	68637475 	stmdavs	r3!, {r0, r2, r4, r5, r6, sl, ip, sp, lr}^
 440:	5f007261 	svcpl	0x00007261
 444:	6165615f 	cmnvs	r5, pc, asr r1
 448:	695f6962 	ldmdbvs	pc, {r1, r5, r6, r8, fp, sp, lr}^	; <UNPREDICTABLE>
 44c:	70006432 	andvc	r6, r0, r2, lsr r4
 450:	3031776f 	eorscc	r7, r1, pc, ror #14
 454:	70786500 	rsbsvc	r6, r8, r0, lsl #10
 458:	756f0032 	strbvc	r0, [pc, #-50]!	; 42e <__STACKSEAL_SIZE+0x42e>
 45c:	63665f74 	cmnvs	r6, #116, 30	; 0x1d0
 460:	72775f74 	rsbsvc	r5, r7, #116, 30	; 0x1d0
 464:	65007061 	strvs	r7, [r0, #-97]	; 0xffffff9f
 468:	61767078 	cmnvs	r6, r8, ror r0
 46c:	7076006c 	rsbsvc	r0, r6, ip, rrx
 470:	746e6972 	strbtvc	r6, [lr], #-2418	; 0xfffff68e
 474:	69730066 	ldmdbvs	r3!, {r1, r2, r5, r6}^
 478:	745f657a 	ldrbvc	r6, [pc], #-1402	; 480 <__STACKSEAL_SIZE+0x480>
 47c:	6e696d00 	cdpvs	13, 6, cr6, cr9, cr0, {0}
 480:	74646977 	strbtvc	r6, [r4], #-2423	; 0xfffff689
 484:	5f5f0068 	svcpl	0x005f0068
 488:	62616561 	rsbvs	r6, r1, #406847488	; 0x18400000
 48c:	64645f69 	strbtvs	r5, [r4], #-3945	; 0xfffff097
 490:	5f007669 	svcpl	0x00007669
 494:	616f7465 	cmnvs	pc, r5, ror #8
 498:	756f5f00 	strbvc	r5, [pc, #-3840]!	; fffff5a0 <__StackTop+0xc7eff5a0>
 49c:	68635f74 	stmdavs	r3!, {r2, r4, r5, r6, r8, r9, sl, fp, ip, lr}^
 4a0:	6d007261 	sfmvs	f7, 4, [r0, #-388]	; 0xfffffe7c
 4a4:	69737861 	ldmdbvs	r3!, {r0, r5, r6, fp, ip, sp, lr}^
 4a8:	7700657a 	smlsdxvc	r0, sl, r5, r6
 4ac:	656c6f68 	strbvs	r6, [ip, #-3944]!	; 0xfffff098
 4b0:	615f5f00 	cmpvs	pc, r0, lsl #30
 4b4:	69626165 	stmdbvs	r2!, {r0, r2, r5, r6, r8, sp, lr}^
 4b8:	6932645f 	ldmdbvs	r2!, {r0, r1, r2, r3, r4, r6, sl, sp, lr}
 4bc:	6f5f007a 	svcvs	0x005f007a
 4c0:	625f7475 	subsvs	r7, pc, #1962934272	; 0x75000000
 4c4:	65666675 	strbvs	r6, [r6, #-1653]!	; 0xfffff98b
 4c8:	72660072 	rsbvc	r0, r6, #114	; 0x72
 4cc:	5f006361 	svcpl	0x00006361
 4d0:	5f74756f 	svcpl	0x0074756f
 4d4:	00746366 	rsbseq	r6, r4, r6, ror #6
 4d8:	65615f5f 	strbvs	r5, [r1, #-3935]!	; 0xfffff0a1
 4dc:	5f696261 	svcpl	0x00696261
 4e0:	69753264 	ldmdbvs	r5!, {r2, r5, r6, r9, ip, sp}^
 4e4:	7473007a 	ldrbtvc	r0, [r3], #-122	; 0xffffff86
 4e8:	5f747261 	svcpl	0x00747261
 4ec:	00786469 	rsbseq	r6, r8, r9, ror #8
 4f0:	70746366 	rsbsvc	r6, r4, r6, ror #6
 4f4:	746e6972 	strbtvc	r6, [lr], #-2418	; 0xfffff68e
 4f8:	656e0066 	strbvs	r0, [lr, #-102]!	; 0xffffff9a
 4fc:	69746167 	ldmdbvs	r4!, {r0, r1, r2, r5, r6, r8, sp, lr}^
 500:	5f006576 	svcpl	0x00006576
 504:	6165615f 	cmnvs	r5, pc, asr r1
 508:	645f6962 	ldrbvs	r6, [pc], #-2402	; 510 <__STACKSEAL_SIZE+0x510>
 50c:	00646461 	rsbeq	r6, r4, r1, ror #8
 510:	61765f5f 	cmnvs	r6, pc, asr pc
 514:	73696c5f 	cmnvc	r9, #24320	; 0x5f00
 518:	2e2e0074 	mcrcs	0, 1, r0, cr14, cr4, {3}
 51c:	726f432f 	rsbvc	r4, pc, #-1140850688	; 0xbc000000
 520:	72532f65 	subsvc	r2, r3, #404	; 0x194
 524:	72702f63 	rsbsvc	r2, r0, #396	; 0x18c
 528:	66746e69 	ldrbtvs	r6, [r4], -r9, ror #28
 52c:	5f00632e 	svcpl	0x0000632e
 530:	616f746e 	cmnvs	pc, lr, ror #8
 534:	726f665f 	rsbvc	r6, pc, #99614720	; 0x5f00000
 538:	0074616d 	rsbseq	r6, r4, sp, ror #2
 53c:	6f74665f 	svcvs	0x0074665f
 540:	765f0061 	ldrbvc	r0, [pc], -r1, rrx
 544:	72706e73 	rsbsvc	r6, r0, #1840	; 0x730
 548:	66746e69 	ldrbtvs	r6, [r4], -r9, ror #28
 54c:	756f5f00 	strbvc	r5, [pc, #-3840]!	; fffff654 <__StackTop+0xc7eff654>
 550:	756e5f74 	strbvc	r5, [lr, #-3956]!	; 0xfffff08c
 554:	6f006c6c 	svcvs	0x00006c6c
 558:	665f7475 			; <UNDEFINED> instruction: 0x665f7475
 55c:	745f7463 	ldrbvc	r7, [pc], #-1123	; 564 <__STACKSEAL_SIZE+0x564>
 560:	00657079 	rsbeq	r7, r5, r9, ror r0
 564:	65615f5f 	strbvs	r5, [r1, #-3935]!	; 0xfffff0a1
 568:	5f696261 	svcpl	0x00696261
 56c:	706d6364 	rsbvc	r6, sp, r4, ror #6
 570:	5f006567 	svcpl	0x00006567
 574:	616f746e 	cmnvs	pc, lr, ror #8
 578:	6e6f6c5f 	mcrvs	12, 3, r6, cr15, cr15, {2}
 57c:	70730067 	rsbsvc	r0, r3, r7, rrx
 580:	746e6972 	strbtvc	r6, [lr], #-2418	; 0xfffff68e
 584:	5f5f0066 	svcpl	0x005f0066
 588:	62616561 	rsbvs	r6, r1, #406847488	; 0x18400000
 58c:	69755f69 	ldmdbvs	r5!, {r0, r3, r5, r6, r8, r9, sl, fp, ip, lr}^
 590:	66006432 			; <UNDEFINED> instruction: 0x66006432
 594:	7367616c 	cmnvc	r7, #108, 2
 598:	615f5f00 	cmpvs	pc, r0, lsl #30
 59c:	69626165 	stmdbvs	r2!, {r0, r2, r5, r6, r8, sp, lr}^
 5a0:	6d63645f 	cfstrdvs	mvd6, [r3, #-380]!	; 0xfffffe84
 5a4:	00746770 	rsbseq	r6, r4, r0, ror r7
 5a8:	6c78616d 	ldfvse	f6, [r8], #-436	; 0xfffffe4c
 5ac:	5f006e65 	svcpl	0x00006e65
 5b0:	696f7461 	stmdbvs	pc!, {r0, r5, r6, sl, ip, sp, lr}^	; <UNPREDICTABLE>
 5b4:	74735f00 	ldrbtvc	r5, [r3], #-3840	; 0xfffff100
 5b8:	656c6e72 	strbvs	r6, [ip, #-3698]!	; 0xfffff18e
 5bc:	00735f6e 	rsbseq	r5, r3, lr, ror #30
 5c0:	70615f5f 	rsbvc	r5, r1, pc, asr pc
 5c4:	615f5f00 	cmpvs	pc, r0, lsl #30
 5c8:	69626165 	stmdbvs	r2!, {r0, r2, r5, r6, r8, sp, lr}^
 5cc:	756d645f 	strbvc	r6, [sp, #-1119]!	; 0xfffffba1
 5d0:	425f006c 	subsmi	r0, pc, #108	; 0x6c
 5d4:	006c6f6f 	rsbeq	r6, ip, pc, ror #30
 5d8:	69755f5f 	ldmdbvs	r5!, {r0, r1, r2, r3, r4, r6, r8, r9, sl, fp, ip, lr}^
 5dc:	3436746e 	ldrtcc	r7, [r6], #-1134	; 0xfffffb92
 5e0:	5f00745f 	svcpl	0x0000745f
 5e4:	645f7369 	ldrbvs	r7, [pc], #-873	; 5ec <__STACKSEAL_SIZE+0x5ec>
 5e8:	74696769 	strbtvc	r6, [r9], #-1897	; 0xfffff897
 5ec:	6e6f6300 	cdpvs	3, 6, cr6, cr15, cr0, {0}
 5f0:	5f5f0076 	svcpl	0x005f0076
 5f4:	62616561 	rsbvs	r6, r1, #406847488	; 0x18400000
 5f8:	63645f69 	cmnvs	r4, #420	; 0x1a4
 5fc:	7165706d 	cmnvc	r5, sp, rrx
 600:	755f5f00 	ldrbvc	r5, [pc, #-3840]	; fffff708 <__StackTop+0xc7eff708>
 604:	70746e69 	rsbsvc	r6, r4, r9, ror #28
 608:	745f7274 	ldrbvc	r7, [pc], #-628	; 610 <__STACKSEAL_SIZE+0x610>
 60c:	61686300 	cmnvs	r8, r0, lsl #6
 610:	74636172 	strbtvc	r6, [r3], #-370	; 0xfffffe8e
 614:	5f007265 	svcpl	0x00007265
 618:	5f74756f 	svcpl	0x0074756f
 61c:	00766572 	rsbseq	r6, r6, r2, ror r5
 620:	65615f5f 	strbvs	r5, [r1, #-3935]!	; 0xfffff0a1
 624:	5f696261 	svcpl	0x00696261
 628:	62757364 	rsbsvs	r7, r5, #100, 6	; 0x90000001
 62c:	615f5f00 	cmpvs	pc, r0, lsl #30
 630:	69626165 	stmdbvs	r2!, {r0, r2, r5, r6, r8, sp, lr}^
 634:	646c755f 	strbtvs	r7, [ip], #-1375	; 0xfffffaa1
 638:	6f6d7669 	svcvs	0x006d7669
 63c:	5f5f0064 	svcpl	0x005f0064
 640:	62616561 	rsbvs	r6, r1, #406847488	; 0x18400000
 644:	63645f69 	cmnvs	r4, #420	; 0x1a4
 648:	656c706d 	strbvs	r7, [ip, #-109]!	; 0xffffff93
 64c:	74756f00 	ldrbtvc	r6, [r5], #-3840	; 0xfffff100
 650:	7463665f 	strbtvc	r6, [r3], #-1631	; 0xfffff9a1
 654:	6172775f 	cmnvs	r2, pc, asr r7
 658:	79745f70 	ldmdbvc	r4!, {r4, r5, r6, r8, r9, sl, fp, ip, lr}^
 65c:	70006570 	andvc	r6, r0, r0, ror r5
 660:	00636572 	rsbeq	r6, r3, r2, ror r5
 664:	64697766 	strbtvs	r7, [r9], #-1894	; 0xfffff89a
 668:	5f006874 	svcpl	0x00006874
 66c:	756e675f 	strbvc	r6, [lr, #-1887]!	; 0xfffff8a1
 670:	61765f63 	cmnvs	r6, r3, ror #30
 674:	73696c5f 	cmnvc	r9, #24320	; 0x5f00
 678:	5f5f0074 	svcpl	0x005f0074
 67c:	62616561 	rsbvs	r6, r1, #406847488	; 0x18400000
 680:	63645f69 	cmnvs	r4, #420	; 0x1a4
 684:	746c706d 	strbtvc	r7, [ip], #-109	; 0xffffff93
 688:	746e5f00 	strbtvc	r5, [lr], #-3840	; 0xfffff100
 68c:	6c5f616f 	ldfvse	f6, [pc], {111}	; 0x6f
 690:	5f676e6f 	svcpl	0x00676e6f
 694:	676e6f6c 	strbvs	r6, [lr, -ip, ror #30]!
 698:	5f736900 	svcpl	0x00736900
 69c:	70006c6c 	andvc	r6, r0, ip, ror #24
 6a0:	69636572 	stmdbvs	r3!, {r1, r4, r5, r6, r8, sl, sp, lr}^
 6a4:	6e6f6973 			; <UNDEFINED> instruction: 0x6e6f6973
 6a8:	66696400 	strbtvs	r6, [r9], -r0, lsl #8
 6ac:	2e2e0066 	cdpcs	0, 2, cr0, cr14, cr6, {3}
 6b0:	726f432f 	rsbvc	r4, pc, #-1140850688	; 0xbc000000
 6b4:	72532f65 	subsvc	r2, r3, #404	; 0x194
 6b8:	61752f63 	cmnvs	r5, r3, ror #30
 6bc:	632e7472 			; <UNDEFINED> instruction: 0x632e7472
 6c0:	72617500 	rsbvc	r7, r1, #0, 10
 6c4:	65725f74 	ldrbvs	r5, [r2, #-3956]!	; 0xfffff08c
 6c8:	73007663 	movwvc	r7, #1635	; 0x663
 6cc:	6e697274 	mcrvs	2, 3, r7, cr9, cr4, {3}
 6d0:	65670067 	strbvs	r0, [r7, #-103]!	; 0xffffff99
 6d4:	61686374 	smcvs	34356	; 0x8634
 6d8:	61750072 	cmnvs	r5, r2, ror r0
 6dc:	735f7472 	cmpvc	pc, #1912602624	; 0x72000000
 6e0:	00646e65 	rsbeq	r6, r4, r5, ror #28
 6e4:	6f63706f 	svcvs	0x0063706f
 6e8:	695f6564 	ldmdbvs	pc, {r2, r5, r6, r8, sl, sp, lr}^	; <UNPREDICTABLE>
 6ec:	6c625f73 	stclvs	15, cr5, [r2], #-460	; 0xfffffe34
 6f0:	5f726f5f 	svcpl	0x00726f5f
 6f4:	00786c62 	rsbseq	r6, r8, r2, ror #24
 6f8:	63617473 	cmnvs	r1, #1929379840	; 0x73000000
 6fc:	72665f6b 	rsbvc	r5, r6, #428	; 0x1ac
 700:	5f656d61 	svcpl	0x00656d61
 704:	5f5f0074 	svcpl	0x005f0074
 708:	5f746567 	svcpl	0x00746567
 70c:	0050534d 	subseq	r5, r0, sp, asr #6
 710:	69755f5f 	ldmdbvs	r5!, {r0, r1, r2, r3, r4, r6, r8, r9, sl, fp, ip, lr}^
 714:	3631746e 	ldrtcc	r7, [r1], -lr, ror #8
 718:	6900745f 	stmdbvs	r0, {r0, r1, r2, r3, r4, r6, sl, ip, sp, lr}
 71c:	7865646e 	stmdavc	r5!, {r1, r2, r3, r5, r6, sl, sp, lr}^
 720:	73735f00 	cmnvc	r3, #0, 30
 724:	6b636174 	blvs	18d8cfc <__RAM_SIZE+0x17d8cfc>
 728:	75616600 	strbvc	r6, [r1, #-1536]!	; 0xfffffa00
 72c:	645f746c 	ldrbvs	r7, [pc], #-1132	; 734 <__STACKSEAL_SIZE+0x734>
 730:	5f706d75 	svcpl	0x00706d75
 734:	6f63706f 	svcvs	0x0063706f
 738:	5f006564 	svcpl	0x00006564
 73c:	61747365 	cmnvs	r4, r5, ror #6
 740:	72006b63 	andvc	r6, r0, #101376	; 0x18c00
 744:	6c757365 	ldclvs	3, cr7, [r5], #-404	; 0xfffffe6c
 748:	696c0074 	stmdbvs	ip!, {r2, r4, r5, r6}^
 74c:	72656b6e 	rsbvc	r6, r5, #112640	; 0x1b800
 750:	61747300 	cmnvs	r4, r0, lsl #6
 754:	665f6b63 	ldrbvs	r6, [pc], -r3, ror #22
 758:	656d6172 	strbvs	r6, [sp, #-370]!	; 0xfffffe8e
 75c:	6e616d5f 	mcrvs	13, 3, r6, cr1, cr15, {2}
 760:	5f6c6175 	svcpl	0x006c6175
 764:	706f0074 	rsbvc	r0, pc, r4, ror r0	; <UNPREDICTABLE>
 768:	65646f63 	strbvs	r6, [r4, #-3939]!	; 0xfffff09d
 76c:	706f0031 	rsbvc	r0, pc, r1, lsr r0	; <UNPREDICTABLE>
 770:	65646f63 	strbvs	r6, [r4, #-3939]!	; 0xfffff09d
 774:	74730032 	ldrbtvc	r0, [r3], #-50	; 0xffffffce
 778:	5f6b6361 	svcpl	0x006b6361
 77c:	6d617266 	sfmvs	f7, 2, [r1, #-408]!	; 0xfffffe68
 780:	616d5f65 	cmnvs	sp, r5, ror #30
 784:	6c61756e 	cfstr64vs	mvdx7, [r1], #-440	; 0xfffffe48
 788:	61747300 	cmnvs	r4, r0, lsl #6
 78c:	665f6b63 	ldrbvs	r6, [pc], -r3, ror #22
 790:	656d6172 	strbvs	r6, [sp, #-370]!	; 0xfffffe8e
 794:	61747300 	cmnvs	r4, r0, lsl #6
 798:	665f6b63 	ldrbvs	r6, [pc], -r3, ror #22
 79c:	656d6172 	strbvs	r6, [sp, #-370]!	; 0xfffffe8e
 7a0:	6378655f 	cmnvs	r8, #398458880	; 0x17c00000
 7a4:	5f747065 	svcpl	0x00747065
 7a8:	2e2e0074 	mcrcs	0, 1, r0, cr14, cr4, {3}
 7ac:	2f2e2e2f 	svccs	0x002e2e2f
 7b0:	6c2f2e2e 	stcvs	14, cr2, [pc], #-184	; 700 <__STACKSEAL_SIZE+0x700>
 7b4:	74756269 	ldrbtvc	r6, [r5], #-617	; 0xfffffd97
 7b8:	2f736c69 	svccs	0x00736c69
 7bc:	6c756166 	ldfvse	f6, [r5], #-408	; 0xfffffe68
 7c0:	75642d74 	strbvc	r2, [r4, #-3444]!	; 0xfffff28c
 7c4:	732f706d 			; <UNDEFINED> instruction: 0x732f706d
 7c8:	662f6372 			; <UNDEFINED> instruction: 0x662f6372
 7cc:	746c7561 	strbtvc	r7, [ip], #-1377	; 0xfffffa9f
 7d0:	6d75642d 	cfldrdvs	mvd6, [r5, #-180]!	; 0xffffff4c
 7d4:	00632e70 	rsbeq	r2, r3, r0, ror lr
 7d8:	63617473 	cmnvs	r1, #1929379840	; 0x73000000
 7dc:	72665f6b 	rsbvc	r5, r6, #428	; 0x1ac
 7e0:	5f656d61 	svcpl	0x00656d61
 7e4:	65637865 	strbvs	r7, [r3, #-2149]!	; 0xfffff79b
 7e8:	66007470 			; <UNDEFINED> instruction: 0x66007470
 7ec:	746c7561 	strbtvc	r7, [ip], #-1377	; 0xfffffa9f
 7f0:	6d75645f 	cfldrdvs	mvd6, [r5, #-380]!	; 0xfffffe84
 7f4:	61685f70 	smcvs	34288	; 0x85f0
 7f8:	656c646e 	strbvs	r6, [ip, #-1134]!	; 0xfffffb92
 7fc:	64660072 	strbtvs	r0, [r6], #-114	; 0xffffff8e
 800:	646f635f 	strbtvs	r6, [pc], #-863	; 808 <__Vectors_Size+0x48>
 804:	74735f65 	ldrbtvc	r5, [r3], #-3941	; 0xfffff09b
 808:	5f6b6361 	svcpl	0x006b6361
 80c:	6c6c7566 	cfstr64vs	mvdx7, [ip], #-408	; 0xfffffe68
 810:	74735f00 	ldrbtvc	r5, [r3], #-3840	; 0xfffff100
 814:	00747865 	rsbseq	r7, r4, r5, ror #16
 818:	635f6466 	cmpvs	pc, #1711276032	; 0x66000000
 81c:	5f65646f 	svcpl	0x0065646f
 820:	63617473 	cmnvs	r1, #1929379840	; 0x73000000
 824:	61625f6b 	cmnvs	r2, fp, ror #30
 828:	5f006573 	svcpl	0x00006573
 82c:	78657465 	stmdavc	r5!, {r0, r2, r5, r6, sl, ip, sp, lr}^
 830:	74730074 	ldrbtvc	r0, [r3], #-116	; 0xffffff8c
 834:	75747261 	ldrbvc	r7, [r4, #-609]!	; 0xfffffd9f
 838:	52415f70 	subpl	r5, r1, #112, 30	; 0x1c0
 83c:	334d434d 	movtcc	r4, #54093	; 0xd34d
 840:	00732e33 	rsbseq	r2, r3, r3, lsr lr
 844:	20554e47 	subscs	r4, r5, r7, asr #28
 848:	32205341 	eorcc	r5, r0, #67108865	; 0x4000001
 84c:	2e36332e 	cdpcs	3, 3, cr3, cr6, cr14, {1}
 850:	2e2e0031 	mcrcs	0, 1, r0, cr14, cr1, {1}
 854:	2f2e2e2f 	svccs	0x002e2e2f
 858:	6c2f2e2e 	stcvs	14, cr2, [pc], #-184	; 7a8 <__STACKSEAL_SIZE+0x7a8>
 85c:	74756269 	ldrbtvc	r6, [r5], #-617	; 0xfffffd97
 860:	2f736c69 	svccs	0x00736c69
 864:	6c756166 	ldfvse	f6, [r5], #-408	; 0xfffffe68
 868:	75642d74 	strbvc	r2, [r4, #-3444]!	; 0xfffff28c
 86c:	632f706d 			; <UNDEFINED> instruction: 0x632f706d
 870:	632f7570 			; <UNDEFINED> instruction: 0x632f7570
 874:	6574726f 	ldrbvs	r7, [r4, #-623]!	; 0xfffffd91
 878:	336d2d78 	cmncc	sp, #120, 26	; 0x1e00
 87c:	61662f33 	cmnvs	r6, r3, lsr pc
 880:	2d746c75 	ldclcs	12, cr6, [r4, #-468]!	; 0xfffffe2c
 884:	2e636367 	cdpcs	3, 6, cr6, cr3, cr7, {3}
 888:	Address 0x00000888 is out of bounds.


Disassembly of section .debug_frame:

00000000 <.debug_frame>:
   0:	0000000c 	andeq	r0, r0, ip
   4:	ffffffff 			; <UNDEFINED> instruction: 0xffffffff
   8:	7c020001 	stcvc	0, cr0, [r2], {1}
   c:	000d0c0e 	andeq	r0, sp, lr, lsl #24
  10:	0000000c 	andeq	r0, r0, ip
  14:	00000000 	andeq	r0, r0, r0
  18:	10000800 	andne	r0, r0, r0, lsl #16
  1c:	00000002 	andeq	r0, r0, r2
  20:	00000014 	andeq	r0, r0, r4, lsl r0
	...
  2c:	00000010 	andeq	r0, r0, r0, lsl r0
  30:	83080e41 	movwhi	r0, #36417	; 0x8e41
  34:	00018e02 	andeq	r8, r1, r2, lsl #28
  38:	00000014 	andeq	r0, r0, r4, lsl r0
	...
  44:	00000010 	andeq	r0, r0, r0, lsl r0
  48:	83080e41 	movwhi	r0, #36417	; 0x8e41
  4c:	00018e02 	andeq	r8, r1, r2, lsl #28
  50:	00000014 	andeq	r0, r0, r4, lsl r0
	...
  5c:	00000020 	andeq	r0, r0, r0, lsr #32
  60:	83080e41 	movwhi	r0, #36417	; 0x8e41
  64:	00018e02 	andeq	r8, r1, r2, lsl #28
  68:	0000001c 	andeq	r0, r0, ip, lsl r0
  6c:	00000000 	andeq	r0, r0, r0
  70:	10000804 	andne	r0, r0, r4, lsl #16
  74:	0000004c 	andeq	r0, r0, ip, asr #32
  78:	840c0e41 	strhi	r0, [ip], #-3649	; 0xfffff1bf
  7c:	8e028503 	cfsh32hi	mvfx8, mvfx2, #3
  80:	180e4101 	stmdane	lr, {r0, r8, lr}
  84:	000c0e5f 	andeq	r0, ip, pc, asr lr
  88:	0000001c 	andeq	r0, r0, ip, lsl r0
  8c:	00000000 	andeq	r0, r0, r0
  90:	10000850 	andne	r0, r0, r0, asr r8
  94:	00000068 	andeq	r0, r0, r8, rrx
  98:	840c0e41 	strhi	r0, [ip], #-3649	; 0xfffff1bf
  9c:	8e028503 	cfsh32hi	mvfx8, mvfx2, #3
  a0:	900e4101 	andls	r4, lr, r1, lsl #2
  a4:	0c0e6902 			; <UNDEFINED> instruction: 0x0c0e6902
  a8:	00000014 	andeq	r0, r0, r4, lsl r0
  ac:	00000000 	andeq	r0, r0, r0
  b0:	100008b8 			; <UNDEFINED> instruction: 0x100008b8
  b4:	0000001c 	andeq	r0, r0, ip, lsl r0
  b8:	83080e41 	movwhi	r0, #36417	; 0x8e41
  bc:	00018e02 	andeq	r8, r1, r2, lsl #28
  c0:	00000014 	andeq	r0, r0, r4, lsl r0
  c4:	00000000 	andeq	r0, r0, r0
  c8:	100008d4 	ldrdne	r0, [r0], -r4
  cc:	00000018 	andeq	r0, r0, r8, lsl r0
  d0:	83080e41 	movwhi	r0, #36417	; 0x8e41
  d4:	00018e02 	andeq	r8, r1, r2, lsl #28
  d8:	00000014 	andeq	r0, r0, r4, lsl r0
  dc:	00000000 	andeq	r0, r0, r0
  e0:	100008ec 	andne	r0, r0, ip, ror #17
  e4:	00000018 	andeq	r0, r0, r8, lsl r0
  e8:	83080e41 	movwhi	r0, #36417	; 0x8e41
  ec:	00018e02 	andeq	r8, r1, r2, lsl #28
  f0:	00000014 	andeq	r0, r0, r4, lsl r0
  f4:	00000000 	andeq	r0, r0, r0
  f8:	10000904 	andne	r0, r0, r4, lsl #18
  fc:	00000018 	andeq	r0, r0, r8, lsl r0
 100:	83080e41 	movwhi	r0, #36417	; 0x8e41
 104:	00018e02 	andeq	r8, r1, r2, lsl #28
 108:	00000014 	andeq	r0, r0, r4, lsl r0
 10c:	00000000 	andeq	r0, r0, r0
 110:	1000091c 	andne	r0, r0, ip, lsl r9
 114:	00000018 	andeq	r0, r0, r8, lsl r0
 118:	83080e41 	movwhi	r0, #36417	; 0x8e41
 11c:	00018e02 	andeq	r8, r1, r2, lsl #28
 120:	00000014 	andeq	r0, r0, r4, lsl r0
 124:	00000000 	andeq	r0, r0, r0
 128:	10000934 	andne	r0, r0, r4, lsr r9
 12c:	00000018 	andeq	r0, r0, r8, lsl r0
 130:	83080e41 	movwhi	r0, #36417	; 0x8e41
 134:	00018e02 	andeq	r8, r1, r2, lsl #28
 138:	00000014 	andeq	r0, r0, r4, lsl r0
 13c:	00000000 	andeq	r0, r0, r0
 140:	1000094c 	andne	r0, r0, ip, asr #18
 144:	0000002c 	andeq	r0, r0, ip, lsr #32
 148:	84080e41 	strhi	r0, [r8], #-3649	; 0xfffff1bf
 14c:	00018e02 	andeq	r8, r1, r2, lsl #28
 150:	0000000c 	andeq	r0, r0, ip
 154:	ffffffff 			; <UNDEFINED> instruction: 0xffffffff
 158:	7c020001 	stcvc	0, cr0, [r2], {1}
 15c:	000d0c0e 	andeq	r0, sp, lr, lsl #24
 160:	0000000c 	andeq	r0, r0, ip
 164:	00000150 	andeq	r0, r0, r0, asr r1
 168:	00000000 	andeq	r0, r0, r0
 16c:	00000010 	andeq	r0, r0, r0, lsl r0
 170:	0000000c 	andeq	r0, r0, ip
 174:	00000150 	andeq	r0, r0, r0, asr r1
 178:	10000978 	andne	r0, r0, r8, ror r9
 17c:	0000002c 	andeq	r0, r0, ip, lsr #32
 180:	0000000c 	andeq	r0, r0, ip
 184:	ffffffff 			; <UNDEFINED> instruction: 0xffffffff
 188:	7c020001 	stcvc	0, cr0, [r2], {1}
 18c:	000d0c0e 	andeq	r0, sp, lr, lsl #24
 190:	0000000c 	andeq	r0, r0, ip
 194:	00000180 	andeq	r0, r0, r0, lsl #3
 198:	00000000 	andeq	r0, r0, r0
 19c:	00000008 	andeq	r0, r0, r8
 1a0:	0000000c 	andeq	r0, r0, ip
 1a4:	00000180 	andeq	r0, r0, r0, lsl #3
 1a8:	100009a4 	andne	r0, r0, r4, lsr #19
 1ac:	00000002 	andeq	r0, r0, r2
 1b0:	00000018 	andeq	r0, r0, r8, lsl r0
 1b4:	00000180 	andeq	r0, r0, r0, lsl #3
 1b8:	00000000 	andeq	r0, r0, r0
 1bc:	0000000e 	andeq	r0, r0, lr
 1c0:	83080e42 	movwhi	r0, #36418	; 0x8e42
 1c4:	44018e02 	strmi	r8, [r1], #-3586	; 0xfffff1fe
 1c8:	cec3000e 	cdpgt	0, 12, cr0, cr3, cr14, {0}
 1cc:	0000000c 	andeq	r0, r0, ip
 1d0:	00000180 	andeq	r0, r0, r0, lsl #3
 1d4:	100009a6 	andne	r0, r0, r6, lsr #19
 1d8:	00000024 	andeq	r0, r0, r4, lsr #32
 1dc:	0000002c 	andeq	r0, r0, ip, lsr #32
 1e0:	00000180 	andeq	r0, r0, r0, lsl #3
 1e4:	100009ca 	andne	r0, r0, sl, asr #19
 1e8:	0000007e 	andeq	r0, r0, lr, ror r0
 1ec:	84240e42 	strthi	r0, [r4], #-3650	; 0xfffff1be
 1f0:	86088509 	strhi	r8, [r8], -r9, lsl #10
 1f4:	88068707 	stmdahi	r6, {r0, r1, r2, r8, r9, sl, pc}
 1f8:	8a048905 	bhi	122614 <__RAM_SIZE+0x22614>
 1fc:	8e028b03 	vmlahi.f64	d8, d2, d3
 200:	300e4101 	andcc	r4, lr, r1, lsl #2
 204:	240e0a6f 	strcs	r0, [lr], #-2671	; 0xfffff591
 208:	00000b42 	andeq	r0, r0, r2, asr #22
 20c:	00000028 	andeq	r0, r0, r8, lsr #32
 210:	00000180 	andeq	r0, r0, r0, lsl #3
 214:	10000a48 	andne	r0, r0, r8, asr #20
 218:	00000138 	andeq	r0, r0, r8, lsr r1
 21c:	841c0e42 	ldrhi	r0, [ip], #-3650	; 0xfffff1be
 220:	86068507 	strhi	r8, [r6], -r7, lsl #10
 224:	88048705 	stmdahi	r4, {r0, r2, r8, r9, sl, pc}
 228:	8e028903 	vmlahi.f16	s16, s4, s6	; <UNPREDICTABLE>
 22c:	300e4101 	andcc	r4, lr, r1, lsl #2
 230:	0e0a5b02 	vmlaeq.f64	d5, d10, d2
 234:	000b421c 	andeq	r4, fp, ip, lsl r2
 238:	00000020 	andeq	r0, r0, r0, lsr #32
 23c:	00000180 	andeq	r0, r0, r0, lsl #3
 240:	10000b80 	andne	r0, r0, r0, lsl #23
 244:	00000094 	muleq	r0, r4, r0
 248:	84140e41 	ldrhi	r0, [r4], #-3649	; 0xfffff1bf
 24c:	86048505 	strhi	r8, [r4], -r5, lsl #10
 250:	8e028703 	cdphi	7, 0, cr8, cr2, cr3, {0}
 254:	580e4101 	stmdapl	lr, {r0, r8, lr}
 258:	140e4702 	strne	r4, [lr], #-1794	; 0xfffff8fe
 25c:	00000028 	andeq	r0, r0, r8, lsr #32
 260:	00000180 	andeq	r0, r0, r0, lsl #3
 264:	10000c14 	andne	r0, r0, r4, lsl ip
 268:	000000c6 	andeq	r0, r0, r6, asr #1
 26c:	84240e42 	strthi	r0, [r4], #-3650	; 0xfffff1be
 270:	86088509 	strhi	r8, [r8], -r9, lsl #10
 274:	88068707 	stmdahi	r6, {r0, r1, r2, r8, r9, sl, pc}
 278:	8a048905 	bhi	122694 <__RAM_SIZE+0x22694>
 27c:	8e028b03 	vmlahi.f64	d8, d2, d3
 280:	780e4101 	stmdavc	lr, {r0, r8, lr}
 284:	240e5e02 	strcs	r5, [lr], #-3586	; 0xfffff1fe
 288:	0000003c 	andeq	r0, r0, ip, lsr r0
 28c:	00000180 	andeq	r0, r0, r0, lsl #3
 290:	10000ce0 	andne	r0, r0, r0, ror #25
 294:	000003ea 	andeq	r0, r0, sl, ror #7
 298:	84240e42 	strthi	r0, [r4], #-3650	; 0xfffff1be
 29c:	86088509 	strhi	r8, [r8], -r9, lsl #10
 2a0:	88068707 	stmdahi	r6, {r0, r1, r2, r8, r9, sl, pc}
 2a4:	8a048905 	bhi	1226c0 <__RAM_SIZE+0x226c0>
 2a8:	8e028b03 	vmlahi.f64	d8, d2, d3
 2ac:	2c0e4201 	sfmcs	f4, 4, [lr], {1}
 2b0:	050b5005 	streq	r5, [fp, #-5]
 2b4:	0e410a51 			; <UNDEFINED> instruction: 0x0e410a51
 2b8:	01250370 			; <UNDEFINED> instruction: 0x01250370
 2bc:	422c0e0a 	eormi	r0, ip, #10, 28	; 0xa0
 2c0:	51065006 	tstpl	r6, r6
 2c4:	0b42240e 	bleq	1089304 <__RAM_SIZE+0xf89304>
 2c8:	00000040 	andeq	r0, r0, r0, asr #32
 2cc:	00000180 	andeq	r0, r0, r0, lsl #3
 2d0:	100010d0 	ldrdne	r1, [r0], -r0
 2d4:	00000396 	muleq	r0, r6, r3
 2d8:	84240e42 	strthi	r0, [r4], #-3650	; 0xfffff1be
 2dc:	86088509 	strhi	r8, [r8], -r9, lsl #10
 2e0:	88068707 	stmdahi	r6, {r0, r1, r2, r8, r9, sl, pc}
 2e4:	8a048905 	bhi	122700 <__RAM_SIZE+0x22700>
 2e8:	8e028b03 	vmlahi.f64	d8, d2, d3
 2ec:	2c0e4201 	sfmcs	f4, 4, [lr], {1}
 2f0:	050b5005 	streq	r5, [fp, #-5]
 2f4:	0e410a51 			; <UNDEFINED> instruction: 0x0e410a51
 2f8:	8d030180 	stfhis	f0, [r3, #-512]	; 0xfffffe00
 2fc:	2c0e0a01 			; <UNDEFINED> instruction: 0x2c0e0a01
 300:	06500642 	ldrbeq	r0, [r0], -r2, asr #12
 304:	42240e51 	eormi	r0, r4, #1296	; 0x510
 308:	0000000b 	andeq	r0, r0, fp
 30c:	0000002c 	andeq	r0, r0, ip, lsr #32
 310:	00000180 	andeq	r0, r0, r0, lsl #3
 314:	10001468 	andne	r1, r0, r8, ror #8
 318:	00000680 	andeq	r0, r0, r0, lsl #13
 31c:	84240e42 	strthi	r0, [r4], #-3650	; 0xfffff1be
 320:	86088509 	strhi	r8, [r8], -r9, lsl #10
 324:	88068707 	stmdahi	r6, {r0, r1, r2, r8, r9, sl, pc}
 328:	8a048905 	bhi	122744 <__RAM_SIZE+0x22744>
 32c:	8e028b03 	vmlahi.f64	d8, d2, d3
 330:	600e4101 	andvs	r4, lr, r1, lsl #2
 334:	0e033803 	cdpeq	8, 0, cr3, cr3, cr3, {0}
 338:	00000024 	andeq	r0, r0, r4, lsr #32
 33c:	00000014 	andeq	r0, r0, r4, lsl r0
 340:	00000180 	andeq	r0, r0, r0, lsl #3
 344:	10001ae8 	andne	r1, r0, r8, ror #21
 348:	0000000c 	andeq	r0, r0, ip
 34c:	83080e43 	movwhi	r0, #36419	; 0x8e43
 350:	00018e02 	andeq	r8, r1, r2, lsl #28
 354:	00000030 	andeq	r0, r0, r0, lsr r0
 358:	00000180 	andeq	r0, r0, r0, lsl #3
 35c:	10001af4 	strdne	r1, [r0], -r4
 360:	0000002c 	andeq	r0, r0, ip, lsr #32
 364:	80100e41 	andshi	r0, r0, r1, asr #28
 368:	82038104 	andhi	r8, r3, #4, 2
 36c:	41018302 	tstmi	r1, r2, lsl #6
 370:	058e140e 	streq	r1, [lr, #1038]	; 0x40e
 374:	4c280e41 	stcmi	14, cr0, [r8], #-260	; 0xfffffefc
 378:	ce42140e 	cdpgt	4, 4, cr1, cr2, cr14, {0}
 37c:	c341100e 	movtgt	r1, #4110	; 0x100e
 380:	0ec0c1c2 	acseqdm	f4, f2
 384:	00000000 	andeq	r0, r0, r0
 388:	0000002c 	andeq	r0, r0, ip, lsr #32
 38c:	00000180 	andeq	r0, r0, r0, lsl #3
 390:	00000000 	andeq	r0, r0, r0
 394:	0000002c 	andeq	r0, r0, ip, lsr #32
 398:	810c0e41 	tsthi	ip, r1, asr #28
 39c:	83028203 	movwhi	r8, #8707	; 0x2203
 3a0:	100e4101 	andne	r4, lr, r1, lsl #2
 3a4:	0e41048e 	cdpeq	4, 4, cr0, cr1, cr14, {4}
 3a8:	100e4c20 	andne	r4, lr, r0, lsr #24
 3ac:	0c0ece42 	stceq	14, cr12, [lr], {66}	; 0x42
 3b0:	c1c2c341 	bicgt	ip, r2, r1, asr #6
 3b4:	0000000e 	andeq	r0, r0, lr
 3b8:	0000002c 	andeq	r0, r0, ip, lsr #32
 3bc:	00000180 	andeq	r0, r0, r0, lsl #3
 3c0:	00000000 	andeq	r0, r0, r0
 3c4:	00000028 	andeq	r0, r0, r8, lsr #32
 3c8:	82080e41 	andhi	r0, r8, #1040	; 0x410
 3cc:	41018302 	tstmi	r1, r2, lsl #6
 3d0:	0484100e 	streq	r1, [r4], #14
 3d4:	0e41038e 	cdpeq	3, 4, cr0, cr1, cr14, {4}
 3d8:	100e4b20 	andne	r4, lr, r0, lsr #22
 3dc:	0ec4ce42 	cdpeq	14, 12, cr12, cr4, cr2, {2}
 3e0:	c2c34108 	sbcgt	r4, r3, #8, 2
 3e4:	0000000e 	andeq	r0, r0, lr
 3e8:	00000018 	andeq	r0, r0, r8, lsl r0
 3ec:	00000180 	andeq	r0, r0, r0, lsl #3
 3f0:	00000000 	andeq	r0, r0, r0
 3f4:	00000020 	andeq	r0, r0, r0, lsr #32
 3f8:	8e040e41 	cdphi	14, 0, cr0, cr4, cr1, {2}
 3fc:	180e4101 	stmdane	lr, {r0, r8, lr}
 400:	00040e49 	andeq	r0, r4, r9, asr #28
 404:	00000018 	andeq	r0, r0, r8, lsl r0
 408:	00000180 	andeq	r0, r0, r0, lsl #3
 40c:	00000000 	andeq	r0, r0, r0
 410:	0000001c 	andeq	r0, r0, ip, lsl r0
 414:	8e040e41 	cdphi	14, 0, cr0, cr4, cr1, {2}
 418:	100e4101 	andne	r4, lr, r1, lsl #2
 41c:	00040e48 	andeq	r0, r4, r8, asr #28
 420:	00000028 	andeq	r0, r0, r8, lsr #32
 424:	00000180 	andeq	r0, r0, r0, lsl #3
 428:	00000000 	andeq	r0, r0, r0
 42c:	00000030 	andeq	r0, r0, r0, lsr r0
 430:	82080e41 	andhi	r0, r8, #1040	; 0x410
 434:	41018302 	tstmi	r1, r2, lsl #6
 438:	038e0c0e 	orreq	r0, lr, #3584	; 0xe00
 43c:	4e280e41 	cdpmi	14, 2, cr0, cr8, cr1, {2}
 440:	ce420c0e 	cdpgt	12, 4, cr0, cr2, cr14, {0}
 444:	c341080e 	movtgt	r0, #6158	; 0x180e
 448:	00000ec2 	andeq	r0, r0, r2, asr #29
 44c:	0000000c 	andeq	r0, r0, ip
 450:	ffffffff 			; <UNDEFINED> instruction: 0xffffffff
 454:	7c020001 	stcvc	0, cr0, [r2], {1}
 458:	000d0c0e 	andeq	r0, sp, lr, lsl #24
 45c:	0000000c 	andeq	r0, r0, ip
 460:	0000044c 	andeq	r0, r0, ip, asr #8
 464:	10001b20 	andne	r1, r0, r0, lsr #22
 468:	00000014 	andeq	r0, r0, r4, lsl r0
 46c:	0000000c 	andeq	r0, r0, ip
 470:	0000044c 	andeq	r0, r0, ip, asr #8
 474:	00000000 	andeq	r0, r0, r0
 478:	00000014 	andeq	r0, r0, r4, lsl r0
 47c:	0000000c 	andeq	r0, r0, ip
 480:	0000044c 	andeq	r0, r0, ip, asr #8
 484:	10001b34 	andne	r1, r0, r4, lsr fp
 488:	00000024 	andeq	r0, r0, r4, lsr #32
 48c:	00000014 	andeq	r0, r0, r4, lsl r0
 490:	0000044c 	andeq	r0, r0, ip, asr #8
 494:	00000000 	andeq	r0, r0, r0
 498:	00000014 	andeq	r0, r0, r4, lsl r0
 49c:	84080e41 	strhi	r0, [r8], #-3649	; 0xfffff1bf
 4a0:	00018e02 	andeq	r8, r1, r2, lsl #28
 4a4:	00000018 	andeq	r0, r0, r8, lsl r0
 4a8:	0000044c 	andeq	r0, r0, ip, asr #8
 4ac:	00000000 	andeq	r0, r0, r0
 4b0:	00000020 	andeq	r0, r0, r0, lsr #32
 4b4:	84100e41 	ldrhi	r0, [r0], #-3649	; 0xfffff1bf
 4b8:	86038504 	strhi	r8, [r3], -r4, lsl #10
 4bc:	00018e02 	andeq	r8, r1, r2, lsl #28
 4c0:	0000000c 	andeq	r0, r0, ip
 4c4:	ffffffff 			; <UNDEFINED> instruction: 0xffffffff
 4c8:	7c020001 	stcvc	0, cr0, [r2], {1}
 4cc:	000d0c0e 	andeq	r0, sp, lr, lsl #24
 4d0:	00000014 	andeq	r0, r0, r4, lsl r0
 4d4:	000004c0 	andeq	r0, r0, r0, asr #9
 4d8:	10001b58 	andne	r1, r0, r8, asr fp
 4dc:	0000002c 	andeq	r0, r0, ip, lsr #32
 4e0:	54080e41 	strpl	r0, [r8], #-3649	; 0xfffff1bf
 4e4:	0000000e 	andeq	r0, r0, lr
 4e8:	0000000c 	andeq	r0, r0, ip
 4ec:	000004c0 	andeq	r0, r0, r0, asr #9
 4f0:	10001b84 	andne	r1, r0, r4, lsl #23
 4f4:	00000036 	andeq	r0, r0, r6, lsr r0
 4f8:	00000014 	andeq	r0, r0, r4, lsl r0
 4fc:	000004c0 	andeq	r0, r0, r0, asr #9
 500:	10001bbc 			; <UNDEFINED> instruction: 0x10001bbc
 504:	00000050 	andeq	r0, r0, r0, asr r0
 508:	83080e41 	movwhi	r0, #36417	; 0x8e41
 50c:	00018e02 	andeq	r8, r1, r2, lsl #28
 510:	00000020 	andeq	r0, r0, r0, lsr #32
 514:	000004c0 	andeq	r0, r0, r0, asr #9
 518:	10001c0c 	andne	r1, r0, ip, lsl #24
 51c:	0000007c 	andeq	r0, r0, ip, ror r0
 520:	83200e42 			; <UNDEFINED> instruction: 0x83200e42
 524:	85078408 	strhi	r8, [r7, #-1032]	; 0xfffffbf8
 528:	87058606 	strhi	r8, [r5, -r6, lsl #12]
 52c:	89038804 	stmdbhi	r3, {r2, fp, pc}
 530:	00018e02 	andeq	r8, r1, r2, lsl #28
 534:	0000001c 	andeq	r0, r0, ip, lsl r0
 538:	000004c0 	andeq	r0, r0, r0, asr #9
 53c:	10001c88 	andne	r1, r0, r8, lsl #25
 540:	0000018c 	andeq	r0, r0, ip, lsl #3
 544:	83180e41 	tsthi	r8, #1040	; 0x410
 548:	85058406 	strhi	r8, [r5, #-1030]	; 0xfffffbfa
 54c:	87038604 	strhi	r8, [r3, -r4, lsl #12]
 550:	00018e02 	andeq	r8, r1, r2, lsl #28
 554:	0000000c 	andeq	r0, r0, ip
 558:	000004c0 	andeq	r0, r0, r0, asr #9
 55c:	10001e14 	andne	r1, r0, r4, lsl lr
 560:	00000006 	andeq	r0, r0, r6
 564:	0000000c 	andeq	r0, r0, ip
 568:	000004c0 	andeq	r0, r0, r0, asr #9
 56c:	10001e1c 	andne	r1, r0, ip, lsl lr
 570:	00000008 	andeq	r0, r0, r8
 574:	0000000c 	andeq	r0, r0, ip
 578:	ffffffff 			; <UNDEFINED> instruction: 0xffffffff
 57c:	7c020001 	stcvc	0, cr0, [r2], {1}
 580:	000d0c0e 	andeq	r0, sp, lr, lsl #24
 584:	0000000c 	andeq	r0, r0, ip
 588:	00000574 	andeq	r0, r0, r4, ror r5
 58c:	10001ed8 	ldrdne	r1, [r0], -r8
 590:	00000010 	andeq	r0, r0, r0, lsl r0
 594:	0000000c 	andeq	r0, r0, ip
 598:	ffffffff 			; <UNDEFINED> instruction: 0xffffffff
 59c:	7c020001 	stcvc	0, cr0, [r2], {1}
 5a0:	000d0c0e 	andeq	r0, sp, lr, lsl #24
 5a4:	00000018 	andeq	r0, r0, r8, lsl r0
 5a8:	00000594 	muleq	r0, r4, r5
 5ac:	10001ee8 	andne	r1, r0, r8, ror #29
 5b0:	000000dc 	ldrdeq	r0, [r0], -ip
 5b4:	84100e41 	ldrhi	r0, [r0], #-3649	; 0xfffff1bf
 5b8:	86038504 	strhi	r8, [r3], -r4, lsl #10
 5bc:	00018e02 	andeq	r8, r1, r2, lsl #28
 5c0:	0000000c 	andeq	r0, r0, ip
 5c4:	00000594 	muleq	r0, r4, r5
 5c8:	10001fc4 	andne	r1, r0, r4, asr #31
 5cc:	00000010 	andeq	r0, r0, r0, lsl r0
 5d0:	0000000c 	andeq	r0, r0, ip
 5d4:	ffffffff 			; <UNDEFINED> instruction: 0xffffffff
 5d8:	7c020001 	stcvc	0, cr0, [r2], {1}
 5dc:	000d0c0e 	andeq	r0, sp, lr, lsl #24
 5e0:	0000001c 	andeq	r0, r0, ip, lsl r0
 5e4:	000005d0 	ldrdeq	r0, [r0], -r0	; <UNPREDICTABLE>
 5e8:	10001fd4 	ldrdne	r1, [r0], -r4
 5ec:	000000a4 	andeq	r0, r0, r4, lsr #1
 5f0:	83180e41 	tsthi	r8, #1040	; 0x410
 5f4:	85058406 	strhi	r8, [r5, #-1030]	; 0xfffffbfa
 5f8:	87038604 	strhi	r8, [r3, -r4, lsl #12]
 5fc:	00018e02 	andeq	r8, r1, r2, lsl #28
 600:	0000000c 	andeq	r0, r0, ip
 604:	000005d0 	ldrdeq	r0, [r0], -r0	; <UNPREDICTABLE>
 608:	00000000 	andeq	r0, r0, r0
 60c:	00000010 	andeq	r0, r0, r0, lsl r0
 610:	0000000c 	andeq	r0, r0, ip
 614:	ffffffff 			; <UNDEFINED> instruction: 0xffffffff
 618:	7c020001 	stcvc	0, cr0, [r2], {1}
 61c:	000d0c0e 	andeq	r0, sp, lr, lsl #24
 620:	00000018 	andeq	r0, r0, r8, lsl r0
 624:	00000610 	andeq	r0, r0, r0, lsl r6
 628:	10002078 	andne	r2, r0, r8, ror r0
 62c:	000000dc 	ldrdeq	r0, [r0], -ip
 630:	84100e42 	ldrhi	r0, [r0], #-3650	; 0xfffff1be
 634:	86038504 	strhi	r8, [r3], -r4, lsl #10
 638:	00018e02 	andeq	r8, r1, r2, lsl #28
 63c:	0000000c 	andeq	r0, r0, ip
 640:	ffffffff 			; <UNDEFINED> instruction: 0xffffffff
 644:	7c020001 	stcvc	0, cr0, [r2], {1}
 648:	000d0c0e 	andeq	r0, sp, lr, lsl #24
 64c:	0000001c 	andeq	r0, r0, ip, lsl r0
 650:	0000063c 	andeq	r0, r0, ip, lsr r6
 654:	10002154 	andne	r2, r0, r4, asr r1
 658:	00000108 	andeq	r0, r0, r8, lsl #2
 65c:	84180e43 	ldrhi	r0, [r8], #-3651	; 0xfffff1bd
 660:	86058506 	strhi	r8, [r5], -r6, lsl #10
 664:	88038704 	stmdahi	r3, {r2, r8, r9, sl, pc}
 668:	00018e02 	andeq	r8, r1, r2, lsl #28
 66c:	00000018 	andeq	r0, r0, r8, lsl r0
 670:	0000063c 	andeq	r0, r0, ip, lsr r6
 674:	1000225c 	andne	r2, r0, ip, asr r2
 678:	00000078 	andeq	r0, r0, r8, ror r0
 67c:	83100e41 	tsthi	r0, #1040	; 0x410
 680:	85038404 	strhi	r8, [r3, #-1028]	; 0xfffffbfc
 684:	00018e02 	andeq	r8, r1, r2, lsl #28
 688:	0000000c 	andeq	r0, r0, ip
 68c:	0000063c 	andeq	r0, r0, ip, lsr r6
 690:	00000000 	andeq	r0, r0, r0
 694:	00000024 	andeq	r0, r0, r4, lsr #32
 698:	0000000c 	andeq	r0, r0, ip
 69c:	ffffffff 			; <UNDEFINED> instruction: 0xffffffff
 6a0:	7c020001 	stcvc	0, cr0, [r2], {1}
 6a4:	000d0c0e 	andeq	r0, sp, lr, lsl #24
 6a8:	00000014 	andeq	r0, r0, r4, lsl r0
 6ac:	00000698 	muleq	r0, r8, r6
 6b0:	100022d4 	ldrdne	r2, [r0], -r4
 6b4:	00000048 	andeq	r0, r0, r8, asr #32
 6b8:	84080e42 	strhi	r0, [r8], #-3650	; 0xfffff1be
 6bc:	00018e02 	andeq	r8, r1, r2, lsl #28
 6c0:	0000000c 	andeq	r0, r0, ip
 6c4:	00000698 	muleq	r0, r8, r6
 6c8:	1000231c 	andne	r2, r0, ip, lsl r3
 6cc:	0000000c 	andeq	r0, r0, ip
 6d0:	00000014 	andeq	r0, r0, r4, lsl r0
 6d4:	00000698 	muleq	r0, r8, r6
 6d8:	00000000 	andeq	r0, r0, r0
 6dc:	00000018 	andeq	r0, r0, r8, lsl r0
 6e0:	83080e41 	movwhi	r0, #36417	; 0x8e41
 6e4:	00018e02 	andeq	r8, r1, r2, lsl #28
 6e8:	00000014 	andeq	r0, r0, r4, lsl r0
 6ec:	00000698 	muleq	r0, r8, r6
 6f0:	00000000 	andeq	r0, r0, r0
 6f4:	00000018 	andeq	r0, r0, r8, lsl r0
 6f8:	83080e41 	movwhi	r0, #36417	; 0x8e41
 6fc:	00018e02 	andeq	r8, r1, r2, lsl #28
 700:	00000018 	andeq	r0, r0, r8, lsl r0
 704:	00000698 	muleq	r0, r8, r6
 708:	10002328 	andne	r2, r0, r8, lsr #6
 70c:	0000002c 	andeq	r0, r0, ip, lsr #32
 710:	84100e41 	ldrhi	r0, [r0], #-3649	; 0xfffff1bf
 714:	86038504 	strhi	r8, [r3], -r4, lsl #10
 718:	00018e02 	andeq	r8, r1, r2, lsl #28
 71c:	0000000c 	andeq	r0, r0, ip
 720:	00000698 	muleq	r0, r8, r6
 724:	00000000 	andeq	r0, r0, r0
 728:	0000000c 	andeq	r0, r0, ip
 72c:	0000000c 	andeq	r0, r0, ip
 730:	00000698 	muleq	r0, r8, r6
 734:	10002354 	andne	r2, r0, r4, asr r3
 738:	0000000c 	andeq	r0, r0, ip
 73c:	0000000c 	andeq	r0, r0, ip
 740:	00000698 	muleq	r0, r8, r6
 744:	10002360 	andne	r2, r0, r0, ror #6
 748:	0000000c 	andeq	r0, r0, ip
 74c:	0000000c 	andeq	r0, r0, ip
 750:	00000698 	muleq	r0, r8, r6
 754:	1000236c 	andne	r2, r0, ip, ror #6
 758:	0000000c 	andeq	r0, r0, ip
 75c:	0000000c 	andeq	r0, r0, ip
 760:	00000698 	muleq	r0, r8, r6
 764:	10002378 	andne	r2, r0, r8, ror r3
 768:	0000000c 	andeq	r0, r0, ip
 76c:	0000001c 	andeq	r0, r0, ip, lsl r0
 770:	00000698 	muleq	r0, r8, r6
 774:	10002384 	andne	r2, r0, r4, lsl #7
 778:	00000070 	andeq	r0, r0, r0, ror r0
 77c:	84080e41 	strhi	r0, [r8], #-3649	; 0xfffff1bf
 780:	47018e02 	strmi	r8, [r1, -r2, lsl #28]
 784:	0ec4ce0a 	cdpeq	14, 12, cr12, cr4, cr10, {0}
 788:	000b4200 	andeq	r4, fp, r0, lsl #4
 78c:	0000001c 	andeq	r0, r0, ip, lsl r0
 790:	00000698 	muleq	r0, r8, r6
 794:	100023f4 	strdne	r2, [r0], -r4
 798:	0000008c 	andeq	r0, r0, ip, lsl #1
 79c:	83180e41 	tsthi	r8, #1040	; 0x410
 7a0:	85058406 	strhi	r8, [r5, #-1030]	; 0xfffffbfa
 7a4:	87038604 	strhi	r8, [r3, -r4, lsl #12]
 7a8:	00018e02 	andeq	r8, r1, r2, lsl #28
 7ac:	00000018 	andeq	r0, r0, r8, lsl r0
 7b0:	00000698 	muleq	r0, r8, r6
 7b4:	00000000 	andeq	r0, r0, r0
 7b8:	0000001c 	andeq	r0, r0, ip, lsl r0
 7bc:	83080e41 	movwhi	r0, #36417	; 0x8e41
 7c0:	47018e02 	strmi	r8, [r1, -r2, lsl #28]
 7c4:	000ec3ce 	andeq	ip, lr, lr, asr #7
 7c8:	00000018 	andeq	r0, r0, r8, lsl r0
 7cc:	00000698 	muleq	r0, r8, r6
 7d0:	00000000 	andeq	r0, r0, r0
 7d4:	0000001c 	andeq	r0, r0, ip, lsl r0
 7d8:	83080e41 	movwhi	r0, #36417	; 0x8e41
 7dc:	47018e02 	strmi	r8, [r1, -r2, lsl #28]
 7e0:	000ec3ce 	andeq	ip, lr, lr, asr #7
 7e4:	0000000c 	andeq	r0, r0, ip
 7e8:	ffffffff 			; <UNDEFINED> instruction: 0xffffffff
 7ec:	7c020001 	stcvc	0, cr0, [r2], {1}
 7f0:	000d0c0e 	andeq	r0, sp, lr, lsl #24
 7f4:	0000001c 	andeq	r0, r0, ip, lsl r0
 7f8:	000007e4 	andeq	r0, r0, r4, ror #15
 7fc:	00000000 	andeq	r0, r0, r0
 800:	0000003a 	andeq	r0, r0, sl, lsr r0
 804:	84180e42 	ldrhi	r0, [r8], #-3650	; 0xfffff1be
 808:	86058506 	strhi	r8, [r5], -r6, lsl #10
 80c:	88038704 	stmdahi	r3, {r2, r8, r9, sl, pc}
 810:	00018e02 	andeq	r8, r1, r2, lsl #28
 814:	00000020 	andeq	r0, r0, r0, lsr #32
 818:	000007e4 	andeq	r0, r0, r4, ror #15
 81c:	10002480 	andne	r2, r0, r0, lsl #9
 820:	0000003e 	andeq	r0, r0, lr, lsr r0
 824:	83200e42 			; <UNDEFINED> instruction: 0x83200e42
 828:	85078408 	strhi	r8, [r7, #-1032]	; 0xfffffbf8
 82c:	87058606 	strhi	r8, [r5, -r6, lsl #12]
 830:	89038804 	stmdbhi	r3, {r2, fp, pc}
 834:	00018e02 	andeq	r8, r1, r2, lsl #28
 838:	0000000c 	andeq	r0, r0, ip
 83c:	ffffffff 			; <UNDEFINED> instruction: 0xffffffff
 840:	7c020001 	stcvc	0, cr0, [r2], {1}
 844:	000d0c0e 	andeq	r0, sp, lr, lsl #24
 848:	0000000c 	andeq	r0, r0, ip
 84c:	00000838 	andeq	r0, r0, r8, lsr r8
 850:	00000000 	andeq	r0, r0, r0
 854:	00000002 	andeq	r0, r0, r2
 858:	0000000c 	andeq	r0, r0, ip
 85c:	00000838 	andeq	r0, r0, r8, lsr r8
 860:	100024be 			; <UNDEFINED> instruction: 0x100024be
 864:	00000002 	andeq	r0, r0, r2
 868:	0000000c 	andeq	r0, r0, ip
 86c:	00000838 	andeq	r0, r0, r8, lsr r8
 870:	00000000 	andeq	r0, r0, r0
 874:	00000002 	andeq	r0, r0, r2
 878:	0000000c 	andeq	r0, r0, ip
 87c:	00000838 	andeq	r0, r0, r8, lsr r8
 880:	00000000 	andeq	r0, r0, r0
 884:	00000002 	andeq	r0, r0, r2
 888:	0000000c 	andeq	r0, r0, ip
 88c:	00000838 	andeq	r0, r0, r8, lsr r8
 890:	00000000 	andeq	r0, r0, r0
 894:	00000002 	andeq	r0, r0, r2
 898:	0000000c 	andeq	r0, r0, ip
 89c:	00000838 	andeq	r0, r0, r8, lsr r8
 8a0:	100024c0 	andne	r2, r0, r0, asr #9
 8a4:	00000002 	andeq	r0, r0, r2
 8a8:	0000000c 	andeq	r0, r0, ip
 8ac:	00000838 	andeq	r0, r0, r8, lsr r8
 8b0:	00000000 	andeq	r0, r0, r0
 8b4:	00000004 	andeq	r0, r0, r4
 8b8:	0000000c 	andeq	r0, r0, ip
 8bc:	00000838 	andeq	r0, r0, r8, lsr r8
 8c0:	00000000 	andeq	r0, r0, r0
 8c4:	00000004 	andeq	r0, r0, r4
 8c8:	0000000c 	andeq	r0, r0, ip
 8cc:	00000838 	andeq	r0, r0, r8, lsr r8
 8d0:	00000000 	andeq	r0, r0, r0
 8d4:	00000002 	andeq	r0, r0, r2
 8d8:	0000000c 	andeq	r0, r0, ip
 8dc:	00000838 	andeq	r0, r0, r8, lsr r8
 8e0:	100024c2 	andne	r2, r0, r2, asr #9
 8e4:	00000002 	andeq	r0, r0, r2
 8e8:	0000000c 	andeq	r0, r0, ip
 8ec:	ffffffff 			; <UNDEFINED> instruction: 0xffffffff
 8f0:	7c020001 	stcvc	0, cr0, [r2], {1}
 8f4:	000d0c0e 	andeq	r0, sp, lr, lsl #24
 8f8:	00000020 	andeq	r0, r0, r0, lsr #32
 8fc:	000008e8 	andeq	r0, r0, r8, ror #17
 900:	100024c4 	andne	r2, r0, r4, asr #9
 904:	0000004a 	andeq	r0, r0, sl, asr #32
 908:	84100e41 	ldrhi	r0, [r0], #-3649	; 0xfffff1bf
 90c:	86038504 	strhi	r8, [r3], -r4, lsl #10
 910:	44018e02 	strmi	r8, [r1], #-3586	; 0xfffff1fe
 914:	0e5f680e 	cdpeq	8, 5, cr6, cr15, cr14, {0}
 918:	00000010 	andeq	r0, r0, r0, lsl r0
 91c:	00000020 	andeq	r0, r0, r0, lsr #32
 920:	000008e8 	andeq	r0, r0, r8, ror #17
 924:	10002510 	andne	r2, r0, r0, lsl r5
 928:	00000080 	andeq	r0, r0, r0, lsl #1
 92c:	84180e42 	ldrhi	r0, [r8], #-3650	; 0xfffff1be
 930:	86038504 	strhi	r8, [r3], -r4, lsl #10
 934:	4b018e02 	blmi	64144 <__HEAP_SIZE+0x63144>
 938:	41100e0a 	tstmi	r0, sl, lsl #28
 93c:	0000000b 	andeq	r0, r0, fp
 940:	0000000c 	andeq	r0, r0, ip
 944:	ffffffff 			; <UNDEFINED> instruction: 0xffffffff
 948:	7c020001 	stcvc	0, cr0, [r2], {1}
 94c:	000d0c0e 	andeq	r0, sp, lr, lsl #24
 950:	00000024 	andeq	r0, r0, r4, lsr #32
 954:	00000940 	andeq	r0, r0, r0, asr #18
 958:	10002590 	mulne	r0, r0, r5
 95c:	00000098 	muleq	r0, r8, r0
 960:	84180e41 	ldrhi	r0, [r8], #-3649	; 0xfffff1bf
 964:	8e028503 	cfsh32hi	mvfx8, mvfx2, #3
 968:	0e0a5201 	cdpeq	2, 0, cr5, cr10, cr1, {0}
 96c:	c5ce420c 	strbgt	r4, [lr, #524]	; 0x20c
 970:	42000ec4 	andmi	r0, r0, #196, 28	; 0xc40
 974:	0c0e710b 	stfeqs	f7, [lr], {11}
 978:	0000000c 	andeq	r0, r0, ip
 97c:	ffffffff 			; <UNDEFINED> instruction: 0xffffffff
 980:	7c020001 	stcvc	0, cr0, [r2], {1}
 984:	000d0c0e 	andeq	r0, sp, lr, lsl #24
 988:	00000018 	andeq	r0, r0, r8, lsl r0
 98c:	00000978 	andeq	r0, r0, r8, ror r9
 990:	10002628 	andne	r2, r0, r8, lsr #12
 994:	00000040 	andeq	r0, r0, r0, asr #32
 998:	84100e41 	ldrhi	r0, [r0], #-3649	; 0xfffff1bf
 99c:	86038504 	strhi	r8, [r3], -r4, lsl #10
 9a0:	00018e02 	andeq	r8, r1, r2, lsl #28
 9a4:	0000001c 	andeq	r0, r0, ip, lsl r0
 9a8:	00000978 	andeq	r0, r0, r8, ror r9
 9ac:	10002668 	andne	r2, r0, r8, ror #12
 9b0:	000000e8 	andeq	r0, r0, r8, ror #1
 9b4:	84180e42 	ldrhi	r0, [r8], #-3650	; 0xfffff1be
 9b8:	86058506 	strhi	r8, [r5], -r6, lsl #10
 9bc:	88038704 	stmdahi	r3, {r2, r8, r9, sl, pc}
 9c0:	00018e02 	andeq	r8, r1, r2, lsl #28
 9c4:	0000000c 	andeq	r0, r0, ip
 9c8:	ffffffff 			; <UNDEFINED> instruction: 0xffffffff
 9cc:	7c020001 	stcvc	0, cr0, [r2], {1}
 9d0:	000d0c0e 	andeq	r0, sp, lr, lsl #24
 9d4:	00000018 	andeq	r0, r0, r8, lsl r0
 9d8:	000009c4 	andeq	r0, r0, r4, asr #19
 9dc:	10002750 	andne	r2, r0, r0, asr r7
 9e0:	00000020 	andeq	r0, r0, r0, lsr #32
 9e4:	83100e41 	tsthi	r0, #1040	; 0x410
 9e8:	85038404 	strhi	r8, [r3, #-1028]	; 0xfffffbfc
 9ec:	00018e02 	andeq	r8, r1, r2, lsl #28
 9f0:	0000000c 	andeq	r0, r0, ip
 9f4:	ffffffff 			; <UNDEFINED> instruction: 0xffffffff
 9f8:	7c020001 	stcvc	0, cr0, [r2], {1}
 9fc:	000d0c0e 	andeq	r0, sp, lr, lsl #24
 a00:	00000014 	andeq	r0, r0, r4, lsl r0
 a04:	000009f0 	strdeq	r0, [r0], -r0	; <UNPREDICTABLE>
 a08:	10002770 	andne	r2, r0, r0, ror r7
 a0c:	00000022 	andeq	r0, r0, r2, lsr #32
 a10:	84080e41 	strhi	r0, [r8], #-3649	; 0xfffff1bf
 a14:	00018e02 	andeq	r8, r1, r2, lsl #28
 a18:	0000000c 	andeq	r0, r0, ip
 a1c:	000009f0 	strdeq	r0, [r0], -r0	; <UNPREDICTABLE>
 a20:	00000000 	andeq	r0, r0, r0
 a24:	00000004 	andeq	r0, r0, r4
 a28:	00000024 	andeq	r0, r0, r4, lsr #32
 a2c:	000009f0 	strdeq	r0, [r0], -r0	; <UNPREDICTABLE>
 a30:	10002792 	mulne	r0, r2, r7
 a34:	00000038 	andeq	r0, r0, r8, lsr r0
 a38:	84180e42 	ldrhi	r0, [r8], #-3650	; 0xfffff1be
 a3c:	86058506 	strhi	r8, [r5], -r6, lsl #10
 a40:	88038704 	stmdahi	r3, {r2, r8, r9, sl, pc}
 a44:	58018e02 	stmdapl	r1, {r1, r9, sl, fp, pc}
 a48:	c6c7c8ce 	strbgt	ip, [r7], lr, asr #17
 a4c:	000ec4c5 	andeq	ip, lr, r5, asr #9
 a50:	00000014 	andeq	r0, r0, r4, lsl r0
 a54:	000009f0 	strdeq	r0, [r0], -r0	; <UNPREDICTABLE>
 a58:	100027ca 	andne	r2, r0, sl, asr #15
 a5c:	00000024 	andeq	r0, r0, r4, lsr #32
 a60:	84080e41 	strhi	r0, [r8], #-3649	; 0xfffff1bf
 a64:	00018e02 	andeq	r8, r1, r2, lsl #28
 a68:	0000000c 	andeq	r0, r0, ip
 a6c:	000009f0 	strdeq	r0, [r0], -r0	; <UNPREDICTABLE>
 a70:	100027ee 	andne	r2, r0, lr, ror #15
 a74:	00000008 	andeq	r0, r0, r8
 a78:	0000000c 	andeq	r0, r0, ip
 a7c:	ffffffff 			; <UNDEFINED> instruction: 0xffffffff
 a80:	7c020001 	stcvc	0, cr0, [r2], {1}
 a84:	000d0c0e 	andeq	r0, sp, lr, lsl #24
 a88:	00000018 	andeq	r0, r0, r8, lsl r0
 a8c:	00000a78 	andeq	r0, r0, r8, ror sl
 a90:	100027f8 	strdne	r2, [r0], -r8
 a94:	00000024 	andeq	r0, r0, r4, lsr #32
 a98:	83100e41 	tsthi	r0, #1040	; 0x410
 a9c:	85038404 	strhi	r8, [r3, #-1028]	; 0xfffffbfc
 aa0:	00018e02 	andeq	r8, r1, r2, lsl #28
 aa4:	0000000c 	andeq	r0, r0, ip
 aa8:	ffffffff 			; <UNDEFINED> instruction: 0xffffffff
 aac:	7c020001 	stcvc	0, cr0, [r2], {1}
 ab0:	000d0c0e 	andeq	r0, sp, lr, lsl #24
 ab4:	00000018 	andeq	r0, r0, r8, lsl r0
 ab8:	00000aa4 	andeq	r0, r0, r4, lsr #21
 abc:	1000281c 	andne	r2, r0, ip, lsl r8
 ac0:	00000020 	andeq	r0, r0, r0, lsr #32
 ac4:	83100e41 	tsthi	r0, #1040	; 0x410
 ac8:	85038404 	strhi	r8, [r3, #-1028]	; 0xfffffbfc
 acc:	00018e02 	andeq	r8, r1, r2, lsl #28
 ad0:	0000000c 	andeq	r0, r0, ip
 ad4:	ffffffff 			; <UNDEFINED> instruction: 0xffffffff
 ad8:	7c020001 	stcvc	0, cr0, [r2], {1}
 adc:	000d0c0e 	andeq	r0, sp, lr, lsl #24
 ae0:	00000018 	andeq	r0, r0, r8, lsl r0
 ae4:	00000ad0 	ldrdeq	r0, [r0], -r0	; <UNPREDICTABLE>
 ae8:	1000283c 	andne	r2, r0, ip, lsr r8
 aec:	00000024 	andeq	r0, r0, r4, lsr #32
 af0:	83100e41 	tsthi	r0, #1040	; 0x410
 af4:	85038404 	strhi	r8, [r3, #-1028]	; 0xfffffbfc
 af8:	00018e02 	andeq	r8, r1, r2, lsl #28
 afc:	0000000c 	andeq	r0, r0, ip
 b00:	ffffffff 			; <UNDEFINED> instruction: 0xffffffff
 b04:	7c020001 	stcvc	0, cr0, [r2], {1}
 b08:	000d0c0e 	andeq	r0, sp, lr, lsl #24
 b0c:	00000018 	andeq	r0, r0, r8, lsl r0
 b10:	00000afc 	strdeq	r0, [r0], -ip
 b14:	10002860 	andne	r2, r0, r0, ror #16
 b18:	00000020 	andeq	r0, r0, r0, lsr #32
 b1c:	83100e41 	tsthi	r0, #1040	; 0x410
 b20:	85038404 	strhi	r8, [r3, #-1028]	; 0xfffffbfc
 b24:	00018e02 	andeq	r8, r1, r2, lsl #28
 b28:	0000000c 	andeq	r0, r0, ip
 b2c:	ffffffff 			; <UNDEFINED> instruction: 0xffffffff
 b30:	7c020001 	stcvc	0, cr0, [r2], {1}
 b34:	000d0c0e 	andeq	r0, sp, lr, lsl #24
 b38:	00000018 	andeq	r0, r0, r8, lsl r0
 b3c:	00000b28 	andeq	r0, r0, r8, lsr #22
 b40:	10002880 	andne	r2, r0, r0, lsl #17
 b44:	00000024 	andeq	r0, r0, r4, lsr #32
 b48:	83100e41 	tsthi	r0, #1040	; 0x410
 b4c:	85038404 	strhi	r8, [r3, #-1028]	; 0xfffffbfc
 b50:	00018e02 	andeq	r8, r1, r2, lsl #28
 b54:	0000000c 	andeq	r0, r0, ip
 b58:	ffffffff 			; <UNDEFINED> instruction: 0xffffffff
 b5c:	7c020001 	stcvc	0, cr0, [r2], {1}
 b60:	000d0c0e 	andeq	r0, sp, lr, lsl #24
 b64:	0000000c 	andeq	r0, r0, ip
 b68:	00000b54 	andeq	r0, r0, r4, asr fp
 b6c:	100028a4 	andne	r2, r0, r4, lsr #17
 b70:	0000000c 	andeq	r0, r0, ip
 b74:	0000000c 	andeq	r0, r0, ip
 b78:	00000b54 	andeq	r0, r0, r4, asr fp
 b7c:	100028b0 			; <UNDEFINED> instruction: 0x100028b0
 b80:	0000000c 	andeq	r0, r0, ip
 b84:	0000000c 	andeq	r0, r0, ip
 b88:	ffffffff 			; <UNDEFINED> instruction: 0xffffffff
 b8c:	7c020001 	stcvc	0, cr0, [r2], {1}
 b90:	000d0c0e 	andeq	r0, sp, lr, lsl #24
 b94:	00000018 	andeq	r0, r0, r8, lsl r0
 b98:	00000b84 	andeq	r0, r0, r4, lsl #23
 b9c:	100028bc 			; <UNDEFINED> instruction: 0x100028bc
 ba0:	00000024 	andeq	r0, r0, r4, lsr #32
 ba4:	83100e41 	tsthi	r0, #1040	; 0x410
 ba8:	85038404 	strhi	r8, [r3, #-1028]	; 0xfffffbfc
 bac:	00018e02 	andeq	r8, r1, r2, lsl #28
 bb0:	0000000c 	andeq	r0, r0, ip
 bb4:	ffffffff 			; <UNDEFINED> instruction: 0xffffffff
 bb8:	7c020001 	stcvc	0, cr0, [r2], {1}
 bbc:	000d0c0e 	andeq	r0, sp, lr, lsl #24
 bc0:	00000020 	andeq	r0, r0, r0, lsr #32
 bc4:	00000bb0 			; <UNDEFINED> instruction: 0x00000bb0
 bc8:	00000000 	andeq	r0, r0, r0
 bcc:	0000001a 	andeq	r0, r0, sl, lsl r0
 bd0:	83100e41 	tsthi	r0, #1040	; 0x410
 bd4:	85038404 	strhi	r8, [r3, #-1028]	; 0xfffffbfc
 bd8:	4a018e02 	bmi	643e8 <__HEAP_SIZE+0x633e8>
 bdc:	c3c4c5ce 	bicgt	ip, r4, #864026624	; 0x33800000
 be0:	0000000e 	andeq	r0, r0, lr
 be4:	00000024 	andeq	r0, r0, r4, lsr #32
 be8:	00000bb0 			; <UNDEFINED> instruction: 0x00000bb0
 bec:	00000000 	andeq	r0, r0, r0
 bf0:	000000b8 	strheq	r0, [r0], -r8
 bf4:	84100e44 	ldrhi	r0, [r0], #-3652	; 0xfffff1bc
 bf8:	86038504 	strhi	r8, [r3], -r4, lsl #10
 bfc:	7f018e02 	svcvc	0x00018e02
 c00:	c5c6ce0a 	strbgt	ip, [r6, #3594]	; 0xe0a
 c04:	42000ec4 	andmi	r0, r0, #196, 28	; 0xc40
 c08:	0000000b 	andeq	r0, r0, fp
 c0c:	0000000c 	andeq	r0, r0, ip
 c10:	ffffffff 			; <UNDEFINED> instruction: 0xffffffff
 c14:	7c020001 	stcvc	0, cr0, [r2], {1}
 c18:	000d0c0e 	andeq	r0, sp, lr, lsl #24
 c1c:	0000000c 	andeq	r0, r0, ip
 c20:	00000c0c 	andeq	r0, r0, ip, lsl #24
 c24:	100028e0 	andne	r2, r0, r0, ror #17
 c28:	00000010 	andeq	r0, r0, r0, lsl r0
 c2c:	0000000c 	andeq	r0, r0, ip
 c30:	ffffffff 			; <UNDEFINED> instruction: 0xffffffff
 c34:	7c020001 	stcvc	0, cr0, [r2], {1}
 c38:	000d0c0e 	andeq	r0, sp, lr, lsl #24
 c3c:	0000000c 	andeq	r0, r0, ip
 c40:	00000c2c 	andeq	r0, r0, ip, lsr #24
 c44:	100028f0 	strdne	r2, [r0], -r0
 c48:	00000010 	andeq	r0, r0, r0, lsl r0
 c4c:	0000000c 	andeq	r0, r0, ip
 c50:	ffffffff 			; <UNDEFINED> instruction: 0xffffffff
 c54:	7c020001 	stcvc	0, cr0, [r2], {1}
 c58:	000d0c0e 	andeq	r0, sp, lr, lsl #24
 c5c:	0000000c 	andeq	r0, r0, ip
 c60:	00000c4c 	andeq	r0, r0, ip, asr #24
 c64:	10002900 	andne	r2, r0, r0, lsl #18
 c68:	00000010 	andeq	r0, r0, r0, lsl r0
 c6c:	0000000c 	andeq	r0, r0, ip
 c70:	ffffffff 			; <UNDEFINED> instruction: 0xffffffff
 c74:	7c020001 	stcvc	0, cr0, [r2], {1}
 c78:	000d0c0e 	andeq	r0, sp, lr, lsl #24
 c7c:	0000000c 	andeq	r0, r0, ip
 c80:	00000c6c 	andeq	r0, r0, ip, ror #24
 c84:	10002910 	andne	r2, r0, r0, lsl r9
 c88:	00000010 	andeq	r0, r0, r0, lsl r0
 c8c:	0000000c 	andeq	r0, r0, ip
 c90:	ffffffff 			; <UNDEFINED> instruction: 0xffffffff
 c94:	7c020001 	stcvc	0, cr0, [r2], {1}
 c98:	000d0c0e 	andeq	r0, sp, lr, lsl #24
 c9c:	0000000c 	andeq	r0, r0, ip
 ca0:	00000c8c 	andeq	r0, r0, ip, lsl #25
 ca4:	10002920 	andne	r2, r0, r0, lsr #18
 ca8:	00000010 	andeq	r0, r0, r0, lsl r0
 cac:	0000000c 	andeq	r0, r0, ip
 cb0:	ffffffff 			; <UNDEFINED> instruction: 0xffffffff
 cb4:	7c020001 	stcvc	0, cr0, [r2], {1}
 cb8:	000d0c0e 	andeq	r0, sp, lr, lsl #24
 cbc:	0000000c 	andeq	r0, r0, ip
 cc0:	00000cac 	andeq	r0, r0, ip, lsr #25
 cc4:	10002930 	andne	r2, r0, r0, lsr r9
 cc8:	00000020 	andeq	r0, r0, r0, lsr #32
 ccc:	0000000c 	andeq	r0, r0, ip
 cd0:	ffffffff 			; <UNDEFINED> instruction: 0xffffffff
 cd4:	7c020001 	stcvc	0, cr0, [r2], {1}
 cd8:	000d0c0e 	andeq	r0, sp, lr, lsl #24
 cdc:	0000000c 	andeq	r0, r0, ip
 ce0:	00000ccc 	andeq	r0, r0, ip, asr #25
 ce4:	10002950 	andne	r2, r0, r0, asr r9
 ce8:	00000010 	andeq	r0, r0, r0, lsl r0
 cec:	0000000c 	andeq	r0, r0, ip
 cf0:	ffffffff 			; <UNDEFINED> instruction: 0xffffffff
 cf4:	7c020001 	stcvc	0, cr0, [r2], {1}
 cf8:	000d0c0e 	andeq	r0, sp, lr, lsl #24
 cfc:	0000001c 	andeq	r0, r0, ip, lsl r0
 d00:	00000cec 	andeq	r0, r0, ip, ror #25
 d04:	10002960 	andne	r2, r0, r0, ror #18
 d08:	00000282 	andeq	r0, r0, r2, lsl #5
 d0c:	0c0e470a 	stceq	7, cr4, [lr], {10}
 d10:	02850384 	addeq	r0, r5, #132, 6	; 0x10000002
 d14:	3a03018e 	bcc	c1354 <__HEAP_SIZE+0xc0354>
 d18:	00000b01 	andeq	r0, r0, r1, lsl #22
 d1c:	00000018 	andeq	r0, r0, r8, lsl r0
 d20:	00000cec 	andeq	r0, r0, ip, ror #25
 d24:	10002be4 	andne	r2, r0, r4, ror #23
 d28:	0000001e 	andeq	r0, r0, lr, lsl r0
 d2c:	0c0e460a 	stceq	6, cr4, [lr], {10}
 d30:	02850384 	addeq	r0, r5, #132, 6	; 0x10000002
 d34:	0b49018e 	bleq	1241374 <__RAM_SIZE+0x1141374>
 d38:	00000018 	andeq	r0, r0, r8, lsl r0
 d3c:	00000cec 	andeq	r0, r0, ip, ror #25
 d40:	10002c04 	andne	r2, r0, r4, lsl #24
 d44:	00000022 	andeq	r0, r0, r2, lsr #32
 d48:	0c0e460a 	stceq	6, cr4, [lr], {10}
 d4c:	02850384 	addeq	r0, r5, #132, 6	; 0x10000002
 d50:	0b4b018e 	bleq	12c1390 <__RAM_SIZE+0x11c1390>
 d54:	00000018 	andeq	r0, r0, r8, lsl r0
 d58:	00000cec 	andeq	r0, r0, ip, ror #25
 d5c:	10002c28 	andne	r2, r0, r8, lsr #24
 d60:	00000042 	andeq	r0, r0, r2, asr #32
 d64:	0c0e5a0a 			; <UNDEFINED> instruction: 0x0c0e5a0a
 d68:	02850384 	addeq	r0, r5, #132, 6	; 0x10000002
 d6c:	0b47018e 	bleq	11c13ac <__RAM_SIZE+0x10c13ac>
 d70:	00000024 	andeq	r0, r0, r4, lsr #32
 d74:	00000cec 	andeq	r0, r0, ip, ror #25
 d78:	10002c6c 	andne	r2, r0, ip, ror #24
 d7c:	0000006a 	andeq	r0, r0, sl, rrx
 d80:	0e450a0a 	vmlaeq.f32	s1, s10, s20
 d84:	8503840c 	strhi	r8, [r3, #-1036]	; 0xfffffbf4
 d88:	43018e02 	movwmi	r8, #7682	; 0x1e02
 d8c:	0c0e450b 	cfstr32eq	mvfx4, [lr], {11}
 d90:	02850384 	addeq	r0, r5, #132, 6	; 0x10000002
 d94:	0b68018e 	bleq	1a013d4 <__RAM_SIZE+0x19013d4>
 d98:	0000000c 	andeq	r0, r0, ip
 d9c:	ffffffff 			; <UNDEFINED> instruction: 0xffffffff
 da0:	7c020001 	stcvc	0, cr0, [r2], {1}
 da4:	000d0c0e 	andeq	r0, sp, lr, lsl #24
 da8:	0000001c 	andeq	r0, r0, ip, lsl r0
 dac:	00000d98 	muleq	r0, r8, sp
 db0:	10002cd8 	ldrdne	r2, [r0], -r8
 db4:	00000254 	andeq	r0, r0, r4, asr r2
 db8:	100e410a 	andne	r4, lr, sl, lsl #2
 dbc:	03850484 	orreq	r0, r5, #132, 8	; 0x84000000
 dc0:	018e0286 	orreq	r0, lr, r6, lsl #5
 dc4:	0b012903 	bleq	4b1d8 <__HEAP_SIZE+0x4a1d8>
 dc8:	0000001c 	andeq	r0, r0, ip, lsl r0
 dcc:	00000d98 	muleq	r0, r8, sp
 dd0:	10002f2c 	andne	r2, r0, ip, lsr #30
 dd4:	000001d0 	ldrdeq	r0, [r0], -r0	; <UNPREDICTABLE>
 dd8:	100e410a 	andne	r4, lr, sl, lsl #2
 ddc:	03850484 	orreq	r0, r5, #132, 8	; 0x84000000
 de0:	018e0286 	orreq	r0, lr, r6, lsl #5
 de4:	000be702 	andeq	lr, fp, r2, lsl #14
 de8:	0000000c 	andeq	r0, r0, ip
 dec:	ffffffff 			; <UNDEFINED> instruction: 0xffffffff
 df0:	7c020001 	stcvc	0, cr0, [r2], {1}
 df4:	000d0c0e 	andeq	r0, sp, lr, lsl #24
 df8:	0000001c 	andeq	r0, r0, ip, lsl r0
 dfc:	00000de8 	andeq	r0, r0, r8, ror #27
 e00:	100030fc 	strdne	r3, [r0], -ip
 e04:	0000008a 	andeq	r0, r0, sl, lsl #1
 e08:	040e4c0a 	streq	r4, [lr], #-3082	; 0xfffff3f6
 e0c:	0e410a4a 	vmlseq.f32	s1, s2, s20
 e10:	520b5b00 	andpl	r5, fp, #0, 22
 e14:	0b41000e 	bleq	1040e54 <__RAM_SIZE+0xf40e54>
 e18:	00000018 	andeq	r0, r0, r8, lsl r0
 e1c:	00000de8 	andeq	r0, r0, r8, ror #27
 e20:	10003188 	andne	r3, r0, r8, lsl #3
 e24:	00000020 	andeq	r0, r0, r0, lsr #32
 e28:	080e490a 	stmdaeq	lr, {r1, r3, r8, fp, lr}
 e2c:	018e0280 	orreq	r0, lr, r0, lsl #5
 e30:	00000b47 	andeq	r0, r0, r7, asr #22
 e34:	00000014 	andeq	r0, r0, r4, lsl r0
 e38:	00000de8 	andeq	r0, r0, r8, ror #27
 e3c:	100031a8 	andne	r3, r0, r8, lsr #3
 e40:	00000012 	andeq	r0, r0, r2, lsl r0
 e44:	080e420a 	stmdaeq	lr, {r1, r3, r9, lr}
 e48:	0b47028e 	bleq	11c1888 <__RAM_SIZE+0x10c1888>
 e4c:	00000014 	andeq	r0, r0, r4, lsl r0
 e50:	00000de8 	andeq	r0, r0, r8, ror #27
 e54:	100031bc 			; <UNDEFINED> instruction: 0x100031bc
 e58:	00000012 	andeq	r0, r0, r2, lsl r0
 e5c:	080e420a 	stmdaeq	lr, {r1, r3, r9, lr}
 e60:	0b47028e 	bleq	11c18a0 <__RAM_SIZE+0x10c18a0>
 e64:	00000014 	andeq	r0, r0, r4, lsl r0
 e68:	00000de8 	andeq	r0, r0, r8, ror #27
 e6c:	100031d0 	ldrdne	r3, [r0], -r0
 e70:	00000012 	andeq	r0, r0, r2, lsl r0
 e74:	080e420a 	stmdaeq	lr, {r1, r3, r9, lr}
 e78:	0b47028e 	bleq	11c18b8 <__RAM_SIZE+0x10c18b8>
 e7c:	00000014 	andeq	r0, r0, r4, lsl r0
 e80:	00000de8 	andeq	r0, r0, r8, ror #27
 e84:	100031e4 	andne	r3, r0, r4, ror #3
 e88:	00000012 	andeq	r0, r0, r2, lsl r0
 e8c:	080e420a 	stmdaeq	lr, {r1, r3, r9, lr}
 e90:	0b47028e 	bleq	11c18d0 <__RAM_SIZE+0x10c18d0>
 e94:	00000014 	andeq	r0, r0, r4, lsl r0
 e98:	00000de8 	andeq	r0, r0, r8, ror #27
 e9c:	100031f8 	strdne	r3, [r0], -r8
 ea0:	00000012 	andeq	r0, r0, r2, lsl r0
 ea4:	080e420a 	stmdaeq	lr, {r1, r3, r9, lr}
 ea8:	0b47028e 	bleq	11c18e8 <__RAM_SIZE+0x10c18e8>
 eac:	0000000c 	andeq	r0, r0, ip
 eb0:	ffffffff 			; <UNDEFINED> instruction: 0xffffffff
 eb4:	7c020001 	stcvc	0, cr0, [r2], {1}
 eb8:	000d0c0e 	andeq	r0, sp, lr, lsl #24
 ebc:	00000010 	andeq	r0, r0, r0, lsl r0
 ec0:	00000eac 	andeq	r0, r0, ip, lsr #29
 ec4:	1000320c 	andne	r3, r0, ip, lsl #4
 ec8:	0000004e 	andeq	r0, r0, lr, asr #32
 ecc:	000b670a 	andeq	r6, fp, sl, lsl #14
 ed0:	0000000c 	andeq	r0, r0, ip
 ed4:	ffffffff 			; <UNDEFINED> instruction: 0xffffffff
 ed8:	7c020001 	stcvc	0, cr0, [r2], {1}
 edc:	000d0c0e 	andeq	r0, sp, lr, lsl #24
 ee0:	00000010 	andeq	r0, r0, r0, lsl r0
 ee4:	00000ed0 	ldrdeq	r0, [r0], -r0	; <UNPREDICTABLE>
 ee8:	1000325c 	andne	r3, r0, ip, asr r2
 eec:	00000040 	andeq	r0, r0, r0, asr #32
 ef0:	000b600a 	andeq	r6, fp, sl
 ef4:	0000000c 	andeq	r0, r0, ip
 ef8:	ffffffff 			; <UNDEFINED> instruction: 0xffffffff
 efc:	7c020001 	stcvc	0, cr0, [r2], {1}
 f00:	000d0c0e 	andeq	r0, sp, lr, lsl #24
 f04:	00000018 	andeq	r0, r0, r8, lsl r0
 f08:	00000ef4 	strdeq	r0, [r0], -r4
 f0c:	1000329c 	mulne	r0, ip, r2
 f10:	00000030 	andeq	r0, r0, r0, lsr r0
 f14:	8e100e50 	mrchi	14, 0, r0, cr0, cr0, {2}
 f18:	0ece4703 	cdpeq	7, 12, cr4, cr14, cr3, {0}
 f1c:	00000010 	andeq	r0, r0, r0, lsl r0
 f20:	0000000c 	andeq	r0, r0, ip
 f24:	ffffffff 			; <UNDEFINED> instruction: 0xffffffff
 f28:	7c020001 	stcvc	0, cr0, [r2], {1}
 f2c:	000d0c0e 	andeq	r0, sp, lr, lsl #24
 f30:	00000024 	andeq	r0, r0, r4, lsr #32
 f34:	00000f20 	andeq	r0, r0, r0, lsr #30
 f38:	100032cc 	andne	r3, r0, ip, asr #5
 f3c:	000002ec 	andeq	r0, r0, ip, ror #5
 f40:	84240e42 	strthi	r0, [r4], #-3650	; 0xfffff1be
 f44:	86088509 	strhi	r8, [r8], -r9, lsl #10
 f48:	88068707 	stmdahi	r6, {r0, r1, r2, r8, r9, sl, pc}
 f4c:	8a048905 	bhi	123368 <__RAM_SIZE+0x23368>
 f50:	8e028b03 	vmlahi.f64	d8, d2, d3
 f54:	00000001 	andeq	r0, r0, r1

Disassembly of section .stab:

00000000 <.stab>:
   0:	00000001 	andeq	r0, r0, r1
   4:	000c0000 	andeq	r0, ip, r0
   8:	0000014d 	andeq	r0, r0, sp, asr #2
   c:	00000009 	andeq	r0, r0, r9
  10:	0000001e 	andeq	r0, r0, lr, lsl r0
  14:	00000000 	andeq	r0, r0, r0
  18:	00000038 	andeq	r0, r0, r8, lsr r0
  1c:	00000001 	andeq	r0, r0, r1
  20:	00000000 	andeq	r0, r0, r0
  24:	0000003f 	andeq	r0, r0, pc, lsr r0
  28:	0000001e 	andeq	r0, r0, lr, lsl r0
  2c:	00000000 	andeq	r0, r0, r0
  30:	0000006e 	andeq	r0, r0, lr, rrx
  34:	00000001 	andeq	r0, r0, r1
  38:	00000000 	andeq	r0, r0, r0
  3c:	00000075 	andeq	r0, r0, r5, ror r0
  40:	0000001e 	andeq	r0, r0, lr, lsl r0
  44:	00000000 	andeq	r0, r0, r0
  48:	000000a5 	andeq	r0, r0, r5, lsr #1
  4c:	00000001 	andeq	r0, r0, r1
  50:	00000000 	andeq	r0, r0, r0
  54:	000000ad 	andeq	r0, r0, sp, lsr #1
  58:	0000001e 	andeq	r0, r0, lr, lsl r0
  5c:	00000000 	andeq	r0, r0, r0
  60:	000000dc 	ldrdeq	r0, [r0], -ip
  64:	00000001 	andeq	r0, r0, r1
  68:	00000000 	andeq	r0, r0, r0
  6c:	000000e3 	andeq	r0, r0, r3, ror #1
  70:	0000001e 	andeq	r0, r0, lr, lsl r0
  74:	00000000 	andeq	r0, r0, r0
  78:	00000111 	andeq	r0, r0, r1, lsl r1
  7c:	00000001 	andeq	r0, r0, r1
  80:	00000000 	andeq	r0, r0, r0
  84:	00000117 	andeq	r0, r0, r7, lsl r1
  88:	0000001e 	andeq	r0, r0, lr, lsl r0
  8c:	00000000 	andeq	r0, r0, r0
  90:	00000146 	andeq	r0, r0, r6, asr #2
  94:	00000001 	andeq	r0, r0, r1
  98:	00000000 	andeq	r0, r0, r0

Disassembly of section .stabstr:

00000000 <.stabstr>:
   0:	6f6c6300 	svcvs	0x006c6300
   4:	632e6573 			; <UNDEFINED> instruction: 0x632e6573
   8:	6c635f00 	stclvs	15, cr5, [r3], #-0
   c:	2065736f 	rsbcs	r7, r5, pc, ror #6
  10:	6e207369 	cdpvs	3, 2, cr7, cr0, cr9, {3}
  14:	6920746f 	stmdbvs	r0!, {r0, r1, r2, r3, r5, r6, sl, ip, sp, lr}
  18:	656c706d 	strbvs	r7, [ip, #-109]!	; 0xffffff93
  1c:	746e656d 	strbtvc	r6, [lr], #-1389	; 0xfffffa93
  20:	61206465 			; <UNDEFINED> instruction: 0x61206465
  24:	7720646e 	strvc	r6, [r0, -lr, ror #8]!
  28:	206c6c69 	rsbcs	r6, ip, r9, ror #24
  2c:	61776c61 	cmnvs	r7, r1, ror #24
  30:	66207379 			; <UNDEFINED> instruction: 0x66207379
  34:	006c6961 	rsbeq	r6, ip, r1, ror #18
  38:	6f6c635f 	svcvs	0x006c635f
  3c:	5f006573 	svcpl	0x00006573
  40:	61747366 	cmnvs	r4, r6, ror #6
  44:	73692074 	cmnvc	r9, #116	; 0x74
  48:	746f6e20 	strbtvc	r6, [pc], #-3616	; 50 <__STACKSEAL_SIZE+0x50>
  4c:	706d6920 	rsbvc	r6, sp, r0, lsr #18
  50:	656d656c 	strbvs	r6, [sp, #-1388]!	; 0xfffffa94
  54:	6465746e 	strbtvs	r7, [r5], #-1134	; 0xfffffb92
  58:	646e6120 	strbtvs	r6, [lr], #-288	; 0xfffffee0
  5c:	6c697720 	stclvs	7, cr7, [r9], #-128	; 0xffffff80
  60:	6c61206c 	stclvs	0, cr2, [r1], #-432	; 0xfffffe50
  64:	73796177 	cmnvc	r9, #-1073741795	; 0xc000001d
  68:	69616620 	stmdbvs	r1!, {r5, r9, sl, sp, lr}^
  6c:	665f006c 	ldrbvs	r0, [pc], -ip, rrx
  70:	74617473 	strbtvc	r7, [r1], #-1139	; 0xfffffb8d
  74:	73695f00 	cmnvc	r9, #0, 30
  78:	79747461 	ldmdbvc	r4!, {r0, r5, r6, sl, ip, sp, lr}^
  7c:	20736920 	rsbscs	r6, r3, r0, lsr #18
  80:	20746f6e 	rsbscs	r6, r4, lr, ror #30
  84:	6c706d69 	ldclvs	13, cr6, [r0], #-420	; 0xfffffe5c
  88:	6e656d65 	cdpvs	13, 6, cr6, cr5, cr5, {3}
  8c:	20646574 	rsbcs	r6, r4, r4, ror r5
  90:	20646e61 	rsbcs	r6, r4, r1, ror #28
  94:	6c6c6977 			; <UNDEFINED> instruction: 0x6c6c6977
  98:	776c6120 	strbvc	r6, [ip, -r0, lsr #2]!
  9c:	20737961 	rsbscs	r7, r3, r1, ror #18
  a0:	6c696166 	stfvse	f6, [r9], #-408	; 0xfffffe68
  a4:	73695f00 	cmnvc	r9, #0, 30
  a8:	79747461 	ldmdbvc	r4!, {r0, r5, r6, sl, ip, sp, lr}^
  ac:	736c5f00 	cmnvc	ip, #0, 30
  b0:	206b6565 	rsbcs	r6, fp, r5, ror #10
  b4:	6e207369 	cdpvs	3, 2, cr7, cr0, cr9, {3}
  b8:	6920746f 	stmdbvs	r0!, {r0, r1, r2, r3, r5, r6, sl, ip, sp, lr}
  bc:	656c706d 	strbvs	r7, [ip, #-109]!	; 0xffffff93
  c0:	746e656d 	strbtvc	r6, [lr], #-1389	; 0xfffffa93
  c4:	61206465 			; <UNDEFINED> instruction: 0x61206465
  c8:	7720646e 	strvc	r6, [r0, -lr, ror #8]!
  cc:	206c6c69 	rsbcs	r6, ip, r9, ror #24
  d0:	61776c61 	cmnvs	r7, r1, ror #24
  d4:	66207379 			; <UNDEFINED> instruction: 0x66207379
  d8:	006c6961 	rsbeq	r6, ip, r1, ror #18
  dc:	65736c5f 	ldrbvs	r6, [r3, #-3167]!	; 0xfffff3a1
  e0:	5f006b65 	svcpl	0x00006b65
  e4:	64616572 	strbtvs	r6, [r1], #-1394	; 0xfffffa8e
  e8:	20736920 	rsbscs	r6, r3, r0, lsr #18
  ec:	20746f6e 	rsbscs	r6, r4, lr, ror #30
  f0:	6c706d69 	ldclvs	13, cr6, [r0], #-420	; 0xfffffe5c
  f4:	6e656d65 	cdpvs	13, 6, cr6, cr5, cr5, {3}
  f8:	20646574 	rsbcs	r6, r4, r4, ror r5
  fc:	20646e61 	rsbcs	r6, r4, r1, ror #28
 100:	6c6c6977 			; <UNDEFINED> instruction: 0x6c6c6977
 104:	776c6120 	strbvc	r6, [ip, -r0, lsr #2]!
 108:	20737961 	rsbscs	r7, r3, r1, ror #18
 10c:	6c696166 	stfvse	f6, [r9], #-408	; 0xfffffe68
 110:	65725f00 	ldrbvs	r5, [r2, #-3840]!	; 0xfffff100
 114:	5f006461 	svcpl	0x00006461
 118:	74697277 	strbtvc	r7, [r9], #-631	; 0xfffffd89
 11c:	73692065 	cmnvc	r9, #101	; 0x65
 120:	746f6e20 	strbtvc	r6, [pc], #-3616	; 128 <__STACKSEAL_SIZE+0x128>
 124:	706d6920 	rsbvc	r6, sp, r0, lsr #18
 128:	656d656c 	strbvs	r6, [sp, #-1388]!	; 0xfffffa94
 12c:	6465746e 	strbtvs	r7, [r5], #-1134	; 0xfffffb92
 130:	646e6120 	strbtvs	r6, [lr], #-288	; 0xfffffee0
 134:	6c697720 	stclvs	7, cr7, [r9], #-128	; 0xffffff80
 138:	6c61206c 	stclvs	0, cr2, [r1], #-432	; 0xfffffe50
 13c:	73796177 	cmnvc	r9, #-1073741795	; 0xc000001d
 140:	69616620 	stmdbvs	r1!, {r5, r9, sl, sp, lr}^
 144:	775f006c 	ldrbvc	r0, [pc, -ip, rrx]
 148:	65746972 	ldrbvs	r6, [r4, #-2418]!	; 0xfffff68e
	...
