
build/an505-qemu.elf:     file format elf32-littlearm


Disassembly of section .text:

10000000 <__Vectors>:
10000000:	38020000 	stmdacc	r2, {}	; <UNPREDICTABLE>
10000004:	10001c09 	andne	r1, r0, r9, lsl #24
10000008:	10001c5d 	andne	r1, r0, sp, asr ip
1000000c:	10001c79 	andne	r1, r0, r9, ror ip
10000010:	10001c5d 	andne	r1, r0, sp, asr ip
10000014:	10001c5d 	andne	r1, r0, sp, asr ip
10000018:	10001c5d 	andne	r1, r0, sp, asr ip
1000001c:	10001c5d 	andne	r1, r0, sp, asr ip
	...
1000002c:	10001c5d 	andne	r1, r0, sp, asr ip
10000030:	10001c5d 	andne	r1, r0, sp, asr ip
10000034:	00000000 	andeq	r0, r0, r0
10000038:	10001c5d 	andne	r1, r0, sp, asr ip
1000003c:	10001c5d 	andne	r1, r0, sp, asr ip
10000040:	10001c5d 	andne	r1, r0, sp, asr ip
10000044:	10001c5d 	andne	r1, r0, sp, asr ip
10000048:	10001c5d 	andne	r1, r0, sp, asr ip
1000004c:	10001c5d 	andne	r1, r0, sp, asr ip
10000050:	10001c5d 	andne	r1, r0, sp, asr ip
10000054:	10001c5d 	andne	r1, r0, sp, asr ip
10000058:	10001c5d 	andne	r1, r0, sp, asr ip
1000005c:	10001c5d 	andne	r1, r0, sp, asr ip
10000060:	10001c5d 	andne	r1, r0, sp, asr ip
10000064:	10001c5d 	andne	r1, r0, sp, asr ip
	...

100007c0 <__do_global_dtors_aux>:
100007c0:	b510      	push	{r4, lr}
100007c2:	4c05      	ldr	r4, [pc, #20]	; (100007d8 <__do_global_dtors_aux+0x18>)
100007c4:	7823      	ldrb	r3, [r4, #0]
100007c6:	b933      	cbnz	r3, 100007d6 <__do_global_dtors_aux+0x16>
100007c8:	4b04      	ldr	r3, [pc, #16]	; (100007dc <__do_global_dtors_aux+0x1c>)
100007ca:	b113      	cbz	r3, 100007d2 <__do_global_dtors_aux+0x12>
100007cc:	4804      	ldr	r0, [pc, #16]	; (100007e0 <__do_global_dtors_aux+0x20>)
100007ce:	e000      	b.n	100007d2 <__do_global_dtors_aux+0x12>
100007d0:	bf00      	nop
100007d2:	2301      	movs	r3, #1
100007d4:	7023      	strb	r3, [r4, #0]
100007d6:	bd10      	pop	{r4, pc}
100007d8:	38000070 	stmdacc	r0, {r4, r5, r6}
100007dc:	00000000 	andeq	r0, r0, r0
100007e0:	10003638 	andne	r3, r0, r8, lsr r6

100007e4 <frame_dummy>:
100007e4:	b508      	push	{r3, lr}
100007e6:	4b03      	ldr	r3, [pc, #12]	; (100007f4 <frame_dummy+0x10>)
100007e8:	b11b      	cbz	r3, 100007f2 <frame_dummy+0xe>
100007ea:	4903      	ldr	r1, [pc, #12]	; (100007f8 <frame_dummy+0x14>)
100007ec:	4803      	ldr	r0, [pc, #12]	; (100007fc <frame_dummy+0x18>)
100007ee:	e000      	b.n	100007f2 <frame_dummy+0xe>
100007f0:	bf00      	nop
100007f2:	bd08      	pop	{r3, pc}
100007f4:	00000000 	andeq	r0, r0, r0
100007f8:	38000074 	stmdacc	r0, {r2, r4, r5, r6}
100007fc:	10003638 	andne	r3, r0, r8, lsr r6

10000800 <__aeabi_unwind_cpp_pr0>:
10000800:	4770      	bx	lr
	...

10000804 <main>:
10000804:	b510      	push	{r4, lr}
10000806:	f001 f8e9 	bl	100019dc <uart_init>
1000080a:	4805      	ldr	r0, [pc, #20]	; (10000820 <main+0x1c>)
1000080c:	f001 fab8 	bl	10001d80 <puts>
10000810:	2100      	movs	r1, #0
10000812:	bf00      	nop
10000814:	1c4c      	adds	r4, r1, #1
10000816:	4803      	ldr	r0, [pc, #12]	; (10000824 <main+0x20>)
10000818:	f001 f8c4 	bl	100019a4 <printf>
1000081c:	4621      	mov	r1, r4
1000081e:	e7f8      	b.n	10000812 <main+0xe>
10000820:	10003390 	mulne	r0, r0, r3
10000824:	10003398 	mulne	r0, r8, r3

10000828 <SystemInit>:
10000828:	4b06      	ldr	r3, [pc, #24]	; (10000844 <SystemInit+0x1c>)
1000082a:	4a07      	ldr	r2, [pc, #28]	; (10000848 <SystemInit+0x20>)
1000082c:	609a      	str	r2, [r3, #8]
1000082e:	f8d3 2088 	ldr.w	r2, [r3, #136]	; 0x88
10000832:	f442 0270 	orr.w	r2, r2, #15728640	; 0xf00000
10000836:	f8c3 2088 	str.w	r2, [r3, #136]	; 0x88
1000083a:	4b04      	ldr	r3, [pc, #16]	; (1000084c <SystemInit+0x24>)
1000083c:	4a04      	ldr	r2, [pc, #16]	; (10000850 <SystemInit+0x28>)
1000083e:	601a      	str	r2, [r3, #0]
10000840:	4770      	bx	lr
10000842:	bf00      	nop
10000844:	e000ed00 	and	lr, r0, r0, lsl #26
10000848:	10000000 	andne	r0, r0, r0
1000084c:	38000000 	stmdacc	r0, {}	; <UNPREDICTABLE>
10000850:	017d7840 	cmneq	sp, r0, asr #16

10000854 <_out_null>:
10000854:	4770      	bx	lr

10000856 <_atoi>:
10000856:	4601      	mov	r1, r0
10000858:	2000      	movs	r0, #0
1000085a:	e007      	b.n	1000086c <_atoi+0x16>
1000085c:	eb00 0080 	add.w	r0, r0, r0, lsl #2
10000860:	1c53      	adds	r3, r2, #1
10000862:	600b      	str	r3, [r1, #0]
10000864:	7813      	ldrb	r3, [r2, #0]
10000866:	eb03 0040 	add.w	r0, r3, r0, lsl #1
1000086a:	3830      	subs	r0, #48	; 0x30
1000086c:	680a      	ldr	r2, [r1, #0]
1000086e:	7813      	ldrb	r3, [r2, #0]
10000870:	3b30      	subs	r3, #48	; 0x30
10000872:	b2db      	uxtb	r3, r3
10000874:	2b09      	cmp	r3, #9
10000876:	d9f1      	bls.n	1000085c <_atoi+0x6>
10000878:	4770      	bx	lr

1000087a <_out_rev>:
1000087a:	e92d 4ff0 	stmdb	sp!, {r4, r5, r6, r7, r8, r9, sl, fp, lr}
1000087e:	b083      	sub	sp, #12
10000880:	4605      	mov	r5, r0
10000882:	460e      	mov	r6, r1
10000884:	4693      	mov	fp, r2
10000886:	461f      	mov	r7, r3
10000888:	f8dd a030 	ldr.w	sl, [sp, #48]	; 0x30
1000088c:	9c0d      	ldr	r4, [sp, #52]	; 0x34
1000088e:	f8dd 9038 	ldr.w	r9, [sp, #56]	; 0x38
10000892:	9b0f      	ldr	r3, [sp, #60]	; 0x3c
10000894:	f013 0f03 	tst.w	r3, #3
10000898:	d119      	bne.n	100008ce <_out_rev+0x54>
1000089a:	46a0      	mov	r8, r4
1000089c:	9201      	str	r2, [sp, #4]
1000089e:	45c8      	cmp	r8, r9
100008a0:	d209      	bcs.n	100008b6 <_out_rev+0x3c>
100008a2:	f102 0b01 	add.w	fp, r2, #1
100008a6:	463b      	mov	r3, r7
100008a8:	4631      	mov	r1, r6
100008aa:	2020      	movs	r0, #32
100008ac:	47a8      	blx	r5
100008ae:	f108 0801 	add.w	r8, r8, #1
100008b2:	465a      	mov	r2, fp
100008b4:	e7f3      	b.n	1000089e <_out_rev+0x24>
100008b6:	f8dd b004 	ldr.w	fp, [sp, #4]
100008ba:	e008      	b.n	100008ce <_out_rev+0x54>
100008bc:	3c01      	subs	r4, #1
100008be:	f102 0801 	add.w	r8, r2, #1
100008c2:	463b      	mov	r3, r7
100008c4:	4631      	mov	r1, r6
100008c6:	f81a 0004 	ldrb.w	r0, [sl, r4]
100008ca:	47a8      	blx	r5
100008cc:	4642      	mov	r2, r8
100008ce:	2c00      	cmp	r4, #0
100008d0:	d1f4      	bne.n	100008bc <_out_rev+0x42>
100008d2:	9b0f      	ldr	r3, [sp, #60]	; 0x3c
100008d4:	f013 0f02 	tst.w	r3, #2
100008d8:	d103      	bne.n	100008e2 <_out_rev+0x68>
100008da:	4610      	mov	r0, r2
100008dc:	b003      	add	sp, #12
100008de:	e8bd 8ff0 	ldmia.w	sp!, {r4, r5, r6, r7, r8, r9, sl, fp, pc}
100008e2:	eba2 030b 	sub.w	r3, r2, fp
100008e6:	454b      	cmp	r3, r9
100008e8:	d2f7      	bcs.n	100008da <_out_rev+0x60>
100008ea:	1c54      	adds	r4, r2, #1
100008ec:	463b      	mov	r3, r7
100008ee:	4631      	mov	r1, r6
100008f0:	2020      	movs	r0, #32
100008f2:	47a8      	blx	r5
100008f4:	4622      	mov	r2, r4
100008f6:	e7f4      	b.n	100008e2 <_out_rev+0x68>

100008f8 <_ntoa_format>:
100008f8:	e92d 43f0 	stmdb	sp!, {r4, r5, r6, r7, r8, r9, lr}
100008fc:	b085      	sub	sp, #20
100008fe:	9d0c      	ldr	r5, [sp, #48]	; 0x30
10000900:	9c0d      	ldr	r4, [sp, #52]	; 0x34
10000902:	f89d 9038 	ldrb.w	r9, [sp, #56]	; 0x38
10000906:	f8dd 803c 	ldr.w	r8, [sp, #60]	; 0x3c
1000090a:	f8dd e040 	ldr.w	lr, [sp, #64]	; 0x40
1000090e:	9f11      	ldr	r7, [sp, #68]	; 0x44
10000910:	9e12      	ldr	r6, [sp, #72]	; 0x48
10000912:	f016 0f02 	tst.w	r6, #2
10000916:	d121      	bne.n	1000095c <_ntoa_format+0x64>
10000918:	b17f      	cbz	r7, 1000093a <_ntoa_format+0x42>
1000091a:	f016 0f01 	tst.w	r6, #1
1000091e:	d00c      	beq.n	1000093a <_ntoa_format+0x42>
10000920:	f1b9 0f00 	cmp.w	r9, #0
10000924:	d102      	bne.n	1000092c <_ntoa_format+0x34>
10000926:	f016 0f0c 	tst.w	r6, #12
1000092a:	d006      	beq.n	1000093a <_ntoa_format+0x42>
1000092c:	3f01      	subs	r7, #1
1000092e:	e004      	b.n	1000093a <_ntoa_format+0x42>
10000930:	f04f 0c30 	mov.w	ip, #48	; 0x30
10000934:	f805 c004 	strb.w	ip, [r5, r4]
10000938:	3401      	adds	r4, #1
1000093a:	4574      	cmp	r4, lr
1000093c:	d201      	bcs.n	10000942 <_ntoa_format+0x4a>
1000093e:	2c1f      	cmp	r4, #31
10000940:	d9f6      	bls.n	10000930 <_ntoa_format+0x38>
10000942:	f016 0f01 	tst.w	r6, #1
10000946:	d009      	beq.n	1000095c <_ntoa_format+0x64>
10000948:	42bc      	cmp	r4, r7
1000094a:	d207      	bcs.n	1000095c <_ntoa_format+0x64>
1000094c:	2c1f      	cmp	r4, #31
1000094e:	d805      	bhi.n	1000095c <_ntoa_format+0x64>
10000950:	f04f 0c30 	mov.w	ip, #48	; 0x30
10000954:	f805 c004 	strb.w	ip, [r5, r4]
10000958:	3401      	adds	r4, #1
1000095a:	e7f2      	b.n	10000942 <_ntoa_format+0x4a>
1000095c:	f016 0f10 	tst.w	r6, #16
10000960:	d017      	beq.n	10000992 <_ntoa_format+0x9a>
10000962:	f416 6f80 	tst.w	r6, #1024	; 0x400
10000966:	d104      	bne.n	10000972 <_ntoa_format+0x7a>
10000968:	b11c      	cbz	r4, 10000972 <_ntoa_format+0x7a>
1000096a:	4574      	cmp	r4, lr
1000096c:	d024      	beq.n	100009b8 <_ntoa_format+0xc0>
1000096e:	42bc      	cmp	r4, r7
10000970:	d022      	beq.n	100009b8 <_ntoa_format+0xc0>
10000972:	f1b8 0f10 	cmp.w	r8, #16
10000976:	d02b      	beq.n	100009d0 <_ntoa_format+0xd8>
10000978:	f1b8 0f10 	cmp.w	r8, #16
1000097c:	d033      	beq.n	100009e6 <_ntoa_format+0xee>
1000097e:	f1b8 0f02 	cmp.w	r8, #2
10000982:	d03b      	beq.n	100009fc <_ntoa_format+0x104>
10000984:	2c1f      	cmp	r4, #31
10000986:	d804      	bhi.n	10000992 <_ntoa_format+0x9a>
10000988:	f04f 0c30 	mov.w	ip, #48	; 0x30
1000098c:	f805 c004 	strb.w	ip, [r5, r4]
10000990:	3401      	adds	r4, #1
10000992:	2c1f      	cmp	r4, #31
10000994:	d807      	bhi.n	100009a6 <_ntoa_format+0xae>
10000996:	f1b9 0f00 	cmp.w	r9, #0
1000099a:	d037      	beq.n	10000a0c <_ntoa_format+0x114>
1000099c:	f04f 0c2d 	mov.w	ip, #45	; 0x2d
100009a0:	f805 c004 	strb.w	ip, [r5, r4]
100009a4:	3401      	adds	r4, #1
100009a6:	9603      	str	r6, [sp, #12]
100009a8:	9702      	str	r7, [sp, #8]
100009aa:	9401      	str	r4, [sp, #4]
100009ac:	9500      	str	r5, [sp, #0]
100009ae:	f7ff ff64 	bl	1000087a <_out_rev>
100009b2:	b005      	add	sp, #20
100009b4:	e8bd 83f0 	ldmia.w	sp!, {r4, r5, r6, r7, r8, r9, pc}
100009b8:	f1b4 0c01 	subs.w	ip, r4, #1
100009bc:	d006      	beq.n	100009cc <_ntoa_format+0xd4>
100009be:	f1b8 0f10 	cmp.w	r8, #16
100009c2:	d001      	beq.n	100009c8 <_ntoa_format+0xd0>
100009c4:	4664      	mov	r4, ip
100009c6:	e7d4      	b.n	10000972 <_ntoa_format+0x7a>
100009c8:	3c02      	subs	r4, #2
100009ca:	e7d2      	b.n	10000972 <_ntoa_format+0x7a>
100009cc:	4664      	mov	r4, ip
100009ce:	e7d0      	b.n	10000972 <_ntoa_format+0x7a>
100009d0:	f016 0f20 	tst.w	r6, #32
100009d4:	d1d0      	bne.n	10000978 <_ntoa_format+0x80>
100009d6:	2c1f      	cmp	r4, #31
100009d8:	d8ce      	bhi.n	10000978 <_ntoa_format+0x80>
100009da:	f04f 0c78 	mov.w	ip, #120	; 0x78
100009de:	f805 c004 	strb.w	ip, [r5, r4]
100009e2:	3401      	adds	r4, #1
100009e4:	e7ce      	b.n	10000984 <_ntoa_format+0x8c>
100009e6:	f016 0f20 	tst.w	r6, #32
100009ea:	d0c8      	beq.n	1000097e <_ntoa_format+0x86>
100009ec:	2c1f      	cmp	r4, #31
100009ee:	d8c6      	bhi.n	1000097e <_ntoa_format+0x86>
100009f0:	f04f 0c58 	mov.w	ip, #88	; 0x58
100009f4:	f805 c004 	strb.w	ip, [r5, r4]
100009f8:	3401      	adds	r4, #1
100009fa:	e7c3      	b.n	10000984 <_ntoa_format+0x8c>
100009fc:	2c1f      	cmp	r4, #31
100009fe:	d8c1      	bhi.n	10000984 <_ntoa_format+0x8c>
10000a00:	f04f 0c62 	mov.w	ip, #98	; 0x62
10000a04:	f805 c004 	strb.w	ip, [r5, r4]
10000a08:	3401      	adds	r4, #1
10000a0a:	e7bb      	b.n	10000984 <_ntoa_format+0x8c>
10000a0c:	f016 0f04 	tst.w	r6, #4
10000a10:	d005      	beq.n	10000a1e <_ntoa_format+0x126>
10000a12:	f04f 0c2b 	mov.w	ip, #43	; 0x2b
10000a16:	f805 c004 	strb.w	ip, [r5, r4]
10000a1a:	3401      	adds	r4, #1
10000a1c:	e7c3      	b.n	100009a6 <_ntoa_format+0xae>
10000a1e:	f016 0f08 	tst.w	r6, #8
10000a22:	d0c0      	beq.n	100009a6 <_ntoa_format+0xae>
10000a24:	f04f 0c20 	mov.w	ip, #32
10000a28:	f805 c004 	strb.w	ip, [r5, r4]
10000a2c:	3401      	adds	r4, #1
10000a2e:	e7ba      	b.n	100009a6 <_ntoa_format+0xae>

10000a30 <_ntoa_long>:
10000a30:	b5f0      	push	{r4, r5, r6, r7, lr}
10000a32:	b091      	sub	sp, #68	; 0x44
10000a34:	9c16      	ldr	r4, [sp, #88]	; 0x58
10000a36:	9d18      	ldr	r5, [sp, #96]	; 0x60
10000a38:	9e1b      	ldr	r6, [sp, #108]	; 0x6c
10000a3a:	b90c      	cbnz	r4, 10000a40 <_ntoa_long+0x10>
10000a3c:	f026 0610 	bic.w	r6, r6, #16
10000a40:	f416 6e80 	ands.w	lr, r6, #1024	; 0x400
10000a44:	d016      	beq.n	10000a74 <_ntoa_long+0x44>
10000a46:	b364      	cbz	r4, 10000aa2 <_ntoa_long+0x72>
10000a48:	f04f 0e00 	mov.w	lr, #0
10000a4c:	e012      	b.n	10000a74 <_ntoa_long+0x44>
10000a4e:	f10c 0c30 	add.w	ip, ip, #48	; 0x30
10000a52:	fa5f fc8c 	uxtb.w	ip, ip
10000a56:	f10e 0701 	add.w	r7, lr, #1
10000a5a:	f10e 0e40 	add.w	lr, lr, #64	; 0x40
10000a5e:	44ee      	add	lr, sp
10000a60:	f80e cc20 	strb.w	ip, [lr, #-32]
10000a64:	fbb4 fcf5 	udiv	ip, r4, r5
10000a68:	42ac      	cmp	r4, r5
10000a6a:	d31b      	bcc.n	10000aa4 <_ntoa_long+0x74>
10000a6c:	2f1f      	cmp	r7, #31
10000a6e:	d819      	bhi.n	10000aa4 <_ntoa_long+0x74>
10000a70:	46be      	mov	lr, r7
10000a72:	4664      	mov	r4, ip
10000a74:	fbb4 fcf5 	udiv	ip, r4, r5
10000a78:	fb05 4c1c 	mls	ip, r5, ip, r4
10000a7c:	fa5f fc8c 	uxtb.w	ip, ip
10000a80:	f1bc 0f09 	cmp.w	ip, #9
10000a84:	d9e3      	bls.n	10000a4e <_ntoa_long+0x1e>
10000a86:	f016 0f20 	tst.w	r6, #32
10000a8a:	d008      	beq.n	10000a9e <_ntoa_long+0x6e>
10000a8c:	2741      	movs	r7, #65	; 0x41
10000a8e:	44bc      	add	ip, r7
10000a90:	fa5f fc8c 	uxtb.w	ip, ip
10000a94:	f1ac 0c0a 	sub.w	ip, ip, #10
10000a98:	fa5f fc8c 	uxtb.w	ip, ip
10000a9c:	e7db      	b.n	10000a56 <_ntoa_long+0x26>
10000a9e:	2761      	movs	r7, #97	; 0x61
10000aa0:	e7f5      	b.n	10000a8e <_ntoa_long+0x5e>
10000aa2:	4627      	mov	r7, r4
10000aa4:	9606      	str	r6, [sp, #24]
10000aa6:	9c1a      	ldr	r4, [sp, #104]	; 0x68
10000aa8:	9405      	str	r4, [sp, #20]
10000aaa:	9c19      	ldr	r4, [sp, #100]	; 0x64
10000aac:	9404      	str	r4, [sp, #16]
10000aae:	9503      	str	r5, [sp, #12]
10000ab0:	f89d 405c 	ldrb.w	r4, [sp, #92]	; 0x5c
10000ab4:	9402      	str	r4, [sp, #8]
10000ab6:	9701      	str	r7, [sp, #4]
10000ab8:	ac08      	add	r4, sp, #32
10000aba:	9400      	str	r4, [sp, #0]
10000abc:	f7ff ff1c 	bl	100008f8 <_ntoa_format>
10000ac0:	b011      	add	sp, #68	; 0x44
10000ac2:	bdf0      	pop	{r4, r5, r6, r7, pc}

10000ac4 <_ntoa_long_long>:
10000ac4:	e92d 4ff0 	stmdb	sp!, {r4, r5, r6, r7, r8, r9, sl, fp, lr}
10000ac8:	b095      	sub	sp, #84	; 0x54
10000aca:	9009      	str	r0, [sp, #36]	; 0x24
10000acc:	910a      	str	r1, [sp, #40]	; 0x28
10000ace:	920b      	str	r2, [sp, #44]	; 0x2c
10000ad0:	469b      	mov	fp, r3
10000ad2:	9d1e      	ldr	r5, [sp, #120]	; 0x78
10000ad4:	9e1f      	ldr	r6, [sp, #124]	; 0x7c
10000ad6:	9f22      	ldr	r7, [sp, #136]	; 0x88
10000ad8:	f8dd 808c 	ldr.w	r8, [sp, #140]	; 0x8c
10000adc:	f8dd a098 	ldr.w	sl, [sp, #152]	; 0x98
10000ae0:	ea55 0306 	orrs.w	r3, r5, r6
10000ae4:	d101      	bne.n	10000aea <_ntoa_long_long+0x26>
10000ae6:	f02a 0a10 	bic.w	sl, sl, #16
10000aea:	f41a 6480 	ands.w	r4, sl, #1024	; 0x400
10000aee:	d01f      	beq.n	10000b30 <_ntoa_long_long+0x6c>
10000af0:	ea55 0306 	orrs.w	r3, r5, r6
10000af4:	d030      	beq.n	10000b58 <_ntoa_long_long+0x94>
10000af6:	2400      	movs	r4, #0
10000af8:	e01a      	b.n	10000b30 <_ntoa_long_long+0x6c>
10000afa:	f103 0230 	add.w	r2, r3, #48	; 0x30
10000afe:	b2d2      	uxtb	r2, r2
10000b00:	f104 0901 	add.w	r9, r4, #1
10000b04:	f104 0350 	add.w	r3, r4, #80	; 0x50
10000b08:	eb0d 0403 	add.w	r4, sp, r3
10000b0c:	f804 2c20 	strb.w	r2, [r4, #-32]
10000b10:	463a      	mov	r2, r7
10000b12:	4643      	mov	r3, r8
10000b14:	4628      	mov	r0, r5
10000b16:	4631      	mov	r1, r6
10000b18:	f002 fa9e 	bl	10003058 <__aeabi_uldivmod>
10000b1c:	42bd      	cmp	r5, r7
10000b1e:	eb76 0308 	sbcs.w	r3, r6, r8
10000b22:	d31b      	bcc.n	10000b5c <_ntoa_long_long+0x98>
10000b24:	f1b9 0f1f 	cmp.w	r9, #31
10000b28:	d818      	bhi.n	10000b5c <_ntoa_long_long+0x98>
10000b2a:	464c      	mov	r4, r9
10000b2c:	4605      	mov	r5, r0
10000b2e:	460e      	mov	r6, r1
10000b30:	463a      	mov	r2, r7
10000b32:	4643      	mov	r3, r8
10000b34:	4628      	mov	r0, r5
10000b36:	4631      	mov	r1, r6
10000b38:	f002 fa8e 	bl	10003058 <__aeabi_uldivmod>
10000b3c:	b2d3      	uxtb	r3, r2
10000b3e:	2b09      	cmp	r3, #9
10000b40:	d9db      	bls.n	10000afa <_ntoa_long_long+0x36>
10000b42:	f01a 0f20 	tst.w	sl, #32
10000b46:	d005      	beq.n	10000b54 <_ntoa_long_long+0x90>
10000b48:	2241      	movs	r2, #65	; 0x41
10000b4a:	441a      	add	r2, r3
10000b4c:	b2d2      	uxtb	r2, r2
10000b4e:	3a0a      	subs	r2, #10
10000b50:	b2d2      	uxtb	r2, r2
10000b52:	e7d5      	b.n	10000b00 <_ntoa_long_long+0x3c>
10000b54:	2261      	movs	r2, #97	; 0x61
10000b56:	e7f8      	b.n	10000b4a <_ntoa_long_long+0x86>
10000b58:	f04f 0900 	mov.w	r9, #0
10000b5c:	f8cd a018 	str.w	sl, [sp, #24]
10000b60:	9b25      	ldr	r3, [sp, #148]	; 0x94
10000b62:	9305      	str	r3, [sp, #20]
10000b64:	9b24      	ldr	r3, [sp, #144]	; 0x90
10000b66:	9304      	str	r3, [sp, #16]
10000b68:	9703      	str	r7, [sp, #12]
10000b6a:	f89d 3080 	ldrb.w	r3, [sp, #128]	; 0x80
10000b6e:	9302      	str	r3, [sp, #8]
10000b70:	f8cd 9004 	str.w	r9, [sp, #4]
10000b74:	ab0c      	add	r3, sp, #48	; 0x30
10000b76:	9300      	str	r3, [sp, #0]
10000b78:	465b      	mov	r3, fp
10000b7a:	9a0b      	ldr	r2, [sp, #44]	; 0x2c
10000b7c:	990a      	ldr	r1, [sp, #40]	; 0x28
10000b7e:	9809      	ldr	r0, [sp, #36]	; 0x24
10000b80:	f7ff feba 	bl	100008f8 <_ntoa_format>
10000b84:	b015      	add	sp, #84	; 0x54
10000b86:	e8bd 8ff0 	ldmia.w	sp!, {r4, r5, r6, r7, r8, r9, sl, fp, pc}
10000b8a:	0000      	movs	r0, r0
10000b8c:	0000      	movs	r0, r0
	...

10000b90 <_etoa>:
10000b90:	e92d 4ff0 	stmdb	sp!, {r4, r5, r6, r7, r8, r9, sl, fp, lr}
10000b94:	ed2d 8b02 	vpush	{d8}
10000b98:	b091      	sub	sp, #68	; 0x44
10000b9a:	4682      	mov	sl, r0
10000b9c:	460c      	mov	r4, r1
10000b9e:	4693      	mov	fp, r2
10000ba0:	461d      	mov	r5, r3
10000ba2:	e9dd 231c 	ldrd	r2, r3, [sp, #112]	; 0x70
10000ba6:	4610      	mov	r0, r2
10000ba8:	4619      	mov	r1, r3
10000baa:	f002 f9db 	bl	10002f64 <__aeabi_dcmpeq>
10000bae:	2800      	cmp	r0, #0
10000bb0:	f000 8107 	beq.w	10000dc2 <_etoa+0x232>
10000bb4:	f04f 32ff 	mov.w	r2, #4294967295
10000bb8:	4bb1      	ldr	r3, [pc, #708]	; (10000e80 <_etoa+0x2f0>)
10000bba:	e9dd 011c 	ldrd	r0, r1, [sp, #112]	; 0x70
10000bbe:	f002 f9f9 	bl	10002fb4 <__aeabi_dcmpgt>
10000bc2:	2800      	cmp	r0, #0
10000bc4:	f040 80fd 	bne.w	10000dc2 <_etoa+0x232>
10000bc8:	f04f 32ff 	mov.w	r2, #4294967295
10000bcc:	f46f 1380 	mvn.w	r3, #1048576	; 0x100000
10000bd0:	e9dd 011c 	ldrd	r0, r1, [sp, #112]	; 0x70
10000bd4:	f002 f9d0 	bl	10002f78 <__aeabi_dcmplt>
10000bd8:	2800      	cmp	r0, #0
10000bda:	f040 80f2 	bne.w	10000dc2 <_etoa+0x232>
10000bde:	2200      	movs	r2, #0
10000be0:	2300      	movs	r3, #0
10000be2:	e9dd 011c 	ldrd	r0, r1, [sp, #112]	; 0x70
10000be6:	f002 f9c7 	bl	10002f78 <__aeabi_dcmplt>
10000bea:	2800      	cmp	r0, #0
10000bec:	f040 80fe 	bne.w	10000dec <_etoa+0x25c>
10000bf0:	ed9d 7b1c 	vldr	d7, [sp, #112]	; 0x70
10000bf4:	ed8d 7b06 	vstr	d7, [sp, #24]
10000bf8:	9b20      	ldr	r3, [sp, #128]	; 0x80
10000bfa:	f413 6380 	ands.w	r3, r3, #1024	; 0x400
10000bfe:	930f      	str	r3, [sp, #60]	; 0x3c
10000c00:	d101      	bne.n	10000c06 <_etoa+0x76>
10000c02:	2306      	movs	r3, #6
10000c04:	931e      	str	r3, [sp, #120]	; 0x78
10000c06:	e9dd 0106 	ldrd	r0, r1, [sp, #24]
10000c0a:	4602      	mov	r2, r0
10000c0c:	f3c1 500a 	ubfx	r0, r1, #20, #11
10000c10:	f3c1 0313 	ubfx	r3, r1, #0, #20
10000c14:	4690      	mov	r8, r2
10000c16:	f043 597f 	orr.w	r9, r3, #1069547520	; 0x3fc00000
10000c1a:	f449 1940 	orr.w	r9, r9, #3145728	; 0x300000
10000c1e:	f2a0 30ff 	subw	r0, r0, #1023	; 0x3ff
10000c22:	f001 fecd 	bl	100029c0 <__aeabi_i2d>
10000c26:	a384      	add	r3, pc, #528	; (adr r3, 10000e38 <_etoa+0x2a8>)
10000c28:	e9d3 2300 	ldrd	r2, r3, [r3]
10000c2c:	f001 ff32 	bl	10002a94 <__aeabi_dmul>
10000c30:	a383      	add	r3, pc, #524	; (adr r3, 10000e40 <_etoa+0x2b0>)
10000c32:	e9d3 2300 	ldrd	r2, r3, [r3]
10000c36:	f001 fd77 	bl	10002728 <__adddf3>
10000c3a:	4606      	mov	r6, r0
10000c3c:	460f      	mov	r7, r1
10000c3e:	2200      	movs	r2, #0
10000c40:	4b90      	ldr	r3, [pc, #576]	; (10000e84 <_etoa+0x2f4>)
10000c42:	4640      	mov	r0, r8
10000c44:	4649      	mov	r1, r9
10000c46:	f001 fd6d 	bl	10002724 <__aeabi_dsub>
10000c4a:	a37f      	add	r3, pc, #508	; (adr r3, 10000e48 <_etoa+0x2b8>)
10000c4c:	e9d3 2300 	ldrd	r2, r3, [r3]
10000c50:	f001 ff20 	bl	10002a94 <__aeabi_dmul>
10000c54:	4602      	mov	r2, r0
10000c56:	460b      	mov	r3, r1
10000c58:	4630      	mov	r0, r6
10000c5a:	4639      	mov	r1, r7
10000c5c:	f001 fd64 	bl	10002728 <__adddf3>
10000c60:	f002 f9b2 	bl	10002fc8 <__aeabi_d2iz>
10000c64:	4606      	mov	r6, r0
10000c66:	f001 feab 	bl	100029c0 <__aeabi_i2d>
10000c6a:	4680      	mov	r8, r0
10000c6c:	4689      	mov	r9, r1
10000c6e:	a378      	add	r3, pc, #480	; (adr r3, 10000e50 <_etoa+0x2c0>)
10000c70:	e9d3 2300 	ldrd	r2, r3, [r3]
10000c74:	f001 ff0e 	bl	10002a94 <__aeabi_dmul>
10000c78:	2200      	movs	r2, #0
10000c7a:	4b83      	ldr	r3, [pc, #524]	; (10000e88 <_etoa+0x2f8>)
10000c7c:	f001 fd54 	bl	10002728 <__adddf3>
10000c80:	f002 f9a2 	bl	10002fc8 <__aeabi_d2iz>
10000c84:	4607      	mov	r7, r0
10000c86:	a374      	add	r3, pc, #464	; (adr r3, 10000e58 <_etoa+0x2c8>)
10000c88:	e9d3 2300 	ldrd	r2, r3, [r3]
10000c8c:	4640      	mov	r0, r8
10000c8e:	4649      	mov	r1, r9
10000c90:	f001 ff00 	bl	10002a94 <__aeabi_dmul>
10000c94:	4680      	mov	r8, r0
10000c96:	4689      	mov	r9, r1
10000c98:	4638      	mov	r0, r7
10000c9a:	f001 fe91 	bl	100029c0 <__aeabi_i2d>
10000c9e:	a370      	add	r3, pc, #448	; (adr r3, 10000e60 <_etoa+0x2d0>)
10000ca0:	e9d3 2300 	ldrd	r2, r3, [r3]
10000ca4:	f001 fef6 	bl	10002a94 <__aeabi_dmul>
10000ca8:	4602      	mov	r2, r0
10000caa:	460b      	mov	r3, r1
10000cac:	4640      	mov	r0, r8
10000cae:	4649      	mov	r1, r9
10000cb0:	f001 fd38 	bl	10002724 <__aeabi_dsub>
10000cb4:	4680      	mov	r8, r0
10000cb6:	4689      	mov	r9, r1
10000cb8:	4602      	mov	r2, r0
10000cba:	460b      	mov	r3, r1
10000cbc:	f001 feea 	bl	10002a94 <__aeabi_dmul>
10000cc0:	e9cd 010a 	strd	r0, r1, [sp, #40]	; 0x28
10000cc4:	f207 37ff 	addw	r7, r7, #1023	; 0x3ff
10000cc8:	2100      	movs	r1, #0
10000cca:	2200      	movs	r2, #0
10000ccc:	e9cd 1208 	strd	r1, r2, [sp, #32]
10000cd0:	053b      	lsls	r3, r7, #20
10000cd2:	9309      	str	r3, [sp, #36]	; 0x24
10000cd4:	2300      	movs	r3, #0
10000cd6:	9308      	str	r3, [sp, #32]
10000cd8:	4642      	mov	r2, r8
10000cda:	464b      	mov	r3, r9
10000cdc:	4640      	mov	r0, r8
10000cde:	4649      	mov	r1, r9
10000ce0:	f001 fd22 	bl	10002728 <__adddf3>
10000ce4:	e9cd 010c 	strd	r0, r1, [sp, #48]	; 0x30
10000ce8:	4642      	mov	r2, r8
10000cea:	464b      	mov	r3, r9
10000cec:	2000      	movs	r0, #0
10000cee:	f04f 4180 	mov.w	r1, #1073741824	; 0x40000000
10000cf2:	f001 fd17 	bl	10002724 <__aeabi_dsub>
10000cf6:	4680      	mov	r8, r0
10000cf8:	4689      	mov	r9, r1
10000cfa:	2200      	movs	r2, #0
10000cfc:	4b63      	ldr	r3, [pc, #396]	; (10000e8c <_etoa+0x2fc>)
10000cfe:	e9dd 010a 	ldrd	r0, r1, [sp, #40]	; 0x28
10000d02:	f001 fff1 	bl	10002ce8 <__aeabi_ddiv>
10000d06:	2200      	movs	r2, #0
10000d08:	4b61      	ldr	r3, [pc, #388]	; (10000e90 <_etoa+0x300>)
10000d0a:	f001 fd0d 	bl	10002728 <__adddf3>
10000d0e:	4602      	mov	r2, r0
10000d10:	460b      	mov	r3, r1
10000d12:	e9dd 010a 	ldrd	r0, r1, [sp, #40]	; 0x28
10000d16:	f001 ffe7 	bl	10002ce8 <__aeabi_ddiv>
10000d1a:	2200      	movs	r2, #0
10000d1c:	4b5d      	ldr	r3, [pc, #372]	; (10000e94 <_etoa+0x304>)
10000d1e:	f001 fd03 	bl	10002728 <__adddf3>
10000d22:	4602      	mov	r2, r0
10000d24:	460b      	mov	r3, r1
10000d26:	e9dd 010a 	ldrd	r0, r1, [sp, #40]	; 0x28
10000d2a:	f001 ffdd 	bl	10002ce8 <__aeabi_ddiv>
10000d2e:	4602      	mov	r2, r0
10000d30:	460b      	mov	r3, r1
10000d32:	4640      	mov	r0, r8
10000d34:	4649      	mov	r1, r9
10000d36:	f001 fcf7 	bl	10002728 <__adddf3>
10000d3a:	4602      	mov	r2, r0
10000d3c:	460b      	mov	r3, r1
10000d3e:	e9dd 010c 	ldrd	r0, r1, [sp, #48]	; 0x30
10000d42:	f001 ffd1 	bl	10002ce8 <__aeabi_ddiv>
10000d46:	2200      	movs	r2, #0
10000d48:	4b53      	ldr	r3, [pc, #332]	; (10000e98 <_etoa+0x308>)
10000d4a:	f001 fced 	bl	10002728 <__adddf3>
10000d4e:	e9dd 2308 	ldrd	r2, r3, [sp, #32]
10000d52:	f001 fe9f 	bl	10002a94 <__aeabi_dmul>
10000d56:	4680      	mov	r8, r0
10000d58:	4689      	mov	r9, r1
10000d5a:	ec49 8b18 	vmov	d8, r8, r9
10000d5e:	e9dd 2306 	ldrd	r2, r3, [sp, #24]
10000d62:	f002 f927 	bl	10002fb4 <__aeabi_dcmpgt>
10000d66:	b140      	cbz	r0, 10000d7a <_etoa+0x1ea>
10000d68:	3e01      	subs	r6, #1
10000d6a:	2200      	movs	r2, #0
10000d6c:	4b48      	ldr	r3, [pc, #288]	; (10000e90 <_etoa+0x300>)
10000d6e:	4640      	mov	r0, r8
10000d70:	4649      	mov	r1, r9
10000d72:	f001 ffb9 	bl	10002ce8 <__aeabi_ddiv>
10000d76:	ec41 0b18 	vmov	d8, r0, r1
10000d7a:	f106 0363 	add.w	r3, r6, #99	; 0x63
10000d7e:	2bc6      	cmp	r3, #198	; 0xc6
10000d80:	d83f      	bhi.n	10000e02 <_etoa+0x272>
10000d82:	2704      	movs	r7, #4
10000d84:	9b20      	ldr	r3, [sp, #128]	; 0x80
10000d86:	f413 6f00 	tst.w	r3, #2048	; 0x800
10000d8a:	d044      	beq.n	10000e16 <_etoa+0x286>
10000d8c:	a336      	add	r3, pc, #216	; (adr r3, 10000e68 <_etoa+0x2d8>)
10000d8e:	e9d3 2300 	ldrd	r2, r3, [r3]
10000d92:	e9dd 8906 	ldrd	r8, r9, [sp, #24]
10000d96:	4640      	mov	r0, r8
10000d98:	4649      	mov	r1, r9
10000d9a:	f002 f901 	bl	10002fa0 <__aeabi_dcmpge>
10000d9e:	2800      	cmp	r0, #0
10000da0:	d03f      	beq.n	10000e22 <_etoa+0x292>
10000da2:	a333      	add	r3, pc, #204	; (adr r3, 10000e70 <_etoa+0x2e0>)
10000da4:	e9d3 2300 	ldrd	r2, r3, [r3]
10000da8:	4640      	mov	r0, r8
10000daa:	4649      	mov	r1, r9
10000dac:	f002 f8e4 	bl	10002f78 <__aeabi_dcmplt>
10000db0:	2800      	cmp	r0, #0
10000db2:	d036      	beq.n	10000e22 <_etoa+0x292>
10000db4:	9b1e      	ldr	r3, [sp, #120]	; 0x78
10000db6:	42b3      	cmp	r3, r6
10000db8:	dd25      	ble.n	10000e06 <_etoa+0x276>
10000dba:	1b9e      	subs	r6, r3, r6
10000dbc:	1e73      	subs	r3, r6, #1
10000dbe:	931e      	str	r3, [sp, #120]	; 0x78
10000dc0:	e023      	b.n	10000e0a <_etoa+0x27a>
10000dc2:	9b20      	ldr	r3, [sp, #128]	; 0x80
10000dc4:	9304      	str	r3, [sp, #16]
10000dc6:	9b1f      	ldr	r3, [sp, #124]	; 0x7c
10000dc8:	9303      	str	r3, [sp, #12]
10000dca:	9b1e      	ldr	r3, [sp, #120]	; 0x78
10000dcc:	9302      	str	r3, [sp, #8]
10000dce:	ed9d 7b1c 	vldr	d7, [sp, #112]	; 0x70
10000dd2:	ed8d 7b00 	vstr	d7, [sp]
10000dd6:	462b      	mov	r3, r5
10000dd8:	465a      	mov	r2, fp
10000dda:	4621      	mov	r1, r4
10000ddc:	4650      	mov	r0, sl
10000dde:	f000 f8cf 	bl	10000f80 <_ftoa>
10000de2:	b011      	add	sp, #68	; 0x44
10000de4:	ecbd 8b02 	vpop	{d8}
10000de8:	e8bd 8ff0 	ldmia.w	sp!, {r4, r5, r6, r7, r8, r9, sl, fp, pc}
10000dec:	ed9f 7b22 	vldr	d7, [pc, #136]	; 10000e78 <_etoa+0x2e8>
10000df0:	ed8d 7b06 	vstr	d7, [sp, #24]
10000df4:	9b1c      	ldr	r3, [sp, #112]	; 0x70
10000df6:	9306      	str	r3, [sp, #24]
10000df8:	9b1d      	ldr	r3, [sp, #116]	; 0x74
10000dfa:	f103 4300 	add.w	r3, r3, #2147483648	; 0x80000000
10000dfe:	9307      	str	r3, [sp, #28]
10000e00:	e6fa      	b.n	10000bf8 <_etoa+0x68>
10000e02:	2705      	movs	r7, #5
10000e04:	e7be      	b.n	10000d84 <_etoa+0x1f4>
10000e06:	2300      	movs	r3, #0
10000e08:	931e      	str	r3, [sp, #120]	; 0x78
10000e0a:	9b20      	ldr	r3, [sp, #128]	; 0x80
10000e0c:	f443 6380 	orr.w	r3, r3, #1024	; 0x400
10000e10:	9320      	str	r3, [sp, #128]	; 0x80
10000e12:	2700      	movs	r7, #0
10000e14:	463e      	mov	r6, r7
10000e16:	9b1f      	ldr	r3, [sp, #124]	; 0x7c
10000e18:	429f      	cmp	r7, r3
10000e1a:	d23f      	bcs.n	10000e9c <_etoa+0x30c>
10000e1c:	eba3 0807 	sub.w	r8, r3, r7
10000e20:	e03e      	b.n	10000ea0 <_etoa+0x310>
10000e22:	9b1e      	ldr	r3, [sp, #120]	; 0x78
10000e24:	2b00      	cmp	r3, #0
10000e26:	d0f6      	beq.n	10000e16 <_etoa+0x286>
10000e28:	9b0f      	ldr	r3, [sp, #60]	; 0x3c
10000e2a:	2b00      	cmp	r3, #0
10000e2c:	d0f3      	beq.n	10000e16 <_etoa+0x286>
10000e2e:	9b1e      	ldr	r3, [sp, #120]	; 0x78
10000e30:	3b01      	subs	r3, #1
10000e32:	931e      	str	r3, [sp, #120]	; 0x78
10000e34:	e7ef      	b.n	10000e16 <_etoa+0x286>
10000e36:	bf00      	nop
10000e38:	509f79fb 			; <UNDEFINED> instruction: 0x509f79fb
10000e3c:	3fd34413 	svccc	0x00d34413
10000e40:	8b60c8b3 	blhi	11833114 <__copy_table_end__+0x182fabc>
10000e44:	3fc68a28 	svccc	0x00c68a28
10000e48:	636f4361 	cmnvs	pc, #-2080374783	; 0x84000001
10000e4c:	3fd287a7 	svccc	0x00d287a7
10000e50:	0979a371 	ldmdbeq	r9!, {r0, r4, r5, r6, r8, r9, sp, pc}^
10000e54:	400a934f 	andmi	r9, sl, pc, asr #6
10000e58:	bbb55516 	bllt	ed562b8 <__ROM_SIZE+0xecd62b8>
10000e5c:	40026bb1 			; <UNDEFINED> instruction: 0x40026bb1
10000e60:	fefa39ef 			; <UNDEFINED> instruction: 0xfefa39ef
10000e64:	3fe62e42 	svccc	0x00e62e42
10000e68:	eb1c432d 	bl	10711b24 <__copy_table_end__+0x70e4cc>
10000e6c:	3f1a36e2 	svccc	0x001a36e2
10000e70:	00000000 	andeq	r0, r0, r0
10000e74:	412e8480 	smlawbmi	lr, r0, r4, r8
	...
10000e80:	7fefffff 	svcvc	0x00efffff
10000e84:	3ff80000 	svccc	0x00f80000
10000e88:	3fe00000 	svccc	0x00e00000
10000e8c:	402c0000 	eormi	r0, ip, r0
10000e90:	40240000 	eormi	r0, r4, r0
10000e94:	40180000 	andsmi	r0, r8, r0
10000e98:	3ff00000 	svccc	0x00f00000	; IMB
10000e9c:	f04f 0800 	mov.w	r8, #0
10000ea0:	9b20      	ldr	r3, [sp, #128]	; 0x80
10000ea2:	f013 0902 	ands.w	r9, r3, #2
10000ea6:	d002      	beq.n	10000eae <_etoa+0x31e>
10000ea8:	b10f      	cbz	r7, 10000eae <_etoa+0x31e>
10000eaa:	f04f 0800 	mov.w	r8, #0
10000eae:	b13e      	cbz	r6, 10000ec0 <_etoa+0x330>
10000eb0:	ec53 2b18 	vmov	r2, r3, d8
10000eb4:	e9dd 0106 	ldrd	r0, r1, [sp, #24]
10000eb8:	f001 ff16 	bl	10002ce8 <__aeabi_ddiv>
10000ebc:	e9cd 0106 	strd	r0, r1, [sp, #24]
10000ec0:	2200      	movs	r2, #0
10000ec2:	2300      	movs	r3, #0
10000ec4:	e9dd 011c 	ldrd	r0, r1, [sp, #112]	; 0x70
10000ec8:	f002 f856 	bl	10002f78 <__aeabi_dcmplt>
10000ecc:	2800      	cmp	r0, #0
10000ece:	d13d      	bne.n	10000f4c <_etoa+0x3bc>
10000ed0:	9b20      	ldr	r3, [sp, #128]	; 0x80
10000ed2:	f423 6300 	bic.w	r3, r3, #2048	; 0x800
10000ed6:	9304      	str	r3, [sp, #16]
10000ed8:	f8cd 800c 	str.w	r8, [sp, #12]
10000edc:	9b1e      	ldr	r3, [sp, #120]	; 0x78
10000ede:	9302      	str	r3, [sp, #8]
10000ee0:	ed9d 7b06 	vldr	d7, [sp, #24]
10000ee4:	ed8d 7b00 	vstr	d7, [sp]
10000ee8:	462b      	mov	r3, r5
10000eea:	465a      	mov	r2, fp
10000eec:	4621      	mov	r1, r4
10000eee:	4650      	mov	r0, sl
10000ef0:	f000 f846 	bl	10000f80 <_ftoa>
10000ef4:	2f00      	cmp	r7, #0
10000ef6:	f43f af74 	beq.w	10000de2 <_etoa+0x252>
10000efa:	9b20      	ldr	r3, [sp, #128]	; 0x80
10000efc:	f013 0f20 	tst.w	r3, #32
10000f00:	d02c      	beq.n	10000f5c <_etoa+0x3cc>
10000f02:	f04f 0c45 	mov.w	ip, #69	; 0x45
10000f06:	f100 0801 	add.w	r8, r0, #1
10000f0a:	462b      	mov	r3, r5
10000f0c:	4602      	mov	r2, r0
10000f0e:	4621      	mov	r1, r4
10000f10:	4660      	mov	r0, ip
10000f12:	47d0      	blx	sl
10000f14:	ea86 73e6 	eor.w	r3, r6, r6, asr #31
10000f18:	eba3 73e6 	sub.w	r3, r3, r6, asr #31
10000f1c:	2205      	movs	r2, #5
10000f1e:	9205      	str	r2, [sp, #20]
10000f20:	3f01      	subs	r7, #1
10000f22:	9704      	str	r7, [sp, #16]
10000f24:	2200      	movs	r2, #0
10000f26:	9203      	str	r2, [sp, #12]
10000f28:	220a      	movs	r2, #10
10000f2a:	9202      	str	r2, [sp, #8]
10000f2c:	0ff0      	lsrs	r0, r6, #31
10000f2e:	9001      	str	r0, [sp, #4]
10000f30:	9300      	str	r3, [sp, #0]
10000f32:	462b      	mov	r3, r5
10000f34:	4642      	mov	r2, r8
10000f36:	4621      	mov	r1, r4
10000f38:	4650      	mov	r0, sl
10000f3a:	f7ff fd79 	bl	10000a30 <_ntoa_long>
10000f3e:	f1b9 0f00 	cmp.w	r9, #0
10000f42:	f43f af4e 	beq.w	10000de2 <_etoa+0x252>
10000f46:	4602      	mov	r2, r0
10000f48:	9f1f      	ldr	r7, [sp, #124]	; 0x7c
10000f4a:	e010      	b.n	10000f6e <_etoa+0x3de>
10000f4c:	e9dd 0106 	ldrd	r0, r1, [sp, #24]
10000f50:	4602      	mov	r2, r0
10000f52:	f101 4300 	add.w	r3, r1, #2147483648	; 0x80000000
10000f56:	e9cd 2306 	strd	r2, r3, [sp, #24]
10000f5a:	e7b9      	b.n	10000ed0 <_etoa+0x340>
10000f5c:	f04f 0c65 	mov.w	ip, #101	; 0x65
10000f60:	e7d1      	b.n	10000f06 <_etoa+0x376>
10000f62:	1c56      	adds	r6, r2, #1
10000f64:	462b      	mov	r3, r5
10000f66:	4621      	mov	r1, r4
10000f68:	2020      	movs	r0, #32
10000f6a:	47d0      	blx	sl
10000f6c:	4632      	mov	r2, r6
10000f6e:	eba2 030b 	sub.w	r3, r2, fp
10000f72:	42bb      	cmp	r3, r7
10000f74:	d3f5      	bcc.n	10000f62 <_etoa+0x3d2>
10000f76:	4610      	mov	r0, r2
10000f78:	e733      	b.n	10000de2 <_etoa+0x252>
10000f7a:	bf00      	nop
10000f7c:	0000      	movs	r0, r0
	...

10000f80 <_ftoa>:
10000f80:	e92d 4ff0 	stmdb	sp!, {r4, r5, r6, r7, r8, r9, sl, fp, lr}
10000f84:	ed2d 8b02 	vpush	{d8}
10000f88:	b095      	sub	sp, #84	; 0x54
10000f8a:	9007      	str	r0, [sp, #28]
10000f8c:	910a      	str	r1, [sp, #40]	; 0x28
10000f8e:	4692      	mov	sl, r2
10000f90:	469b      	mov	fp, r3
10000f92:	e9dd 8920 	ldrd	r8, r9, [sp, #128]	; 0x80
10000f96:	9d22      	ldr	r5, [sp, #136]	; 0x88
10000f98:	4642      	mov	r2, r8
10000f9a:	464b      	mov	r3, r9
10000f9c:	4640      	mov	r0, r8
10000f9e:	4649      	mov	r1, r9
10000fa0:	f001 ffe0 	bl	10002f64 <__aeabi_dcmpeq>
10000fa4:	2800      	cmp	r0, #0
10000fa6:	d040      	beq.n	1000102a <_ftoa+0xaa>
10000fa8:	f04f 32ff 	mov.w	r2, #4294967295
10000fac:	f46f 1380 	mvn.w	r3, #1048576	; 0x100000
10000fb0:	4640      	mov	r0, r8
10000fb2:	4649      	mov	r1, r9
10000fb4:	f001 ffe0 	bl	10002f78 <__aeabi_dcmplt>
10000fb8:	2800      	cmp	r0, #0
10000fba:	d145      	bne.n	10001048 <_ftoa+0xc8>
10000fbc:	f04f 32ff 	mov.w	r2, #4294967295
10000fc0:	4b9f      	ldr	r3, [pc, #636]	; (10001240 <_ftoa+0x2c0>)
10000fc2:	4640      	mov	r0, r8
10000fc4:	4649      	mov	r1, r9
10000fc6:	f001 fff5 	bl	10002fb4 <__aeabi_dcmpgt>
10000fca:	2800      	cmp	r0, #0
10000fcc:	d14b      	bne.n	10001066 <_ftoa+0xe6>
10000fce:	a398      	add	r3, pc, #608	; (adr r3, 10001230 <_ftoa+0x2b0>)
10000fd0:	e9d3 2300 	ldrd	r2, r3, [r3]
10000fd4:	4640      	mov	r0, r8
10000fd6:	4649      	mov	r1, r9
10000fd8:	f001 ffec 	bl	10002fb4 <__aeabi_dcmpgt>
10000fdc:	2800      	cmp	r0, #0
10000fde:	d15a      	bne.n	10001096 <_ftoa+0x116>
10000fe0:	a395      	add	r3, pc, #596	; (adr r3, 10001238 <_ftoa+0x2b8>)
10000fe2:	e9d3 2300 	ldrd	r2, r3, [r3]
10000fe6:	4640      	mov	r0, r8
10000fe8:	4649      	mov	r1, r9
10000fea:	f001 ffc5 	bl	10002f78 <__aeabi_dcmplt>
10000fee:	2800      	cmp	r0, #0
10000ff0:	d151      	bne.n	10001096 <_ftoa+0x116>
10000ff2:	2200      	movs	r2, #0
10000ff4:	2300      	movs	r3, #0
10000ff6:	4640      	mov	r0, r8
10000ff8:	4649      	mov	r1, r9
10000ffa:	f001 ffbd 	bl	10002f78 <__aeabi_dcmplt>
10000ffe:	2800      	cmp	r0, #0
10001000:	d157      	bne.n	100010b2 <_ftoa+0x132>
10001002:	2300      	movs	r3, #0
10001004:	930b      	str	r3, [sp, #44]	; 0x2c
10001006:	9b24      	ldr	r3, [sp, #144]	; 0x90
10001008:	f413 6f80 	tst.w	r3, #1024	; 0x400
1000100c:	d05c      	beq.n	100010c8 <_ftoa+0x148>
1000100e:	2400      	movs	r4, #0
10001010:	2c1f      	cmp	r4, #31
10001012:	d85b      	bhi.n	100010cc <_ftoa+0x14c>
10001014:	2d09      	cmp	r5, #9
10001016:	d959      	bls.n	100010cc <_ftoa+0x14c>
10001018:	f104 0350 	add.w	r3, r4, #80	; 0x50
1000101c:	446b      	add	r3, sp
1000101e:	2230      	movs	r2, #48	; 0x30
10001020:	f803 2c20 	strb.w	r2, [r3, #-32]
10001024:	3d01      	subs	r5, #1
10001026:	3401      	adds	r4, #1
10001028:	e7f2      	b.n	10001010 <_ftoa+0x90>
1000102a:	9b24      	ldr	r3, [sp, #144]	; 0x90
1000102c:	9303      	str	r3, [sp, #12]
1000102e:	9b23      	ldr	r3, [sp, #140]	; 0x8c
10001030:	9302      	str	r3, [sp, #8]
10001032:	2303      	movs	r3, #3
10001034:	9301      	str	r3, [sp, #4]
10001036:	4b83      	ldr	r3, [pc, #524]	; (10001244 <_ftoa+0x2c4>)
10001038:	9300      	str	r3, [sp, #0]
1000103a:	465b      	mov	r3, fp
1000103c:	4652      	mov	r2, sl
1000103e:	990a      	ldr	r1, [sp, #40]	; 0x28
10001040:	9807      	ldr	r0, [sp, #28]
10001042:	f7ff fc1a 	bl	1000087a <_out_rev>
10001046:	e12c      	b.n	100012a2 <_ftoa+0x322>
10001048:	9b24      	ldr	r3, [sp, #144]	; 0x90
1000104a:	9303      	str	r3, [sp, #12]
1000104c:	9b23      	ldr	r3, [sp, #140]	; 0x8c
1000104e:	9302      	str	r3, [sp, #8]
10001050:	2304      	movs	r3, #4
10001052:	9301      	str	r3, [sp, #4]
10001054:	4b7c      	ldr	r3, [pc, #496]	; (10001248 <_ftoa+0x2c8>)
10001056:	9300      	str	r3, [sp, #0]
10001058:	465b      	mov	r3, fp
1000105a:	4652      	mov	r2, sl
1000105c:	990a      	ldr	r1, [sp, #40]	; 0x28
1000105e:	9807      	ldr	r0, [sp, #28]
10001060:	f7ff fc0b 	bl	1000087a <_out_rev>
10001064:	e11d      	b.n	100012a2 <_ftoa+0x322>
10001066:	9b24      	ldr	r3, [sp, #144]	; 0x90
10001068:	f013 0304 	ands.w	r3, r3, #4
1000106c:	d00f      	beq.n	1000108e <_ftoa+0x10e>
1000106e:	4a77      	ldr	r2, [pc, #476]	; (1000124c <_ftoa+0x2cc>)
10001070:	b17b      	cbz	r3, 10001092 <_ftoa+0x112>
10001072:	2304      	movs	r3, #4
10001074:	9924      	ldr	r1, [sp, #144]	; 0x90
10001076:	9103      	str	r1, [sp, #12]
10001078:	9923      	ldr	r1, [sp, #140]	; 0x8c
1000107a:	9102      	str	r1, [sp, #8]
1000107c:	9301      	str	r3, [sp, #4]
1000107e:	9200      	str	r2, [sp, #0]
10001080:	465b      	mov	r3, fp
10001082:	4652      	mov	r2, sl
10001084:	990a      	ldr	r1, [sp, #40]	; 0x28
10001086:	9807      	ldr	r0, [sp, #28]
10001088:	f7ff fbf7 	bl	1000087a <_out_rev>
1000108c:	e109      	b.n	100012a2 <_ftoa+0x322>
1000108e:	4a70      	ldr	r2, [pc, #448]	; (10001250 <_ftoa+0x2d0>)
10001090:	e7ee      	b.n	10001070 <_ftoa+0xf0>
10001092:	2303      	movs	r3, #3
10001094:	e7ee      	b.n	10001074 <_ftoa+0xf4>
10001096:	9b24      	ldr	r3, [sp, #144]	; 0x90
10001098:	9304      	str	r3, [sp, #16]
1000109a:	9b23      	ldr	r3, [sp, #140]	; 0x8c
1000109c:	9303      	str	r3, [sp, #12]
1000109e:	9502      	str	r5, [sp, #8]
100010a0:	e9cd 8900 	strd	r8, r9, [sp]
100010a4:	465b      	mov	r3, fp
100010a6:	4652      	mov	r2, sl
100010a8:	990a      	ldr	r1, [sp, #40]	; 0x28
100010aa:	9807      	ldr	r0, [sp, #28]
100010ac:	f7ff fd70 	bl	10000b90 <_etoa>
100010b0:	e0f7      	b.n	100012a2 <_ftoa+0x322>
100010b2:	4642      	mov	r2, r8
100010b4:	464b      	mov	r3, r9
100010b6:	2000      	movs	r0, #0
100010b8:	2100      	movs	r1, #0
100010ba:	f001 fb33 	bl	10002724 <__aeabi_dsub>
100010be:	4680      	mov	r8, r0
100010c0:	4689      	mov	r9, r1
100010c2:	2301      	movs	r3, #1
100010c4:	930b      	str	r3, [sp, #44]	; 0x2c
100010c6:	e79e      	b.n	10001006 <_ftoa+0x86>
100010c8:	2506      	movs	r5, #6
100010ca:	e7a0      	b.n	1000100e <_ftoa+0x8e>
100010cc:	4640      	mov	r0, r8
100010ce:	4649      	mov	r1, r9
100010d0:	f001 ff7a 	bl	10002fc8 <__aeabi_d2iz>
100010d4:	4606      	mov	r6, r0
100010d6:	f001 fc73 	bl	100029c0 <__aeabi_i2d>
100010da:	4602      	mov	r2, r0
100010dc:	460b      	mov	r3, r1
100010de:	4640      	mov	r0, r8
100010e0:	4649      	mov	r1, r9
100010e2:	f001 fb1f 	bl	10002724 <__aeabi_dsub>
100010e6:	4b5b      	ldr	r3, [pc, #364]	; (10001254 <_ftoa+0x2d4>)
100010e8:	eb03 03c5 	add.w	r3, r3, r5, lsl #3
100010ec:	ed93 8b00 	vldr	d8, [r3]
100010f0:	ec53 2b18 	vmov	r2, r3, d8
100010f4:	f001 fcce 	bl	10002a94 <__aeabi_dmul>
100010f8:	4602      	mov	r2, r0
100010fa:	460b      	mov	r3, r1
100010fc:	e9cd 2308 	strd	r2, r3, [sp, #32]
10001100:	f001 ff8a 	bl	10003018 <__aeabi_d2uiz>
10001104:	4607      	mov	r7, r0
10001106:	f001 fc4b 	bl	100029a0 <__aeabi_ui2d>
1000110a:	4602      	mov	r2, r0
1000110c:	460b      	mov	r3, r1
1000110e:	e9dd 0108 	ldrd	r0, r1, [sp, #32]
10001112:	f001 fb07 	bl	10002724 <__aeabi_dsub>
10001116:	4602      	mov	r2, r0
10001118:	460b      	mov	r3, r1
1000111a:	e9cd 2308 	strd	r2, r3, [sp, #32]
1000111e:	2200      	movs	r2, #0
10001120:	4b4d      	ldr	r3, [pc, #308]	; (10001258 <_ftoa+0x2d8>)
10001122:	f001 ff47 	bl	10002fb4 <__aeabi_dcmpgt>
10001126:	b350      	cbz	r0, 1000117e <_ftoa+0x1fe>
10001128:	3701      	adds	r7, #1
1000112a:	4638      	mov	r0, r7
1000112c:	f001 fc38 	bl	100029a0 <__aeabi_ui2d>
10001130:	4602      	mov	r2, r0
10001132:	460b      	mov	r3, r1
10001134:	ec51 0b18 	vmov	r0, r1, d8
10001138:	f001 ff28 	bl	10002f8c <__aeabi_dcmple>
1000113c:	b108      	cbz	r0, 10001142 <_ftoa+0x1c2>
1000113e:	3601      	adds	r6, #1
10001140:	2700      	movs	r7, #0
10001142:	bb55      	cbnz	r5, 1000119a <_ftoa+0x21a>
10001144:	4630      	mov	r0, r6
10001146:	f001 fc3b 	bl	100029c0 <__aeabi_i2d>
1000114a:	4602      	mov	r2, r0
1000114c:	460b      	mov	r3, r1
1000114e:	4640      	mov	r0, r8
10001150:	4649      	mov	r1, r9
10001152:	f001 fae7 	bl	10002724 <__aeabi_dsub>
10001156:	4607      	mov	r7, r0
10001158:	4688      	mov	r8, r1
1000115a:	2200      	movs	r2, #0
1000115c:	4b3e      	ldr	r3, [pc, #248]	; (10001258 <_ftoa+0x2d8>)
1000115e:	f001 ff0b 	bl	10002f78 <__aeabi_dcmplt>
10001162:	b138      	cbz	r0, 10001174 <_ftoa+0x1f4>
10001164:	2200      	movs	r2, #0
10001166:	4b3c      	ldr	r3, [pc, #240]	; (10001258 <_ftoa+0x2d8>)
10001168:	4638      	mov	r0, r7
1000116a:	4641      	mov	r1, r8
1000116c:	f001 ff22 	bl	10002fb4 <__aeabi_dcmpgt>
10001170:	2800      	cmp	r0, #0
10001172:	d042      	beq.n	100011fa <_ftoa+0x27a>
10001174:	f016 0f01 	tst.w	r6, #1
10001178:	d03f      	beq.n	100011fa <_ftoa+0x27a>
1000117a:	3601      	adds	r6, #1
1000117c:	e03d      	b.n	100011fa <_ftoa+0x27a>
1000117e:	2200      	movs	r2, #0
10001180:	4b35      	ldr	r3, [pc, #212]	; (10001258 <_ftoa+0x2d8>)
10001182:	e9dd 0108 	ldrd	r0, r1, [sp, #32]
10001186:	f001 fef7 	bl	10002f78 <__aeabi_dcmplt>
1000118a:	2800      	cmp	r0, #0
1000118c:	d1d9      	bne.n	10001142 <_ftoa+0x1c2>
1000118e:	b117      	cbz	r7, 10001196 <_ftoa+0x216>
10001190:	f017 0f01 	tst.w	r7, #1
10001194:	d0d5      	beq.n	10001142 <_ftoa+0x1c2>
10001196:	3701      	adds	r7, #1
10001198:	e7d3      	b.n	10001142 <_ftoa+0x1c2>
1000119a:	2c1f      	cmp	r4, #31
1000119c:	d817      	bhi.n	100011ce <_ftoa+0x24e>
1000119e:	3d01      	subs	r5, #1
100011a0:	4b2e      	ldr	r3, [pc, #184]	; (1000125c <_ftoa+0x2dc>)
100011a2:	fba3 2307 	umull	r2, r3, r3, r7
100011a6:	08db      	lsrs	r3, r3, #3
100011a8:	4619      	mov	r1, r3
100011aa:	eb03 0383 	add.w	r3, r3, r3, lsl #2
100011ae:	eba7 0343 	sub.w	r3, r7, r3, lsl #1
100011b2:	1c62      	adds	r2, r4, #1
100011b4:	3330      	adds	r3, #48	; 0x30
100011b6:	f104 0050 	add.w	r0, r4, #80	; 0x50
100011ba:	eb0d 0400 	add.w	r4, sp, r0
100011be:	f804 3c20 	strb.w	r3, [r4, #-32]
100011c2:	2f09      	cmp	r7, #9
100011c4:	d902      	bls.n	100011cc <_ftoa+0x24c>
100011c6:	460f      	mov	r7, r1
100011c8:	4614      	mov	r4, r2
100011ca:	e7e6      	b.n	1000119a <_ftoa+0x21a>
100011cc:	4614      	mov	r4, r2
100011ce:	2c1f      	cmp	r4, #31
100011d0:	d80a      	bhi.n	100011e8 <_ftoa+0x268>
100011d2:	1e6b      	subs	r3, r5, #1
100011d4:	b145      	cbz	r5, 100011e8 <_ftoa+0x268>
100011d6:	f104 0250 	add.w	r2, r4, #80	; 0x50
100011da:	446a      	add	r2, sp
100011dc:	2130      	movs	r1, #48	; 0x30
100011de:	f802 1c20 	strb.w	r1, [r2, #-32]
100011e2:	461d      	mov	r5, r3
100011e4:	3401      	adds	r4, #1
100011e6:	e7f2      	b.n	100011ce <_ftoa+0x24e>
100011e8:	2c1f      	cmp	r4, #31
100011ea:	d806      	bhi.n	100011fa <_ftoa+0x27a>
100011ec:	f104 0350 	add.w	r3, r4, #80	; 0x50
100011f0:	446b      	add	r3, sp
100011f2:	222e      	movs	r2, #46	; 0x2e
100011f4:	f803 2c20 	strb.w	r2, [r3, #-32]
100011f8:	3401      	adds	r4, #1
100011fa:	2c1f      	cmp	r4, #31
100011fc:	d833      	bhi.n	10001266 <_ftoa+0x2e6>
100011fe:	4a18      	ldr	r2, [pc, #96]	; (10001260 <_ftoa+0x2e0>)
10001200:	fb82 3206 	smull	r3, r2, r2, r6
10001204:	17f3      	asrs	r3, r6, #31
10001206:	ebc3 03a2 	rsb	r3, r3, r2, asr #2
1000120a:	461a      	mov	r2, r3
1000120c:	eb03 0383 	add.w	r3, r3, r3, lsl #2
10001210:	eba6 0343 	sub.w	r3, r6, r3, lsl #1
10001214:	1c61      	adds	r1, r4, #1
10001216:	3330      	adds	r3, #48	; 0x30
10001218:	f104 0050 	add.w	r0, r4, #80	; 0x50
1000121c:	eb0d 0400 	add.w	r4, sp, r0
10001220:	f804 3c20 	strb.w	r3, [r4, #-32]
10001224:	4616      	mov	r6, r2
10001226:	b1ea      	cbz	r2, 10001264 <_ftoa+0x2e4>
10001228:	460c      	mov	r4, r1
1000122a:	e7e6      	b.n	100011fa <_ftoa+0x27a>
1000122c:	f3af 8000 	nop.w
10001230:	00000000 	andeq	r0, r0, r0
10001234:	41cdcd65 	bicmi	ip, sp, r5, ror #26
10001238:	00000000 	andeq	r0, r0, r0
1000123c:	c1cdcd65 	bicgt	ip, sp, r5, ror #26
10001240:	7fefffff 	svcvc	0x00efffff
10001244:	100033b8 			; <UNDEFINED> instruction: 0x100033b8
10001248:	100033bc 			; <UNDEFINED> instruction: 0x100033bc
1000124c:	100033b0 			; <UNDEFINED> instruction: 0x100033b0
10001250:	100033ac 	andne	r3, r0, ip, lsr #7
10001254:	100033c8 	andne	r3, r0, r8, asr #7
10001258:	3fe00000 	svccc	0x00e00000
1000125c:	cccccccd 	stclgt	12, cr12, [ip], {205}	; 0xcd
10001260:	66666667 	strbtvs	r6, [r6], -r7, ror #12
10001264:	460c      	mov	r4, r1
10001266:	9b24      	ldr	r3, [sp, #144]	; 0x90
10001268:	f003 0303 	and.w	r3, r3, #3
1000126c:	2b01      	cmp	r3, #1
1000126e:	d01d      	beq.n	100012ac <_ftoa+0x32c>
10001270:	2c1f      	cmp	r4, #31
10001272:	d809      	bhi.n	10001288 <_ftoa+0x308>
10001274:	9b0b      	ldr	r3, [sp, #44]	; 0x2c
10001276:	2b00      	cmp	r3, #0
10001278:	d035      	beq.n	100012e6 <_ftoa+0x366>
1000127a:	f104 0350 	add.w	r3, r4, #80	; 0x50
1000127e:	446b      	add	r3, sp
10001280:	222d      	movs	r2, #45	; 0x2d
10001282:	f803 2c20 	strb.w	r2, [r3, #-32]
10001286:	3401      	adds	r4, #1
10001288:	9b24      	ldr	r3, [sp, #144]	; 0x90
1000128a:	9303      	str	r3, [sp, #12]
1000128c:	9b23      	ldr	r3, [sp, #140]	; 0x8c
1000128e:	9302      	str	r3, [sp, #8]
10001290:	9401      	str	r4, [sp, #4]
10001292:	ab0c      	add	r3, sp, #48	; 0x30
10001294:	9300      	str	r3, [sp, #0]
10001296:	465b      	mov	r3, fp
10001298:	4652      	mov	r2, sl
1000129a:	990a      	ldr	r1, [sp, #40]	; 0x28
1000129c:	9807      	ldr	r0, [sp, #28]
1000129e:	f7ff faec 	bl	1000087a <_out_rev>
100012a2:	b015      	add	sp, #84	; 0x54
100012a4:	ecbd 8b02 	vpop	{d8}
100012a8:	e8bd 8ff0 	ldmia.w	sp!, {r4, r5, r6, r7, r8, r9, sl, fp, pc}
100012ac:	9b23      	ldr	r3, [sp, #140]	; 0x8c
100012ae:	b1b3      	cbz	r3, 100012de <_ftoa+0x35e>
100012b0:	9b0b      	ldr	r3, [sp, #44]	; 0x2c
100012b2:	b91b      	cbnz	r3, 100012bc <_ftoa+0x33c>
100012b4:	9b24      	ldr	r3, [sp, #144]	; 0x90
100012b6:	f013 0f0c 	tst.w	r3, #12
100012ba:	d012      	beq.n	100012e2 <_ftoa+0x362>
100012bc:	9b23      	ldr	r3, [sp, #140]	; 0x8c
100012be:	3b01      	subs	r3, #1
100012c0:	9323      	str	r3, [sp, #140]	; 0x8c
100012c2:	4619      	mov	r1, r3
100012c4:	e006      	b.n	100012d4 <_ftoa+0x354>
100012c6:	f104 0350 	add.w	r3, r4, #80	; 0x50
100012ca:	446b      	add	r3, sp
100012cc:	2230      	movs	r2, #48	; 0x30
100012ce:	f803 2c20 	strb.w	r2, [r3, #-32]
100012d2:	3401      	adds	r4, #1
100012d4:	428c      	cmp	r4, r1
100012d6:	d2cb      	bcs.n	10001270 <_ftoa+0x2f0>
100012d8:	2c1f      	cmp	r4, #31
100012da:	d9f4      	bls.n	100012c6 <_ftoa+0x346>
100012dc:	e7c8      	b.n	10001270 <_ftoa+0x2f0>
100012de:	9923      	ldr	r1, [sp, #140]	; 0x8c
100012e0:	e7f8      	b.n	100012d4 <_ftoa+0x354>
100012e2:	9923      	ldr	r1, [sp, #140]	; 0x8c
100012e4:	e7f6      	b.n	100012d4 <_ftoa+0x354>
100012e6:	9b24      	ldr	r3, [sp, #144]	; 0x90
100012e8:	f013 0f04 	tst.w	r3, #4
100012ec:	d007      	beq.n	100012fe <_ftoa+0x37e>
100012ee:	f104 0350 	add.w	r3, r4, #80	; 0x50
100012f2:	446b      	add	r3, sp
100012f4:	222b      	movs	r2, #43	; 0x2b
100012f6:	f803 2c20 	strb.w	r2, [r3, #-32]
100012fa:	3401      	adds	r4, #1
100012fc:	e7c4      	b.n	10001288 <_ftoa+0x308>
100012fe:	9b24      	ldr	r3, [sp, #144]	; 0x90
10001300:	f013 0f08 	tst.w	r3, #8
10001304:	d0c0      	beq.n	10001288 <_ftoa+0x308>
10001306:	f104 0350 	add.w	r3, r4, #80	; 0x50
1000130a:	446b      	add	r3, sp
1000130c:	2220      	movs	r2, #32
1000130e:	f803 2c20 	strb.w	r2, [r3, #-32]
10001312:	3401      	adds	r4, #1
10001314:	e7b8      	b.n	10001288 <_ftoa+0x308>
10001316:	bf00      	nop

10001318 <_vsnprintf>:
10001318:	e92d 4ff0 	stmdb	sp!, {r4, r5, r6, r7, r8, r9, sl, fp, lr}
1000131c:	b08f      	sub	sp, #60	; 0x3c
1000131e:	4607      	mov	r7, r0
10001320:	4616      	mov	r6, r2
10001322:	930d      	str	r3, [sp, #52]	; 0x34
10001324:	4688      	mov	r8, r1
10001326:	2900      	cmp	r1, #0
10001328:	f000 8324 	beq.w	10001974 <_vsnprintf+0x65c>
1000132c:	2400      	movs	r4, #0
1000132e:	9b0d      	ldr	r3, [sp, #52]	; 0x34
10001330:	7818      	ldrb	r0, [r3, #0]
10001332:	2800      	cmp	r0, #0
10001334:	f000 8320 	beq.w	10001978 <_vsnprintf+0x660>
10001338:	2825      	cmp	r0, #37	; 0x25
1000133a:	d009      	beq.n	10001350 <_vsnprintf+0x38>
1000133c:	1c65      	adds	r5, r4, #1
1000133e:	4633      	mov	r3, r6
10001340:	4622      	mov	r2, r4
10001342:	4641      	mov	r1, r8
10001344:	47b8      	blx	r7
10001346:	9b0d      	ldr	r3, [sp, #52]	; 0x34
10001348:	3301      	adds	r3, #1
1000134a:	930d      	str	r3, [sp, #52]	; 0x34
1000134c:	462c      	mov	r4, r5
1000134e:	e7ee      	b.n	1000132e <_vsnprintf+0x16>
10001350:	3301      	adds	r3, #1
10001352:	930d      	str	r3, [sp, #52]	; 0x34
10001354:	2500      	movs	r5, #0
10001356:	9b0d      	ldr	r3, [sp, #52]	; 0x34
10001358:	7819      	ldrb	r1, [r3, #0]
1000135a:	f1a1 0220 	sub.w	r2, r1, #32
1000135e:	2a10      	cmp	r2, #16
10001360:	d80a      	bhi.n	10001378 <_vsnprintf+0x60>
10001362:	e8df f002 	tbb	[pc, r2]
10001366:	3d090938 	vstrcc.16	s0, [r9, #-112]	; 0xffffff90	; <UNPREDICTABLE>
1000136a:	09090909 	stmdbeq	r9, {r0, r3, r8, fp}
1000136e:	33090909 	movwcc	r0, #39177	; 0x9909
10001372:	09092e09 	stmdbeq	r9, {r0, r3, r9, sl, fp, sp}
10001376:	f1a10029 			; <UNDEFINED> instruction: 0xf1a10029
1000137a:	0330      	lsls	r0, r6, #12
1000137c:	b2db      	uxtb	r3, r3
1000137e:	2b09      	cmp	r3, #9
10001380:	d933      	bls.n	100013ea <_vsnprintf+0xd2>
10001382:	292a      	cmp	r1, #42	; 0x2a
10001384:	d036      	beq.n	100013f4 <_vsnprintf+0xdc>
10001386:	2300      	movs	r3, #0
10001388:	930a      	str	r3, [sp, #40]	; 0x28
1000138a:	9b0d      	ldr	r3, [sp, #52]	; 0x34
1000138c:	781a      	ldrb	r2, [r3, #0]
1000138e:	2a2e      	cmp	r2, #46	; 0x2e
10001390:	d040      	beq.n	10001414 <_vsnprintf+0xfc>
10001392:	f04f 0b00 	mov.w	fp, #0
10001396:	9a0d      	ldr	r2, [sp, #52]	; 0x34
10001398:	7813      	ldrb	r3, [r2, #0]
1000139a:	3b68      	subs	r3, #104	; 0x68
1000139c:	2b12      	cmp	r3, #18
1000139e:	d877      	bhi.n	10001490 <_vsnprintf+0x178>
100013a0:	e8df f003 	tbb	[pc, r3]
100013a4:	76d37664 	ldrbvc	r7, [r3], r4, ror #12
100013a8:	76767656 			; <UNDEFINED> instruction: 0x76767656
100013ac:	76767676 			; <UNDEFINED> instruction: 0x76767676
100013b0:	76767672 			; <UNDEFINED> instruction: 0x76767672
100013b4:	00d87676 	sbcseq	r7, r8, r6, ror r6
100013b8:	f045 0501 	orr.w	r5, r5, #1
100013bc:	3301      	adds	r3, #1
100013be:	930d      	str	r3, [sp, #52]	; 0x34
100013c0:	e7c9      	b.n	10001356 <_vsnprintf+0x3e>
100013c2:	f045 0502 	orr.w	r5, r5, #2
100013c6:	3301      	adds	r3, #1
100013c8:	930d      	str	r3, [sp, #52]	; 0x34
100013ca:	e7c4      	b.n	10001356 <_vsnprintf+0x3e>
100013cc:	f045 0504 	orr.w	r5, r5, #4
100013d0:	3301      	adds	r3, #1
100013d2:	930d      	str	r3, [sp, #52]	; 0x34
100013d4:	e7bf      	b.n	10001356 <_vsnprintf+0x3e>
100013d6:	f045 0508 	orr.w	r5, r5, #8
100013da:	3301      	adds	r3, #1
100013dc:	930d      	str	r3, [sp, #52]	; 0x34
100013de:	e7ba      	b.n	10001356 <_vsnprintf+0x3e>
100013e0:	f045 0510 	orr.w	r5, r5, #16
100013e4:	3301      	adds	r3, #1
100013e6:	930d      	str	r3, [sp, #52]	; 0x34
100013e8:	e7b5      	b.n	10001356 <_vsnprintf+0x3e>
100013ea:	a80d      	add	r0, sp, #52	; 0x34
100013ec:	f7ff fa33 	bl	10000856 <_atoi>
100013f0:	900a      	str	r0, [sp, #40]	; 0x28
100013f2:	e7ca      	b.n	1000138a <_vsnprintf+0x72>
100013f4:	9b18      	ldr	r3, [sp, #96]	; 0x60
100013f6:	1d1a      	adds	r2, r3, #4
100013f8:	9218      	str	r2, [sp, #96]	; 0x60
100013fa:	6818      	ldr	r0, [r3, #0]
100013fc:	2800      	cmp	r0, #0
100013fe:	db04      	blt.n	1000140a <_vsnprintf+0xf2>
10001400:	900a      	str	r0, [sp, #40]	; 0x28
10001402:	9b0d      	ldr	r3, [sp, #52]	; 0x34
10001404:	3301      	adds	r3, #1
10001406:	930d      	str	r3, [sp, #52]	; 0x34
10001408:	e7bf      	b.n	1000138a <_vsnprintf+0x72>
1000140a:	f045 0502 	orr.w	r5, r5, #2
1000140e:	4243      	negs	r3, r0
10001410:	930a      	str	r3, [sp, #40]	; 0x28
10001412:	e7f6      	b.n	10001402 <_vsnprintf+0xea>
10001414:	f445 6580 	orr.w	r5, r5, #1024	; 0x400
10001418:	1c5a      	adds	r2, r3, #1
1000141a:	920d      	str	r2, [sp, #52]	; 0x34
1000141c:	785a      	ldrb	r2, [r3, #1]
1000141e:	f1a2 0330 	sub.w	r3, r2, #48	; 0x30
10001422:	b2db      	uxtb	r3, r3
10001424:	2b09      	cmp	r3, #9
10001426:	d904      	bls.n	10001432 <_vsnprintf+0x11a>
10001428:	2a2a      	cmp	r2, #42	; 0x2a
1000142a:	d007      	beq.n	1000143c <_vsnprintf+0x124>
1000142c:	f04f 0b00 	mov.w	fp, #0
10001430:	e7b1      	b.n	10001396 <_vsnprintf+0x7e>
10001432:	a80d      	add	r0, sp, #52	; 0x34
10001434:	f7ff fa0f 	bl	10000856 <_atoi>
10001438:	4683      	mov	fp, r0
1000143a:	e7ac      	b.n	10001396 <_vsnprintf+0x7e>
1000143c:	9b18      	ldr	r3, [sp, #96]	; 0x60
1000143e:	1d1a      	adds	r2, r3, #4
10001440:	9218      	str	r2, [sp, #96]	; 0x60
10001442:	681b      	ldr	r3, [r3, #0]
10001444:	ea23 7be3 	bic.w	fp, r3, r3, asr #31
10001448:	9b0d      	ldr	r3, [sp, #52]	; 0x34
1000144a:	3301      	adds	r3, #1
1000144c:	930d      	str	r3, [sp, #52]	; 0x34
1000144e:	e7a2      	b.n	10001396 <_vsnprintf+0x7e>
10001450:	f445 7180 	orr.w	r1, r5, #256	; 0x100
10001454:	1c53      	adds	r3, r2, #1
10001456:	930d      	str	r3, [sp, #52]	; 0x34
10001458:	7852      	ldrb	r2, [r2, #1]
1000145a:	2a6c      	cmp	r2, #108	; 0x6c
1000145c:	d001      	beq.n	10001462 <_vsnprintf+0x14a>
1000145e:	460d      	mov	r5, r1
10001460:	e016      	b.n	10001490 <_vsnprintf+0x178>
10001462:	f445 7540 	orr.w	r5, r5, #768	; 0x300
10001466:	3301      	adds	r3, #1
10001468:	930d      	str	r3, [sp, #52]	; 0x34
1000146a:	e011      	b.n	10001490 <_vsnprintf+0x178>
1000146c:	f045 0180 	orr.w	r1, r5, #128	; 0x80
10001470:	1c53      	adds	r3, r2, #1
10001472:	930d      	str	r3, [sp, #52]	; 0x34
10001474:	7852      	ldrb	r2, [r2, #1]
10001476:	2a68      	cmp	r2, #104	; 0x68
10001478:	d001      	beq.n	1000147e <_vsnprintf+0x166>
1000147a:	460d      	mov	r5, r1
1000147c:	e008      	b.n	10001490 <_vsnprintf+0x178>
1000147e:	f045 05c0 	orr.w	r5, r5, #192	; 0xc0
10001482:	3301      	adds	r3, #1
10001484:	930d      	str	r3, [sp, #52]	; 0x34
10001486:	e003      	b.n	10001490 <_vsnprintf+0x178>
10001488:	f445 7580 	orr.w	r5, r5, #256	; 0x100
1000148c:	3201      	adds	r2, #1
1000148e:	920d      	str	r2, [sp, #52]	; 0x34
10001490:	9b0d      	ldr	r3, [sp, #52]	; 0x34
10001492:	7818      	ldrb	r0, [r3, #0]
10001494:	f1a0 0325 	sub.w	r3, r0, #37	; 0x25
10001498:	2b53      	cmp	r3, #83	; 0x53
1000149a:	f200 8261 	bhi.w	10001960 <_vsnprintf+0x648>
1000149e:	e8df f013 	tbh	[pc, r3, lsl #1]
100014a2:	025f0254 	subseq	r0, pc, #84, 4	; 0x40000005
100014a6:	025f025f 	subseq	r0, pc, #-268435451	; 0xf0000005
100014aa:	025f025f 	subseq	r0, pc, #-268435451	; 0xf0000005
100014ae:	025f025f 	subseq	r0, pc, #-268435451	; 0xf0000005
100014b2:	025f025f 	subseq	r0, pc, #-268435451	; 0xf0000005
100014b6:	025f025f 	subseq	r0, pc, #-268435451	; 0xf0000005
100014ba:	025f025f 	subseq	r0, pc, #-268435451	; 0xf0000005
100014be:	025f025f 	subseq	r0, pc, #-268435451	; 0xf0000005
100014c2:	025f025f 	subseq	r0, pc, #-268435451	; 0xf0000005
100014c6:	025f025f 	subseq	r0, pc, #-268435451	; 0xf0000005
100014ca:	025f025f 	subseq	r0, pc, #-268435451	; 0xf0000005
100014ce:	025f025f 	subseq	r0, pc, #-268435451	; 0xf0000005
100014d2:	025f025f 	subseq	r0, pc, #-268435451	; 0xf0000005
100014d6:	025f025f 	subseq	r0, pc, #-268435451	; 0xf0000005
100014da:	025f025f 	subseq	r0, pc, #-268435451	; 0xf0000005
100014de:	025f025f 	subseq	r0, pc, #-268435451	; 0xf0000005
100014e2:	01540174 	cmpeq	r4, r4, ror r1
100014e6:	025f0174 	subseq	r0, pc, #116, 2
100014ea:	025f025f 	subseq	r0, pc, #-268435451	; 0xf0000005
100014ee:	025f025f 	subseq	r0, pc, #-268435451	; 0xf0000005
100014f2:	025f025f 	subseq	r0, pc, #-268435451	; 0xf0000005
100014f6:	025f025f 	subseq	r0, pc, #-268435451	; 0xf0000005
100014fa:	025f025f 	subseq	r0, pc, #-268435451	; 0xf0000005
100014fe:	025f025f 	subseq	r0, pc, #-268435451	; 0xf0000005
10001502:	025f025f 	subseq	r0, pc, #-268435451	; 0xf0000005
10001506:	005e025f 	subseq	r0, lr, pc, asr r2
1000150a:	025f025f 	subseq	r0, pc, #-268435451	; 0xf0000005
1000150e:	025f025f 	subseq	r0, pc, #-268435451	; 0xf0000005
10001512:	025f025f 	subseq	r0, pc, #-268435451	; 0xf0000005
10001516:	025f025f 	subseq	r0, pc, #-268435451	; 0xf0000005
1000151a:	005e025f 	subseq	r0, lr, pc, asr r2
1000151e:	005e019b 			; <UNDEFINED> instruction: 0x005e019b
10001522:	01540174 	cmpeq	r4, r4, ror r1
10001526:	025f0174 	subseq	r0, pc, #116, 2
1000152a:	025f005e 	subseq	r0, pc, #94	; 0x5e
1000152e:	025f025f 	subseq	r0, pc, #-268435451	; 0xf0000005
10001532:	025f025f 	subseq	r0, pc, #-268435451	; 0xf0000005
10001536:	0239005e 	eorseq	r0, r9, #94	; 0x5e
1000153a:	025f025f 	subseq	r0, pc, #-268435451	; 0xf0000005
1000153e:	025f01d4 	subseq	r0, pc, #212, 2	; 0x35
10001542:	025f005e 	subseq	r0, pc, #94	; 0x5e
10001546:	005e025f 	subseq	r0, lr, pc, asr r2
1000154a:	f445 7500 	orr.w	r5, r5, #512	; 0x200
1000154e:	3201      	adds	r2, #1
10001550:	920d      	str	r2, [sp, #52]	; 0x34
10001552:	e79d      	b.n	10001490 <_vsnprintf+0x178>
10001554:	f445 7580 	orr.w	r5, r5, #256	; 0x100
10001558:	3201      	adds	r2, #1
1000155a:	920d      	str	r2, [sp, #52]	; 0x34
1000155c:	e798      	b.n	10001490 <_vsnprintf+0x178>
1000155e:	2878      	cmp	r0, #120	; 0x78
10001560:	d009      	beq.n	10001576 <_vsnprintf+0x25e>
10001562:	2858      	cmp	r0, #88	; 0x58
10001564:	d03a      	beq.n	100015dc <_vsnprintf+0x2c4>
10001566:	286f      	cmp	r0, #111	; 0x6f
10001568:	d03a      	beq.n	100015e0 <_vsnprintf+0x2c8>
1000156a:	2862      	cmp	r0, #98	; 0x62
1000156c:	d03a      	beq.n	100015e4 <_vsnprintf+0x2cc>
1000156e:	f025 0510 	bic.w	r5, r5, #16
10001572:	230a      	movs	r3, #10
10001574:	e000      	b.n	10001578 <_vsnprintf+0x260>
10001576:	2310      	movs	r3, #16
10001578:	2858      	cmp	r0, #88	; 0x58
1000157a:	d035      	beq.n	100015e8 <_vsnprintf+0x2d0>
1000157c:	2869      	cmp	r0, #105	; 0x69
1000157e:	d003      	beq.n	10001588 <_vsnprintf+0x270>
10001580:	2864      	cmp	r0, #100	; 0x64
10001582:	d001      	beq.n	10001588 <_vsnprintf+0x270>
10001584:	f025 050c 	bic.w	r5, r5, #12
10001588:	f415 6f80 	tst.w	r5, #1024	; 0x400
1000158c:	d001      	beq.n	10001592 <_vsnprintf+0x27a>
1000158e:	f025 0501 	bic.w	r5, r5, #1
10001592:	2869      	cmp	r0, #105	; 0x69
10001594:	d02b      	beq.n	100015ee <_vsnprintf+0x2d6>
10001596:	2864      	cmp	r0, #100	; 0x64
10001598:	d029      	beq.n	100015ee <_vsnprintf+0x2d6>
1000159a:	f415 7f00 	tst.w	r5, #512	; 0x200
1000159e:	f040 8096 	bne.w	100016ce <_vsnprintf+0x3b6>
100015a2:	f415 7f80 	tst.w	r5, #256	; 0x100
100015a6:	f040 80ae 	bne.w	10001706 <_vsnprintf+0x3ee>
100015aa:	f015 0f40 	tst.w	r5, #64	; 0x40
100015ae:	f000 80bf 	beq.w	10001730 <_vsnprintf+0x418>
100015b2:	9a18      	ldr	r2, [sp, #96]	; 0x60
100015b4:	1d11      	adds	r1, r2, #4
100015b6:	9118      	str	r1, [sp, #96]	; 0x60
100015b8:	7812      	ldrb	r2, [r2, #0]
100015ba:	9505      	str	r5, [sp, #20]
100015bc:	990a      	ldr	r1, [sp, #40]	; 0x28
100015be:	9104      	str	r1, [sp, #16]
100015c0:	f8cd b00c 	str.w	fp, [sp, #12]
100015c4:	9302      	str	r3, [sp, #8]
100015c6:	2300      	movs	r3, #0
100015c8:	9301      	str	r3, [sp, #4]
100015ca:	9200      	str	r2, [sp, #0]
100015cc:	4633      	mov	r3, r6
100015ce:	4622      	mov	r2, r4
100015d0:	4641      	mov	r1, r8
100015d2:	4638      	mov	r0, r7
100015d4:	f7ff fa2c 	bl	10000a30 <_ntoa_long>
100015d8:	4604      	mov	r4, r0
100015da:	e029      	b.n	10001630 <_vsnprintf+0x318>
100015dc:	2310      	movs	r3, #16
100015de:	e7cb      	b.n	10001578 <_vsnprintf+0x260>
100015e0:	2308      	movs	r3, #8
100015e2:	e7c9      	b.n	10001578 <_vsnprintf+0x260>
100015e4:	2302      	movs	r3, #2
100015e6:	e7c7      	b.n	10001578 <_vsnprintf+0x260>
100015e8:	f045 0520 	orr.w	r5, r5, #32
100015ec:	e7c6      	b.n	1000157c <_vsnprintf+0x264>
100015ee:	f415 7f00 	tst.w	r5, #512	; 0x200
100015f2:	d121      	bne.n	10001638 <_vsnprintf+0x320>
100015f4:	f415 7f80 	tst.w	r5, #256	; 0x100
100015f8:	d142      	bne.n	10001680 <_vsnprintf+0x368>
100015fa:	f015 0f40 	tst.w	r5, #64	; 0x40
100015fe:	d058      	beq.n	100016b2 <_vsnprintf+0x39a>
10001600:	9a18      	ldr	r2, [sp, #96]	; 0x60
10001602:	1d11      	adds	r1, r2, #4
10001604:	9118      	str	r1, [sp, #96]	; 0x60
10001606:	7812      	ldrb	r2, [r2, #0]
10001608:	ea82 71e2 	eor.w	r1, r2, r2, asr #31
1000160c:	eba1 71e2 	sub.w	r1, r1, r2, asr #31
10001610:	9505      	str	r5, [sp, #20]
10001612:	980a      	ldr	r0, [sp, #40]	; 0x28
10001614:	9004      	str	r0, [sp, #16]
10001616:	f8cd b00c 	str.w	fp, [sp, #12]
1000161a:	9302      	str	r3, [sp, #8]
1000161c:	0fd2      	lsrs	r2, r2, #31
1000161e:	9201      	str	r2, [sp, #4]
10001620:	9100      	str	r1, [sp, #0]
10001622:	4633      	mov	r3, r6
10001624:	4622      	mov	r2, r4
10001626:	4641      	mov	r1, r8
10001628:	4638      	mov	r0, r7
1000162a:	f7ff fa01 	bl	10000a30 <_ntoa_long>
1000162e:	4604      	mov	r4, r0
10001630:	9b0d      	ldr	r3, [sp, #52]	; 0x34
10001632:	3301      	adds	r3, #1
10001634:	930d      	str	r3, [sp, #52]	; 0x34
10001636:	e67a      	b.n	1000132e <_vsnprintf+0x16>
10001638:	9a18      	ldr	r2, [sp, #96]	; 0x60
1000163a:	3207      	adds	r2, #7
1000163c:	f022 0207 	bic.w	r2, r2, #7
10001640:	f102 0108 	add.w	r1, r2, #8
10001644:	9118      	str	r1, [sp, #96]	; 0x60
10001646:	6851      	ldr	r1, [r2, #4]
10001648:	6812      	ldr	r2, [r2, #0]
1000164a:	4608      	mov	r0, r1
1000164c:	2900      	cmp	r1, #0
1000164e:	db13      	blt.n	10001678 <_vsnprintf+0x360>
10001650:	9508      	str	r5, [sp, #32]
10001652:	9d0a      	ldr	r5, [sp, #40]	; 0x28
10001654:	9507      	str	r5, [sp, #28]
10001656:	f8cd b018 	str.w	fp, [sp, #24]
1000165a:	9304      	str	r3, [sp, #16]
1000165c:	2300      	movs	r3, #0
1000165e:	9305      	str	r3, [sp, #20]
10001660:	0fc9      	lsrs	r1, r1, #31
10001662:	9102      	str	r1, [sp, #8]
10001664:	9200      	str	r2, [sp, #0]
10001666:	9001      	str	r0, [sp, #4]
10001668:	4633      	mov	r3, r6
1000166a:	4622      	mov	r2, r4
1000166c:	4641      	mov	r1, r8
1000166e:	4638      	mov	r0, r7
10001670:	f7ff fa28 	bl	10000ac4 <_ntoa_long_long>
10001674:	4604      	mov	r4, r0
10001676:	e7db      	b.n	10001630 <_vsnprintf+0x318>
10001678:	4252      	negs	r2, r2
1000167a:	eb61 0041 	sbc.w	r0, r1, r1, lsl #1
1000167e:	e7e7      	b.n	10001650 <_vsnprintf+0x338>
10001680:	9a18      	ldr	r2, [sp, #96]	; 0x60
10001682:	1d11      	adds	r1, r2, #4
10001684:	9118      	str	r1, [sp, #96]	; 0x60
10001686:	6812      	ldr	r2, [r2, #0]
10001688:	ea82 71e2 	eor.w	r1, r2, r2, asr #31
1000168c:	eba1 71e2 	sub.w	r1, r1, r2, asr #31
10001690:	9505      	str	r5, [sp, #20]
10001692:	980a      	ldr	r0, [sp, #40]	; 0x28
10001694:	9004      	str	r0, [sp, #16]
10001696:	f8cd b00c 	str.w	fp, [sp, #12]
1000169a:	9302      	str	r3, [sp, #8]
1000169c:	0fd2      	lsrs	r2, r2, #31
1000169e:	9201      	str	r2, [sp, #4]
100016a0:	9100      	str	r1, [sp, #0]
100016a2:	4633      	mov	r3, r6
100016a4:	4622      	mov	r2, r4
100016a6:	4641      	mov	r1, r8
100016a8:	4638      	mov	r0, r7
100016aa:	f7ff f9c1 	bl	10000a30 <_ntoa_long>
100016ae:	4604      	mov	r4, r0
100016b0:	e7be      	b.n	10001630 <_vsnprintf+0x318>
100016b2:	f015 0f80 	tst.w	r5, #128	; 0x80
100016b6:	d005      	beq.n	100016c4 <_vsnprintf+0x3ac>
100016b8:	9a18      	ldr	r2, [sp, #96]	; 0x60
100016ba:	1d11      	adds	r1, r2, #4
100016bc:	9118      	str	r1, [sp, #96]	; 0x60
100016be:	f9b2 2000 	ldrsh.w	r2, [r2]
100016c2:	e7a1      	b.n	10001608 <_vsnprintf+0x2f0>
100016c4:	9a18      	ldr	r2, [sp, #96]	; 0x60
100016c6:	1d11      	adds	r1, r2, #4
100016c8:	9118      	str	r1, [sp, #96]	; 0x60
100016ca:	6812      	ldr	r2, [r2, #0]
100016cc:	e79c      	b.n	10001608 <_vsnprintf+0x2f0>
100016ce:	9a18      	ldr	r2, [sp, #96]	; 0x60
100016d0:	3207      	adds	r2, #7
100016d2:	f022 0207 	bic.w	r2, r2, #7
100016d6:	f102 0108 	add.w	r1, r2, #8
100016da:	9118      	str	r1, [sp, #96]	; 0x60
100016dc:	9508      	str	r5, [sp, #32]
100016de:	990a      	ldr	r1, [sp, #40]	; 0x28
100016e0:	9107      	str	r1, [sp, #28]
100016e2:	f8cd b018 	str.w	fp, [sp, #24]
100016e6:	2100      	movs	r1, #0
100016e8:	9304      	str	r3, [sp, #16]
100016ea:	9105      	str	r1, [sp, #20]
100016ec:	9102      	str	r1, [sp, #8]
100016ee:	e9d2 2300 	ldrd	r2, r3, [r2]
100016f2:	e9cd 2300 	strd	r2, r3, [sp]
100016f6:	4633      	mov	r3, r6
100016f8:	4622      	mov	r2, r4
100016fa:	4641      	mov	r1, r8
100016fc:	4638      	mov	r0, r7
100016fe:	f7ff f9e1 	bl	10000ac4 <_ntoa_long_long>
10001702:	4604      	mov	r4, r0
10001704:	e794      	b.n	10001630 <_vsnprintf+0x318>
10001706:	9a18      	ldr	r2, [sp, #96]	; 0x60
10001708:	1d11      	adds	r1, r2, #4
1000170a:	9118      	str	r1, [sp, #96]	; 0x60
1000170c:	9505      	str	r5, [sp, #20]
1000170e:	990a      	ldr	r1, [sp, #40]	; 0x28
10001710:	9104      	str	r1, [sp, #16]
10001712:	f8cd b00c 	str.w	fp, [sp, #12]
10001716:	9302      	str	r3, [sp, #8]
10001718:	2300      	movs	r3, #0
1000171a:	9301      	str	r3, [sp, #4]
1000171c:	6813      	ldr	r3, [r2, #0]
1000171e:	9300      	str	r3, [sp, #0]
10001720:	4633      	mov	r3, r6
10001722:	4622      	mov	r2, r4
10001724:	4641      	mov	r1, r8
10001726:	4638      	mov	r0, r7
10001728:	f7ff f982 	bl	10000a30 <_ntoa_long>
1000172c:	4604      	mov	r4, r0
1000172e:	e77f      	b.n	10001630 <_vsnprintf+0x318>
10001730:	f015 0f80 	tst.w	r5, #128	; 0x80
10001734:	d004      	beq.n	10001740 <_vsnprintf+0x428>
10001736:	9a18      	ldr	r2, [sp, #96]	; 0x60
10001738:	1d11      	adds	r1, r2, #4
1000173a:	9118      	str	r1, [sp, #96]	; 0x60
1000173c:	8812      	ldrh	r2, [r2, #0]
1000173e:	e73c      	b.n	100015ba <_vsnprintf+0x2a2>
10001740:	9a18      	ldr	r2, [sp, #96]	; 0x60
10001742:	1d11      	adds	r1, r2, #4
10001744:	9118      	str	r1, [sp, #96]	; 0x60
10001746:	6812      	ldr	r2, [r2, #0]
10001748:	e737      	b.n	100015ba <_vsnprintf+0x2a2>
1000174a:	2846      	cmp	r0, #70	; 0x46
1000174c:	d01a      	beq.n	10001784 <_vsnprintf+0x46c>
1000174e:	9b18      	ldr	r3, [sp, #96]	; 0x60
10001750:	3307      	adds	r3, #7
10001752:	f023 0307 	bic.w	r3, r3, #7
10001756:	f103 0208 	add.w	r2, r3, #8
1000175a:	9218      	str	r2, [sp, #96]	; 0x60
1000175c:	9504      	str	r5, [sp, #16]
1000175e:	9a0a      	ldr	r2, [sp, #40]	; 0x28
10001760:	9203      	str	r2, [sp, #12]
10001762:	f8cd b008 	str.w	fp, [sp, #8]
10001766:	e9d3 2300 	ldrd	r2, r3, [r3]
1000176a:	e9cd 2300 	strd	r2, r3, [sp]
1000176e:	4633      	mov	r3, r6
10001770:	4622      	mov	r2, r4
10001772:	4641      	mov	r1, r8
10001774:	4638      	mov	r0, r7
10001776:	f7ff fc03 	bl	10000f80 <_ftoa>
1000177a:	4604      	mov	r4, r0
1000177c:	9b0d      	ldr	r3, [sp, #52]	; 0x34
1000177e:	3301      	adds	r3, #1
10001780:	930d      	str	r3, [sp, #52]	; 0x34
10001782:	e5d4      	b.n	1000132e <_vsnprintf+0x16>
10001784:	f045 0520 	orr.w	r5, r5, #32
10001788:	e7e1      	b.n	1000174e <_vsnprintf+0x436>
1000178a:	2867      	cmp	r0, #103	; 0x67
1000178c:	d001      	beq.n	10001792 <_vsnprintf+0x47a>
1000178e:	2847      	cmp	r0, #71	; 0x47
10001790:	d101      	bne.n	10001796 <_vsnprintf+0x47e>
10001792:	f445 6500 	orr.w	r5, r5, #2048	; 0x800
10001796:	2845      	cmp	r0, #69	; 0x45
10001798:	d001      	beq.n	1000179e <_vsnprintf+0x486>
1000179a:	2847      	cmp	r0, #71	; 0x47
1000179c:	d101      	bne.n	100017a2 <_vsnprintf+0x48a>
1000179e:	f045 0520 	orr.w	r5, r5, #32
100017a2:	9b18      	ldr	r3, [sp, #96]	; 0x60
100017a4:	3307      	adds	r3, #7
100017a6:	f023 0307 	bic.w	r3, r3, #7
100017aa:	f103 0208 	add.w	r2, r3, #8
100017ae:	9218      	str	r2, [sp, #96]	; 0x60
100017b0:	9504      	str	r5, [sp, #16]
100017b2:	9a0a      	ldr	r2, [sp, #40]	; 0x28
100017b4:	9203      	str	r2, [sp, #12]
100017b6:	f8cd b008 	str.w	fp, [sp, #8]
100017ba:	e9d3 2300 	ldrd	r2, r3, [r3]
100017be:	e9cd 2300 	strd	r2, r3, [sp]
100017c2:	4633      	mov	r3, r6
100017c4:	4622      	mov	r2, r4
100017c6:	4641      	mov	r1, r8
100017c8:	4638      	mov	r0, r7
100017ca:	f7ff f9e1 	bl	10000b90 <_etoa>
100017ce:	4604      	mov	r4, r0
100017d0:	9b0d      	ldr	r3, [sp, #52]	; 0x34
100017d2:	3301      	adds	r3, #1
100017d4:	930d      	str	r3, [sp, #52]	; 0x34
100017d6:	e5aa      	b.n	1000132e <_vsnprintf+0x16>
100017d8:	f015 0502 	ands.w	r5, r5, #2
100017dc:	d01f      	beq.n	1000181e <_vsnprintf+0x506>
100017de:	f04f 0901 	mov.w	r9, #1
100017e2:	9818      	ldr	r0, [sp, #96]	; 0x60
100017e4:	1d03      	adds	r3, r0, #4
100017e6:	9318      	str	r3, [sp, #96]	; 0x60
100017e8:	f104 0a01 	add.w	sl, r4, #1
100017ec:	4633      	mov	r3, r6
100017ee:	4622      	mov	r2, r4
100017f0:	4641      	mov	r1, r8
100017f2:	7800      	ldrb	r0, [r0, #0]
100017f4:	47b8      	blx	r7
100017f6:	b9bd      	cbnz	r5, 10001828 <_vsnprintf+0x510>
100017f8:	9b0d      	ldr	r3, [sp, #52]	; 0x34
100017fa:	3301      	adds	r3, #1
100017fc:	930d      	str	r3, [sp, #52]	; 0x34
100017fe:	4654      	mov	r4, sl
10001800:	e595      	b.n	1000132e <_vsnprintf+0x16>
10001802:	f102 0a01 	add.w	sl, r2, #1
10001806:	4633      	mov	r3, r6
10001808:	4641      	mov	r1, r8
1000180a:	2020      	movs	r0, #32
1000180c:	47b8      	blx	r7
1000180e:	464b      	mov	r3, r9
10001810:	4652      	mov	r2, sl
10001812:	f103 0901 	add.w	r9, r3, #1
10001816:	459b      	cmp	fp, r3
10001818:	d8f3      	bhi.n	10001802 <_vsnprintf+0x4ea>
1000181a:	4614      	mov	r4, r2
1000181c:	e7e1      	b.n	100017e2 <_vsnprintf+0x4ca>
1000181e:	2301      	movs	r3, #1
10001820:	f8dd b028 	ldr.w	fp, [sp, #40]	; 0x28
10001824:	4622      	mov	r2, r4
10001826:	e7f4      	b.n	10001812 <_vsnprintf+0x4fa>
10001828:	4652      	mov	r2, sl
1000182a:	f8dd a028 	ldr.w	sl, [sp, #40]	; 0x28
1000182e:	e006      	b.n	1000183e <_vsnprintf+0x526>
10001830:	1c55      	adds	r5, r2, #1
10001832:	4633      	mov	r3, r6
10001834:	4641      	mov	r1, r8
10001836:	2020      	movs	r0, #32
10001838:	47b8      	blx	r7
1000183a:	46a1      	mov	r9, r4
1000183c:	462a      	mov	r2, r5
1000183e:	f109 0401 	add.w	r4, r9, #1
10001842:	45ca      	cmp	sl, r9
10001844:	d8f4      	bhi.n	10001830 <_vsnprintf+0x518>
10001846:	4692      	mov	sl, r2
10001848:	e7d6      	b.n	100017f8 <_vsnprintf+0x4e0>
1000184a:	9b18      	ldr	r3, [sp, #96]	; 0x60
1000184c:	1d1a      	adds	r2, r3, #4
1000184e:	9218      	str	r2, [sp, #96]	; 0x60
10001850:	f8d3 a000 	ldr.w	sl, [r3]
10001854:	f1bb 0f00 	cmp.w	fp, #0
10001858:	d11e      	bne.n	10001898 <_vsnprintf+0x580>
1000185a:	f04f 33ff 	mov.w	r3, #4294967295
1000185e:	46d1      	mov	r9, sl
10001860:	e002      	b.n	10001868 <_vsnprintf+0x550>
10001862:	f109 0901 	add.w	r9, r9, #1
10001866:	4613      	mov	r3, r2
10001868:	f899 2000 	ldrb.w	r2, [r9]
1000186c:	b112      	cbz	r2, 10001874 <_vsnprintf+0x55c>
1000186e:	1e5a      	subs	r2, r3, #1
10001870:	2b00      	cmp	r3, #0
10001872:	d1f6      	bne.n	10001862 <_vsnprintf+0x54a>
10001874:	eba9 090a 	sub.w	r9, r9, sl
10001878:	f415 6380 	ands.w	r3, r5, #1024	; 0x400
1000187c:	930b      	str	r3, [sp, #44]	; 0x2c
1000187e:	d002      	beq.n	10001886 <_vsnprintf+0x56e>
10001880:	45d9      	cmp	r9, fp
10001882:	bf28      	it	cs
10001884:	46d9      	movcs	r9, fp
10001886:	f015 0302 	ands.w	r3, r5, #2
1000188a:	930c      	str	r3, [sp, #48]	; 0x30
1000188c:	d006      	beq.n	1000189c <_vsnprintf+0x584>
1000188e:	4622      	mov	r2, r4
10001890:	465c      	mov	r4, fp
10001892:	46b3      	mov	fp, r6
10001894:	9e0b      	ldr	r6, [sp, #44]	; 0x2c
10001896:	e01d      	b.n	100018d4 <_vsnprintf+0x5bc>
10001898:	465b      	mov	r3, fp
1000189a:	e7e0      	b.n	1000185e <_vsnprintf+0x546>
1000189c:	4622      	mov	r2, r4
1000189e:	9c0a      	ldr	r4, [sp, #40]	; 0x28
100018a0:	464b      	mov	r3, r9
100018a2:	e007      	b.n	100018b4 <_vsnprintf+0x59c>
100018a4:	f102 0901 	add.w	r9, r2, #1
100018a8:	4633      	mov	r3, r6
100018aa:	4641      	mov	r1, r8
100018ac:	2020      	movs	r0, #32
100018ae:	47b8      	blx	r7
100018b0:	462b      	mov	r3, r5
100018b2:	464a      	mov	r2, r9
100018b4:	1c5d      	adds	r5, r3, #1
100018b6:	429c      	cmp	r4, r3
100018b8:	d8f4      	bhi.n	100018a4 <_vsnprintf+0x58c>
100018ba:	46a9      	mov	r9, r5
100018bc:	465c      	mov	r4, fp
100018be:	46b3      	mov	fp, r6
100018c0:	9e0b      	ldr	r6, [sp, #44]	; 0x2c
100018c2:	e007      	b.n	100018d4 <_vsnprintf+0x5bc>
100018c4:	461c      	mov	r4, r3
100018c6:	f10a 0a01 	add.w	sl, sl, #1
100018ca:	1c55      	adds	r5, r2, #1
100018cc:	465b      	mov	r3, fp
100018ce:	4641      	mov	r1, r8
100018d0:	47b8      	blx	r7
100018d2:	462a      	mov	r2, r5
100018d4:	f89a 0000 	ldrb.w	r0, [sl]
100018d8:	b120      	cbz	r0, 100018e4 <_vsnprintf+0x5cc>
100018da:	2e00      	cmp	r6, #0
100018dc:	d0f3      	beq.n	100018c6 <_vsnprintf+0x5ae>
100018de:	1e63      	subs	r3, r4, #1
100018e0:	2c00      	cmp	r4, #0
100018e2:	d1ef      	bne.n	100018c4 <_vsnprintf+0x5ac>
100018e4:	4614      	mov	r4, r2
100018e6:	465e      	mov	r6, fp
100018e8:	9b0c      	ldr	r3, [sp, #48]	; 0x30
100018ea:	b91b      	cbnz	r3, 100018f4 <_vsnprintf+0x5dc>
100018ec:	9b0d      	ldr	r3, [sp, #52]	; 0x34
100018ee:	3301      	adds	r3, #1
100018f0:	930d      	str	r3, [sp, #52]	; 0x34
100018f2:	e51c      	b.n	1000132e <_vsnprintf+0x16>
100018f4:	f8dd a028 	ldr.w	sl, [sp, #40]	; 0x28
100018f8:	e006      	b.n	10001908 <_vsnprintf+0x5f0>
100018fa:	1c55      	adds	r5, r2, #1
100018fc:	4633      	mov	r3, r6
100018fe:	4641      	mov	r1, r8
10001900:	2020      	movs	r0, #32
10001902:	47b8      	blx	r7
10001904:	46a1      	mov	r9, r4
10001906:	462a      	mov	r2, r5
10001908:	f109 0401 	add.w	r4, r9, #1
1000190c:	45ca      	cmp	sl, r9
1000190e:	d8f4      	bhi.n	100018fa <_vsnprintf+0x5e2>
10001910:	4614      	mov	r4, r2
10001912:	e7eb      	b.n	100018ec <_vsnprintf+0x5d4>
10001914:	f045 0521 	orr.w	r5, r5, #33	; 0x21
10001918:	9b18      	ldr	r3, [sp, #96]	; 0x60
1000191a:	1d1a      	adds	r2, r3, #4
1000191c:	9218      	str	r2, [sp, #96]	; 0x60
1000191e:	681b      	ldr	r3, [r3, #0]
10001920:	9505      	str	r5, [sp, #20]
10001922:	2208      	movs	r2, #8
10001924:	9204      	str	r2, [sp, #16]
10001926:	f8cd b00c 	str.w	fp, [sp, #12]
1000192a:	2210      	movs	r2, #16
1000192c:	9202      	str	r2, [sp, #8]
1000192e:	2200      	movs	r2, #0
10001930:	9201      	str	r2, [sp, #4]
10001932:	9300      	str	r3, [sp, #0]
10001934:	4633      	mov	r3, r6
10001936:	4622      	mov	r2, r4
10001938:	4641      	mov	r1, r8
1000193a:	4638      	mov	r0, r7
1000193c:	f7ff f878 	bl	10000a30 <_ntoa_long>
10001940:	4604      	mov	r4, r0
10001942:	9b0d      	ldr	r3, [sp, #52]	; 0x34
10001944:	3301      	adds	r3, #1
10001946:	930d      	str	r3, [sp, #52]	; 0x34
10001948:	e4f1      	b.n	1000132e <_vsnprintf+0x16>
1000194a:	1c65      	adds	r5, r4, #1
1000194c:	4633      	mov	r3, r6
1000194e:	4622      	mov	r2, r4
10001950:	4641      	mov	r1, r8
10001952:	2025      	movs	r0, #37	; 0x25
10001954:	47b8      	blx	r7
10001956:	9b0d      	ldr	r3, [sp, #52]	; 0x34
10001958:	3301      	adds	r3, #1
1000195a:	930d      	str	r3, [sp, #52]	; 0x34
1000195c:	462c      	mov	r4, r5
1000195e:	e4e6      	b.n	1000132e <_vsnprintf+0x16>
10001960:	1c65      	adds	r5, r4, #1
10001962:	4633      	mov	r3, r6
10001964:	4622      	mov	r2, r4
10001966:	4641      	mov	r1, r8
10001968:	47b8      	blx	r7
1000196a:	9b0d      	ldr	r3, [sp, #52]	; 0x34
1000196c:	3301      	adds	r3, #1
1000196e:	930d      	str	r3, [sp, #52]	; 0x34
10001970:	462c      	mov	r4, r5
10001972:	e4dc      	b.n	1000132e <_vsnprintf+0x16>
10001974:	4f07      	ldr	r7, [pc, #28]	; (10001994 <_vsnprintf+0x67c>)
10001976:	e4d9      	b.n	1000132c <_vsnprintf+0x14>
10001978:	42b4      	cmp	r4, r6
1000197a:	d301      	bcc.n	10001980 <_vsnprintf+0x668>
1000197c:	1e72      	subs	r2, r6, #1
1000197e:	e000      	b.n	10001982 <_vsnprintf+0x66a>
10001980:	4622      	mov	r2, r4
10001982:	4633      	mov	r3, r6
10001984:	4641      	mov	r1, r8
10001986:	2000      	movs	r0, #0
10001988:	47b8      	blx	r7
1000198a:	4620      	mov	r0, r4
1000198c:	b00f      	add	sp, #60	; 0x3c
1000198e:	e8bd 8ff0 	ldmia.w	sp!, {r4, r5, r6, r7, r8, r9, sl, fp, pc}
10001992:	bf00      	nop
10001994:	10000855 	andne	r0, r0, r5, asr r8

10001998 <_out_char>:
10001998:	b900      	cbnz	r0, 1000199c <_out_char+0x4>
1000199a:	4770      	bx	lr
1000199c:	b508      	push	{r3, lr}
1000199e:	f000 f817 	bl	100019d0 <putchar>
100019a2:	bd08      	pop	{r3, pc}

100019a4 <printf>:
100019a4:	b40f      	push	{r0, r1, r2, r3}
100019a6:	b500      	push	{lr}
100019a8:	b085      	sub	sp, #20
100019aa:	aa06      	add	r2, sp, #24
100019ac:	f852 3b04 	ldr.w	r3, [r2], #4
100019b0:	9203      	str	r2, [sp, #12]
100019b2:	9200      	str	r2, [sp, #0]
100019b4:	f04f 32ff 	mov.w	r2, #4294967295
100019b8:	a902      	add	r1, sp, #8
100019ba:	4804      	ldr	r0, [pc, #16]	; (100019cc <printf+0x28>)
100019bc:	f7ff fcac 	bl	10001318 <_vsnprintf>
100019c0:	b005      	add	sp, #20
100019c2:	f85d eb04 	ldr.w	lr, [sp], #4
100019c6:	b004      	add	sp, #16
100019c8:	4770      	bx	lr
100019ca:	bf00      	nop
100019cc:	10001999 	mulne	r0, r9, r9

100019d0 <putchar>:
100019d0:	4a01      	ldr	r2, [pc, #4]	; (100019d8 <putchar+0x8>)
100019d2:	6010      	str	r0, [r2, #0]
100019d4:	4770      	bx	lr
100019d6:	bf00      	nop
100019d8:	40200000 	eormi	r0, r0, r0

100019dc <uart_init>:
100019dc:	4b01      	ldr	r3, [pc, #4]	; (100019e4 <uart_init+0x8>)
100019de:	2201      	movs	r2, #1
100019e0:	609a      	str	r2, [r3, #8]
100019e2:	4770      	bx	lr
100019e4:	40200000 	eormi	r0, r0, r0

100019e8 <fault_dump_opcode>:
100019e8:	b082      	sub	sp, #8
100019ea:	2300      	movs	r3, #0
100019ec:	9301      	str	r3, [sp, #4]
100019ee:	e007      	b.n	10001a00 <fault_dump_opcode+0x18>
100019f0:	f830 1013 	ldrh.w	r1, [r0, r3, lsl #1]
100019f4:	aa02      	add	r2, sp, #8
100019f6:	eb02 0243 	add.w	r2, r2, r3, lsl #1
100019fa:	f822 1c04 	strh.w	r1, [r2, #-4]
100019fe:	3301      	adds	r3, #1
10001a00:	2b01      	cmp	r3, #1
10001a02:	d9f5      	bls.n	100019f0 <fault_dump_opcode+0x8>
10001a04:	f8bd 0006 	ldrh.w	r0, [sp, #6]
10001a08:	f8bd 3004 	ldrh.w	r3, [sp, #4]
10001a0c:	ea43 4000 	orr.w	r0, r3, r0, lsl #16
10001a10:	b002      	add	sp, #8
10001a12:	4770      	bx	lr

10001a14 <opcode_is_bl_or_blx>:
10001a14:	f400 4378 	and.w	r3, r0, #63488	; 0xf800
10001a18:	0c00      	lsrs	r0, r0, #16
10001a1a:	f400 4078 	and.w	r0, r0, #63488	; 0xf800
10001a1e:	f5b3 4f70 	cmp.w	r3, #61440	; 0xf000
10001a22:	d00a      	beq.n	10001a3a <opcode_is_bl_or_blx+0x26>
10001a24:	f5b3 4f78 	cmp.w	r3, #63488	; 0xf800
10001a28:	d009      	beq.n	10001a3e <opcode_is_bl_or_blx+0x2a>
10001a2a:	f5b0 4f70 	cmp.w	r0, #61440	; 0xf000
10001a2e:	d008      	beq.n	10001a42 <opcode_is_bl_or_blx+0x2e>
10001a30:	f5b0 4f78 	cmp.w	r0, #63488	; 0xf800
10001a34:	d007      	beq.n	10001a46 <opcode_is_bl_or_blx+0x32>
10001a36:	2000      	movs	r0, #0
10001a38:	4770      	bx	lr
10001a3a:	2001      	movs	r0, #1
10001a3c:	4770      	bx	lr
10001a3e:	2001      	movs	r0, #1
10001a40:	4770      	bx	lr
10001a42:	2001      	movs	r0, #1
10001a44:	4770      	bx	lr
10001a46:	2001      	movs	r0, #1
10001a48:	4770      	bx	lr
	...

10001a4c <fault_dump_handler>:
10001a4c:	b5f8      	push	{r3, r4, r5, r6, r7, lr}
10001a4e:	4605      	mov	r5, r0
10001a50:	460e      	mov	r6, r1
10001a52:	6803      	ldr	r3, [r0, #0]
10001a54:	4c50      	ldr	r4, [pc, #320]	; (10001b98 <fault_dump_handler+0x14c>)
10001a56:	6023      	str	r3, [r4, #0]
10001a58:	6843      	ldr	r3, [r0, #4]
10001a5a:	6063      	str	r3, [r4, #4]
10001a5c:	6883      	ldr	r3, [r0, #8]
10001a5e:	60a3      	str	r3, [r4, #8]
10001a60:	68c3      	ldr	r3, [r0, #12]
10001a62:	60e3      	str	r3, [r4, #12]
10001a64:	6903      	ldr	r3, [r0, #16]
10001a66:	6123      	str	r3, [r4, #16]
10001a68:	6943      	ldr	r3, [r0, #20]
10001a6a:	6163      	str	r3, [r4, #20]
10001a6c:	6983      	ldr	r3, [r0, #24]
10001a6e:	61a3      	str	r3, [r4, #24]
10001a70:	69c3      	ldr	r3, [r0, #28]
10001a72:	61e3      	str	r3, [r4, #28]
10001a74:	6a03      	ldr	r3, [r0, #32]
10001a76:	6223      	str	r3, [r4, #32]
10001a78:	6a43      	ldr	r3, [r0, #36]	; 0x24
10001a7a:	6263      	str	r3, [r4, #36]	; 0x24
10001a7c:	6a83      	ldr	r3, [r0, #40]	; 0x28
10001a7e:	62a3      	str	r3, [r4, #40]	; 0x28
10001a80:	6ac3      	ldr	r3, [r0, #44]	; 0x2c
10001a82:	62e3      	str	r3, [r4, #44]	; 0x2c
10001a84:	6b03      	ldr	r3, [r0, #48]	; 0x30
10001a86:	6323      	str	r3, [r4, #48]	; 0x30
10001a88:	6b43      	ldr	r3, [r0, #52]	; 0x34
10001a8a:	6363      	str	r3, [r4, #52]	; 0x34
10001a8c:	6b83      	ldr	r3, [r0, #56]	; 0x38
10001a8e:	63a3      	str	r3, [r4, #56]	; 0x38
10001a90:	6bc3      	ldr	r3, [r0, #60]	; 0x3c
10001a92:	63e3      	str	r3, [r4, #60]	; 0x3c
10001a94:	4f41      	ldr	r7, [pc, #260]	; (10001b9c <fault_dump_handler+0x150>)
10001a96:	4638      	mov	r0, r7
10001a98:	f000 f972 	bl	10001d80 <puts>
10001a9c:	4840      	ldr	r0, [pc, #256]	; (10001ba0 <fault_dump_handler+0x154>)
10001a9e:	f000 f96f 	bl	10001d80 <puts>
10001aa2:	4840      	ldr	r0, [pc, #256]	; (10001ba4 <fault_dump_handler+0x158>)
10001aa4:	f000 f96c 	bl	10001d80 <puts>
10001aa8:	6a21      	ldr	r1, [r4, #32]
10001aaa:	483f      	ldr	r0, [pc, #252]	; (10001ba8 <fault_dump_handler+0x15c>)
10001aac:	f7ff ff7a 	bl	100019a4 <printf>
10001ab0:	6a61      	ldr	r1, [r4, #36]	; 0x24
10001ab2:	483e      	ldr	r0, [pc, #248]	; (10001bac <fault_dump_handler+0x160>)
10001ab4:	f7ff ff76 	bl	100019a4 <printf>
10001ab8:	6aa1      	ldr	r1, [r4, #40]	; 0x28
10001aba:	483d      	ldr	r0, [pc, #244]	; (10001bb0 <fault_dump_handler+0x164>)
10001abc:	f7ff ff72 	bl	100019a4 <printf>
10001ac0:	6ae1      	ldr	r1, [r4, #44]	; 0x2c
10001ac2:	483c      	ldr	r0, [pc, #240]	; (10001bb4 <fault_dump_handler+0x168>)
10001ac4:	f7ff ff6e 	bl	100019a4 <printf>
10001ac8:	6821      	ldr	r1, [r4, #0]
10001aca:	483b      	ldr	r0, [pc, #236]	; (10001bb8 <fault_dump_handler+0x16c>)
10001acc:	f7ff ff6a 	bl	100019a4 <printf>
10001ad0:	6861      	ldr	r1, [r4, #4]
10001ad2:	483a      	ldr	r0, [pc, #232]	; (10001bbc <fault_dump_handler+0x170>)
10001ad4:	f7ff ff66 	bl	100019a4 <printf>
10001ad8:	68a1      	ldr	r1, [r4, #8]
10001ada:	4839      	ldr	r0, [pc, #228]	; (10001bc0 <fault_dump_handler+0x174>)
10001adc:	f7ff ff62 	bl	100019a4 <printf>
10001ae0:	68e1      	ldr	r1, [r4, #12]
10001ae2:	4838      	ldr	r0, [pc, #224]	; (10001bc4 <fault_dump_handler+0x178>)
10001ae4:	f7ff ff5e 	bl	100019a4 <printf>
10001ae8:	6921      	ldr	r1, [r4, #16]
10001aea:	4837      	ldr	r0, [pc, #220]	; (10001bc8 <fault_dump_handler+0x17c>)
10001aec:	f7ff ff5a 	bl	100019a4 <printf>
10001af0:	6961      	ldr	r1, [r4, #20]
10001af2:	4836      	ldr	r0, [pc, #216]	; (10001bcc <fault_dump_handler+0x180>)
10001af4:	f7ff ff56 	bl	100019a4 <printf>
10001af8:	69a1      	ldr	r1, [r4, #24]
10001afa:	4835      	ldr	r0, [pc, #212]	; (10001bd0 <fault_dump_handler+0x184>)
10001afc:	f7ff ff52 	bl	100019a4 <printf>
10001b00:	69e1      	ldr	r1, [r4, #28]
10001b02:	4834      	ldr	r0, [pc, #208]	; (10001bd4 <fault_dump_handler+0x188>)
10001b04:	f7ff ff4e 	bl	100019a4 <printf>
10001b08:	6b21      	ldr	r1, [r4, #48]	; 0x30
10001b0a:	4833      	ldr	r0, [pc, #204]	; (10001bd8 <fault_dump_handler+0x18c>)
10001b0c:	f7ff ff4a 	bl	100019a4 <printf>
10001b10:	6b61      	ldr	r1, [r4, #52]	; 0x34
10001b12:	4832      	ldr	r0, [pc, #200]	; (10001bdc <fault_dump_handler+0x190>)
10001b14:	f7ff ff46 	bl	100019a4 <printf>
10001b18:	6ba1      	ldr	r1, [r4, #56]	; 0x38
10001b1a:	4831      	ldr	r0, [pc, #196]	; (10001be0 <fault_dump_handler+0x194>)
10001b1c:	f7ff ff42 	bl	100019a4 <printf>
10001b20:	6be1      	ldr	r1, [r4, #60]	; 0x3c
10001b22:	4830      	ldr	r0, [pc, #192]	; (10001be4 <fault_dump_handler+0x198>)
10001b24:	f7ff ff3e 	bl	100019a4 <printf>
10001b28:	4638      	mov	r0, r7
10001b2a:	f000 f929 	bl	10001d80 <puts>
10001b2e:	4631      	mov	r1, r6
10001b30:	482d      	ldr	r0, [pc, #180]	; (10001be8 <fault_dump_handler+0x19c>)
10001b32:	f7ff ff37 	bl	100019a4 <printf>
10001b36:	4b2d      	ldr	r3, [pc, #180]	; (10001bec <fault_dump_handler+0x1a0>)
10001b38:	f105 0610 	add.w	r6, r5, #16
10001b3c:	1b9e      	subs	r6, r3, r6
10001b3e:	4a2c      	ldr	r2, [pc, #176]	; (10001bf0 <fault_dump_handler+0x1a4>)
10001b40:	1a9a      	subs	r2, r3, r2
10001b42:	4631      	mov	r1, r6
10001b44:	482b      	ldr	r0, [pc, #172]	; (10001bf4 <fault_dump_handler+0x1a8>)
10001b46:	f7ff ff2d 	bl	100019a4 <printf>
10001b4a:	482b      	ldr	r0, [pc, #172]	; (10001bf8 <fault_dump_handler+0x1ac>)
10001b4c:	f000 f918 	bl	10001d80 <puts>
10001b50:	2410      	movs	r4, #16
10001b52:	e000      	b.n	10001b56 <fault_dump_handler+0x10a>
10001b54:	3401      	adds	r4, #1
10001b56:	ebb4 0f96 	cmp.w	r4, r6, lsr #2
10001b5a:	d219      	bcs.n	10001b90 <fault_dump_handler+0x144>
10001b5c:	f855 3024 	ldr.w	r3, [r5, r4, lsl #2]
10001b60:	4a26      	ldr	r2, [pc, #152]	; (10001bfc <fault_dump_handler+0x1b0>)
10001b62:	429a      	cmp	r2, r3
10001b64:	d8f6      	bhi.n	10001b54 <fault_dump_handler+0x108>
10001b66:	4a26      	ldr	r2, [pc, #152]	; (10001c00 <fault_dump_handler+0x1b4>)
10001b68:	429a      	cmp	r2, r3
10001b6a:	d3f3      	bcc.n	10001b54 <fault_dump_handler+0x108>
10001b6c:	f013 0f01 	tst.w	r3, #1
10001b70:	d0f0      	beq.n	10001b54 <fault_dump_handler+0x108>
10001b72:	f1a3 0705 	sub.w	r7, r3, #5
10001b76:	d0ed      	beq.n	10001b54 <fault_dump_handler+0x108>
10001b78:	4638      	mov	r0, r7
10001b7a:	f7ff ff35 	bl	100019e8 <fault_dump_opcode>
10001b7e:	f7ff ff49 	bl	10001a14 <opcode_is_bl_or_blx>
10001b82:	2800      	cmp	r0, #0
10001b84:	d0e6      	beq.n	10001b54 <fault_dump_handler+0x108>
10001b86:	4639      	mov	r1, r7
10001b88:	481e      	ldr	r0, [pc, #120]	; (10001c04 <fault_dump_handler+0x1b8>)
10001b8a:	f7ff ff0b 	bl	100019a4 <printf>
10001b8e:	e7e1      	b.n	10001b54 <fault_dump_handler+0x108>
10001b90:	4802      	ldr	r0, [pc, #8]	; (10001b9c <fault_dump_handler+0x150>)
10001b92:	f000 f8f5 	bl	10001d80 <puts>
10001b96:	e7fe      	b.n	10001b96 <fault_dump_handler+0x14a>
10001b98:	3800008c 	stmdacc	r0, {r2, r3, r7}
10001b9c:	10003434 	andne	r3, r0, r4, lsr r4
10001ba0:	10003418 	andne	r3, r0, r8, lsl r4
10001ba4:	10003438 	andne	r3, r0, r8, lsr r4
10001ba8:	1000344c 	andne	r3, r0, ip, asr #8
10001bac:	10003460 	andne	r3, r0, r0, ror #8
10001bb0:	10003474 	andne	r3, r0, r4, ror r4
10001bb4:	10003488 	andne	r3, r0, r8, lsl #9
10001bb8:	1000349c 	mulne	r0, ip, r4
10001bbc:	100034b0 			; <UNDEFINED> instruction: 0x100034b0
10001bc0:	100034c4 	andne	r3, r0, r4, asr #9
10001bc4:	100034d8 	ldrdne	r3, [r0], -r8
10001bc8:	100034ec 	andne	r3, r0, ip, ror #9
10001bcc:	10003500 	andne	r3, r0, r0, lsl #10
10001bd0:	10003514 	andne	r3, r0, r4, lsl r5
10001bd4:	10003528 	andne	r3, r0, r8, lsr #10
10001bd8:	1000353c 	andne	r3, r0, ip, lsr r5
10001bdc:	10003550 	andne	r3, r0, r0, asr r5
10001be0:	10003564 	andne	r3, r0, r4, ror #10
10001be4:	10003578 	andne	r3, r0, r8, ror r5
10001be8:	1000358c 	andne	r3, r0, ip, lsl #11
10001bec:	38020000 	stmdacc	r2, {}	; <UNPREDICTABLE>
10001bf0:	3801f000 	stmdacc	r1, {ip, sp, lr, pc}
10001bf4:	100035a4 	andne	r3, r0, r4, lsr #11
10001bf8:	100035bc 			; <UNDEFINED> instruction: 0x100035bc
10001bfc:	10000000 	andne	r0, r0, r0
10001c00:	1000363c 	andne	r3, r0, ip, lsr r6
10001c04:	100035cc 	andne	r3, r0, ip, asr #11

10001c08 <Reset_Handler>:
10001c08:	4815      	ldr	r0, [pc, #84]	; (10001c60 <BusFault_Handler+0x4>)
10001c0a:	f380 8809 	msr	PSP, r0
10001c0e:	4815      	ldr	r0, [pc, #84]	; (10001c64 <BusFault_Handler+0x8>)
10001c10:	f380 880a 	msr	MSPLIM, r0
10001c14:	f380 880b 	msr	PSPLIM, r0
10001c18:	f7fe fe06 	bl	10000828 <SystemInit>
10001c1c:	4c12      	ldr	r4, [pc, #72]	; (10001c68 <BusFault_Handler+0xc>)
10001c1e:	4d13      	ldr	r5, [pc, #76]	; (10001c6c <BusFault_Handler+0x10>)
10001c20:	42ac      	cmp	r4, r5
10001c22:	da0a      	bge.n	10001c3a <Reset_Handler+0x32>
10001c24:	6821      	ldr	r1, [r4, #0]
10001c26:	6862      	ldr	r2, [r4, #4]
10001c28:	68a3      	ldr	r3, [r4, #8]
10001c2a:	009b      	lsls	r3, r3, #2
10001c2c:	3b04      	subs	r3, #4
10001c2e:	bfa2      	ittt	ge
10001c30:	58c8      	ldrge	r0, [r1, r3]
10001c32:	50d0      	strge	r0, [r2, r3]
10001c34:	e7fa      	bge.n	10001c2c <Reset_Handler+0x24>
10001c36:	340c      	adds	r4, #12
10001c38:	e7f2      	b.n	10001c20 <Reset_Handler+0x18>
10001c3a:	4b0d      	ldr	r3, [pc, #52]	; (10001c70 <BusFault_Handler+0x14>)
10001c3c:	4c0d      	ldr	r4, [pc, #52]	; (10001c74 <BusFault_Handler+0x18>)
10001c3e:	42a3      	cmp	r3, r4
10001c40:	da09      	bge.n	10001c56 <Reset_Handler+0x4e>
10001c42:	6819      	ldr	r1, [r3, #0]
10001c44:	685a      	ldr	r2, [r3, #4]
10001c46:	0092      	lsls	r2, r2, #2
10001c48:	2000      	movs	r0, #0
10001c4a:	3a04      	subs	r2, #4
10001c4c:	bfa4      	itt	ge
10001c4e:	5088      	strge	r0, [r1, r2]
10001c50:	e7fb      	bge.n	10001c4a <Reset_Handler+0x42>
10001c52:	3308      	adds	r3, #8
10001c54:	e7f3      	b.n	10001c3e <Reset_Handler+0x36>
10001c56:	f7fe fdd5 	bl	10000804 <main>
10001c5a:	e7fe      	b.n	10001c5a <Reset_Handler+0x52>

10001c5c <BusFault_Handler>:
10001c5c:	e7fe      	b.n	10001c5c <BusFault_Handler>
10001c5e:	00000000 	andeq	r0, r0, r0
10001c62:	f0003802 			; <UNDEFINED> instruction: 0xf0003802
10001c66:	364c3801 	strbcc	r3, [ip], -r1, lsl #16
10001c6a:	36581000 	ldrbcc	r1, [r8], -r0
10001c6e:	36581000 	ldrbcc	r1, [r8], -r0
10001c72:	36581000 	ldrbcc	r1, [r8], -r0
10001c76:	 			; <UNDEFINED> instruction: 0xf01e1000

10001c78 <HardFault_Handler>:
10001c78:	f01e 0f04 	tst.w	lr, #4
10001c7c:	bf0c      	ite	eq
10001c7e:	f3ef 8008 	mrseq	r0, MSP
10001c82:	f3ef 8009 	mrsne	r0, PSP
10001c86:	e920 0ff0 	stmdb	r0!, {r4, r5, r6, r7, r8, r9, sl, fp}
10001c8a:	4671      	mov	r1, lr
10001c8c:	4a00      	ldr	r2, [pc, #0]	; (10001c90 <HardFault_Handler+0x18>)
10001c8e:	4710      	bx	r2
10001c90:	10001a4d 	andne	r1, r0, sp, asr #20

10001c94 <memset>:
10001c94:	4402      	add	r2, r0
10001c96:	4603      	mov	r3, r0
10001c98:	4293      	cmp	r3, r2
10001c9a:	d100      	bne.n	10001c9e <memset+0xa>
10001c9c:	4770      	bx	lr
10001c9e:	f803 1b01 	strb.w	r1, [r3], #1
10001ca2:	e7f9      	b.n	10001c98 <memset+0x4>

10001ca4 <_puts_r>:
10001ca4:	b570      	push	{r4, r5, r6, lr}
10001ca6:	460e      	mov	r6, r1
10001ca8:	4605      	mov	r5, r0
10001caa:	b118      	cbz	r0, 10001cb4 <_puts_r+0x10>
10001cac:	6983      	ldr	r3, [r0, #24]
10001cae:	b90b      	cbnz	r3, 10001cb4 <_puts_r+0x10>
10001cb0:	f000 fa46 	bl	10002140 <__sinit>
10001cb4:	69ab      	ldr	r3, [r5, #24]
10001cb6:	68ac      	ldr	r4, [r5, #8]
10001cb8:	b913      	cbnz	r3, 10001cc0 <_puts_r+0x1c>
10001cba:	4628      	mov	r0, r5
10001cbc:	f000 fa40 	bl	10002140 <__sinit>
10001cc0:	4b2c      	ldr	r3, [pc, #176]	; (10001d74 <_puts_r+0xd0>)
10001cc2:	429c      	cmp	r4, r3
10001cc4:	d120      	bne.n	10001d08 <_puts_r+0x64>
10001cc6:	686c      	ldr	r4, [r5, #4]
10001cc8:	6e63      	ldr	r3, [r4, #100]	; 0x64
10001cca:	07db      	lsls	r3, r3, #31
10001ccc:	d405      	bmi.n	10001cda <_puts_r+0x36>
10001cce:	89a3      	ldrh	r3, [r4, #12]
10001cd0:	0598      	lsls	r0, r3, #22
10001cd2:	d402      	bmi.n	10001cda <_puts_r+0x36>
10001cd4:	6da0      	ldr	r0, [r4, #88]	; 0x58
10001cd6:	f000 fad1 	bl	1000227c <__retarget_lock_acquire_recursive>
10001cda:	89a3      	ldrh	r3, [r4, #12]
10001cdc:	0719      	lsls	r1, r3, #28
10001cde:	d51d      	bpl.n	10001d1c <_puts_r+0x78>
10001ce0:	6923      	ldr	r3, [r4, #16]
10001ce2:	b1db      	cbz	r3, 10001d1c <_puts_r+0x78>
10001ce4:	3e01      	subs	r6, #1
10001ce6:	68a3      	ldr	r3, [r4, #8]
10001ce8:	f816 1f01 	ldrb.w	r1, [r6, #1]!
10001cec:	3b01      	subs	r3, #1
10001cee:	60a3      	str	r3, [r4, #8]
10001cf0:	bb39      	cbnz	r1, 10001d42 <_puts_r+0x9e>
10001cf2:	2b00      	cmp	r3, #0
10001cf4:	da38      	bge.n	10001d68 <_puts_r+0xc4>
10001cf6:	4622      	mov	r2, r4
10001cf8:	210a      	movs	r1, #10
10001cfa:	4628      	mov	r0, r5
10001cfc:	f000 f848 	bl	10001d90 <__swbuf_r>
10001d00:	3001      	adds	r0, #1
10001d02:	d011      	beq.n	10001d28 <_puts_r+0x84>
10001d04:	250a      	movs	r5, #10
10001d06:	e011      	b.n	10001d2c <_puts_r+0x88>
10001d08:	4b1b      	ldr	r3, [pc, #108]	; (10001d78 <_puts_r+0xd4>)
10001d0a:	429c      	cmp	r4, r3
10001d0c:	d101      	bne.n	10001d12 <_puts_r+0x6e>
10001d0e:	68ac      	ldr	r4, [r5, #8]
10001d10:	e7da      	b.n	10001cc8 <_puts_r+0x24>
10001d12:	4b1a      	ldr	r3, [pc, #104]	; (10001d7c <_puts_r+0xd8>)
10001d14:	429c      	cmp	r4, r3
10001d16:	bf08      	it	eq
10001d18:	68ec      	ldreq	r4, [r5, #12]
10001d1a:	e7d5      	b.n	10001cc8 <_puts_r+0x24>
10001d1c:	4621      	mov	r1, r4
10001d1e:	4628      	mov	r0, r5
10001d20:	f000 f888 	bl	10001e34 <__swsetup_r>
10001d24:	2800      	cmp	r0, #0
10001d26:	d0dd      	beq.n	10001ce4 <_puts_r+0x40>
10001d28:	f04f 35ff 	mov.w	r5, #4294967295
10001d2c:	6e63      	ldr	r3, [r4, #100]	; 0x64
10001d2e:	07da      	lsls	r2, r3, #31
10001d30:	d405      	bmi.n	10001d3e <_puts_r+0x9a>
10001d32:	89a3      	ldrh	r3, [r4, #12]
10001d34:	059b      	lsls	r3, r3, #22
10001d36:	d402      	bmi.n	10001d3e <_puts_r+0x9a>
10001d38:	6da0      	ldr	r0, [r4, #88]	; 0x58
10001d3a:	f000 faa0 	bl	1000227e <__retarget_lock_release_recursive>
10001d3e:	4628      	mov	r0, r5
10001d40:	bd70      	pop	{r4, r5, r6, pc}
10001d42:	2b00      	cmp	r3, #0
10001d44:	da04      	bge.n	10001d50 <_puts_r+0xac>
10001d46:	69a2      	ldr	r2, [r4, #24]
10001d48:	429a      	cmp	r2, r3
10001d4a:	dc06      	bgt.n	10001d5a <_puts_r+0xb6>
10001d4c:	290a      	cmp	r1, #10
10001d4e:	d004      	beq.n	10001d5a <_puts_r+0xb6>
10001d50:	6823      	ldr	r3, [r4, #0]
10001d52:	1c5a      	adds	r2, r3, #1
10001d54:	6022      	str	r2, [r4, #0]
10001d56:	7019      	strb	r1, [r3, #0]
10001d58:	e7c5      	b.n	10001ce6 <_puts_r+0x42>
10001d5a:	4622      	mov	r2, r4
10001d5c:	4628      	mov	r0, r5
10001d5e:	f000 f817 	bl	10001d90 <__swbuf_r>
10001d62:	3001      	adds	r0, #1
10001d64:	d1bf      	bne.n	10001ce6 <_puts_r+0x42>
10001d66:	e7df      	b.n	10001d28 <_puts_r+0x84>
10001d68:	6823      	ldr	r3, [r4, #0]
10001d6a:	250a      	movs	r5, #10
10001d6c:	1c5a      	adds	r2, r3, #1
10001d6e:	6022      	str	r2, [r4, #0]
10001d70:	701d      	strb	r5, [r3, #0]
10001d72:	e7db      	b.n	10001d2c <_puts_r+0x88>
10001d74:	100035f8 	strdne	r3, [r0], -r8
10001d78:	10003618 	andne	r3, r0, r8, lsl r6
10001d7c:	100035d8 	ldrdne	r3, [r0], -r8

10001d80 <puts>:
10001d80:	4b02      	ldr	r3, [pc, #8]	; (10001d8c <puts+0xc>)
10001d82:	4601      	mov	r1, r0
10001d84:	6818      	ldr	r0, [r3, #0]
10001d86:	f7ff bf8d 	b.w	10001ca4 <_puts_r>
10001d8a:	bf00      	nop
10001d8c:	38000004 	stmdacc	r0, {r2}

10001d90 <__swbuf_r>:
10001d90:	b5f8      	push	{r3, r4, r5, r6, r7, lr}
10001d92:	460e      	mov	r6, r1
10001d94:	4614      	mov	r4, r2
10001d96:	4605      	mov	r5, r0
10001d98:	b118      	cbz	r0, 10001da2 <__swbuf_r+0x12>
10001d9a:	6983      	ldr	r3, [r0, #24]
10001d9c:	b90b      	cbnz	r3, 10001da2 <__swbuf_r+0x12>
10001d9e:	f000 f9cf 	bl	10002140 <__sinit>
10001da2:	4b21      	ldr	r3, [pc, #132]	; (10001e28 <__swbuf_r+0x98>)
10001da4:	429c      	cmp	r4, r3
10001da6:	d12b      	bne.n	10001e00 <__swbuf_r+0x70>
10001da8:	686c      	ldr	r4, [r5, #4]
10001daa:	69a3      	ldr	r3, [r4, #24]
10001dac:	60a3      	str	r3, [r4, #8]
10001dae:	89a3      	ldrh	r3, [r4, #12]
10001db0:	071a      	lsls	r2, r3, #28
10001db2:	d52f      	bpl.n	10001e14 <__swbuf_r+0x84>
10001db4:	6923      	ldr	r3, [r4, #16]
10001db6:	b36b      	cbz	r3, 10001e14 <__swbuf_r+0x84>
10001db8:	6923      	ldr	r3, [r4, #16]
10001dba:	b2f6      	uxtb	r6, r6
10001dbc:	6820      	ldr	r0, [r4, #0]
10001dbe:	4637      	mov	r7, r6
10001dc0:	1ac0      	subs	r0, r0, r3
10001dc2:	6963      	ldr	r3, [r4, #20]
10001dc4:	4283      	cmp	r3, r0
10001dc6:	dc04      	bgt.n	10001dd2 <__swbuf_r+0x42>
10001dc8:	4621      	mov	r1, r4
10001dca:	4628      	mov	r0, r5
10001dcc:	f000 f924 	bl	10002018 <_fflush_r>
10001dd0:	bb30      	cbnz	r0, 10001e20 <__swbuf_r+0x90>
10001dd2:	68a3      	ldr	r3, [r4, #8]
10001dd4:	3001      	adds	r0, #1
10001dd6:	3b01      	subs	r3, #1
10001dd8:	60a3      	str	r3, [r4, #8]
10001dda:	6823      	ldr	r3, [r4, #0]
10001ddc:	1c5a      	adds	r2, r3, #1
10001dde:	6022      	str	r2, [r4, #0]
10001de0:	701e      	strb	r6, [r3, #0]
10001de2:	6963      	ldr	r3, [r4, #20]
10001de4:	4283      	cmp	r3, r0
10001de6:	d004      	beq.n	10001df2 <__swbuf_r+0x62>
10001de8:	89a3      	ldrh	r3, [r4, #12]
10001dea:	07db      	lsls	r3, r3, #31
10001dec:	d506      	bpl.n	10001dfc <__swbuf_r+0x6c>
10001dee:	2e0a      	cmp	r6, #10
10001df0:	d104      	bne.n	10001dfc <__swbuf_r+0x6c>
10001df2:	4621      	mov	r1, r4
10001df4:	4628      	mov	r0, r5
10001df6:	f000 f90f 	bl	10002018 <_fflush_r>
10001dfa:	b988      	cbnz	r0, 10001e20 <__swbuf_r+0x90>
10001dfc:	4638      	mov	r0, r7
10001dfe:	bdf8      	pop	{r3, r4, r5, r6, r7, pc}
10001e00:	4b0a      	ldr	r3, [pc, #40]	; (10001e2c <__swbuf_r+0x9c>)
10001e02:	429c      	cmp	r4, r3
10001e04:	d101      	bne.n	10001e0a <__swbuf_r+0x7a>
10001e06:	68ac      	ldr	r4, [r5, #8]
10001e08:	e7cf      	b.n	10001daa <__swbuf_r+0x1a>
10001e0a:	4b09      	ldr	r3, [pc, #36]	; (10001e30 <__swbuf_r+0xa0>)
10001e0c:	429c      	cmp	r4, r3
10001e0e:	bf08      	it	eq
10001e10:	68ec      	ldreq	r4, [r5, #12]
10001e12:	e7ca      	b.n	10001daa <__swbuf_r+0x1a>
10001e14:	4621      	mov	r1, r4
10001e16:	4628      	mov	r0, r5
10001e18:	f000 f80c 	bl	10001e34 <__swsetup_r>
10001e1c:	2800      	cmp	r0, #0
10001e1e:	d0cb      	beq.n	10001db8 <__swbuf_r+0x28>
10001e20:	f04f 37ff 	mov.w	r7, #4294967295
10001e24:	e7ea      	b.n	10001dfc <__swbuf_r+0x6c>
10001e26:	bf00      	nop
10001e28:	100035f8 	strdne	r3, [r0], -r8
10001e2c:	10003618 	andne	r3, r0, r8, lsl r6
10001e30:	100035d8 	ldrdne	r3, [r0], -r8

10001e34 <__swsetup_r>:
10001e34:	4b32      	ldr	r3, [pc, #200]	; (10001f00 <__swsetup_r+0xcc>)
10001e36:	b570      	push	{r4, r5, r6, lr}
10001e38:	681d      	ldr	r5, [r3, #0]
10001e3a:	4606      	mov	r6, r0
10001e3c:	460c      	mov	r4, r1
10001e3e:	b125      	cbz	r5, 10001e4a <__swsetup_r+0x16>
10001e40:	69ab      	ldr	r3, [r5, #24]
10001e42:	b913      	cbnz	r3, 10001e4a <__swsetup_r+0x16>
10001e44:	4628      	mov	r0, r5
10001e46:	f000 f97b 	bl	10002140 <__sinit>
10001e4a:	4b2e      	ldr	r3, [pc, #184]	; (10001f04 <__swsetup_r+0xd0>)
10001e4c:	429c      	cmp	r4, r3
10001e4e:	d10f      	bne.n	10001e70 <__swsetup_r+0x3c>
10001e50:	686c      	ldr	r4, [r5, #4]
10001e52:	89a3      	ldrh	r3, [r4, #12]
10001e54:	f9b4 200c 	ldrsh.w	r2, [r4, #12]
10001e58:	0719      	lsls	r1, r3, #28
10001e5a:	d42c      	bmi.n	10001eb6 <__swsetup_r+0x82>
10001e5c:	06dd      	lsls	r5, r3, #27
10001e5e:	d411      	bmi.n	10001e84 <__swsetup_r+0x50>
10001e60:	2309      	movs	r3, #9
10001e62:	6033      	str	r3, [r6, #0]
10001e64:	f042 0340 	orr.w	r3, r2, #64	; 0x40
10001e68:	f04f 30ff 	mov.w	r0, #4294967295
10001e6c:	81a3      	strh	r3, [r4, #12]
10001e6e:	e03e      	b.n	10001eee <__swsetup_r+0xba>
10001e70:	4b25      	ldr	r3, [pc, #148]	; (10001f08 <__swsetup_r+0xd4>)
10001e72:	429c      	cmp	r4, r3
10001e74:	d101      	bne.n	10001e7a <__swsetup_r+0x46>
10001e76:	68ac      	ldr	r4, [r5, #8]
10001e78:	e7eb      	b.n	10001e52 <__swsetup_r+0x1e>
10001e7a:	4b24      	ldr	r3, [pc, #144]	; (10001f0c <__swsetup_r+0xd8>)
10001e7c:	429c      	cmp	r4, r3
10001e7e:	bf08      	it	eq
10001e80:	68ec      	ldreq	r4, [r5, #12]
10001e82:	e7e6      	b.n	10001e52 <__swsetup_r+0x1e>
10001e84:	0758      	lsls	r0, r3, #29
10001e86:	d512      	bpl.n	10001eae <__swsetup_r+0x7a>
10001e88:	6b61      	ldr	r1, [r4, #52]	; 0x34
10001e8a:	b141      	cbz	r1, 10001e9e <__swsetup_r+0x6a>
10001e8c:	f104 0344 	add.w	r3, r4, #68	; 0x44
10001e90:	4299      	cmp	r1, r3
10001e92:	d002      	beq.n	10001e9a <__swsetup_r+0x66>
10001e94:	4630      	mov	r0, r6
10001e96:	f000 fa59 	bl	1000234c <_free_r>
10001e9a:	2300      	movs	r3, #0
10001e9c:	6363      	str	r3, [r4, #52]	; 0x34
10001e9e:	89a3      	ldrh	r3, [r4, #12]
10001ea0:	f023 0324 	bic.w	r3, r3, #36	; 0x24
10001ea4:	81a3      	strh	r3, [r4, #12]
10001ea6:	2300      	movs	r3, #0
10001ea8:	6063      	str	r3, [r4, #4]
10001eaa:	6923      	ldr	r3, [r4, #16]
10001eac:	6023      	str	r3, [r4, #0]
10001eae:	89a3      	ldrh	r3, [r4, #12]
10001eb0:	f043 0308 	orr.w	r3, r3, #8
10001eb4:	81a3      	strh	r3, [r4, #12]
10001eb6:	6923      	ldr	r3, [r4, #16]
10001eb8:	b94b      	cbnz	r3, 10001ece <__swsetup_r+0x9a>
10001eba:	89a3      	ldrh	r3, [r4, #12]
10001ebc:	f403 7320 	and.w	r3, r3, #640	; 0x280
10001ec0:	f5b3 7f00 	cmp.w	r3, #512	; 0x200
10001ec4:	d003      	beq.n	10001ece <__swsetup_r+0x9a>
10001ec6:	4621      	mov	r1, r4
10001ec8:	4630      	mov	r0, r6
10001eca:	f000 f9ff 	bl	100022cc <__smakebuf_r>
10001ece:	89a0      	ldrh	r0, [r4, #12]
10001ed0:	f9b4 200c 	ldrsh.w	r2, [r4, #12]
10001ed4:	f010 0301 	ands.w	r3, r0, #1
10001ed8:	d00a      	beq.n	10001ef0 <__swsetup_r+0xbc>
10001eda:	2300      	movs	r3, #0
10001edc:	60a3      	str	r3, [r4, #8]
10001ede:	6963      	ldr	r3, [r4, #20]
10001ee0:	425b      	negs	r3, r3
10001ee2:	61a3      	str	r3, [r4, #24]
10001ee4:	6923      	ldr	r3, [r4, #16]
10001ee6:	b943      	cbnz	r3, 10001efa <__swsetup_r+0xc6>
10001ee8:	f010 0080 	ands.w	r0, r0, #128	; 0x80
10001eec:	d1ba      	bne.n	10001e64 <__swsetup_r+0x30>
10001eee:	bd70      	pop	{r4, r5, r6, pc}
10001ef0:	0781      	lsls	r1, r0, #30
10001ef2:	bf58      	it	pl
10001ef4:	6963      	ldrpl	r3, [r4, #20]
10001ef6:	60a3      	str	r3, [r4, #8]
10001ef8:	e7f4      	b.n	10001ee4 <__swsetup_r+0xb0>
10001efa:	2000      	movs	r0, #0
10001efc:	e7f7      	b.n	10001eee <__swsetup_r+0xba>
10001efe:	bf00      	nop
10001f00:	38000004 	stmdacc	r0, {r2}
10001f04:	100035f8 	strdne	r3, [r0], -r8
10001f08:	10003618 	andne	r3, r0, r8, lsl r6
10001f0c:	100035d8 	ldrdne	r3, [r0], -r8

10001f10 <__sflush_r>:
10001f10:	898a      	ldrh	r2, [r1, #12]
10001f12:	e92d 41f0 	stmdb	sp!, {r4, r5, r6, r7, r8, lr}
10001f16:	4605      	mov	r5, r0
10001f18:	0710      	lsls	r0, r2, #28
10001f1a:	460c      	mov	r4, r1
10001f1c:	d458      	bmi.n	10001fd0 <__sflush_r+0xc0>
10001f1e:	684b      	ldr	r3, [r1, #4]
10001f20:	2b00      	cmp	r3, #0
10001f22:	dc05      	bgt.n	10001f30 <__sflush_r+0x20>
10001f24:	6c0b      	ldr	r3, [r1, #64]	; 0x40
10001f26:	2b00      	cmp	r3, #0
10001f28:	dc02      	bgt.n	10001f30 <__sflush_r+0x20>
10001f2a:	2000      	movs	r0, #0
10001f2c:	e8bd 81f0 	ldmia.w	sp!, {r4, r5, r6, r7, r8, pc}
10001f30:	6ae6      	ldr	r6, [r4, #44]	; 0x2c
10001f32:	2e00      	cmp	r6, #0
10001f34:	d0f9      	beq.n	10001f2a <__sflush_r+0x1a>
10001f36:	2300      	movs	r3, #0
10001f38:	f412 5280 	ands.w	r2, r2, #4096	; 0x1000
10001f3c:	682f      	ldr	r7, [r5, #0]
10001f3e:	602b      	str	r3, [r5, #0]
10001f40:	d032      	beq.n	10001fa8 <__sflush_r+0x98>
10001f42:	6d60      	ldr	r0, [r4, #84]	; 0x54
10001f44:	89a3      	ldrh	r3, [r4, #12]
10001f46:	075a      	lsls	r2, r3, #29
10001f48:	d505      	bpl.n	10001f56 <__sflush_r+0x46>
10001f4a:	6863      	ldr	r3, [r4, #4]
10001f4c:	1ac0      	subs	r0, r0, r3
10001f4e:	6b63      	ldr	r3, [r4, #52]	; 0x34
10001f50:	b10b      	cbz	r3, 10001f56 <__sflush_r+0x46>
10001f52:	6c23      	ldr	r3, [r4, #64]	; 0x40
10001f54:	1ac0      	subs	r0, r0, r3
10001f56:	2300      	movs	r3, #0
10001f58:	4602      	mov	r2, r0
10001f5a:	6ae6      	ldr	r6, [r4, #44]	; 0x2c
10001f5c:	4628      	mov	r0, r5
10001f5e:	6a21      	ldr	r1, [r4, #32]
10001f60:	47b0      	blx	r6
10001f62:	1c43      	adds	r3, r0, #1
10001f64:	89a3      	ldrh	r3, [r4, #12]
10001f66:	d106      	bne.n	10001f76 <__sflush_r+0x66>
10001f68:	6829      	ldr	r1, [r5, #0]
10001f6a:	291d      	cmp	r1, #29
10001f6c:	d82c      	bhi.n	10001fc8 <__sflush_r+0xb8>
10001f6e:	4a29      	ldr	r2, [pc, #164]	; (10002014 <__sflush_r+0x104>)
10001f70:	40ca      	lsrs	r2, r1
10001f72:	07d6      	lsls	r6, r2, #31
10001f74:	d528      	bpl.n	10001fc8 <__sflush_r+0xb8>
10001f76:	2200      	movs	r2, #0
10001f78:	04d9      	lsls	r1, r3, #19
10001f7a:	6062      	str	r2, [r4, #4]
10001f7c:	6922      	ldr	r2, [r4, #16]
10001f7e:	6022      	str	r2, [r4, #0]
10001f80:	d504      	bpl.n	10001f8c <__sflush_r+0x7c>
10001f82:	1c42      	adds	r2, r0, #1
10001f84:	d101      	bne.n	10001f8a <__sflush_r+0x7a>
10001f86:	682b      	ldr	r3, [r5, #0]
10001f88:	b903      	cbnz	r3, 10001f8c <__sflush_r+0x7c>
10001f8a:	6560      	str	r0, [r4, #84]	; 0x54
10001f8c:	6b61      	ldr	r1, [r4, #52]	; 0x34
10001f8e:	602f      	str	r7, [r5, #0]
10001f90:	2900      	cmp	r1, #0
10001f92:	d0ca      	beq.n	10001f2a <__sflush_r+0x1a>
10001f94:	f104 0344 	add.w	r3, r4, #68	; 0x44
10001f98:	4299      	cmp	r1, r3
10001f9a:	d002      	beq.n	10001fa2 <__sflush_r+0x92>
10001f9c:	4628      	mov	r0, r5
10001f9e:	f000 f9d5 	bl	1000234c <_free_r>
10001fa2:	2000      	movs	r0, #0
10001fa4:	6360      	str	r0, [r4, #52]	; 0x34
10001fa6:	e7c1      	b.n	10001f2c <__sflush_r+0x1c>
10001fa8:	6a21      	ldr	r1, [r4, #32]
10001faa:	2301      	movs	r3, #1
10001fac:	4628      	mov	r0, r5
10001fae:	47b0      	blx	r6
10001fb0:	1c41      	adds	r1, r0, #1
10001fb2:	d1c7      	bne.n	10001f44 <__sflush_r+0x34>
10001fb4:	682b      	ldr	r3, [r5, #0]
10001fb6:	2b00      	cmp	r3, #0
10001fb8:	d0c4      	beq.n	10001f44 <__sflush_r+0x34>
10001fba:	2b1d      	cmp	r3, #29
10001fbc:	d001      	beq.n	10001fc2 <__sflush_r+0xb2>
10001fbe:	2b16      	cmp	r3, #22
10001fc0:	d101      	bne.n	10001fc6 <__sflush_r+0xb6>
10001fc2:	602f      	str	r7, [r5, #0]
10001fc4:	e7b1      	b.n	10001f2a <__sflush_r+0x1a>
10001fc6:	89a3      	ldrh	r3, [r4, #12]
10001fc8:	f043 0340 	orr.w	r3, r3, #64	; 0x40
10001fcc:	81a3      	strh	r3, [r4, #12]
10001fce:	e7ad      	b.n	10001f2c <__sflush_r+0x1c>
10001fd0:	690f      	ldr	r7, [r1, #16]
10001fd2:	2f00      	cmp	r7, #0
10001fd4:	d0a9      	beq.n	10001f2a <__sflush_r+0x1a>
10001fd6:	0793      	lsls	r3, r2, #30
10001fd8:	680e      	ldr	r6, [r1, #0]
10001fda:	600f      	str	r7, [r1, #0]
10001fdc:	bf0c      	ite	eq
10001fde:	694b      	ldreq	r3, [r1, #20]
10001fe0:	2300      	movne	r3, #0
10001fe2:	eba6 0807 	sub.w	r8, r6, r7
10001fe6:	608b      	str	r3, [r1, #8]
10001fe8:	f1b8 0f00 	cmp.w	r8, #0
10001fec:	dd9d      	ble.n	10001f2a <__sflush_r+0x1a>
10001fee:	4643      	mov	r3, r8
10001ff0:	463a      	mov	r2, r7
10001ff2:	6a21      	ldr	r1, [r4, #32]
10001ff4:	4628      	mov	r0, r5
10001ff6:	6aa6      	ldr	r6, [r4, #40]	; 0x28
10001ff8:	47b0      	blx	r6
10001ffa:	2800      	cmp	r0, #0
10001ffc:	dc06      	bgt.n	1000200c <__sflush_r+0xfc>
10001ffe:	89a3      	ldrh	r3, [r4, #12]
10002000:	f04f 30ff 	mov.w	r0, #4294967295
10002004:	f043 0340 	orr.w	r3, r3, #64	; 0x40
10002008:	81a3      	strh	r3, [r4, #12]
1000200a:	e78f      	b.n	10001f2c <__sflush_r+0x1c>
1000200c:	4407      	add	r7, r0
1000200e:	eba8 0800 	sub.w	r8, r8, r0
10002012:	e7e9      	b.n	10001fe8 <__sflush_r+0xd8>
10002014:	20400001 	subcs	r0, r0, r1

10002018 <_fflush_r>:
10002018:	b538      	push	{r3, r4, r5, lr}
1000201a:	690b      	ldr	r3, [r1, #16]
1000201c:	4605      	mov	r5, r0
1000201e:	460c      	mov	r4, r1
10002020:	b913      	cbnz	r3, 10002028 <_fflush_r+0x10>
10002022:	2500      	movs	r5, #0
10002024:	4628      	mov	r0, r5
10002026:	bd38      	pop	{r3, r4, r5, pc}
10002028:	b118      	cbz	r0, 10002032 <_fflush_r+0x1a>
1000202a:	6983      	ldr	r3, [r0, #24]
1000202c:	b90b      	cbnz	r3, 10002032 <_fflush_r+0x1a>
1000202e:	f000 f887 	bl	10002140 <__sinit>
10002032:	4b14      	ldr	r3, [pc, #80]	; (10002084 <_fflush_r+0x6c>)
10002034:	429c      	cmp	r4, r3
10002036:	d11b      	bne.n	10002070 <_fflush_r+0x58>
10002038:	686c      	ldr	r4, [r5, #4]
1000203a:	f9b4 300c 	ldrsh.w	r3, [r4, #12]
1000203e:	2b00      	cmp	r3, #0
10002040:	d0ef      	beq.n	10002022 <_fflush_r+0xa>
10002042:	6e62      	ldr	r2, [r4, #100]	; 0x64
10002044:	07d0      	lsls	r0, r2, #31
10002046:	d404      	bmi.n	10002052 <_fflush_r+0x3a>
10002048:	0599      	lsls	r1, r3, #22
1000204a:	d402      	bmi.n	10002052 <_fflush_r+0x3a>
1000204c:	6da0      	ldr	r0, [r4, #88]	; 0x58
1000204e:	f000 f915 	bl	1000227c <__retarget_lock_acquire_recursive>
10002052:	4628      	mov	r0, r5
10002054:	4621      	mov	r1, r4
10002056:	f7ff ff5b 	bl	10001f10 <__sflush_r>
1000205a:	6e63      	ldr	r3, [r4, #100]	; 0x64
1000205c:	4605      	mov	r5, r0
1000205e:	07da      	lsls	r2, r3, #31
10002060:	d4e0      	bmi.n	10002024 <_fflush_r+0xc>
10002062:	89a3      	ldrh	r3, [r4, #12]
10002064:	059b      	lsls	r3, r3, #22
10002066:	d4dd      	bmi.n	10002024 <_fflush_r+0xc>
10002068:	6da0      	ldr	r0, [r4, #88]	; 0x58
1000206a:	f000 f908 	bl	1000227e <__retarget_lock_release_recursive>
1000206e:	e7d9      	b.n	10002024 <_fflush_r+0xc>
10002070:	4b05      	ldr	r3, [pc, #20]	; (10002088 <_fflush_r+0x70>)
10002072:	429c      	cmp	r4, r3
10002074:	d101      	bne.n	1000207a <_fflush_r+0x62>
10002076:	68ac      	ldr	r4, [r5, #8]
10002078:	e7df      	b.n	1000203a <_fflush_r+0x22>
1000207a:	4b04      	ldr	r3, [pc, #16]	; (1000208c <_fflush_r+0x74>)
1000207c:	429c      	cmp	r4, r3
1000207e:	bf08      	it	eq
10002080:	68ec      	ldreq	r4, [r5, #12]
10002082:	e7da      	b.n	1000203a <_fflush_r+0x22>
10002084:	100035f8 	strdne	r3, [r0], -r8
10002088:	10003618 	andne	r3, r0, r8, lsl r6
1000208c:	100035d8 	ldrdne	r3, [r0], -r8

10002090 <std>:
10002090:	2300      	movs	r3, #0
10002092:	b510      	push	{r4, lr}
10002094:	4604      	mov	r4, r0
10002096:	6083      	str	r3, [r0, #8]
10002098:	8181      	strh	r1, [r0, #12]
1000209a:	4619      	mov	r1, r3
1000209c:	6643      	str	r3, [r0, #100]	; 0x64
1000209e:	81c2      	strh	r2, [r0, #14]
100020a0:	2208      	movs	r2, #8
100020a2:	6183      	str	r3, [r0, #24]
100020a4:	e9c0 3300 	strd	r3, r3, [r0]
100020a8:	e9c0 3304 	strd	r3, r3, [r0, #16]
100020ac:	305c      	adds	r0, #92	; 0x5c
100020ae:	f7ff fdf1 	bl	10001c94 <memset>
100020b2:	4b05      	ldr	r3, [pc, #20]	; (100020c8 <std+0x38>)
100020b4:	6224      	str	r4, [r4, #32]
100020b6:	6263      	str	r3, [r4, #36]	; 0x24
100020b8:	4b04      	ldr	r3, [pc, #16]	; (100020cc <std+0x3c>)
100020ba:	62a3      	str	r3, [r4, #40]	; 0x28
100020bc:	4b04      	ldr	r3, [pc, #16]	; (100020d0 <std+0x40>)
100020be:	62e3      	str	r3, [r4, #44]	; 0x2c
100020c0:	4b04      	ldr	r3, [pc, #16]	; (100020d4 <std+0x44>)
100020c2:	6323      	str	r3, [r4, #48]	; 0x30
100020c4:	bd10      	pop	{r4, pc}
100020c6:	bf00      	nop
100020c8:	1000252d 	andne	r2, r0, sp, lsr #10
100020cc:	1000254f 	andne	r2, r0, pc, asr #10
100020d0:	10002587 	andne	r2, r0, r7, lsl #11
100020d4:	100025ab 	andne	r2, r0, fp, lsr #11

100020d8 <_cleanup_r>:
100020d8:	4901      	ldr	r1, [pc, #4]	; (100020e0 <_cleanup_r+0x8>)
100020da:	f000 b8af 	b.w	1000223c <_fwalk_reent>
100020de:	bf00      	nop
100020e0:	10002019 	andne	r2, r0, r9, lsl r0

100020e4 <__sfmoreglue>:
100020e4:	b570      	push	{r4, r5, r6, lr}
100020e6:	2268      	movs	r2, #104	; 0x68
100020e8:	1e4d      	subs	r5, r1, #1
100020ea:	460e      	mov	r6, r1
100020ec:	4355      	muls	r5, r2
100020ee:	f105 0174 	add.w	r1, r5, #116	; 0x74
100020f2:	f000 f997 	bl	10002424 <_malloc_r>
100020f6:	4604      	mov	r4, r0
100020f8:	b140      	cbz	r0, 1000210c <__sfmoreglue+0x28>
100020fa:	2100      	movs	r1, #0
100020fc:	f105 0268 	add.w	r2, r5, #104	; 0x68
10002100:	e9c0 1600 	strd	r1, r6, [r0]
10002104:	300c      	adds	r0, #12
10002106:	60a0      	str	r0, [r4, #8]
10002108:	f7ff fdc4 	bl	10001c94 <memset>
1000210c:	4620      	mov	r0, r4
1000210e:	bd70      	pop	{r4, r5, r6, pc}

10002110 <__sfp_lock_acquire>:
10002110:	4801      	ldr	r0, [pc, #4]	; (10002118 <__sfp_lock_acquire+0x8>)
10002112:	f000 b8b3 	b.w	1000227c <__retarget_lock_acquire_recursive>
10002116:	bf00      	nop
10002118:	380000cd 	stmdacc	r0, {r0, r2, r3, r6, r7}

1000211c <__sfp_lock_release>:
1000211c:	4801      	ldr	r0, [pc, #4]	; (10002124 <__sfp_lock_release+0x8>)
1000211e:	f000 b8ae 	b.w	1000227e <__retarget_lock_release_recursive>
10002122:	bf00      	nop
10002124:	380000cd 	stmdacc	r0, {r0, r2, r3, r6, r7}

10002128 <__sinit_lock_acquire>:
10002128:	4801      	ldr	r0, [pc, #4]	; (10002130 <__sinit_lock_acquire+0x8>)
1000212a:	f000 b8a7 	b.w	1000227c <__retarget_lock_acquire_recursive>
1000212e:	bf00      	nop
10002130:	380000ce 	stmdacc	r0, {r1, r2, r3, r6, r7}

10002134 <__sinit_lock_release>:
10002134:	4801      	ldr	r0, [pc, #4]	; (1000213c <__sinit_lock_release+0x8>)
10002136:	f000 b8a2 	b.w	1000227e <__retarget_lock_release_recursive>
1000213a:	bf00      	nop
1000213c:	380000ce 	stmdacc	r0, {r1, r2, r3, r6, r7}

10002140 <__sinit>:
10002140:	b510      	push	{r4, lr}
10002142:	4604      	mov	r4, r0
10002144:	f7ff fff0 	bl	10002128 <__sinit_lock_acquire>
10002148:	69a3      	ldr	r3, [r4, #24]
1000214a:	b11b      	cbz	r3, 10002154 <__sinit+0x14>
1000214c:	e8bd 4010 	ldmia.w	sp!, {r4, lr}
10002150:	f7ff bff0 	b.w	10002134 <__sinit_lock_release>
10002154:	e9c4 3312 	strd	r3, r3, [r4, #72]	; 0x48
10002158:	6523      	str	r3, [r4, #80]	; 0x50
1000215a:	4620      	mov	r0, r4
1000215c:	4b12      	ldr	r3, [pc, #72]	; (100021a8 <__sinit+0x68>)
1000215e:	4a13      	ldr	r2, [pc, #76]	; (100021ac <__sinit+0x6c>)
10002160:	681b      	ldr	r3, [r3, #0]
10002162:	62a2      	str	r2, [r4, #40]	; 0x28
10002164:	42a3      	cmp	r3, r4
10002166:	bf04      	itt	eq
10002168:	2301      	moveq	r3, #1
1000216a:	61a3      	streq	r3, [r4, #24]
1000216c:	f000 f820 	bl	100021b0 <__sfp>
10002170:	6060      	str	r0, [r4, #4]
10002172:	4620      	mov	r0, r4
10002174:	f000 f81c 	bl	100021b0 <__sfp>
10002178:	60a0      	str	r0, [r4, #8]
1000217a:	4620      	mov	r0, r4
1000217c:	f000 f818 	bl	100021b0 <__sfp>
10002180:	2200      	movs	r2, #0
10002182:	2104      	movs	r1, #4
10002184:	60e0      	str	r0, [r4, #12]
10002186:	6860      	ldr	r0, [r4, #4]
10002188:	f7ff ff82 	bl	10002090 <std>
1000218c:	2201      	movs	r2, #1
1000218e:	2109      	movs	r1, #9
10002190:	68a0      	ldr	r0, [r4, #8]
10002192:	f7ff ff7d 	bl	10002090 <std>
10002196:	2202      	movs	r2, #2
10002198:	2112      	movs	r1, #18
1000219a:	68e0      	ldr	r0, [r4, #12]
1000219c:	f7ff ff78 	bl	10002090 <std>
100021a0:	2301      	movs	r3, #1
100021a2:	61a3      	str	r3, [r4, #24]
100021a4:	e7d2      	b.n	1000214c <__sinit+0xc>
100021a6:	bf00      	nop
100021a8:	100035d4 	ldrdne	r3, [r0], -r4
100021ac:	100020d9 	ldrdne	r2, [r0], -r9

100021b0 <__sfp>:
100021b0:	b5f8      	push	{r3, r4, r5, r6, r7, lr}
100021b2:	4607      	mov	r7, r0
100021b4:	f7ff ffac 	bl	10002110 <__sfp_lock_acquire>
100021b8:	4b1e      	ldr	r3, [pc, #120]	; (10002234 <__sfp+0x84>)
100021ba:	681e      	ldr	r6, [r3, #0]
100021bc:	69b3      	ldr	r3, [r6, #24]
100021be:	b913      	cbnz	r3, 100021c6 <__sfp+0x16>
100021c0:	4630      	mov	r0, r6
100021c2:	f7ff ffbd 	bl	10002140 <__sinit>
100021c6:	3648      	adds	r6, #72	; 0x48
100021c8:	e9d6 3401 	ldrd	r3, r4, [r6, #4]
100021cc:	3b01      	subs	r3, #1
100021ce:	d503      	bpl.n	100021d8 <__sfp+0x28>
100021d0:	6833      	ldr	r3, [r6, #0]
100021d2:	b30b      	cbz	r3, 10002218 <__sfp+0x68>
100021d4:	6836      	ldr	r6, [r6, #0]
100021d6:	e7f7      	b.n	100021c8 <__sfp+0x18>
100021d8:	f9b4 500c 	ldrsh.w	r5, [r4, #12]
100021dc:	b9d5      	cbnz	r5, 10002214 <__sfp+0x64>
100021de:	4b16      	ldr	r3, [pc, #88]	; (10002238 <__sfp+0x88>)
100021e0:	f104 0058 	add.w	r0, r4, #88	; 0x58
100021e4:	6665      	str	r5, [r4, #100]	; 0x64
100021e6:	60e3      	str	r3, [r4, #12]
100021e8:	f000 f847 	bl	1000227a <__retarget_lock_init_recursive>
100021ec:	f7ff ff96 	bl	1000211c <__sfp_lock_release>
100021f0:	2208      	movs	r2, #8
100021f2:	4629      	mov	r1, r5
100021f4:	f104 005c 	add.w	r0, r4, #92	; 0x5c
100021f8:	6025      	str	r5, [r4, #0]
100021fa:	61a5      	str	r5, [r4, #24]
100021fc:	e9c4 5501 	strd	r5, r5, [r4, #4]
10002200:	e9c4 5504 	strd	r5, r5, [r4, #16]
10002204:	f7ff fd46 	bl	10001c94 <memset>
10002208:	e9c4 550d 	strd	r5, r5, [r4, #52]	; 0x34
1000220c:	e9c4 5512 	strd	r5, r5, [r4, #72]	; 0x48
10002210:	4620      	mov	r0, r4
10002212:	bdf8      	pop	{r3, r4, r5, r6, r7, pc}
10002214:	3468      	adds	r4, #104	; 0x68
10002216:	e7d9      	b.n	100021cc <__sfp+0x1c>
10002218:	2104      	movs	r1, #4
1000221a:	4638      	mov	r0, r7
1000221c:	f7ff ff62 	bl	100020e4 <__sfmoreglue>
10002220:	4604      	mov	r4, r0
10002222:	6030      	str	r0, [r6, #0]
10002224:	2800      	cmp	r0, #0
10002226:	d1d5      	bne.n	100021d4 <__sfp+0x24>
10002228:	f7ff ff78 	bl	1000211c <__sfp_lock_release>
1000222c:	230c      	movs	r3, #12
1000222e:	603b      	str	r3, [r7, #0]
10002230:	e7ee      	b.n	10002210 <__sfp+0x60>
10002232:	bf00      	nop
10002234:	100035d4 	ldrdne	r3, [r0], -r4
10002238:	ffff0001 			; <UNDEFINED> instruction: 0xffff0001

1000223c <_fwalk_reent>:
1000223c:	e92d 43f8 	stmdb	sp!, {r3, r4, r5, r6, r7, r8, r9, lr}
10002240:	4606      	mov	r6, r0
10002242:	4688      	mov	r8, r1
10002244:	f100 0448 	add.w	r4, r0, #72	; 0x48
10002248:	2700      	movs	r7, #0
1000224a:	e9d4 9501 	ldrd	r9, r5, [r4, #4]
1000224e:	f1b9 0901 	subs.w	r9, r9, #1
10002252:	d505      	bpl.n	10002260 <_fwalk_reent+0x24>
10002254:	6824      	ldr	r4, [r4, #0]
10002256:	2c00      	cmp	r4, #0
10002258:	d1f7      	bne.n	1000224a <_fwalk_reent+0xe>
1000225a:	4638      	mov	r0, r7
1000225c:	e8bd 83f8 	ldmia.w	sp!, {r3, r4, r5, r6, r7, r8, r9, pc}
10002260:	89ab      	ldrh	r3, [r5, #12]
10002262:	2b01      	cmp	r3, #1
10002264:	d907      	bls.n	10002276 <_fwalk_reent+0x3a>
10002266:	f9b5 300e 	ldrsh.w	r3, [r5, #14]
1000226a:	3301      	adds	r3, #1
1000226c:	d003      	beq.n	10002276 <_fwalk_reent+0x3a>
1000226e:	4629      	mov	r1, r5
10002270:	4630      	mov	r0, r6
10002272:	47c0      	blx	r8
10002274:	4307      	orrs	r7, r0
10002276:	3568      	adds	r5, #104	; 0x68
10002278:	e7e9      	b.n	1000224e <_fwalk_reent+0x12>

1000227a <__retarget_lock_init_recursive>:
1000227a:	4770      	bx	lr

1000227c <__retarget_lock_acquire_recursive>:
1000227c:	4770      	bx	lr

1000227e <__retarget_lock_release_recursive>:
1000227e:	4770      	bx	lr

10002280 <__swhatbuf_r>:
10002280:	b570      	push	{r4, r5, r6, lr}
10002282:	460e      	mov	r6, r1
10002284:	f9b1 100e 	ldrsh.w	r1, [r1, #14]
10002288:	b096      	sub	sp, #88	; 0x58
1000228a:	4614      	mov	r4, r2
1000228c:	2900      	cmp	r1, #0
1000228e:	461d      	mov	r5, r3
10002290:	da08      	bge.n	100022a4 <__swhatbuf_r+0x24>
10002292:	f9b6 300c 	ldrsh.w	r3, [r6, #12]
10002296:	2200      	movs	r2, #0
10002298:	602a      	str	r2, [r5, #0]
1000229a:	061a      	lsls	r2, r3, #24
1000229c:	d410      	bmi.n	100022c0 <__swhatbuf_r+0x40>
1000229e:	f44f 6380 	mov.w	r3, #1024	; 0x400
100022a2:	e00e      	b.n	100022c2 <__swhatbuf_r+0x42>
100022a4:	466a      	mov	r2, sp
100022a6:	f000 f9a7 	bl	100025f8 <_fstat_r>
100022aa:	2800      	cmp	r0, #0
100022ac:	dbf1      	blt.n	10002292 <__swhatbuf_r+0x12>
100022ae:	9a01      	ldr	r2, [sp, #4]
100022b0:	f402 4270 	and.w	r2, r2, #61440	; 0xf000
100022b4:	f5a2 5300 	sub.w	r3, r2, #8192	; 0x2000
100022b8:	425a      	negs	r2, r3
100022ba:	415a      	adcs	r2, r3
100022bc:	602a      	str	r2, [r5, #0]
100022be:	e7ee      	b.n	1000229e <__swhatbuf_r+0x1e>
100022c0:	2340      	movs	r3, #64	; 0x40
100022c2:	2000      	movs	r0, #0
100022c4:	6023      	str	r3, [r4, #0]
100022c6:	b016      	add	sp, #88	; 0x58
100022c8:	bd70      	pop	{r4, r5, r6, pc}
	...

100022cc <__smakebuf_r>:
100022cc:	898b      	ldrh	r3, [r1, #12]
100022ce:	b573      	push	{r0, r1, r4, r5, r6, lr}
100022d0:	079d      	lsls	r5, r3, #30
100022d2:	4606      	mov	r6, r0
100022d4:	460c      	mov	r4, r1
100022d6:	d507      	bpl.n	100022e8 <__smakebuf_r+0x1c>
100022d8:	f104 0347 	add.w	r3, r4, #71	; 0x47
100022dc:	6023      	str	r3, [r4, #0]
100022de:	6123      	str	r3, [r4, #16]
100022e0:	2301      	movs	r3, #1
100022e2:	6163      	str	r3, [r4, #20]
100022e4:	b002      	add	sp, #8
100022e6:	bd70      	pop	{r4, r5, r6, pc}
100022e8:	ab01      	add	r3, sp, #4
100022ea:	466a      	mov	r2, sp
100022ec:	f7ff ffc8 	bl	10002280 <__swhatbuf_r>
100022f0:	9900      	ldr	r1, [sp, #0]
100022f2:	4605      	mov	r5, r0
100022f4:	4630      	mov	r0, r6
100022f6:	f000 f895 	bl	10002424 <_malloc_r>
100022fa:	b948      	cbnz	r0, 10002310 <__smakebuf_r+0x44>
100022fc:	f9b4 300c 	ldrsh.w	r3, [r4, #12]
10002300:	059a      	lsls	r2, r3, #22
10002302:	d4ef      	bmi.n	100022e4 <__smakebuf_r+0x18>
10002304:	f023 0303 	bic.w	r3, r3, #3
10002308:	f043 0302 	orr.w	r3, r3, #2
1000230c:	81a3      	strh	r3, [r4, #12]
1000230e:	e7e3      	b.n	100022d8 <__smakebuf_r+0xc>
10002310:	4b0d      	ldr	r3, [pc, #52]	; (10002348 <__smakebuf_r+0x7c>)
10002312:	62b3      	str	r3, [r6, #40]	; 0x28
10002314:	89a3      	ldrh	r3, [r4, #12]
10002316:	6020      	str	r0, [r4, #0]
10002318:	f043 0380 	orr.w	r3, r3, #128	; 0x80
1000231c:	6120      	str	r0, [r4, #16]
1000231e:	81a3      	strh	r3, [r4, #12]
10002320:	9b00      	ldr	r3, [sp, #0]
10002322:	6163      	str	r3, [r4, #20]
10002324:	9b01      	ldr	r3, [sp, #4]
10002326:	b15b      	cbz	r3, 10002340 <__smakebuf_r+0x74>
10002328:	f9b4 100e 	ldrsh.w	r1, [r4, #14]
1000232c:	4630      	mov	r0, r6
1000232e:	f000 f975 	bl	1000261c <_isatty_r>
10002332:	b128      	cbz	r0, 10002340 <__smakebuf_r+0x74>
10002334:	89a3      	ldrh	r3, [r4, #12]
10002336:	f023 0303 	bic.w	r3, r3, #3
1000233a:	f043 0301 	orr.w	r3, r3, #1
1000233e:	81a3      	strh	r3, [r4, #12]
10002340:	89a0      	ldrh	r0, [r4, #12]
10002342:	4305      	orrs	r5, r0
10002344:	81a5      	strh	r5, [r4, #12]
10002346:	e7cd      	b.n	100022e4 <__smakebuf_r+0x18>
10002348:	100020d9 	ldrdne	r2, [r0], -r9

1000234c <_free_r>:
1000234c:	b537      	push	{r0, r1, r2, r4, r5, lr}
1000234e:	2900      	cmp	r1, #0
10002350:	d043      	beq.n	100023da <_free_r+0x8e>
10002352:	f851 3c04 	ldr.w	r3, [r1, #-4]
10002356:	1f0c      	subs	r4, r1, #4
10002358:	9001      	str	r0, [sp, #4]
1000235a:	2b00      	cmp	r3, #0
1000235c:	bfb8      	it	lt
1000235e:	18e4      	addlt	r4, r4, r3
10002360:	f000 f97e 	bl	10002660 <__malloc_lock>
10002364:	4a1e      	ldr	r2, [pc, #120]	; (100023e0 <_free_r+0x94>)
10002366:	9801      	ldr	r0, [sp, #4]
10002368:	6813      	ldr	r3, [r2, #0]
1000236a:	b933      	cbnz	r3, 1000237a <_free_r+0x2e>
1000236c:	6063      	str	r3, [r4, #4]
1000236e:	6014      	str	r4, [r2, #0]
10002370:	b003      	add	sp, #12
10002372:	e8bd 4030 	ldmia.w	sp!, {r4, r5, lr}
10002376:	f000 b979 	b.w	1000266c <__malloc_unlock>
1000237a:	42a3      	cmp	r3, r4
1000237c:	d908      	bls.n	10002390 <_free_r+0x44>
1000237e:	6825      	ldr	r5, [r4, #0]
10002380:	1961      	adds	r1, r4, r5
10002382:	428b      	cmp	r3, r1
10002384:	bf01      	itttt	eq
10002386:	6819      	ldreq	r1, [r3, #0]
10002388:	685b      	ldreq	r3, [r3, #4]
1000238a:	1949      	addeq	r1, r1, r5
1000238c:	6021      	streq	r1, [r4, #0]
1000238e:	e7ed      	b.n	1000236c <_free_r+0x20>
10002390:	461a      	mov	r2, r3
10002392:	685b      	ldr	r3, [r3, #4]
10002394:	b10b      	cbz	r3, 1000239a <_free_r+0x4e>
10002396:	42a3      	cmp	r3, r4
10002398:	d9fa      	bls.n	10002390 <_free_r+0x44>
1000239a:	6811      	ldr	r1, [r2, #0]
1000239c:	1855      	adds	r5, r2, r1
1000239e:	42a5      	cmp	r5, r4
100023a0:	d10b      	bne.n	100023ba <_free_r+0x6e>
100023a2:	6824      	ldr	r4, [r4, #0]
100023a4:	4421      	add	r1, r4
100023a6:	1854      	adds	r4, r2, r1
100023a8:	6011      	str	r1, [r2, #0]
100023aa:	42a3      	cmp	r3, r4
100023ac:	d1e0      	bne.n	10002370 <_free_r+0x24>
100023ae:	681c      	ldr	r4, [r3, #0]
100023b0:	685b      	ldr	r3, [r3, #4]
100023b2:	4421      	add	r1, r4
100023b4:	6053      	str	r3, [r2, #4]
100023b6:	6011      	str	r1, [r2, #0]
100023b8:	e7da      	b.n	10002370 <_free_r+0x24>
100023ba:	d902      	bls.n	100023c2 <_free_r+0x76>
100023bc:	230c      	movs	r3, #12
100023be:	6003      	str	r3, [r0, #0]
100023c0:	e7d6      	b.n	10002370 <_free_r+0x24>
100023c2:	6825      	ldr	r5, [r4, #0]
100023c4:	1961      	adds	r1, r4, r5
100023c6:	428b      	cmp	r3, r1
100023c8:	bf02      	ittt	eq
100023ca:	6819      	ldreq	r1, [r3, #0]
100023cc:	685b      	ldreq	r3, [r3, #4]
100023ce:	1949      	addeq	r1, r1, r5
100023d0:	6063      	str	r3, [r4, #4]
100023d2:	bf08      	it	eq
100023d4:	6021      	streq	r1, [r4, #0]
100023d6:	6054      	str	r4, [r2, #4]
100023d8:	e7ca      	b.n	10002370 <_free_r+0x24>
100023da:	b003      	add	sp, #12
100023dc:	bd30      	pop	{r4, r5, pc}
100023de:	bf00      	nop
100023e0:	380000d0 	stmdacc	r0, {r4, r6, r7}

100023e4 <sbrk_aligned>:
100023e4:	b570      	push	{r4, r5, r6, lr}
100023e6:	4e0e      	ldr	r6, [pc, #56]	; (10002420 <sbrk_aligned+0x3c>)
100023e8:	460c      	mov	r4, r1
100023ea:	4605      	mov	r5, r0
100023ec:	6831      	ldr	r1, [r6, #0]
100023ee:	b911      	cbnz	r1, 100023f6 <sbrk_aligned+0x12>
100023f0:	f000 f88c 	bl	1000250c <_sbrk_r>
100023f4:	6030      	str	r0, [r6, #0]
100023f6:	4621      	mov	r1, r4
100023f8:	4628      	mov	r0, r5
100023fa:	f000 f887 	bl	1000250c <_sbrk_r>
100023fe:	1c43      	adds	r3, r0, #1
10002400:	d00a      	beq.n	10002418 <sbrk_aligned+0x34>
10002402:	1cc4      	adds	r4, r0, #3
10002404:	f024 0403 	bic.w	r4, r4, #3
10002408:	42a0      	cmp	r0, r4
1000240a:	d007      	beq.n	1000241c <sbrk_aligned+0x38>
1000240c:	1a21      	subs	r1, r4, r0
1000240e:	4628      	mov	r0, r5
10002410:	f000 f87c 	bl	1000250c <_sbrk_r>
10002414:	3001      	adds	r0, #1
10002416:	d101      	bne.n	1000241c <sbrk_aligned+0x38>
10002418:	f04f 34ff 	mov.w	r4, #4294967295
1000241c:	4620      	mov	r0, r4
1000241e:	bd70      	pop	{r4, r5, r6, pc}
10002420:	380000d4 	stmdacc	r0, {r2, r4, r6, r7}

10002424 <_malloc_r>:
10002424:	e92d 41f0 	stmdb	sp!, {r4, r5, r6, r7, r8, lr}
10002428:	1ccd      	adds	r5, r1, #3
1000242a:	4607      	mov	r7, r0
1000242c:	f025 0503 	bic.w	r5, r5, #3
10002430:	3508      	adds	r5, #8
10002432:	2d0c      	cmp	r5, #12
10002434:	bf38      	it	cc
10002436:	250c      	movcc	r5, #12
10002438:	2d00      	cmp	r5, #0
1000243a:	db01      	blt.n	10002440 <_malloc_r+0x1c>
1000243c:	42a9      	cmp	r1, r5
1000243e:	d905      	bls.n	1000244c <_malloc_r+0x28>
10002440:	230c      	movs	r3, #12
10002442:	2600      	movs	r6, #0
10002444:	603b      	str	r3, [r7, #0]
10002446:	4630      	mov	r0, r6
10002448:	e8bd 81f0 	ldmia.w	sp!, {r4, r5, r6, r7, r8, pc}
1000244c:	4e2e      	ldr	r6, [pc, #184]	; (10002508 <_malloc_r+0xe4>)
1000244e:	f000 f907 	bl	10002660 <__malloc_lock>
10002452:	6833      	ldr	r3, [r6, #0]
10002454:	461c      	mov	r4, r3
10002456:	bb34      	cbnz	r4, 100024a6 <_malloc_r+0x82>
10002458:	4629      	mov	r1, r5
1000245a:	4638      	mov	r0, r7
1000245c:	f7ff ffc2 	bl	100023e4 <sbrk_aligned>
10002460:	1c43      	adds	r3, r0, #1
10002462:	4604      	mov	r4, r0
10002464:	d14d      	bne.n	10002502 <_malloc_r+0xde>
10002466:	6834      	ldr	r4, [r6, #0]
10002468:	4626      	mov	r6, r4
1000246a:	2e00      	cmp	r6, #0
1000246c:	d140      	bne.n	100024f0 <_malloc_r+0xcc>
1000246e:	6823      	ldr	r3, [r4, #0]
10002470:	4631      	mov	r1, r6
10002472:	4638      	mov	r0, r7
10002474:	eb04 0803 	add.w	r8, r4, r3
10002478:	f000 f848 	bl	1000250c <_sbrk_r>
1000247c:	4580      	cmp	r8, r0
1000247e:	d13a      	bne.n	100024f6 <_malloc_r+0xd2>
10002480:	6821      	ldr	r1, [r4, #0]
10002482:	3503      	adds	r5, #3
10002484:	4638      	mov	r0, r7
10002486:	1a6d      	subs	r5, r5, r1
10002488:	f025 0503 	bic.w	r5, r5, #3
1000248c:	3508      	adds	r5, #8
1000248e:	2d0c      	cmp	r5, #12
10002490:	bf38      	it	cc
10002492:	250c      	movcc	r5, #12
10002494:	4629      	mov	r1, r5
10002496:	f7ff ffa5 	bl	100023e4 <sbrk_aligned>
1000249a:	3001      	adds	r0, #1
1000249c:	d02b      	beq.n	100024f6 <_malloc_r+0xd2>
1000249e:	6823      	ldr	r3, [r4, #0]
100024a0:	442b      	add	r3, r5
100024a2:	6023      	str	r3, [r4, #0]
100024a4:	e00e      	b.n	100024c4 <_malloc_r+0xa0>
100024a6:	6822      	ldr	r2, [r4, #0]
100024a8:	1b52      	subs	r2, r2, r5
100024aa:	d41e      	bmi.n	100024ea <_malloc_r+0xc6>
100024ac:	2a0b      	cmp	r2, #11
100024ae:	d916      	bls.n	100024de <_malloc_r+0xba>
100024b0:	1961      	adds	r1, r4, r5
100024b2:	42a3      	cmp	r3, r4
100024b4:	6025      	str	r5, [r4, #0]
100024b6:	bf18      	it	ne
100024b8:	6059      	strne	r1, [r3, #4]
100024ba:	6863      	ldr	r3, [r4, #4]
100024bc:	bf08      	it	eq
100024be:	6031      	streq	r1, [r6, #0]
100024c0:	5162      	str	r2, [r4, r5]
100024c2:	604b      	str	r3, [r1, #4]
100024c4:	f104 060b 	add.w	r6, r4, #11
100024c8:	4638      	mov	r0, r7
100024ca:	f000 f8cf 	bl	1000266c <__malloc_unlock>
100024ce:	1d23      	adds	r3, r4, #4
100024d0:	f026 0607 	bic.w	r6, r6, #7
100024d4:	1af2      	subs	r2, r6, r3
100024d6:	d0b6      	beq.n	10002446 <_malloc_r+0x22>
100024d8:	1b9b      	subs	r3, r3, r6
100024da:	50a3      	str	r3, [r4, r2]
100024dc:	e7b3      	b.n	10002446 <_malloc_r+0x22>
100024de:	6862      	ldr	r2, [r4, #4]
100024e0:	42a3      	cmp	r3, r4
100024e2:	bf0c      	ite	eq
100024e4:	6032      	streq	r2, [r6, #0]
100024e6:	605a      	strne	r2, [r3, #4]
100024e8:	e7ec      	b.n	100024c4 <_malloc_r+0xa0>
100024ea:	4623      	mov	r3, r4
100024ec:	6864      	ldr	r4, [r4, #4]
100024ee:	e7b2      	b.n	10002456 <_malloc_r+0x32>
100024f0:	4634      	mov	r4, r6
100024f2:	6876      	ldr	r6, [r6, #4]
100024f4:	e7b9      	b.n	1000246a <_malloc_r+0x46>
100024f6:	230c      	movs	r3, #12
100024f8:	4638      	mov	r0, r7
100024fa:	603b      	str	r3, [r7, #0]
100024fc:	f000 f8b6 	bl	1000266c <__malloc_unlock>
10002500:	e7a1      	b.n	10002446 <_malloc_r+0x22>
10002502:	6025      	str	r5, [r4, #0]
10002504:	e7de      	b.n	100024c4 <_malloc_r+0xa0>
10002506:	bf00      	nop
10002508:	380000d0 	stmdacc	r0, {r4, r6, r7}

1000250c <_sbrk_r>:
1000250c:	b538      	push	{r3, r4, r5, lr}
1000250e:	2300      	movs	r3, #0
10002510:	4d05      	ldr	r5, [pc, #20]	; (10002528 <_sbrk_r+0x1c>)
10002512:	4604      	mov	r4, r0
10002514:	4608      	mov	r0, r1
10002516:	602b      	str	r3, [r5, #0]
10002518:	f000 f8e8 	bl	100026ec <_sbrk>
1000251c:	1c43      	adds	r3, r0, #1
1000251e:	d102      	bne.n	10002526 <_sbrk_r+0x1a>
10002520:	682b      	ldr	r3, [r5, #0]
10002522:	b103      	cbz	r3, 10002526 <_sbrk_r+0x1a>
10002524:	6023      	str	r3, [r4, #0]
10002526:	bd38      	pop	{r3, r4, r5, pc}
10002528:	380000d8 	stmdacc	r0, {r3, r4, r6, r7}

1000252c <__sread>:
1000252c:	b510      	push	{r4, lr}
1000252e:	460c      	mov	r4, r1
10002530:	f9b1 100e 	ldrsh.w	r1, [r1, #14]
10002534:	f000 f8a0 	bl	10002678 <_read_r>
10002538:	2800      	cmp	r0, #0
1000253a:	bfab      	itete	ge
1000253c:	6d63      	ldrge	r3, [r4, #84]	; 0x54
1000253e:	89a3      	ldrhlt	r3, [r4, #12]
10002540:	181b      	addge	r3, r3, r0
10002542:	f423 5380 	biclt.w	r3, r3, #4096	; 0x1000
10002546:	bfac      	ite	ge
10002548:	6563      	strge	r3, [r4, #84]	; 0x54
1000254a:	81a3      	strhlt	r3, [r4, #12]
1000254c:	bd10      	pop	{r4, pc}

1000254e <__swrite>:
1000254e:	e92d 41f0 	stmdb	sp!, {r4, r5, r6, r7, r8, lr}
10002552:	461f      	mov	r7, r3
10002554:	898b      	ldrh	r3, [r1, #12]
10002556:	4605      	mov	r5, r0
10002558:	460c      	mov	r4, r1
1000255a:	05db      	lsls	r3, r3, #23
1000255c:	4616      	mov	r6, r2
1000255e:	d505      	bpl.n	1000256c <__swrite+0x1e>
10002560:	2302      	movs	r3, #2
10002562:	2200      	movs	r2, #0
10002564:	f9b1 100e 	ldrsh.w	r1, [r1, #14]
10002568:	f000 f868 	bl	1000263c <_lseek_r>
1000256c:	89a3      	ldrh	r3, [r4, #12]
1000256e:	4632      	mov	r2, r6
10002570:	f9b4 100e 	ldrsh.w	r1, [r4, #14]
10002574:	4628      	mov	r0, r5
10002576:	f423 5380 	bic.w	r3, r3, #4096	; 0x1000
1000257a:	81a3      	strh	r3, [r4, #12]
1000257c:	463b      	mov	r3, r7
1000257e:	e8bd 41f0 	ldmia.w	sp!, {r4, r5, r6, r7, r8, lr}
10002582:	f000 b817 	b.w	100025b4 <_write_r>

10002586 <__sseek>:
10002586:	b510      	push	{r4, lr}
10002588:	460c      	mov	r4, r1
1000258a:	f9b1 100e 	ldrsh.w	r1, [r1, #14]
1000258e:	f000 f855 	bl	1000263c <_lseek_r>
10002592:	1c43      	adds	r3, r0, #1
10002594:	89a3      	ldrh	r3, [r4, #12]
10002596:	bf15      	itete	ne
10002598:	6560      	strne	r0, [r4, #84]	; 0x54
1000259a:	f423 5380 	biceq.w	r3, r3, #4096	; 0x1000
1000259e:	f443 5380 	orrne.w	r3, r3, #4096	; 0x1000
100025a2:	81a3      	strheq	r3, [r4, #12]
100025a4:	bf18      	it	ne
100025a6:	81a3      	strhne	r3, [r4, #12]
100025a8:	bd10      	pop	{r4, pc}

100025aa <__sclose>:
100025aa:	f9b1 100e 	ldrsh.w	r1, [r1, #14]
100025ae:	f000 b813 	b.w	100025d8 <_close_r>
	...

100025b4 <_write_r>:
100025b4:	b538      	push	{r3, r4, r5, lr}
100025b6:	4604      	mov	r4, r0
100025b8:	4d06      	ldr	r5, [pc, #24]	; (100025d4 <_write_r+0x20>)
100025ba:	4608      	mov	r0, r1
100025bc:	4611      	mov	r1, r2
100025be:	2200      	movs	r2, #0
100025c0:	602a      	str	r2, [r5, #0]
100025c2:	461a      	mov	r2, r3
100025c4:	f000 f8a2 	bl	1000270c <_write>
100025c8:	1c43      	adds	r3, r0, #1
100025ca:	d102      	bne.n	100025d2 <_write_r+0x1e>
100025cc:	682b      	ldr	r3, [r5, #0]
100025ce:	b103      	cbz	r3, 100025d2 <_write_r+0x1e>
100025d0:	6023      	str	r3, [r4, #0]
100025d2:	bd38      	pop	{r3, r4, r5, pc}
100025d4:	380000d8 	stmdacc	r0, {r3, r4, r6, r7}

100025d8 <_close_r>:
100025d8:	b538      	push	{r3, r4, r5, lr}
100025da:	2300      	movs	r3, #0
100025dc:	4d05      	ldr	r5, [pc, #20]	; (100025f4 <_close_r+0x1c>)
100025de:	4604      	mov	r4, r0
100025e0:	4608      	mov	r0, r1
100025e2:	602b      	str	r3, [r5, #0]
100025e4:	f000 f85a 	bl	1000269c <_close>
100025e8:	1c43      	adds	r3, r0, #1
100025ea:	d102      	bne.n	100025f2 <_close_r+0x1a>
100025ec:	682b      	ldr	r3, [r5, #0]
100025ee:	b103      	cbz	r3, 100025f2 <_close_r+0x1a>
100025f0:	6023      	str	r3, [r4, #0]
100025f2:	bd38      	pop	{r3, r4, r5, pc}
100025f4:	380000d8 	stmdacc	r0, {r3, r4, r6, r7}

100025f8 <_fstat_r>:
100025f8:	b538      	push	{r3, r4, r5, lr}
100025fa:	2300      	movs	r3, #0
100025fc:	4d06      	ldr	r5, [pc, #24]	; (10002618 <_fstat_r+0x20>)
100025fe:	4604      	mov	r4, r0
10002600:	4608      	mov	r0, r1
10002602:	4611      	mov	r1, r2
10002604:	602b      	str	r3, [r5, #0]
10002606:	f000 f851 	bl	100026ac <_fstat>
1000260a:	1c43      	adds	r3, r0, #1
1000260c:	d102      	bne.n	10002614 <_fstat_r+0x1c>
1000260e:	682b      	ldr	r3, [r5, #0]
10002610:	b103      	cbz	r3, 10002614 <_fstat_r+0x1c>
10002612:	6023      	str	r3, [r4, #0]
10002614:	bd38      	pop	{r3, r4, r5, pc}
10002616:	bf00      	nop
10002618:	380000d8 	stmdacc	r0, {r3, r4, r6, r7}

1000261c <_isatty_r>:
1000261c:	b538      	push	{r3, r4, r5, lr}
1000261e:	2300      	movs	r3, #0
10002620:	4d05      	ldr	r5, [pc, #20]	; (10002638 <_isatty_r+0x1c>)
10002622:	4604      	mov	r4, r0
10002624:	4608      	mov	r0, r1
10002626:	602b      	str	r3, [r5, #0]
10002628:	f000 f848 	bl	100026bc <_isatty>
1000262c:	1c43      	adds	r3, r0, #1
1000262e:	d102      	bne.n	10002636 <_isatty_r+0x1a>
10002630:	682b      	ldr	r3, [r5, #0]
10002632:	b103      	cbz	r3, 10002636 <_isatty_r+0x1a>
10002634:	6023      	str	r3, [r4, #0]
10002636:	bd38      	pop	{r3, r4, r5, pc}
10002638:	380000d8 	stmdacc	r0, {r3, r4, r6, r7}

1000263c <_lseek_r>:
1000263c:	b538      	push	{r3, r4, r5, lr}
1000263e:	4604      	mov	r4, r0
10002640:	4d06      	ldr	r5, [pc, #24]	; (1000265c <_lseek_r+0x20>)
10002642:	4608      	mov	r0, r1
10002644:	4611      	mov	r1, r2
10002646:	2200      	movs	r2, #0
10002648:	602a      	str	r2, [r5, #0]
1000264a:	461a      	mov	r2, r3
1000264c:	f000 f83e 	bl	100026cc <_lseek>
10002650:	1c43      	adds	r3, r0, #1
10002652:	d102      	bne.n	1000265a <_lseek_r+0x1e>
10002654:	682b      	ldr	r3, [r5, #0]
10002656:	b103      	cbz	r3, 1000265a <_lseek_r+0x1e>
10002658:	6023      	str	r3, [r4, #0]
1000265a:	bd38      	pop	{r3, r4, r5, pc}
1000265c:	380000d8 	stmdacc	r0, {r3, r4, r6, r7}

10002660 <__malloc_lock>:
10002660:	4801      	ldr	r0, [pc, #4]	; (10002668 <__malloc_lock+0x8>)
10002662:	f7ff be0b 	b.w	1000227c <__retarget_lock_acquire_recursive>
10002666:	bf00      	nop
10002668:	380000cc 	stmdacc	r0, {r2, r3, r6, r7}

1000266c <__malloc_unlock>:
1000266c:	4801      	ldr	r0, [pc, #4]	; (10002674 <__malloc_unlock+0x8>)
1000266e:	f7ff be06 	b.w	1000227e <__retarget_lock_release_recursive>
10002672:	bf00      	nop
10002674:	380000cc 	stmdacc	r0, {r2, r3, r6, r7}

10002678 <_read_r>:
10002678:	b538      	push	{r3, r4, r5, lr}
1000267a:	4604      	mov	r4, r0
1000267c:	4d06      	ldr	r5, [pc, #24]	; (10002698 <_read_r+0x20>)
1000267e:	4608      	mov	r0, r1
10002680:	4611      	mov	r1, r2
10002682:	2200      	movs	r2, #0
10002684:	602a      	str	r2, [r5, #0]
10002686:	461a      	mov	r2, r3
10002688:	f000 f828 	bl	100026dc <_read>
1000268c:	1c43      	adds	r3, r0, #1
1000268e:	d102      	bne.n	10002696 <_read_r+0x1e>
10002690:	682b      	ldr	r3, [r5, #0]
10002692:	b103      	cbz	r3, 10002696 <_read_r+0x1e>
10002694:	6023      	str	r3, [r4, #0]
10002696:	bd38      	pop	{r3, r4, r5, pc}
10002698:	380000d8 	stmdacc	r0, {r3, r4, r6, r7}

1000269c <_close>:
1000269c:	4b02      	ldr	r3, [pc, #8]	; (100026a8 <_close+0xc>)
1000269e:	2258      	movs	r2, #88	; 0x58
100026a0:	f04f 30ff 	mov.w	r0, #4294967295
100026a4:	601a      	str	r2, [r3, #0]
100026a6:	4770      	bx	lr
100026a8:	380000d8 	stmdacc	r0, {r3, r4, r6, r7}

100026ac <_fstat>:
100026ac:	4b02      	ldr	r3, [pc, #8]	; (100026b8 <_fstat+0xc>)
100026ae:	2258      	movs	r2, #88	; 0x58
100026b0:	f04f 30ff 	mov.w	r0, #4294967295
100026b4:	601a      	str	r2, [r3, #0]
100026b6:	4770      	bx	lr
100026b8:	380000d8 	stmdacc	r0, {r3, r4, r6, r7}

100026bc <_isatty>:
100026bc:	4b02      	ldr	r3, [pc, #8]	; (100026c8 <_isatty+0xc>)
100026be:	2258      	movs	r2, #88	; 0x58
100026c0:	2000      	movs	r0, #0
100026c2:	601a      	str	r2, [r3, #0]
100026c4:	4770      	bx	lr
100026c6:	bf00      	nop
100026c8:	380000d8 	stmdacc	r0, {r3, r4, r6, r7}

100026cc <_lseek>:
100026cc:	4b02      	ldr	r3, [pc, #8]	; (100026d8 <_lseek+0xc>)
100026ce:	2258      	movs	r2, #88	; 0x58
100026d0:	f04f 30ff 	mov.w	r0, #4294967295
100026d4:	601a      	str	r2, [r3, #0]
100026d6:	4770      	bx	lr
100026d8:	380000d8 	stmdacc	r0, {r3, r4, r6, r7}

100026dc <_read>:
100026dc:	4b02      	ldr	r3, [pc, #8]	; (100026e8 <_read+0xc>)
100026de:	2258      	movs	r2, #88	; 0x58
100026e0:	f04f 30ff 	mov.w	r0, #4294967295
100026e4:	601a      	str	r2, [r3, #0]
100026e6:	4770      	bx	lr
100026e8:	380000d8 	stmdacc	r0, {r3, r4, r6, r7}

100026ec <_sbrk>:
100026ec:	4a05      	ldr	r2, [pc, #20]	; (10002704 <_sbrk+0x18>)
100026ee:	4603      	mov	r3, r0
100026f0:	6810      	ldr	r0, [r2, #0]
100026f2:	b110      	cbz	r0, 100026fa <_sbrk+0xe>
100026f4:	4403      	add	r3, r0
100026f6:	6013      	str	r3, [r2, #0]
100026f8:	4770      	bx	lr
100026fa:	4803      	ldr	r0, [pc, #12]	; (10002708 <_sbrk+0x1c>)
100026fc:	4403      	add	r3, r0
100026fe:	6013      	str	r3, [r2, #0]
10002700:	4770      	bx	lr
10002702:	bf00      	nop
10002704:	380000dc 	stmdacc	r0, {r2, r3, r4, r6, r7}
10002708:	380000e0 	stmdacc	r0, {r5, r6, r7}

1000270c <_write>:
1000270c:	4b02      	ldr	r3, [pc, #8]	; (10002718 <_write+0xc>)
1000270e:	2258      	movs	r2, #88	; 0x58
10002710:	f04f 30ff 	mov.w	r0, #4294967295
10002714:	601a      	str	r2, [r3, #0]
10002716:	4770      	bx	lr
10002718:	380000d8 	stmdacc	r0, {r3, r4, r6, r7}

1000271c <__aeabi_drsub>:
1000271c:	f081 4100 	eor.w	r1, r1, #2147483648	; 0x80000000
10002720:	e002      	b.n	10002728 <__adddf3>
10002722:	bf00      	nop

10002724 <__aeabi_dsub>:
10002724:	f083 4300 	eor.w	r3, r3, #2147483648	; 0x80000000

10002728 <__adddf3>:
10002728:	b530      	push	{r4, r5, lr}
1000272a:	ea4f 0441 	mov.w	r4, r1, lsl #1
1000272e:	ea4f 0543 	mov.w	r5, r3, lsl #1
10002732:	ea94 0f05 	teq	r4, r5
10002736:	bf08      	it	eq
10002738:	ea90 0f02 	teqeq	r0, r2
1000273c:	bf1f      	itttt	ne
1000273e:	ea54 0c00 	orrsne.w	ip, r4, r0
10002742:	ea55 0c02 	orrsne.w	ip, r5, r2
10002746:	ea7f 5c64 	mvnsne.w	ip, r4, asr #21
1000274a:	ea7f 5c65 	mvnsne.w	ip, r5, asr #21
1000274e:	f000 80e2 	beq.w	10002916 <__adddf3+0x1ee>
10002752:	ea4f 5454 	mov.w	r4, r4, lsr #21
10002756:	ebd4 5555 	rsbs	r5, r4, r5, lsr #21
1000275a:	bfb8      	it	lt
1000275c:	426d      	neglt	r5, r5
1000275e:	dd0c      	ble.n	1000277a <__adddf3+0x52>
10002760:	442c      	add	r4, r5
10002762:	ea80 0202 	eor.w	r2, r0, r2
10002766:	ea81 0303 	eor.w	r3, r1, r3
1000276a:	ea82 0000 	eor.w	r0, r2, r0
1000276e:	ea83 0101 	eor.w	r1, r3, r1
10002772:	ea80 0202 	eor.w	r2, r0, r2
10002776:	ea81 0303 	eor.w	r3, r1, r3
1000277a:	2d36      	cmp	r5, #54	; 0x36
1000277c:	bf88      	it	hi
1000277e:	bd30      	pophi	{r4, r5, pc}
10002780:	f011 4f00 	tst.w	r1, #2147483648	; 0x80000000
10002784:	ea4f 3101 	mov.w	r1, r1, lsl #12
10002788:	f44f 1c80 	mov.w	ip, #1048576	; 0x100000
1000278c:	ea4c 3111 	orr.w	r1, ip, r1, lsr #12
10002790:	d002      	beq.n	10002798 <__adddf3+0x70>
10002792:	4240      	negs	r0, r0
10002794:	eb61 0141 	sbc.w	r1, r1, r1, lsl #1
10002798:	f013 4f00 	tst.w	r3, #2147483648	; 0x80000000
1000279c:	ea4f 3303 	mov.w	r3, r3, lsl #12
100027a0:	ea4c 3313 	orr.w	r3, ip, r3, lsr #12
100027a4:	d002      	beq.n	100027ac <__adddf3+0x84>
100027a6:	4252      	negs	r2, r2
100027a8:	eb63 0343 	sbc.w	r3, r3, r3, lsl #1
100027ac:	ea94 0f05 	teq	r4, r5
100027b0:	f000 80a7 	beq.w	10002902 <__adddf3+0x1da>
100027b4:	f1a4 0401 	sub.w	r4, r4, #1
100027b8:	f1d5 0e20 	rsbs	lr, r5, #32
100027bc:	db0d      	blt.n	100027da <__adddf3+0xb2>
100027be:	fa02 fc0e 	lsl.w	ip, r2, lr
100027c2:	fa22 f205 	lsr.w	r2, r2, r5
100027c6:	1880      	adds	r0, r0, r2
100027c8:	f141 0100 	adc.w	r1, r1, #0
100027cc:	fa03 f20e 	lsl.w	r2, r3, lr
100027d0:	1880      	adds	r0, r0, r2
100027d2:	fa43 f305 	asr.w	r3, r3, r5
100027d6:	4159      	adcs	r1, r3
100027d8:	e00e      	b.n	100027f8 <__adddf3+0xd0>
100027da:	f1a5 0520 	sub.w	r5, r5, #32
100027de:	f10e 0e20 	add.w	lr, lr, #32
100027e2:	2a01      	cmp	r2, #1
100027e4:	fa03 fc0e 	lsl.w	ip, r3, lr
100027e8:	bf28      	it	cs
100027ea:	f04c 0c02 	orrcs.w	ip, ip, #2
100027ee:	fa43 f305 	asr.w	r3, r3, r5
100027f2:	18c0      	adds	r0, r0, r3
100027f4:	eb51 71e3 	adcs.w	r1, r1, r3, asr #31
100027f8:	f001 4500 	and.w	r5, r1, #2147483648	; 0x80000000
100027fc:	d507      	bpl.n	1000280e <__adddf3+0xe6>
100027fe:	f04f 0e00 	mov.w	lr, #0
10002802:	f1dc 0c00 	rsbs	ip, ip, #0
10002806:	eb7e 0000 	sbcs.w	r0, lr, r0
1000280a:	eb6e 0101 	sbc.w	r1, lr, r1
1000280e:	f5b1 1f80 	cmp.w	r1, #1048576	; 0x100000
10002812:	d31b      	bcc.n	1000284c <__adddf3+0x124>
10002814:	f5b1 1f00 	cmp.w	r1, #2097152	; 0x200000
10002818:	d30c      	bcc.n	10002834 <__adddf3+0x10c>
1000281a:	0849      	lsrs	r1, r1, #1
1000281c:	ea5f 0030 	movs.w	r0, r0, rrx
10002820:	ea4f 0c3c 	mov.w	ip, ip, rrx
10002824:	f104 0401 	add.w	r4, r4, #1
10002828:	ea4f 5244 	mov.w	r2, r4, lsl #21
1000282c:	f512 0f80 	cmn.w	r2, #4194304	; 0x400000
10002830:	f080 809a 	bcs.w	10002968 <__adddf3+0x240>
10002834:	f1bc 4f00 	cmp.w	ip, #2147483648	; 0x80000000
10002838:	bf08      	it	eq
1000283a:	ea5f 0c50 	movseq.w	ip, r0, lsr #1
1000283e:	f150 0000 	adcs.w	r0, r0, #0
10002842:	eb41 5104 	adc.w	r1, r1, r4, lsl #20
10002846:	ea41 0105 	orr.w	r1, r1, r5
1000284a:	bd30      	pop	{r4, r5, pc}
1000284c:	ea5f 0c4c 	movs.w	ip, ip, lsl #1
10002850:	4140      	adcs	r0, r0
10002852:	eb41 0101 	adc.w	r1, r1, r1
10002856:	3c01      	subs	r4, #1
10002858:	bf28      	it	cs
1000285a:	f5b1 1f80 	cmpcs.w	r1, #1048576	; 0x100000
1000285e:	d2e9      	bcs.n	10002834 <__adddf3+0x10c>
10002860:	f091 0f00 	teq	r1, #0
10002864:	bf04      	itt	eq
10002866:	4601      	moveq	r1, r0
10002868:	2000      	moveq	r0, #0
1000286a:	fab1 f381 	clz	r3, r1
1000286e:	bf08      	it	eq
10002870:	3320      	addeq	r3, #32
10002872:	f1a3 030b 	sub.w	r3, r3, #11
10002876:	f1b3 0220 	subs.w	r2, r3, #32
1000287a:	da0c      	bge.n	10002896 <__adddf3+0x16e>
1000287c:	320c      	adds	r2, #12
1000287e:	dd08      	ble.n	10002892 <__adddf3+0x16a>
10002880:	f102 0c14 	add.w	ip, r2, #20
10002884:	f1c2 020c 	rsb	r2, r2, #12
10002888:	fa01 f00c 	lsl.w	r0, r1, ip
1000288c:	fa21 f102 	lsr.w	r1, r1, r2
10002890:	e00c      	b.n	100028ac <__adddf3+0x184>
10002892:	f102 0214 	add.w	r2, r2, #20
10002896:	bfd8      	it	le
10002898:	f1c2 0c20 	rsble	ip, r2, #32
1000289c:	fa01 f102 	lsl.w	r1, r1, r2
100028a0:	fa20 fc0c 	lsr.w	ip, r0, ip
100028a4:	bfdc      	itt	le
100028a6:	ea41 010c 	orrle.w	r1, r1, ip
100028aa:	4090      	lslle	r0, r2
100028ac:	1ae4      	subs	r4, r4, r3
100028ae:	bfa2      	ittt	ge
100028b0:	eb01 5104 	addge.w	r1, r1, r4, lsl #20
100028b4:	4329      	orrge	r1, r5
100028b6:	bd30      	popge	{r4, r5, pc}
100028b8:	ea6f 0404 	mvn.w	r4, r4
100028bc:	3c1f      	subs	r4, #31
100028be:	da1c      	bge.n	100028fa <__adddf3+0x1d2>
100028c0:	340c      	adds	r4, #12
100028c2:	dc0e      	bgt.n	100028e2 <__adddf3+0x1ba>
100028c4:	f104 0414 	add.w	r4, r4, #20
100028c8:	f1c4 0220 	rsb	r2, r4, #32
100028cc:	fa20 f004 	lsr.w	r0, r0, r4
100028d0:	fa01 f302 	lsl.w	r3, r1, r2
100028d4:	ea40 0003 	orr.w	r0, r0, r3
100028d8:	fa21 f304 	lsr.w	r3, r1, r4
100028dc:	ea45 0103 	orr.w	r1, r5, r3
100028e0:	bd30      	pop	{r4, r5, pc}
100028e2:	f1c4 040c 	rsb	r4, r4, #12
100028e6:	f1c4 0220 	rsb	r2, r4, #32
100028ea:	fa20 f002 	lsr.w	r0, r0, r2
100028ee:	fa01 f304 	lsl.w	r3, r1, r4
100028f2:	ea40 0003 	orr.w	r0, r0, r3
100028f6:	4629      	mov	r1, r5
100028f8:	bd30      	pop	{r4, r5, pc}
100028fa:	fa21 f004 	lsr.w	r0, r1, r4
100028fe:	4629      	mov	r1, r5
10002900:	bd30      	pop	{r4, r5, pc}
10002902:	f094 0f00 	teq	r4, #0
10002906:	f483 1380 	eor.w	r3, r3, #1048576	; 0x100000
1000290a:	bf06      	itte	eq
1000290c:	f481 1180 	eoreq.w	r1, r1, #1048576	; 0x100000
10002910:	3401      	addeq	r4, #1
10002912:	3d01      	subne	r5, #1
10002914:	e74e      	b.n	100027b4 <__adddf3+0x8c>
10002916:	ea7f 5c64 	mvns.w	ip, r4, asr #21
1000291a:	bf18      	it	ne
1000291c:	ea7f 5c65 	mvnsne.w	ip, r5, asr #21
10002920:	d029      	beq.n	10002976 <__adddf3+0x24e>
10002922:	ea94 0f05 	teq	r4, r5
10002926:	bf08      	it	eq
10002928:	ea90 0f02 	teqeq	r0, r2
1000292c:	d005      	beq.n	1000293a <__adddf3+0x212>
1000292e:	ea54 0c00 	orrs.w	ip, r4, r0
10002932:	bf04      	itt	eq
10002934:	4619      	moveq	r1, r3
10002936:	4610      	moveq	r0, r2
10002938:	bd30      	pop	{r4, r5, pc}
1000293a:	ea91 0f03 	teq	r1, r3
1000293e:	bf1e      	ittt	ne
10002940:	2100      	movne	r1, #0
10002942:	2000      	movne	r0, #0
10002944:	bd30      	popne	{r4, r5, pc}
10002946:	ea5f 5c54 	movs.w	ip, r4, lsr #21
1000294a:	d105      	bne.n	10002958 <__adddf3+0x230>
1000294c:	0040      	lsls	r0, r0, #1
1000294e:	4149      	adcs	r1, r1
10002950:	bf28      	it	cs
10002952:	f041 4100 	orrcs.w	r1, r1, #2147483648	; 0x80000000
10002956:	bd30      	pop	{r4, r5, pc}
10002958:	f514 0480 	adds.w	r4, r4, #4194304	; 0x400000
1000295c:	bf3c      	itt	cc
1000295e:	f501 1180 	addcc.w	r1, r1, #1048576	; 0x100000
10002962:	bd30      	popcc	{r4, r5, pc}
10002964:	f001 4500 	and.w	r5, r1, #2147483648	; 0x80000000
10002968:	f045 41fe 	orr.w	r1, r5, #2130706432	; 0x7f000000
1000296c:	f441 0170 	orr.w	r1, r1, #15728640	; 0xf00000
10002970:	f04f 0000 	mov.w	r0, #0
10002974:	bd30      	pop	{r4, r5, pc}
10002976:	ea7f 5c64 	mvns.w	ip, r4, asr #21
1000297a:	bf1a      	itte	ne
1000297c:	4619      	movne	r1, r3
1000297e:	4610      	movne	r0, r2
10002980:	ea7f 5c65 	mvnseq.w	ip, r5, asr #21
10002984:	bf1c      	itt	ne
10002986:	460b      	movne	r3, r1
10002988:	4602      	movne	r2, r0
1000298a:	ea50 3401 	orrs.w	r4, r0, r1, lsl #12
1000298e:	bf06      	itte	eq
10002990:	ea52 3503 	orrseq.w	r5, r2, r3, lsl #12
10002994:	ea91 0f03 	teqeq	r1, r3
10002998:	f441 2100 	orrne.w	r1, r1, #524288	; 0x80000
1000299c:	bd30      	pop	{r4, r5, pc}
1000299e:	bf00      	nop

100029a0 <__aeabi_ui2d>:
100029a0:	f090 0f00 	teq	r0, #0
100029a4:	bf04      	itt	eq
100029a6:	2100      	moveq	r1, #0
100029a8:	4770      	bxeq	lr
100029aa:	b530      	push	{r4, r5, lr}
100029ac:	f44f 6480 	mov.w	r4, #1024	; 0x400
100029b0:	f104 0432 	add.w	r4, r4, #50	; 0x32
100029b4:	f04f 0500 	mov.w	r5, #0
100029b8:	f04f 0100 	mov.w	r1, #0
100029bc:	e750      	b.n	10002860 <__adddf3+0x138>
100029be:	bf00      	nop

100029c0 <__aeabi_i2d>:
100029c0:	f090 0f00 	teq	r0, #0
100029c4:	bf04      	itt	eq
100029c6:	2100      	moveq	r1, #0
100029c8:	4770      	bxeq	lr
100029ca:	b530      	push	{r4, r5, lr}
100029cc:	f44f 6480 	mov.w	r4, #1024	; 0x400
100029d0:	f104 0432 	add.w	r4, r4, #50	; 0x32
100029d4:	f010 4500 	ands.w	r5, r0, #2147483648	; 0x80000000
100029d8:	bf48      	it	mi
100029da:	4240      	negmi	r0, r0
100029dc:	f04f 0100 	mov.w	r1, #0
100029e0:	e73e      	b.n	10002860 <__adddf3+0x138>
100029e2:	bf00      	nop

100029e4 <__aeabi_f2d>:
100029e4:	0042      	lsls	r2, r0, #1
100029e6:	ea4f 01e2 	mov.w	r1, r2, asr #3
100029ea:	ea4f 0131 	mov.w	r1, r1, rrx
100029ee:	ea4f 7002 	mov.w	r0, r2, lsl #28
100029f2:	bf1f      	itttt	ne
100029f4:	f012 437f 	andsne.w	r3, r2, #4278190080	; 0xff000000
100029f8:	f093 4f7f 	teqne	r3, #4278190080	; 0xff000000
100029fc:	f081 5160 	eorne.w	r1, r1, #939524096	; 0x38000000
10002a00:	4770      	bxne	lr
10002a02:	f032 427f 	bics.w	r2, r2, #4278190080	; 0xff000000
10002a06:	bf08      	it	eq
10002a08:	4770      	bxeq	lr
10002a0a:	f093 4f7f 	teq	r3, #4278190080	; 0xff000000
10002a0e:	bf04      	itt	eq
10002a10:	f441 2100 	orreq.w	r1, r1, #524288	; 0x80000
10002a14:	4770      	bxeq	lr
10002a16:	b530      	push	{r4, r5, lr}
10002a18:	f44f 7460 	mov.w	r4, #896	; 0x380
10002a1c:	f001 4500 	and.w	r5, r1, #2147483648	; 0x80000000
10002a20:	f021 4100 	bic.w	r1, r1, #2147483648	; 0x80000000
10002a24:	e71c      	b.n	10002860 <__adddf3+0x138>
10002a26:	bf00      	nop

10002a28 <__aeabi_ul2d>:
10002a28:	ea50 0201 	orrs.w	r2, r0, r1
10002a2c:	bf08      	it	eq
10002a2e:	4770      	bxeq	lr
10002a30:	b530      	push	{r4, r5, lr}
10002a32:	f04f 0500 	mov.w	r5, #0
10002a36:	e00a      	b.n	10002a4e <__aeabi_l2d+0x16>

10002a38 <__aeabi_l2d>:
10002a38:	ea50 0201 	orrs.w	r2, r0, r1
10002a3c:	bf08      	it	eq
10002a3e:	4770      	bxeq	lr
10002a40:	b530      	push	{r4, r5, lr}
10002a42:	f011 4500 	ands.w	r5, r1, #2147483648	; 0x80000000
10002a46:	d502      	bpl.n	10002a4e <__aeabi_l2d+0x16>
10002a48:	4240      	negs	r0, r0
10002a4a:	eb61 0141 	sbc.w	r1, r1, r1, lsl #1
10002a4e:	f44f 6480 	mov.w	r4, #1024	; 0x400
10002a52:	f104 0432 	add.w	r4, r4, #50	; 0x32
10002a56:	ea5f 5c91 	movs.w	ip, r1, lsr #22
10002a5a:	f43f aed8 	beq.w	1000280e <__adddf3+0xe6>
10002a5e:	f04f 0203 	mov.w	r2, #3
10002a62:	ea5f 0cdc 	movs.w	ip, ip, lsr #3
10002a66:	bf18      	it	ne
10002a68:	3203      	addne	r2, #3
10002a6a:	ea5f 0cdc 	movs.w	ip, ip, lsr #3
10002a6e:	bf18      	it	ne
10002a70:	3203      	addne	r2, #3
10002a72:	eb02 02dc 	add.w	r2, r2, ip, lsr #3
10002a76:	f1c2 0320 	rsb	r3, r2, #32
10002a7a:	fa00 fc03 	lsl.w	ip, r0, r3
10002a7e:	fa20 f002 	lsr.w	r0, r0, r2
10002a82:	fa01 fe03 	lsl.w	lr, r1, r3
10002a86:	ea40 000e 	orr.w	r0, r0, lr
10002a8a:	fa21 f102 	lsr.w	r1, r1, r2
10002a8e:	4414      	add	r4, r2
10002a90:	e6bd      	b.n	1000280e <__adddf3+0xe6>
10002a92:	bf00      	nop

10002a94 <__aeabi_dmul>:
10002a94:	b570      	push	{r4, r5, r6, lr}
10002a96:	f04f 0cff 	mov.w	ip, #255	; 0xff
10002a9a:	f44c 6ce0 	orr.w	ip, ip, #1792	; 0x700
10002a9e:	ea1c 5411 	ands.w	r4, ip, r1, lsr #20
10002aa2:	bf1d      	ittte	ne
10002aa4:	ea1c 5513 	andsne.w	r5, ip, r3, lsr #20
10002aa8:	ea94 0f0c 	teqne	r4, ip
10002aac:	ea95 0f0c 	teqne	r5, ip
10002ab0:	f000 f8de 	bleq	10002c70 <__aeabi_dmul+0x1dc>
10002ab4:	442c      	add	r4, r5
10002ab6:	ea81 0603 	eor.w	r6, r1, r3
10002aba:	ea21 514c 	bic.w	r1, r1, ip, lsl #21
10002abe:	ea23 534c 	bic.w	r3, r3, ip, lsl #21
10002ac2:	ea50 3501 	orrs.w	r5, r0, r1, lsl #12
10002ac6:	bf18      	it	ne
10002ac8:	ea52 3503 	orrsne.w	r5, r2, r3, lsl #12
10002acc:	f441 1180 	orr.w	r1, r1, #1048576	; 0x100000
10002ad0:	f443 1380 	orr.w	r3, r3, #1048576	; 0x100000
10002ad4:	d038      	beq.n	10002b48 <__aeabi_dmul+0xb4>
10002ad6:	fba0 ce02 	umull	ip, lr, r0, r2
10002ada:	f04f 0500 	mov.w	r5, #0
10002ade:	fbe1 e502 	umlal	lr, r5, r1, r2
10002ae2:	f006 4200 	and.w	r2, r6, #2147483648	; 0x80000000
10002ae6:	fbe0 e503 	umlal	lr, r5, r0, r3
10002aea:	f04f 0600 	mov.w	r6, #0
10002aee:	fbe1 5603 	umlal	r5, r6, r1, r3
10002af2:	f09c 0f00 	teq	ip, #0
10002af6:	bf18      	it	ne
10002af8:	f04e 0e01 	orrne.w	lr, lr, #1
10002afc:	f1a4 04ff 	sub.w	r4, r4, #255	; 0xff
10002b00:	f5b6 7f00 	cmp.w	r6, #512	; 0x200
10002b04:	f564 7440 	sbc.w	r4, r4, #768	; 0x300
10002b08:	d204      	bcs.n	10002b14 <__aeabi_dmul+0x80>
10002b0a:	ea5f 0e4e 	movs.w	lr, lr, lsl #1
10002b0e:	416d      	adcs	r5, r5
10002b10:	eb46 0606 	adc.w	r6, r6, r6
10002b14:	ea42 21c6 	orr.w	r1, r2, r6, lsl #11
10002b18:	ea41 5155 	orr.w	r1, r1, r5, lsr #21
10002b1c:	ea4f 20c5 	mov.w	r0, r5, lsl #11
10002b20:	ea40 505e 	orr.w	r0, r0, lr, lsr #21
10002b24:	ea4f 2ece 	mov.w	lr, lr, lsl #11
10002b28:	f1b4 0cfd 	subs.w	ip, r4, #253	; 0xfd
10002b2c:	bf88      	it	hi
10002b2e:	f5bc 6fe0 	cmphi.w	ip, #1792	; 0x700
10002b32:	d81e      	bhi.n	10002b72 <__aeabi_dmul+0xde>
10002b34:	f1be 4f00 	cmp.w	lr, #2147483648	; 0x80000000
10002b38:	bf08      	it	eq
10002b3a:	ea5f 0e50 	movseq.w	lr, r0, lsr #1
10002b3e:	f150 0000 	adcs.w	r0, r0, #0
10002b42:	eb41 5104 	adc.w	r1, r1, r4, lsl #20
10002b46:	bd70      	pop	{r4, r5, r6, pc}
10002b48:	f006 4600 	and.w	r6, r6, #2147483648	; 0x80000000
10002b4c:	ea46 0101 	orr.w	r1, r6, r1
10002b50:	ea40 0002 	orr.w	r0, r0, r2
10002b54:	ea81 0103 	eor.w	r1, r1, r3
10002b58:	ebb4 045c 	subs.w	r4, r4, ip, lsr #1
10002b5c:	bfc2      	ittt	gt
10002b5e:	ebd4 050c 	rsbsgt	r5, r4, ip
10002b62:	ea41 5104 	orrgt.w	r1, r1, r4, lsl #20
10002b66:	bd70      	popgt	{r4, r5, r6, pc}
10002b68:	f441 1180 	orr.w	r1, r1, #1048576	; 0x100000
10002b6c:	f04f 0e00 	mov.w	lr, #0
10002b70:	3c01      	subs	r4, #1
10002b72:	f300 80ab 	bgt.w	10002ccc <__aeabi_dmul+0x238>
10002b76:	f114 0f36 	cmn.w	r4, #54	; 0x36
10002b7a:	bfde      	ittt	le
10002b7c:	2000      	movle	r0, #0
10002b7e:	f001 4100 	andle.w	r1, r1, #2147483648	; 0x80000000
10002b82:	bd70      	pople	{r4, r5, r6, pc}
10002b84:	f1c4 0400 	rsb	r4, r4, #0
10002b88:	3c20      	subs	r4, #32
10002b8a:	da35      	bge.n	10002bf8 <__aeabi_dmul+0x164>
10002b8c:	340c      	adds	r4, #12
10002b8e:	dc1b      	bgt.n	10002bc8 <__aeabi_dmul+0x134>
10002b90:	f104 0414 	add.w	r4, r4, #20
10002b94:	f1c4 0520 	rsb	r5, r4, #32
10002b98:	fa00 f305 	lsl.w	r3, r0, r5
10002b9c:	fa20 f004 	lsr.w	r0, r0, r4
10002ba0:	fa01 f205 	lsl.w	r2, r1, r5
10002ba4:	ea40 0002 	orr.w	r0, r0, r2
10002ba8:	f001 4200 	and.w	r2, r1, #2147483648	; 0x80000000
10002bac:	f021 4100 	bic.w	r1, r1, #2147483648	; 0x80000000
10002bb0:	eb10 70d3 	adds.w	r0, r0, r3, lsr #31
10002bb4:	fa21 f604 	lsr.w	r6, r1, r4
10002bb8:	eb42 0106 	adc.w	r1, r2, r6
10002bbc:	ea5e 0e43 	orrs.w	lr, lr, r3, lsl #1
10002bc0:	bf08      	it	eq
10002bc2:	ea20 70d3 	biceq.w	r0, r0, r3, lsr #31
10002bc6:	bd70      	pop	{r4, r5, r6, pc}
10002bc8:	f1c4 040c 	rsb	r4, r4, #12
10002bcc:	f1c4 0520 	rsb	r5, r4, #32
10002bd0:	fa00 f304 	lsl.w	r3, r0, r4
10002bd4:	fa20 f005 	lsr.w	r0, r0, r5
10002bd8:	fa01 f204 	lsl.w	r2, r1, r4
10002bdc:	ea40 0002 	orr.w	r0, r0, r2
10002be0:	f001 4100 	and.w	r1, r1, #2147483648	; 0x80000000
10002be4:	eb10 70d3 	adds.w	r0, r0, r3, lsr #31
10002be8:	f141 0100 	adc.w	r1, r1, #0
10002bec:	ea5e 0e43 	orrs.w	lr, lr, r3, lsl #1
10002bf0:	bf08      	it	eq
10002bf2:	ea20 70d3 	biceq.w	r0, r0, r3, lsr #31
10002bf6:	bd70      	pop	{r4, r5, r6, pc}
10002bf8:	f1c4 0520 	rsb	r5, r4, #32
10002bfc:	fa00 f205 	lsl.w	r2, r0, r5
10002c00:	ea4e 0e02 	orr.w	lr, lr, r2
10002c04:	fa20 f304 	lsr.w	r3, r0, r4
10002c08:	fa01 f205 	lsl.w	r2, r1, r5
10002c0c:	ea43 0302 	orr.w	r3, r3, r2
10002c10:	fa21 f004 	lsr.w	r0, r1, r4
10002c14:	f001 4100 	and.w	r1, r1, #2147483648	; 0x80000000
10002c18:	fa21 f204 	lsr.w	r2, r1, r4
10002c1c:	ea20 0002 	bic.w	r0, r0, r2
10002c20:	eb00 70d3 	add.w	r0, r0, r3, lsr #31
10002c24:	ea5e 0e43 	orrs.w	lr, lr, r3, lsl #1
10002c28:	bf08      	it	eq
10002c2a:	ea20 70d3 	biceq.w	r0, r0, r3, lsr #31
10002c2e:	bd70      	pop	{r4, r5, r6, pc}
10002c30:	f094 0f00 	teq	r4, #0
10002c34:	d10f      	bne.n	10002c56 <__aeabi_dmul+0x1c2>
10002c36:	f001 4600 	and.w	r6, r1, #2147483648	; 0x80000000
10002c3a:	0040      	lsls	r0, r0, #1
10002c3c:	eb41 0101 	adc.w	r1, r1, r1
10002c40:	f411 1f80 	tst.w	r1, #1048576	; 0x100000
10002c44:	bf08      	it	eq
10002c46:	3c01      	subeq	r4, #1
10002c48:	d0f7      	beq.n	10002c3a <__aeabi_dmul+0x1a6>
10002c4a:	ea41 0106 	orr.w	r1, r1, r6
10002c4e:	f095 0f00 	teq	r5, #0
10002c52:	bf18      	it	ne
10002c54:	4770      	bxne	lr
10002c56:	f003 4600 	and.w	r6, r3, #2147483648	; 0x80000000
10002c5a:	0052      	lsls	r2, r2, #1
10002c5c:	eb43 0303 	adc.w	r3, r3, r3
10002c60:	f413 1f80 	tst.w	r3, #1048576	; 0x100000
10002c64:	bf08      	it	eq
10002c66:	3d01      	subeq	r5, #1
10002c68:	d0f7      	beq.n	10002c5a <__aeabi_dmul+0x1c6>
10002c6a:	ea43 0306 	orr.w	r3, r3, r6
10002c6e:	4770      	bx	lr
10002c70:	ea94 0f0c 	teq	r4, ip
10002c74:	ea0c 5513 	and.w	r5, ip, r3, lsr #20
10002c78:	bf18      	it	ne
10002c7a:	ea95 0f0c 	teqne	r5, ip
10002c7e:	d00c      	beq.n	10002c9a <__aeabi_dmul+0x206>
10002c80:	ea50 0641 	orrs.w	r6, r0, r1, lsl #1
10002c84:	bf18      	it	ne
10002c86:	ea52 0643 	orrsne.w	r6, r2, r3, lsl #1
10002c8a:	d1d1      	bne.n	10002c30 <__aeabi_dmul+0x19c>
10002c8c:	ea81 0103 	eor.w	r1, r1, r3
10002c90:	f001 4100 	and.w	r1, r1, #2147483648	; 0x80000000
10002c94:	f04f 0000 	mov.w	r0, #0
10002c98:	bd70      	pop	{r4, r5, r6, pc}
10002c9a:	ea50 0641 	orrs.w	r6, r0, r1, lsl #1
10002c9e:	bf06      	itte	eq
10002ca0:	4610      	moveq	r0, r2
10002ca2:	4619      	moveq	r1, r3
10002ca4:	ea52 0643 	orrsne.w	r6, r2, r3, lsl #1
10002ca8:	d019      	beq.n	10002cde <__aeabi_dmul+0x24a>
10002caa:	ea94 0f0c 	teq	r4, ip
10002cae:	d102      	bne.n	10002cb6 <__aeabi_dmul+0x222>
10002cb0:	ea50 3601 	orrs.w	r6, r0, r1, lsl #12
10002cb4:	d113      	bne.n	10002cde <__aeabi_dmul+0x24a>
10002cb6:	ea95 0f0c 	teq	r5, ip
10002cba:	d105      	bne.n	10002cc8 <__aeabi_dmul+0x234>
10002cbc:	ea52 3603 	orrs.w	r6, r2, r3, lsl #12
10002cc0:	bf1c      	itt	ne
10002cc2:	4610      	movne	r0, r2
10002cc4:	4619      	movne	r1, r3
10002cc6:	d10a      	bne.n	10002cde <__aeabi_dmul+0x24a>
10002cc8:	ea81 0103 	eor.w	r1, r1, r3
10002ccc:	f001 4100 	and.w	r1, r1, #2147483648	; 0x80000000
10002cd0:	f041 41fe 	orr.w	r1, r1, #2130706432	; 0x7f000000
10002cd4:	f441 0170 	orr.w	r1, r1, #15728640	; 0xf00000
10002cd8:	f04f 0000 	mov.w	r0, #0
10002cdc:	bd70      	pop	{r4, r5, r6, pc}
10002cde:	f041 41fe 	orr.w	r1, r1, #2130706432	; 0x7f000000
10002ce2:	f441 0178 	orr.w	r1, r1, #16252928	; 0xf80000
10002ce6:	bd70      	pop	{r4, r5, r6, pc}

10002ce8 <__aeabi_ddiv>:
10002ce8:	b570      	push	{r4, r5, r6, lr}
10002cea:	f04f 0cff 	mov.w	ip, #255	; 0xff
10002cee:	f44c 6ce0 	orr.w	ip, ip, #1792	; 0x700
10002cf2:	ea1c 5411 	ands.w	r4, ip, r1, lsr #20
10002cf6:	bf1d      	ittte	ne
10002cf8:	ea1c 5513 	andsne.w	r5, ip, r3, lsr #20
10002cfc:	ea94 0f0c 	teqne	r4, ip
10002d00:	ea95 0f0c 	teqne	r5, ip
10002d04:	f000 f8a7 	bleq	10002e56 <__aeabi_ddiv+0x16e>
10002d08:	eba4 0405 	sub.w	r4, r4, r5
10002d0c:	ea81 0e03 	eor.w	lr, r1, r3
10002d10:	ea52 3503 	orrs.w	r5, r2, r3, lsl #12
10002d14:	ea4f 3101 	mov.w	r1, r1, lsl #12
10002d18:	f000 8088 	beq.w	10002e2c <__aeabi_ddiv+0x144>
10002d1c:	ea4f 3303 	mov.w	r3, r3, lsl #12
10002d20:	f04f 5580 	mov.w	r5, #268435456	; 0x10000000
10002d24:	ea45 1313 	orr.w	r3, r5, r3, lsr #4
10002d28:	ea43 6312 	orr.w	r3, r3, r2, lsr #24
10002d2c:	ea4f 2202 	mov.w	r2, r2, lsl #8
10002d30:	ea45 1511 	orr.w	r5, r5, r1, lsr #4
10002d34:	ea45 6510 	orr.w	r5, r5, r0, lsr #24
10002d38:	ea4f 2600 	mov.w	r6, r0, lsl #8
10002d3c:	f00e 4100 	and.w	r1, lr, #2147483648	; 0x80000000
10002d40:	429d      	cmp	r5, r3
10002d42:	bf08      	it	eq
10002d44:	4296      	cmpeq	r6, r2
10002d46:	f144 04fd 	adc.w	r4, r4, #253	; 0xfd
10002d4a:	f504 7440 	add.w	r4, r4, #768	; 0x300
10002d4e:	d202      	bcs.n	10002d56 <__aeabi_ddiv+0x6e>
10002d50:	085b      	lsrs	r3, r3, #1
10002d52:	ea4f 0232 	mov.w	r2, r2, rrx
10002d56:	1ab6      	subs	r6, r6, r2
10002d58:	eb65 0503 	sbc.w	r5, r5, r3
10002d5c:	085b      	lsrs	r3, r3, #1
10002d5e:	ea4f 0232 	mov.w	r2, r2, rrx
10002d62:	f44f 1080 	mov.w	r0, #1048576	; 0x100000
10002d66:	f44f 2c00 	mov.w	ip, #524288	; 0x80000
10002d6a:	ebb6 0e02 	subs.w	lr, r6, r2
10002d6e:	eb75 0e03 	sbcs.w	lr, r5, r3
10002d72:	bf22      	ittt	cs
10002d74:	1ab6      	subcs	r6, r6, r2
10002d76:	4675      	movcs	r5, lr
10002d78:	ea40 000c 	orrcs.w	r0, r0, ip
10002d7c:	085b      	lsrs	r3, r3, #1
10002d7e:	ea4f 0232 	mov.w	r2, r2, rrx
10002d82:	ebb6 0e02 	subs.w	lr, r6, r2
10002d86:	eb75 0e03 	sbcs.w	lr, r5, r3
10002d8a:	bf22      	ittt	cs
10002d8c:	1ab6      	subcs	r6, r6, r2
10002d8e:	4675      	movcs	r5, lr
10002d90:	ea40 005c 	orrcs.w	r0, r0, ip, lsr #1
10002d94:	085b      	lsrs	r3, r3, #1
10002d96:	ea4f 0232 	mov.w	r2, r2, rrx
10002d9a:	ebb6 0e02 	subs.w	lr, r6, r2
10002d9e:	eb75 0e03 	sbcs.w	lr, r5, r3
10002da2:	bf22      	ittt	cs
10002da4:	1ab6      	subcs	r6, r6, r2
10002da6:	4675      	movcs	r5, lr
10002da8:	ea40 009c 	orrcs.w	r0, r0, ip, lsr #2
10002dac:	085b      	lsrs	r3, r3, #1
10002dae:	ea4f 0232 	mov.w	r2, r2, rrx
10002db2:	ebb6 0e02 	subs.w	lr, r6, r2
10002db6:	eb75 0e03 	sbcs.w	lr, r5, r3
10002dba:	bf22      	ittt	cs
10002dbc:	1ab6      	subcs	r6, r6, r2
10002dbe:	4675      	movcs	r5, lr
10002dc0:	ea40 00dc 	orrcs.w	r0, r0, ip, lsr #3
10002dc4:	ea55 0e06 	orrs.w	lr, r5, r6
10002dc8:	d018      	beq.n	10002dfc <__aeabi_ddiv+0x114>
10002dca:	ea4f 1505 	mov.w	r5, r5, lsl #4
10002dce:	ea45 7516 	orr.w	r5, r5, r6, lsr #28
10002dd2:	ea4f 1606 	mov.w	r6, r6, lsl #4
10002dd6:	ea4f 03c3 	mov.w	r3, r3, lsl #3
10002dda:	ea43 7352 	orr.w	r3, r3, r2, lsr #29
10002dde:	ea4f 02c2 	mov.w	r2, r2, lsl #3
10002de2:	ea5f 1c1c 	movs.w	ip, ip, lsr #4
10002de6:	d1c0      	bne.n	10002d6a <__aeabi_ddiv+0x82>
10002de8:	f411 1f80 	tst.w	r1, #1048576	; 0x100000
10002dec:	d10b      	bne.n	10002e06 <__aeabi_ddiv+0x11e>
10002dee:	ea41 0100 	orr.w	r1, r1, r0
10002df2:	f04f 0000 	mov.w	r0, #0
10002df6:	f04f 4c00 	mov.w	ip, #2147483648	; 0x80000000
10002dfa:	e7b6      	b.n	10002d6a <__aeabi_ddiv+0x82>
10002dfc:	f411 1f80 	tst.w	r1, #1048576	; 0x100000
10002e00:	bf04      	itt	eq
10002e02:	4301      	orreq	r1, r0
10002e04:	2000      	moveq	r0, #0
10002e06:	f1b4 0cfd 	subs.w	ip, r4, #253	; 0xfd
10002e0a:	bf88      	it	hi
10002e0c:	f5bc 6fe0 	cmphi.w	ip, #1792	; 0x700
10002e10:	f63f aeaf 	bhi.w	10002b72 <__aeabi_dmul+0xde>
10002e14:	ebb5 0c03 	subs.w	ip, r5, r3
10002e18:	bf04      	itt	eq
10002e1a:	ebb6 0c02 	subseq.w	ip, r6, r2
10002e1e:	ea5f 0c50 	movseq.w	ip, r0, lsr #1
10002e22:	f150 0000 	adcs.w	r0, r0, #0
10002e26:	eb41 5104 	adc.w	r1, r1, r4, lsl #20
10002e2a:	bd70      	pop	{r4, r5, r6, pc}
10002e2c:	f00e 4e00 	and.w	lr, lr, #2147483648	; 0x80000000
10002e30:	ea4e 3111 	orr.w	r1, lr, r1, lsr #12
10002e34:	eb14 045c 	adds.w	r4, r4, ip, lsr #1
10002e38:	bfc2      	ittt	gt
10002e3a:	ebd4 050c 	rsbsgt	r5, r4, ip
10002e3e:	ea41 5104 	orrgt.w	r1, r1, r4, lsl #20
10002e42:	bd70      	popgt	{r4, r5, r6, pc}
10002e44:	f441 1180 	orr.w	r1, r1, #1048576	; 0x100000
10002e48:	f04f 0e00 	mov.w	lr, #0
10002e4c:	3c01      	subs	r4, #1
10002e4e:	e690      	b.n	10002b72 <__aeabi_dmul+0xde>
10002e50:	ea45 0e06 	orr.w	lr, r5, r6
10002e54:	e68d      	b.n	10002b72 <__aeabi_dmul+0xde>
10002e56:	ea0c 5513 	and.w	r5, ip, r3, lsr #20
10002e5a:	ea94 0f0c 	teq	r4, ip
10002e5e:	bf08      	it	eq
10002e60:	ea95 0f0c 	teqeq	r5, ip
10002e64:	f43f af3b 	beq.w	10002cde <__aeabi_dmul+0x24a>
10002e68:	ea94 0f0c 	teq	r4, ip
10002e6c:	d10a      	bne.n	10002e84 <__aeabi_ddiv+0x19c>
10002e6e:	ea50 3401 	orrs.w	r4, r0, r1, lsl #12
10002e72:	f47f af34 	bne.w	10002cde <__aeabi_dmul+0x24a>
10002e76:	ea95 0f0c 	teq	r5, ip
10002e7a:	f47f af25 	bne.w	10002cc8 <__aeabi_dmul+0x234>
10002e7e:	4610      	mov	r0, r2
10002e80:	4619      	mov	r1, r3
10002e82:	e72c      	b.n	10002cde <__aeabi_dmul+0x24a>
10002e84:	ea95 0f0c 	teq	r5, ip
10002e88:	d106      	bne.n	10002e98 <__aeabi_ddiv+0x1b0>
10002e8a:	ea52 3503 	orrs.w	r5, r2, r3, lsl #12
10002e8e:	f43f aefd 	beq.w	10002c8c <__aeabi_dmul+0x1f8>
10002e92:	4610      	mov	r0, r2
10002e94:	4619      	mov	r1, r3
10002e96:	e722      	b.n	10002cde <__aeabi_dmul+0x24a>
10002e98:	ea50 0641 	orrs.w	r6, r0, r1, lsl #1
10002e9c:	bf18      	it	ne
10002e9e:	ea52 0643 	orrsne.w	r6, r2, r3, lsl #1
10002ea2:	f47f aec5 	bne.w	10002c30 <__aeabi_dmul+0x19c>
10002ea6:	ea50 0441 	orrs.w	r4, r0, r1, lsl #1
10002eaa:	f47f af0d 	bne.w	10002cc8 <__aeabi_dmul+0x234>
10002eae:	ea52 0543 	orrs.w	r5, r2, r3, lsl #1
10002eb2:	f47f aeeb 	bne.w	10002c8c <__aeabi_dmul+0x1f8>
10002eb6:	e712      	b.n	10002cde <__aeabi_dmul+0x24a>

10002eb8 <__gedf2>:
10002eb8:	f04f 3cff 	mov.w	ip, #4294967295
10002ebc:	e006      	b.n	10002ecc <__cmpdf2+0x4>
10002ebe:	bf00      	nop

10002ec0 <__ledf2>:
10002ec0:	f04f 0c01 	mov.w	ip, #1
10002ec4:	e002      	b.n	10002ecc <__cmpdf2+0x4>
10002ec6:	bf00      	nop

10002ec8 <__cmpdf2>:
10002ec8:	f04f 0c01 	mov.w	ip, #1
10002ecc:	f84d cd04 	str.w	ip, [sp, #-4]!
10002ed0:	ea4f 0c41 	mov.w	ip, r1, lsl #1
10002ed4:	ea7f 5c6c 	mvns.w	ip, ip, asr #21
10002ed8:	ea4f 0c43 	mov.w	ip, r3, lsl #1
10002edc:	bf18      	it	ne
10002ede:	ea7f 5c6c 	mvnsne.w	ip, ip, asr #21
10002ee2:	d01b      	beq.n	10002f1c <__cmpdf2+0x54>
10002ee4:	b001      	add	sp, #4
10002ee6:	ea50 0c41 	orrs.w	ip, r0, r1, lsl #1
10002eea:	bf0c      	ite	eq
10002eec:	ea52 0c43 	orrseq.w	ip, r2, r3, lsl #1
10002ef0:	ea91 0f03 	teqne	r1, r3
10002ef4:	bf02      	ittt	eq
10002ef6:	ea90 0f02 	teqeq	r0, r2
10002efa:	2000      	moveq	r0, #0
10002efc:	4770      	bxeq	lr
10002efe:	f110 0f00 	cmn.w	r0, #0
10002f02:	ea91 0f03 	teq	r1, r3
10002f06:	bf58      	it	pl
10002f08:	4299      	cmppl	r1, r3
10002f0a:	bf08      	it	eq
10002f0c:	4290      	cmpeq	r0, r2
10002f0e:	bf2c      	ite	cs
10002f10:	17d8      	asrcs	r0, r3, #31
10002f12:	ea6f 70e3 	mvncc.w	r0, r3, asr #31
10002f16:	f040 0001 	orr.w	r0, r0, #1
10002f1a:	4770      	bx	lr
10002f1c:	ea4f 0c41 	mov.w	ip, r1, lsl #1
10002f20:	ea7f 5c6c 	mvns.w	ip, ip, asr #21
10002f24:	d102      	bne.n	10002f2c <__cmpdf2+0x64>
10002f26:	ea50 3c01 	orrs.w	ip, r0, r1, lsl #12
10002f2a:	d107      	bne.n	10002f3c <__cmpdf2+0x74>
10002f2c:	ea4f 0c43 	mov.w	ip, r3, lsl #1
10002f30:	ea7f 5c6c 	mvns.w	ip, ip, asr #21
10002f34:	d1d6      	bne.n	10002ee4 <__cmpdf2+0x1c>
10002f36:	ea52 3c03 	orrs.w	ip, r2, r3, lsl #12
10002f3a:	d0d3      	beq.n	10002ee4 <__cmpdf2+0x1c>
10002f3c:	f85d 0b04 	ldr.w	r0, [sp], #4
10002f40:	4770      	bx	lr
10002f42:	bf00      	nop

10002f44 <__aeabi_cdrcmple>:
10002f44:	4684      	mov	ip, r0
10002f46:	4610      	mov	r0, r2
10002f48:	4662      	mov	r2, ip
10002f4a:	468c      	mov	ip, r1
10002f4c:	4619      	mov	r1, r3
10002f4e:	4663      	mov	r3, ip
10002f50:	e000      	b.n	10002f54 <__aeabi_cdcmpeq>
10002f52:	bf00      	nop

10002f54 <__aeabi_cdcmpeq>:
10002f54:	b501      	push	{r0, lr}
10002f56:	f7ff ffb7 	bl	10002ec8 <__cmpdf2>
10002f5a:	2800      	cmp	r0, #0
10002f5c:	bf48      	it	mi
10002f5e:	f110 0f00 	cmnmi.w	r0, #0
10002f62:	bd01      	pop	{r0, pc}

10002f64 <__aeabi_dcmpeq>:
10002f64:	f84d ed08 	str.w	lr, [sp, #-8]!
10002f68:	f7ff fff4 	bl	10002f54 <__aeabi_cdcmpeq>
10002f6c:	bf0c      	ite	eq
10002f6e:	2001      	moveq	r0, #1
10002f70:	2000      	movne	r0, #0
10002f72:	f85d fb08 	ldr.w	pc, [sp], #8
10002f76:	bf00      	nop

10002f78 <__aeabi_dcmplt>:
10002f78:	f84d ed08 	str.w	lr, [sp, #-8]!
10002f7c:	f7ff ffea 	bl	10002f54 <__aeabi_cdcmpeq>
10002f80:	bf34      	ite	cc
10002f82:	2001      	movcc	r0, #1
10002f84:	2000      	movcs	r0, #0
10002f86:	f85d fb08 	ldr.w	pc, [sp], #8
10002f8a:	bf00      	nop

10002f8c <__aeabi_dcmple>:
10002f8c:	f84d ed08 	str.w	lr, [sp, #-8]!
10002f90:	f7ff ffe0 	bl	10002f54 <__aeabi_cdcmpeq>
10002f94:	bf94      	ite	ls
10002f96:	2001      	movls	r0, #1
10002f98:	2000      	movhi	r0, #0
10002f9a:	f85d fb08 	ldr.w	pc, [sp], #8
10002f9e:	bf00      	nop

10002fa0 <__aeabi_dcmpge>:
10002fa0:	f84d ed08 	str.w	lr, [sp, #-8]!
10002fa4:	f7ff ffce 	bl	10002f44 <__aeabi_cdrcmple>
10002fa8:	bf94      	ite	ls
10002faa:	2001      	movls	r0, #1
10002fac:	2000      	movhi	r0, #0
10002fae:	f85d fb08 	ldr.w	pc, [sp], #8
10002fb2:	bf00      	nop

10002fb4 <__aeabi_dcmpgt>:
10002fb4:	f84d ed08 	str.w	lr, [sp, #-8]!
10002fb8:	f7ff ffc4 	bl	10002f44 <__aeabi_cdrcmple>
10002fbc:	bf34      	ite	cc
10002fbe:	2001      	movcc	r0, #1
10002fc0:	2000      	movcs	r0, #0
10002fc2:	f85d fb08 	ldr.w	pc, [sp], #8
10002fc6:	bf00      	nop

10002fc8 <__aeabi_d2iz>:
10002fc8:	ea4f 0241 	mov.w	r2, r1, lsl #1
10002fcc:	f512 1200 	adds.w	r2, r2, #2097152	; 0x200000
10002fd0:	d215      	bcs.n	10002ffe <__aeabi_d2iz+0x36>
10002fd2:	d511      	bpl.n	10002ff8 <__aeabi_d2iz+0x30>
10002fd4:	f46f 7378 	mvn.w	r3, #992	; 0x3e0
10002fd8:	ebb3 5262 	subs.w	r2, r3, r2, asr #21
10002fdc:	d912      	bls.n	10003004 <__aeabi_d2iz+0x3c>
10002fde:	ea4f 23c1 	mov.w	r3, r1, lsl #11
10002fe2:	f043 4300 	orr.w	r3, r3, #2147483648	; 0x80000000
10002fe6:	ea43 5350 	orr.w	r3, r3, r0, lsr #21
10002fea:	f011 4f00 	tst.w	r1, #2147483648	; 0x80000000
10002fee:	fa23 f002 	lsr.w	r0, r3, r2
10002ff2:	bf18      	it	ne
10002ff4:	4240      	negne	r0, r0
10002ff6:	4770      	bx	lr
10002ff8:	f04f 0000 	mov.w	r0, #0
10002ffc:	4770      	bx	lr
10002ffe:	ea50 3001 	orrs.w	r0, r0, r1, lsl #12
10003002:	d105      	bne.n	10003010 <__aeabi_d2iz+0x48>
10003004:	f011 4000 	ands.w	r0, r1, #2147483648	; 0x80000000
10003008:	bf08      	it	eq
1000300a:	f06f 4000 	mvneq.w	r0, #2147483648	; 0x80000000
1000300e:	4770      	bx	lr
10003010:	f04f 0000 	mov.w	r0, #0
10003014:	4770      	bx	lr
10003016:	bf00      	nop

10003018 <__aeabi_d2uiz>:
10003018:	004a      	lsls	r2, r1, #1
1000301a:	d211      	bcs.n	10003040 <__aeabi_d2uiz+0x28>
1000301c:	f512 1200 	adds.w	r2, r2, #2097152	; 0x200000
10003020:	d211      	bcs.n	10003046 <__aeabi_d2uiz+0x2e>
10003022:	d50d      	bpl.n	10003040 <__aeabi_d2uiz+0x28>
10003024:	f46f 7378 	mvn.w	r3, #992	; 0x3e0
10003028:	ebb3 5262 	subs.w	r2, r3, r2, asr #21
1000302c:	d40e      	bmi.n	1000304c <__aeabi_d2uiz+0x34>
1000302e:	ea4f 23c1 	mov.w	r3, r1, lsl #11
10003032:	f043 4300 	orr.w	r3, r3, #2147483648	; 0x80000000
10003036:	ea43 5350 	orr.w	r3, r3, r0, lsr #21
1000303a:	fa23 f002 	lsr.w	r0, r3, r2
1000303e:	4770      	bx	lr
10003040:	f04f 0000 	mov.w	r0, #0
10003044:	4770      	bx	lr
10003046:	ea50 3001 	orrs.w	r0, r0, r1, lsl #12
1000304a:	d102      	bne.n	10003052 <__aeabi_d2uiz+0x3a>
1000304c:	f04f 30ff 	mov.w	r0, #4294967295
10003050:	4770      	bx	lr
10003052:	f04f 0000 	mov.w	r0, #0
10003056:	4770      	bx	lr

10003058 <__aeabi_uldivmod>:
10003058:	b953      	cbnz	r3, 10003070 <__aeabi_uldivmod+0x18>
1000305a:	b94a      	cbnz	r2, 10003070 <__aeabi_uldivmod+0x18>
1000305c:	2900      	cmp	r1, #0
1000305e:	bf08      	it	eq
10003060:	2800      	cmpeq	r0, #0
10003062:	bf1c      	itt	ne
10003064:	f04f 31ff 	movne.w	r1, #4294967295
10003068:	f04f 30ff 	movne.w	r0, #4294967295
1000306c:	f000 b982 	b.w	10003374 <__aeabi_idiv0>
10003070:	f1ad 0c08 	sub.w	ip, sp, #8
10003074:	e96d ce04 	strd	ip, lr, [sp, #-16]!
10003078:	f000 f806 	bl	10003088 <__udivmoddi4>
1000307c:	f8dd e004 	ldr.w	lr, [sp, #4]
10003080:	e9dd 2302 	ldrd	r2, r3, [sp, #8]
10003084:	b004      	add	sp, #16
10003086:	4770      	bx	lr

10003088 <__udivmoddi4>:
10003088:	e92d 4ff0 	stmdb	sp!, {r4, r5, r6, r7, r8, r9, sl, fp, lr}
1000308c:	9d09      	ldr	r5, [sp, #36]	; 0x24
1000308e:	4604      	mov	r4, r0
10003090:	460f      	mov	r7, r1
10003092:	2b00      	cmp	r3, #0
10003094:	d148      	bne.n	10003128 <__udivmoddi4+0xa0>
10003096:	428a      	cmp	r2, r1
10003098:	4694      	mov	ip, r2
1000309a:	d961      	bls.n	10003160 <__udivmoddi4+0xd8>
1000309c:	fab2 f382 	clz	r3, r2
100030a0:	b143      	cbz	r3, 100030b4 <__udivmoddi4+0x2c>
100030a2:	f1c3 0120 	rsb	r1, r3, #32
100030a6:	409f      	lsls	r7, r3
100030a8:	fa02 fc03 	lsl.w	ip, r2, r3
100030ac:	409c      	lsls	r4, r3
100030ae:	fa20 f101 	lsr.w	r1, r0, r1
100030b2:	430f      	orrs	r7, r1
100030b4:	ea4f 411c 	mov.w	r1, ip, lsr #16
100030b8:	fa1f fe8c 	uxth.w	lr, ip
100030bc:	0c22      	lsrs	r2, r4, #16
100030be:	fbb7 f6f1 	udiv	r6, r7, r1
100030c2:	fb01 7716 	mls	r7, r1, r6, r7
100030c6:	fb06 f00e 	mul.w	r0, r6, lr
100030ca:	ea42 4207 	orr.w	r2, r2, r7, lsl #16
100030ce:	4290      	cmp	r0, r2
100030d0:	d908      	bls.n	100030e4 <__udivmoddi4+0x5c>
100030d2:	eb1c 0202 	adds.w	r2, ip, r2
100030d6:	f106 37ff 	add.w	r7, r6, #4294967295
100030da:	d202      	bcs.n	100030e2 <__udivmoddi4+0x5a>
100030dc:	4290      	cmp	r0, r2
100030de:	f200 8137 	bhi.w	10003350 <__udivmoddi4+0x2c8>
100030e2:	463e      	mov	r6, r7
100030e4:	1a12      	subs	r2, r2, r0
100030e6:	b2a4      	uxth	r4, r4
100030e8:	fbb2 f0f1 	udiv	r0, r2, r1
100030ec:	fb01 2210 	mls	r2, r1, r0, r2
100030f0:	fb00 fe0e 	mul.w	lr, r0, lr
100030f4:	ea44 4402 	orr.w	r4, r4, r2, lsl #16
100030f8:	45a6      	cmp	lr, r4
100030fa:	d908      	bls.n	1000310e <__udivmoddi4+0x86>
100030fc:	eb1c 0404 	adds.w	r4, ip, r4
10003100:	f100 32ff 	add.w	r2, r0, #4294967295
10003104:	d202      	bcs.n	1000310c <__udivmoddi4+0x84>
10003106:	45a6      	cmp	lr, r4
10003108:	f200 811c 	bhi.w	10003344 <__udivmoddi4+0x2bc>
1000310c:	4610      	mov	r0, r2
1000310e:	ea40 4006 	orr.w	r0, r0, r6, lsl #16
10003112:	eba4 040e 	sub.w	r4, r4, lr
10003116:	2600      	movs	r6, #0
10003118:	b11d      	cbz	r5, 10003122 <__udivmoddi4+0x9a>
1000311a:	40dc      	lsrs	r4, r3
1000311c:	2300      	movs	r3, #0
1000311e:	e9c5 4300 	strd	r4, r3, [r5]
10003122:	4631      	mov	r1, r6
10003124:	e8bd 8ff0 	ldmia.w	sp!, {r4, r5, r6, r7, r8, r9, sl, fp, pc}
10003128:	428b      	cmp	r3, r1
1000312a:	d909      	bls.n	10003140 <__udivmoddi4+0xb8>
1000312c:	2d00      	cmp	r5, #0
1000312e:	f000 80fd 	beq.w	1000332c <__udivmoddi4+0x2a4>
10003132:	2600      	movs	r6, #0
10003134:	e9c5 0100 	strd	r0, r1, [r5]
10003138:	4630      	mov	r0, r6
1000313a:	4631      	mov	r1, r6
1000313c:	e8bd 8ff0 	ldmia.w	sp!, {r4, r5, r6, r7, r8, r9, sl, fp, pc}
10003140:	fab3 f683 	clz	r6, r3
10003144:	2e00      	cmp	r6, #0
10003146:	d14b      	bne.n	100031e0 <__udivmoddi4+0x158>
10003148:	428b      	cmp	r3, r1
1000314a:	f0c0 80f2 	bcc.w	10003332 <__udivmoddi4+0x2aa>
1000314e:	4282      	cmp	r2, r0
10003150:	f240 80ef 	bls.w	10003332 <__udivmoddi4+0x2aa>
10003154:	4630      	mov	r0, r6
10003156:	2d00      	cmp	r5, #0
10003158:	d0e3      	beq.n	10003122 <__udivmoddi4+0x9a>
1000315a:	e9c5 4700 	strd	r4, r7, [r5]
1000315e:	e7e0      	b.n	10003122 <__udivmoddi4+0x9a>
10003160:	b902      	cbnz	r2, 10003164 <__udivmoddi4+0xdc>
10003162:	deff      	udf	#255	; 0xff
10003164:	fab2 f382 	clz	r3, r2
10003168:	2b00      	cmp	r3, #0
1000316a:	f040 809d 	bne.w	100032a8 <__udivmoddi4+0x220>
1000316e:	1a89      	subs	r1, r1, r2
10003170:	ea4f 4e12 	mov.w	lr, r2, lsr #16
10003174:	b297      	uxth	r7, r2
10003176:	2601      	movs	r6, #1
10003178:	0c20      	lsrs	r0, r4, #16
1000317a:	fbb1 f2fe 	udiv	r2, r1, lr
1000317e:	fb0e 1112 	mls	r1, lr, r2, r1
10003182:	ea40 4101 	orr.w	r1, r0, r1, lsl #16
10003186:	fb07 f002 	mul.w	r0, r7, r2
1000318a:	4288      	cmp	r0, r1
1000318c:	d90f      	bls.n	100031ae <__udivmoddi4+0x126>
1000318e:	eb1c 0101 	adds.w	r1, ip, r1
10003192:	f102 38ff 	add.w	r8, r2, #4294967295
10003196:	bf2c      	ite	cs
10003198:	f04f 0901 	movcs.w	r9, #1
1000319c:	f04f 0900 	movcc.w	r9, #0
100031a0:	4288      	cmp	r0, r1
100031a2:	d903      	bls.n	100031ac <__udivmoddi4+0x124>
100031a4:	f1b9 0f00 	cmp.w	r9, #0
100031a8:	f000 80cf 	beq.w	1000334a <__udivmoddi4+0x2c2>
100031ac:	4642      	mov	r2, r8
100031ae:	1a09      	subs	r1, r1, r0
100031b0:	b2a4      	uxth	r4, r4
100031b2:	fbb1 f0fe 	udiv	r0, r1, lr
100031b6:	fb0e 1110 	mls	r1, lr, r0, r1
100031ba:	fb00 f707 	mul.w	r7, r0, r7
100031be:	ea44 4401 	orr.w	r4, r4, r1, lsl #16
100031c2:	42a7      	cmp	r7, r4
100031c4:	d908      	bls.n	100031d8 <__udivmoddi4+0x150>
100031c6:	eb1c 0404 	adds.w	r4, ip, r4
100031ca:	f100 31ff 	add.w	r1, r0, #4294967295
100031ce:	d202      	bcs.n	100031d6 <__udivmoddi4+0x14e>
100031d0:	42a7      	cmp	r7, r4
100031d2:	f200 80b4 	bhi.w	1000333e <__udivmoddi4+0x2b6>
100031d6:	4608      	mov	r0, r1
100031d8:	1be4      	subs	r4, r4, r7
100031da:	ea40 4002 	orr.w	r0, r0, r2, lsl #16
100031de:	e79b      	b.n	10003118 <__udivmoddi4+0x90>
100031e0:	f1c6 0720 	rsb	r7, r6, #32
100031e4:	40b3      	lsls	r3, r6
100031e6:	fa01 f406 	lsl.w	r4, r1, r6
100031ea:	fa22 fc07 	lsr.w	ip, r2, r7
100031ee:	40f9      	lsrs	r1, r7
100031f0:	40b2      	lsls	r2, r6
100031f2:	ea4c 0c03 	orr.w	ip, ip, r3
100031f6:	fa20 f307 	lsr.w	r3, r0, r7
100031fa:	ea4f 491c 	mov.w	r9, ip, lsr #16
100031fe:	431c      	orrs	r4, r3
10003200:	fa1f fe8c 	uxth.w	lr, ip
10003204:	fa00 f306 	lsl.w	r3, r0, r6
10003208:	0c20      	lsrs	r0, r4, #16
1000320a:	fbb1 f8f9 	udiv	r8, r1, r9
1000320e:	fb09 1118 	mls	r1, r9, r8, r1
10003212:	ea40 4101 	orr.w	r1, r0, r1, lsl #16
10003216:	fb08 f00e 	mul.w	r0, r8, lr
1000321a:	4288      	cmp	r0, r1
1000321c:	d90f      	bls.n	1000323e <__udivmoddi4+0x1b6>
1000321e:	eb1c 0101 	adds.w	r1, ip, r1
10003222:	f108 3aff 	add.w	sl, r8, #4294967295
10003226:	bf2c      	ite	cs
10003228:	f04f 0b01 	movcs.w	fp, #1
1000322c:	f04f 0b00 	movcc.w	fp, #0
10003230:	4288      	cmp	r0, r1
10003232:	d903      	bls.n	1000323c <__udivmoddi4+0x1b4>
10003234:	f1bb 0f00 	cmp.w	fp, #0
10003238:	f000 808d 	beq.w	10003356 <__udivmoddi4+0x2ce>
1000323c:	46d0      	mov	r8, sl
1000323e:	1a09      	subs	r1, r1, r0
10003240:	b2a4      	uxth	r4, r4
10003242:	fbb1 f0f9 	udiv	r0, r1, r9
10003246:	fb09 1110 	mls	r1, r9, r0, r1
1000324a:	fb00 fe0e 	mul.w	lr, r0, lr
1000324e:	ea44 4101 	orr.w	r1, r4, r1, lsl #16
10003252:	458e      	cmp	lr, r1
10003254:	d907      	bls.n	10003266 <__udivmoddi4+0x1de>
10003256:	eb1c 0101 	adds.w	r1, ip, r1
1000325a:	f100 34ff 	add.w	r4, r0, #4294967295
1000325e:	d201      	bcs.n	10003264 <__udivmoddi4+0x1dc>
10003260:	458e      	cmp	lr, r1
10003262:	d87f      	bhi.n	10003364 <__udivmoddi4+0x2dc>
10003264:	4620      	mov	r0, r4
10003266:	ea40 4008 	orr.w	r0, r0, r8, lsl #16
1000326a:	eba1 010e 	sub.w	r1, r1, lr
1000326e:	fba0 9802 	umull	r9, r8, r0, r2
10003272:	4541      	cmp	r1, r8
10003274:	464c      	mov	r4, r9
10003276:	46c6      	mov	lr, r8
10003278:	d302      	bcc.n	10003280 <__udivmoddi4+0x1f8>
1000327a:	d106      	bne.n	1000328a <__udivmoddi4+0x202>
1000327c:	454b      	cmp	r3, r9
1000327e:	d204      	bcs.n	1000328a <__udivmoddi4+0x202>
10003280:	3801      	subs	r0, #1
10003282:	ebb9 0402 	subs.w	r4, r9, r2
10003286:	eb68 0e0c 	sbc.w	lr, r8, ip
1000328a:	2d00      	cmp	r5, #0
1000328c:	d070      	beq.n	10003370 <__udivmoddi4+0x2e8>
1000328e:	1b1a      	subs	r2, r3, r4
10003290:	eb61 010e 	sbc.w	r1, r1, lr
10003294:	fa22 f306 	lsr.w	r3, r2, r6
10003298:	fa01 f707 	lsl.w	r7, r1, r7
1000329c:	40f1      	lsrs	r1, r6
1000329e:	2600      	movs	r6, #0
100032a0:	431f      	orrs	r7, r3
100032a2:	e9c5 7100 	strd	r7, r1, [r5]
100032a6:	e73c      	b.n	10003122 <__udivmoddi4+0x9a>
100032a8:	fa02 fc03 	lsl.w	ip, r2, r3
100032ac:	f1c3 0020 	rsb	r0, r3, #32
100032b0:	fa01 f203 	lsl.w	r2, r1, r3
100032b4:	fa21 f600 	lsr.w	r6, r1, r0
100032b8:	ea4f 4e1c 	mov.w	lr, ip, lsr #16
100032bc:	fa24 f100 	lsr.w	r1, r4, r0
100032c0:	fa1f f78c 	uxth.w	r7, ip
100032c4:	409c      	lsls	r4, r3
100032c6:	4311      	orrs	r1, r2
100032c8:	fbb6 f0fe 	udiv	r0, r6, lr
100032cc:	0c0a      	lsrs	r2, r1, #16
100032ce:	fb0e 6610 	mls	r6, lr, r0, r6
100032d2:	ea42 4206 	orr.w	r2, r2, r6, lsl #16
100032d6:	fb00 f607 	mul.w	r6, r0, r7
100032da:	4296      	cmp	r6, r2
100032dc:	d90e      	bls.n	100032fc <__udivmoddi4+0x274>
100032de:	eb1c 0202 	adds.w	r2, ip, r2
100032e2:	f100 38ff 	add.w	r8, r0, #4294967295
100032e6:	bf2c      	ite	cs
100032e8:	f04f 0901 	movcs.w	r9, #1
100032ec:	f04f 0900 	movcc.w	r9, #0
100032f0:	4296      	cmp	r6, r2
100032f2:	d902      	bls.n	100032fa <__udivmoddi4+0x272>
100032f4:	f1b9 0f00 	cmp.w	r9, #0
100032f8:	d031      	beq.n	1000335e <__udivmoddi4+0x2d6>
100032fa:	4640      	mov	r0, r8
100032fc:	1b92      	subs	r2, r2, r6
100032fe:	b289      	uxth	r1, r1
10003300:	fbb2 f6fe 	udiv	r6, r2, lr
10003304:	fb0e 2216 	mls	r2, lr, r6, r2
10003308:	ea41 4102 	orr.w	r1, r1, r2, lsl #16
1000330c:	fb06 f207 	mul.w	r2, r6, r7
10003310:	428a      	cmp	r2, r1
10003312:	d907      	bls.n	10003324 <__udivmoddi4+0x29c>
10003314:	eb1c 0101 	adds.w	r1, ip, r1
10003318:	f106 38ff 	add.w	r8, r6, #4294967295
1000331c:	d201      	bcs.n	10003322 <__udivmoddi4+0x29a>
1000331e:	428a      	cmp	r2, r1
10003320:	d823      	bhi.n	1000336a <__udivmoddi4+0x2e2>
10003322:	4646      	mov	r6, r8
10003324:	1a89      	subs	r1, r1, r2
10003326:	ea46 4600 	orr.w	r6, r6, r0, lsl #16
1000332a:	e725      	b.n	10003178 <__udivmoddi4+0xf0>
1000332c:	462e      	mov	r6, r5
1000332e:	4628      	mov	r0, r5
10003330:	e6f7      	b.n	10003122 <__udivmoddi4+0x9a>
10003332:	1a84      	subs	r4, r0, r2
10003334:	eb61 0303 	sbc.w	r3, r1, r3
10003338:	2001      	movs	r0, #1
1000333a:	461f      	mov	r7, r3
1000333c:	e70b      	b.n	10003156 <__udivmoddi4+0xce>
1000333e:	4464      	add	r4, ip
10003340:	3802      	subs	r0, #2
10003342:	e749      	b.n	100031d8 <__udivmoddi4+0x150>
10003344:	4464      	add	r4, ip
10003346:	3802      	subs	r0, #2
10003348:	e6e1      	b.n	1000310e <__udivmoddi4+0x86>
1000334a:	3a02      	subs	r2, #2
1000334c:	4461      	add	r1, ip
1000334e:	e72e      	b.n	100031ae <__udivmoddi4+0x126>
10003350:	3e02      	subs	r6, #2
10003352:	4462      	add	r2, ip
10003354:	e6c6      	b.n	100030e4 <__udivmoddi4+0x5c>
10003356:	f1a8 0802 	sub.w	r8, r8, #2
1000335a:	4461      	add	r1, ip
1000335c:	e76f      	b.n	1000323e <__udivmoddi4+0x1b6>
1000335e:	3802      	subs	r0, #2
10003360:	4462      	add	r2, ip
10003362:	e7cb      	b.n	100032fc <__udivmoddi4+0x274>
10003364:	3802      	subs	r0, #2
10003366:	4461      	add	r1, ip
10003368:	e77d      	b.n	10003266 <__udivmoddi4+0x1de>
1000336a:	3e02      	subs	r6, #2
1000336c:	4461      	add	r1, ip
1000336e:	e7d9      	b.n	10003324 <__udivmoddi4+0x29c>
10003370:	462e      	mov	r6, r5
10003372:	e6d6      	b.n	10003122 <__udivmoddi4+0x9a>

10003374 <__aeabi_idiv0>:
10003374:	4770      	bx	lr
10003376:	bf00      	nop

10003378 <_init>:
10003378:	b5f8      	push	{r3, r4, r5, r6, r7, lr}
1000337a:	bf00      	nop
1000337c:	bcf8      	pop	{r3, r4, r5, r6, r7}
1000337e:	bc08      	pop	{r3}
10003380:	469e      	mov	lr, r3
10003382:	4770      	bx	lr

10003384 <_fini>:
10003384:	b5f8      	push	{r3, r4, r5, r6, r7, lr}
10003386:	bf00      	nop
10003388:	bcf8      	pop	{r3, r4, r5, r6, r7}
1000338a:	bc08      	pop	{r3}
1000338c:	469e      	mov	lr, r3
1000338e:	4770      	bx	lr
10003390:	72617453 	rsbvc	r7, r1, #1392508928	; 0x53000000
10003394:	00000074 	andeq	r0, r0, r4, ror r0
10003398:	6c6c6568 	cfstr64vs	mvdx6, [ip], #-416	; 0xfffffe60
1000339c:	6f77206f 	svcvs	0x0077206f
100033a0:	20646c72 	rsbcs	r6, r4, r2, ror ip
100033a4:	6425202d 	strtvs	r2, [r5], #-45	; 0xffffffd3
100033a8:	00000a2e 	andeq	r0, r0, lr, lsr #20
100033ac:	00696e66 	rsbeq	r6, r9, r6, ror #28
100033b0:	2b696e66 	blcs	11a5ed50 <__copy_table_end__+0x1a5b6f8>
100033b4:	00000000 	andeq	r0, r0, r0
100033b8:	006e616e 	rsbeq	r6, lr, lr, ror #2
100033bc:	2d696e66 	stclcs	14, cr6, [r9, #-408]!	; 0xfffffe68
	...

100033c8 <pow10.0>:
100033c8:	00000000 	andeq	r0, r0, r0
100033cc:	3ff00000 	svccc	0x00f00000	; IMB
100033d0:	00000000 	andeq	r0, r0, r0
100033d4:	40240000 	eormi	r0, r4, r0
100033d8:	00000000 	andeq	r0, r0, r0
100033dc:	40590000 	subsmi	r0, r9, r0
100033e0:	00000000 	andeq	r0, r0, r0
100033e4:	408f4000 	addmi	r4, pc, r0
100033e8:	00000000 	andeq	r0, r0, r0
100033ec:	40c38800 	sbcmi	r8, r3, r0, lsl #16
100033f0:	00000000 	andeq	r0, r0, r0
100033f4:	40f86a00 	rscsmi	r6, r8, r0, lsl #20
100033f8:	00000000 	andeq	r0, r0, r0
100033fc:	412e8480 	smlawbmi	lr, r0, r4, r8
10003400:	00000000 	andeq	r0, r0, r0
10003404:	416312d0 	ldrdmi	r1, [r3, #-32]!	; 0xffffffe0
10003408:	00000000 	andeq	r0, r0, r0
1000340c:	4197d784 	orrsmi	sp, r7, r4, lsl #15
10003410:	00000000 	andeq	r0, r0, r0
10003414:	41cdcd65 	bicmi	ip, sp, r5, ror #26
10003418:	72614820 	rsbvc	r4, r1, #32, 16	; 0x200000
1000341c:	75614664 	strbvc	r4, [r1, #-1636]!	; 0xfffff99c
10003420:	4920746c 	stmdbmi	r0!, {r2, r3, r5, r6, sl, ip, sp, lr}
10003424:	726f666e 	rsbvc	r6, pc, #115343360	; 0x6e00000
10003428:	6974616d 	ldmdbvs	r4!, {r0, r2, r3, r5, r6, r8, sp, lr}^
1000342c:	44206e6f 	strtmi	r6, [r0], #-3695	; 0xfffff191
10003430:	20706d75 	rsbscs	r6, r0, r5, ror sp
10003434:	0000000d 	andeq	r0, r0, sp
10003438:	61745320 	cmnvs	r4, r0, lsr #6
1000343c:	46206b63 	strtmi	r6, [r0], -r3, ror #22
10003440:	656d6172 	strbvs	r6, [sp, #-370]!	; 0xfffffe8e
10003444:	0d202020 	stceq	0, cr2, [r0, #-128]!	; 0xffffff80
10003448:	00000000 	andeq	r0, r0, r0
1000344c:	20305220 	eorscs	r5, r0, r0, lsr #4
10003450:	203d2020 	eorscs	r2, sp, r0, lsr #32
10003454:	30257830 	eorcc	r7, r5, r0, lsr r8
10003458:	0d205838 	stceq	8, cr5, [r0, #-224]!	; 0xffffff20
1000345c:	0000000a 	andeq	r0, r0, sl
10003460:	20315220 	eorscs	r5, r1, r0, lsr #4
10003464:	203d2020 	eorscs	r2, sp, r0, lsr #32
10003468:	30257830 	eorcc	r7, r5, r0, lsr r8
1000346c:	0d205838 	stceq	8, cr5, [r0, #-224]!	; 0xffffff20
10003470:	0000000a 	andeq	r0, r0, sl
10003474:	20325220 	eorscs	r5, r2, r0, lsr #4
10003478:	203d2020 	eorscs	r2, sp, r0, lsr #32
1000347c:	30257830 	eorcc	r7, r5, r0, lsr r8
10003480:	0d205838 	stceq	8, cr5, [r0, #-224]!	; 0xffffff20
10003484:	0000000a 	andeq	r0, r0, sl
10003488:	20335220 	eorscs	r5, r3, r0, lsr #4
1000348c:	203d2020 	eorscs	r2, sp, r0, lsr #32
10003490:	30257830 	eorcc	r7, r5, r0, lsr r8
10003494:	0d205838 	stceq	8, cr5, [r0, #-224]!	; 0xffffff20
10003498:	0000000a 	andeq	r0, r0, sl
1000349c:	20345220 	eorscs	r5, r4, r0, lsr #4
100034a0:	203d2020 	eorscs	r2, sp, r0, lsr #32
100034a4:	30257830 	eorcc	r7, r5, r0, lsr r8
100034a8:	0d205838 	stceq	8, cr5, [r0, #-224]!	; 0xffffff20
100034ac:	0000000a 	andeq	r0, r0, sl
100034b0:	20355220 	eorscs	r5, r5, r0, lsr #4
100034b4:	203d2020 	eorscs	r2, sp, r0, lsr #32
100034b8:	30257830 	eorcc	r7, r5, r0, lsr r8
100034bc:	0d205838 	stceq	8, cr5, [r0, #-224]!	; 0xffffff20
100034c0:	0000000a 	andeq	r0, r0, sl
100034c4:	20365220 	eorscs	r5, r6, r0, lsr #4
100034c8:	203d2020 	eorscs	r2, sp, r0, lsr #32
100034cc:	30257830 	eorcc	r7, r5, r0, lsr r8
100034d0:	0d205838 	stceq	8, cr5, [r0, #-224]!	; 0xffffff20
100034d4:	0000000a 	andeq	r0, r0, sl
100034d8:	20375220 	eorscs	r5, r7, r0, lsr #4
100034dc:	203d2020 	eorscs	r2, sp, r0, lsr #32
100034e0:	30257830 	eorcc	r7, r5, r0, lsr r8
100034e4:	0d205838 	stceq	8, cr5, [r0, #-224]!	; 0xffffff20
100034e8:	0000000a 	andeq	r0, r0, sl
100034ec:	20385220 	eorscs	r5, r8, r0, lsr #4
100034f0:	203d2020 	eorscs	r2, sp, r0, lsr #32
100034f4:	30257830 	eorcc	r7, r5, r0, lsr r8
100034f8:	0d205838 	stceq	8, cr5, [r0, #-224]!	; 0xffffff20
100034fc:	0000000a 	andeq	r0, r0, sl
10003500:	20395220 	eorscs	r5, r9, r0, lsr #4
10003504:	203d2020 	eorscs	r2, sp, r0, lsr #32
10003508:	30257830 	eorcc	r7, r5, r0, lsr r8
1000350c:	0d205838 	stceq	8, cr5, [r0, #-224]!	; 0xffffff20
10003510:	0000000a 	andeq	r0, r0, sl
10003514:	30315220 	eorscc	r5, r1, r0, lsr #4
10003518:	203d2020 	eorscs	r2, sp, r0, lsr #32
1000351c:	30257830 	eorcc	r7, r5, r0, lsr r8
10003520:	0d205838 	stceq	8, cr5, [r0, #-224]!	; 0xffffff20
10003524:	0000000a 	andeq	r0, r0, sl
10003528:	31315220 	teqcc	r1, r0, lsr #4
1000352c:	203d2020 	eorscs	r2, sp, r0, lsr #32
10003530:	30257830 	eorcc	r7, r5, r0, lsr r8
10003534:	0d205838 	stceq	8, cr5, [r0, #-224]!	; 0xffffff20
10003538:	0000000a 	andeq	r0, r0, sl
1000353c:	32315220 	eorscc	r5, r1, #32, 4
10003540:	203d2020 	eorscs	r2, sp, r0, lsr #32
10003544:	30257830 	eorcc	r7, r5, r0, lsr r8
10003548:	0d205838 	stceq	8, cr5, [r0, #-224]!	; 0xffffff20
1000354c:	0000000a 	andeq	r0, r0, sl
10003550:	20524c20 	subscs	r4, r2, r0, lsr #24
10003554:	203d2020 	eorscs	r2, sp, r0, lsr #32
10003558:	30257830 	eorcc	r7, r5, r0, lsr r8
1000355c:	0d205838 	stceq	8, cr5, [r0, #-224]!	; 0xffffff20
10003560:	0000000a 	andeq	r0, r0, sl
10003564:	20435020 	subcs	r5, r3, r0, lsr #32
10003568:	203d2020 	eorscs	r2, sp, r0, lsr #32
1000356c:	30257830 	eorcc	r7, r5, r0, lsr r8
10003570:	0d205838 	stceq	8, cr5, [r0, #-224]!	; 0xffffff20
10003574:	0000000a 	andeq	r0, r0, sl
10003578:	52535020 	subspl	r5, r3, #32
1000357c:	203d2020 	eorscs	r2, sp, r0, lsr #32
10003580:	30257830 	eorcc	r7, r5, r0, lsr r8
10003584:	0d205838 	stceq	8, cr5, [r0, #-224]!	; 0xffffff20
10003588:	0000000a 	andeq	r0, r0, sl
1000358c:	45584520 	ldrbmi	r4, [r8, #-1312]	; 0xfffffae0
10003590:	5445525f 	strbpl	r5, [r5], #-607	; 0xfffffda1
10003594:	3a4e5255 	bcc	11397ef0 <__copy_table_end__+0x1394898>
10003598:	25783020 	ldrbcs	r3, [r8, #-32]!	; 0xffffffe0
1000359c:	20583830 	subscs	r3, r8, r0, lsr r8
100035a0:	00000a0d 	andeq	r0, r0, sp, lsl #20
100035a4:	61745320 	cmnvs	r4, r0, lsr #6
100035a8:	55206b63 	strpl	r6, [r0, #-2915]!	; 0xfffff49d
100035ac:	3a646573 	bcc	1191cb80 <__copy_table_end__+0x1919528>
100035b0:	20642520 	rsbcs	r2, r4, r0, lsr #10
100035b4:	6425202f 	strtvs	r2, [r5], #-47	; 0xffffffd1
100035b8:	00000a0d 	andeq	r0, r0, sp, lsl #20
100035bc:	61745320 	cmnvs	r4, r0, lsr #6
100035c0:	43206b63 			; <UNDEFINED> instruction: 0x43206b63
100035c4:	3a6c6c61 	bcc	11b1e750 <__copy_table_end__+0x1b1b0f8>
100035c8:	00000d20 	andeq	r0, r0, r0, lsr #26
100035cc:	58383025 	ldmdapl	r8!, {r0, r2, r5, ip, sp}
100035d0:	00000020 	andeq	r0, r0, r0, lsr #32

100035d4 <_global_impure_ptr>:
100035d4:	38000008 	stmdacc	r0, {r3}

100035d8 <__sf_fake_stderr>:
	...

100035f8 <__sf_fake_stdin>:
	...

10003618 <__sf_fake_stdout>:
	...

10003638 <__EH_FRAME_BEGIN__>:
10003638:	00000000 	andeq	r0, r0, r0

Disassembly of section .ARM.exidx:

1000363c <__exidx_end-0x10>:
1000363c:	7fffe5cc 	svcvc	0x00ffe5cc
10003640:	80b0b0b0 	ldrhthi	fp, [r0], r0
10003644:	7fffe634 	svcvc	0x00ffe634
10003648:	00000001 	andeq	r0, r0, r1

Disassembly of section .copy.table:

1000364c <__copy_table_start__>:
1000364c:	10003658 	andne	r3, r0, r8, asr r6
10003650:	38000000 	stmdacc	r0, {}	; <UNPREDICTABLE>
10003654:	0000001c 	andeq	r0, r0, ip, lsl r0

Disassembly of section .data:

38000000 <SystemCoreClock>:
38000000:	017d7840 	cmneq	sp, r0, asr #16

38000004 <_impure_ptr>:
38000004:	38000008 	stmdacc	r0, {r3}

38000008 <impure_data>:
38000008:	00000000 	andeq	r0, r0, r0
3800000c:	100035f8 	strdne	r3, [r0], -r8
38000010:	10003618 	andne	r3, r0, r8, lsl r6
38000014:	100035d8 	ldrdne	r3, [r0], -r8
	...

38000068 <__frame_dummy_init_array_entry>:
38000068:	100007e5 	andne	r0, r0, r5, ror #15

3800006c <__do_global_dtors_aux_fini_array_entry>:
3800006c:	100007c1 	andne	r0, r0, r1, asr #15

Disassembly of section .bss:

38000070 <__bss_start__>:
38000070:	00000000 	andeq	r0, r0, r0

38000074 <object.0>:
	...

3800008c <frame.0>:
	...

380000cc <__lock___malloc_recursive_mutex>:
	...

380000cd <__lock___sfp_recursive_mutex>:
	...

380000ce <__lock___sinit_recursive_mutex>:
	...

380000d0 <__malloc_free_list>:
380000d0:	00000000 	andeq	r0, r0, r0

380000d4 <__malloc_sbrk_start>:
380000d4:	00000000 	andeq	r0, r0, r0

380000d8 <errno>:
380000d8:	00000000 	andeq	r0, r0, r0

380000dc <heap_end.0>:
380000dc:	00000000 	andeq	r0, r0, r0

Disassembly of section .heap:

380000e0 <__end__>:
	...

Disassembly of section .stack:

3801f000 <__StackLimit>:
	...

Disassembly of section .ARM.attributes:

00000000 <.ARM.attributes>:
   0:	00003541 	andeq	r3, r0, r1, asr #10
   4:	61656100 	cmnvs	r5, r0, lsl #2
   8:	01006962 	tsteq	r0, r2, ror #18
   c:	0000002b 	andeq	r0, r0, fp, lsr #32
  10:	4d2d3805 	stcmi	8, cr3, [sp, #-20]!	; 0xffffffec
  14:	49414d2e 	stmdbmi	r1, {r1, r2, r3, r5, r8, sl, fp, lr}^
  18:	1106004e 	tstne	r6, lr, asr #32
  1c:	03094d07 	movweq	r4, #40199	; 0x9d07
  20:	0412080a 	ldreq	r0, [r2], #-2058	; 0xfffff7f6
  24:	01150114 	tsteq	r5, r4, lsl r1
  28:	01180317 	tsteq	r8, r7, lsl r3
  2c:	011b011a 	tsteq	fp, sl, lsl r1
  30:	0122011c 			; <UNDEFINED> instruction: 0x0122011c
  34:	Address 0x00000034 is out of bounds.


Disassembly of section .comment:

00000000 <.comment>:
   0:	3a434347 	bcc	10d0d24 <__ROM_SIZE+0x1050d24>
   4:	4e472820 	cdpmi	8, 4, cr2, cr7, cr0, {1}
   8:	72412055 	subvc	r2, r1, #85	; 0x55
   c:	6d45206d 	stclvs	0, cr2, [r5, #-436]	; 0xfffffe4c
  10:	64646562 	strbtvs	r6, [r4], #-1378	; 0xfffffa9e
  14:	54206465 	strtpl	r6, [r0], #-1125	; 0xfffffb9b
  18:	636c6f6f 	cmnvs	ip, #444	; 0x1bc
  1c:	6e696168 	powvsez	f6, f1, #0.0
  20:	2e303120 	rsfcssp	f3, f0, f0
  24:	30322d33 	eorscc	r2, r2, r3, lsr sp
  28:	312e3132 			; <UNDEFINED> instruction: 0x312e3132
  2c:	31202930 			; <UNDEFINED> instruction: 0x31202930
  30:	2e332e30 	mrccs	14, 1, r2, cr3, cr0, {1}
  34:	30322031 	eorscc	r2, r2, r1, lsr r0
  38:	38303132 	ldmdacc	r0!, {r1, r4, r5, r8, ip, sp}
  3c:	28203432 	stmdacs	r0!, {r1, r4, r5, sl, ip, sp}
  40:	656c6572 	strbvs	r6, [ip, #-1394]!	; 0xfffffa8e
  44:	29657361 	stmdbcs	r5!, {r0, r5, r6, r8, r9, ip, sp, lr}^
	...

Disassembly of section .debug_info:

00000000 <.debug_info>:
       0:	000001d3 	ldrdeq	r0, [r0], -r3
       4:	00000002 	andeq	r0, r0, r2
       8:	01040000 	mrseq	r0, (UNDEF: 4)
       c:	00000105 	andeq	r0, r0, r5, lsl #2
      10:	00000e0c 	andeq	r0, r0, ip, lsl #28
      14:	00005200 	andeq	r5, r0, r0, lsl #4
	...
      28:	06010200 	streq	r0, [r1], -r0, lsl #4
      2c:	000000ab 	andeq	r0, r0, fp, lsr #1
      30:	a9080102 	stmdbge	r8, {r1, r8}
      34:	02000000 	andeq	r0, r0, #0
      38:	01c30502 	biceq	r0, r3, r2, lsl #10
      3c:	02020000 	andeq	r0, r2, #0
      40:	0000c707 	andeq	ip, r0, r7, lsl #14
      44:	05040200 	streq	r0, [r4, #-512]	; 0xfffffe00
      48:	00000005 	andeq	r0, r0, r5
      4c:	40070402 	andmi	r0, r7, r2, lsl #8
      50:	02000000 	andeq	r0, r0, #0
      54:	00000508 	andeq	r0, r0, r8, lsl #10
      58:	08020000 	stmdaeq	r2, {}	; <UNPREDICTABLE>
      5c:	00003b07 	andeq	r3, r0, r7, lsl #22
      60:	05040300 	streq	r0, [r4, #-768]	; 0xfffffd00
      64:	00746e69 	rsbseq	r6, r4, r9, ror #28
      68:	45070402 	strmi	r0, [r7, #-1026]	; 0xfffffbfe
      6c:	02000000 	andeq	r0, r0, #0
      70:	00da0408 	sbcseq	r0, sl, r8, lsl #8
      74:	01040000 	mrseq	r0, (UNDEF: 4)
      78:	000000e6 	andeq	r0, r0, r6, ror #1
      7c:	01051301 	tsteq	r5, r1, lsl #6
      80:	00000061 	andeq	r0, r0, r1, rrx
      84:	10000804 	andne	r0, r0, r4, lsl #16
      88:	10000828 	andne	r0, r0, r8, lsr #16
      8c:	00000000 	andeq	r0, r0, r0
      90:	0000e301 	andeq	lr, r0, r1, lsl #6
      94:	00b70500 	adcseq	r0, r7, r0, lsl #10
      98:	14010000 	strne	r0, [r1], #-0
      9c:	00006109 	andeq	r6, r0, r9, lsl #2
      a0:	00002600 	andeq	r2, r0, r0, lsl #12
      a4:	00002000 	andeq	r2, r0, r0
      a8:	080a0600 	stmdaeq	sl, {r9, sl}
      ac:	01ad1000 			; <UNDEFINED> instruction: 0x01ad1000
      b0:	10070000 	andne	r0, r7, r0
      b4:	bb100008 	bllt	4000dc <__ROM_SIZE+0x3800dc>
      b8:	c9000001 	stmdbgt	r0, {r0}
      bc:	08000000 	stmdaeq	r0, {}	; <UNPREDICTABLE>
      c0:	03055001 	movweq	r5, #20481	; 0x5001
      c4:	10003390 	mulne	r0, r0, r3
      c8:	081c0900 	ldmdaeq	ip, {r8, fp}
      cc:	01c81000 	biceq	r1, r8, r0
      d0:	01080000 	mrseq	r0, (UNDEF: 8)
      d4:	98030550 	stmdals	r3, {r4, r6, r8, sl}
      d8:	08100033 	ldmdaeq	r0, {r0, r1, r4, r5}
      dc:	74025101 	strvc	r5, [r2], #-257	; 0xfffffeff
      e0:	0a00007f 	beq	2e4 <__STACKSEAL_SIZE+0x2e4>
      e4:	00009901 	andeq	r9, r0, r1, lsl #18
      e8:	060f0100 	streq	r0, [pc], -r0, lsl #2
      ec:	00000001 	andeq	r0, r0, r1
      f0:	00000000 	andeq	r0, r0, r0
      f4:	00005000 	andeq	r5, r0, r0
      f8:	01220100 			; <UNDEFINED> instruction: 0x01220100
      fc:	cd0b0000 	stcgt	0, cr0, [fp, #-0]
     100:	32000001 	andcc	r0, r0, #1
     104:	01000001 	tsteq	r0, r1
     108:	00000305 	andeq	r0, r0, r5, lsl #6
     10c:	00090000 	andeq	r0, r9, r0
     110:	bb000000 	bllt	118 <__STACKSEAL_SIZE+0x118>
     114:	08000001 	stmdaeq	r0, {r0}
     118:	03055001 	movweq	r5, #20481	; 0x5001
     11c:	00000000 	andeq	r0, r0, r0
     120:	3e0c0000 	cdpcc	0, 0, cr0, cr12, cr0, {0}
     124:	32000001 	andcc	r0, r0, #1
     128:	0d000001 	stceq	0, cr0, [r0, #-4]
     12c:	00000068 	andeq	r0, r0, r8, rrx
     130:	220e000f 	andcs	r0, lr, #15
     134:	02000001 	andeq	r0, r0, #1
     138:	00b20801 	adcseq	r0, r2, r1, lsl #16
     13c:	370e0000 	strcc	r0, [lr, -r0]
     140:	0a000001 	beq	14c <__STACKSEAL_SIZE+0x14c>
     144:	0000eb01 	andeq	lr, r0, r1, lsl #22
     148:	060b0100 	streq	r0, [fp], -r0, lsl #2
     14c:	00000001 	andeq	r0, r0, r1
     150:	00000000 	andeq	r0, r0, r0
     154:	00007000 	andeq	r7, r0, r0
     158:	01820100 	orreq	r0, r2, r0, lsl #2
     15c:	cd0b0000 	stcgt	0, cr0, [fp, #-0]
     160:	92000001 	andls	r0, r0, #1
     164:	01000001 	tsteq	r0, r1
     168:	00000305 	andeq	r0, r0, r5, lsl #6
     16c:	00090000 	andeq	r0, r9, r0
     170:	bb000000 	bllt	178 <__STACKSEAL_SIZE+0x178>
     174:	08000001 	stmdaeq	r0, {r0}
     178:	03055001 	movweq	r5, #20481	; 0x5001
     17c:	00000000 	andeq	r0, r0, r0
     180:	3e0c0000 	cdpcc	0, 0, cr0, cr12, cr0, {0}
     184:	92000001 	andls	r0, r0, #1
     188:	0d000001 	stceq	0, cr0, [r0, #-4]
     18c:	00000068 	andeq	r0, r0, r8, rrx
     190:	820e0019 	andhi	r0, lr, #25
     194:	0f000001 	svceq	0x00000001
     198:	00001501 	andeq	r1, r0, r1, lsl #10
     19c:	06070100 	streq	r0, [r7], -r0, lsl #2
     1a0:	00080001 	andeq	r0, r8, r1
     1a4:	00080210 	andeq	r0, r8, r0, lsl r2
     1a8:	007d0210 	rsbseq	r0, sp, r0, lsl r2
     1ac:	01011001 	tsteq	r1, r1
     1b0:	000000bd 	strheq	r0, [r0], -sp
     1b4:	000000bd 	strheq	r0, [r0], -sp
     1b8:	11060402 	tstne	r6, r2, lsl #8
     1bc:	00360101 	eorseq	r0, r6, r1, lsl #2
     1c0:	002c0000 	eoreq	r0, ip, r0
     1c4:	00040000 	andeq	r0, r4, r0
     1c8:	86010110 			; <UNDEFINED> instruction: 0x86010110
     1cc:	86000004 	strhi	r0, [r0], -r4
     1d0:	03000004 	movweq	r0, #4
     1d4:	e500053c 	str	r0, [r0, #-1340]	; 0xfffffac4
     1d8:	02000004 	andeq	r0, r0, #4
     1dc:	00010f00 	andeq	r0, r1, r0, lsl #30
     1e0:	05010400 	streq	r0, [r1, #-1024]	; 0xfffffc00
     1e4:	0c000001 	stceq	0, cr0, [r0], {1}
     1e8:	00000333 	andeq	r0, r0, r3, lsr r3
     1ec:	00000052 	andeq	r0, r0, r2, asr r0
     1f0:	00000028 	andeq	r0, r0, r8, lsr #32
	...
     1fc:	000000dd 	ldrdeq	r0, [r0], -sp
     200:	ab060102 	blge	180610 <__ROM_SIZE+0x100610>
     204:	03000000 	movweq	r0, #0
     208:	000001d6 	ldrdeq	r0, [r0], -r6
     20c:	3c182b02 			; <UNDEFINED> instruction: 0x3c182b02
     210:	02000000 	andeq	r0, r0, #0
     214:	00a90801 	adceq	r0, r9, r1, lsl #16
     218:	02020000 	andeq	r0, r2, #0
     21c:	0001c305 	andeq	ip, r1, r5, lsl #6
     220:	07020200 	streq	r0, [r2, -r0, lsl #4]
     224:	000000c7 	andeq	r0, r0, r7, asr #1
     228:	05050402 	streq	r0, [r5, #-1026]	; 0xfffffbfe
     22c:	03000000 	movweq	r0, #0
     230:	00000239 	andeq	r0, r0, r9, lsr r2
     234:	64194f02 	ldrvs	r4, [r9], #-3842	; 0xfffff0fe
     238:	02000000 	andeq	r0, r0, #0
     23c:	00400704 	subeq	r0, r0, r4, lsl #14
     240:	08020000 	stmdaeq	r2, {}	; <UNPREDICTABLE>
     244:	00000005 	andeq	r0, r0, r5
     248:	07080200 	streq	r0, [r8, -r0, lsl #4]
     24c:	0000003b 	andeq	r0, r0, fp, lsr r0
     250:	69050404 	stmdbvs	r5, {r2, sl}
     254:	0200746e 	andeq	r7, r0, #1845493760	; 0x6e000000
     258:	00450704 	subeq	r0, r5, r4, lsl #14
     25c:	d8030000 	stmdale	r3, {}	; <UNPREDICTABLE>
     260:	03000001 	movweq	r0, #1
     264:	00301318 	eorseq	r1, r0, r8, lsl r3
     268:	87050000 	strhi	r0, [r5, -r0]
     26c:	03000000 	movweq	r0, #0
     270:	0000023b 	andeq	r0, r0, fp, lsr r2
     274:	58143003 	ldmdapl	r4, {r0, r1, ip, sp}
     278:	05000000 	streq	r0, [r0, #-0]
     27c:	00000098 	muleq	r0, r8, r0
     280:	0000a406 	andeq	sl, r0, r6, lsl #8
     284:	027c0700 	rsbseq	r0, ip, #0, 14
     288:	0901f804 	stmdbeq	r1, {r2, fp, ip, sp, lr, pc}
     28c:	000003b3 			; <UNDEFINED> instruction: 0x000003b3
     290:	0001f308 	andeq	pc, r1, r8, lsl #6
     294:	01fa0400 	mvnseq	r0, r0, lsl #8
     298:	0000a912 	andeq	sl, r0, r2, lsl r9
     29c:	00230200 	eoreq	r0, r3, r0, lsl #4
     2a0:	00028f08 	andeq	r8, r2, r8, lsl #30
     2a4:	01fb0400 	mvnseq	r0, r0, lsl #8
     2a8:	0000a412 	andeq	sl, r0, r2, lsl r4
     2ac:	04230200 	strteq	r0, [r3], #-512	; 0xfffffe00
     2b0:	00028508 	andeq	r8, r2, r8, lsl #10
     2b4:	01fc0400 	mvnseq	r0, r0, lsl #8
     2b8:	0000a412 	andeq	sl, r0, r2, lsl r4
     2bc:	08230200 	stmdaeq	r3!, {r9}
     2c0:	00029408 	andeq	r9, r2, r8, lsl #8
     2c4:	01fd0400 	mvnseq	r0, r0, lsl #8
     2c8:	0000a412 	andeq	sl, r0, r2, lsl r4
     2cc:	0c230200 	sfmeq	f0, 4, [r3], #-0
     2d0:	52435309 	subpl	r5, r3, #603979776	; 0x24000000
     2d4:	01fe0400 	mvnseq	r0, r0, lsl #8
     2d8:	0000a412 	andeq	sl, r0, r2, lsl r4
     2dc:	10230200 	eorne	r0, r3, r0, lsl #4
     2e0:	52434309 	subpl	r4, r3, #603979776	; 0x24000000
     2e4:	01ff0400 	mvnseq	r0, r0, lsl #8
     2e8:	0000a412 	andeq	sl, r0, r2, lsl r4
     2ec:	14230200 	strtne	r0, [r3], #-512	; 0xfffffe00
     2f0:	00034408 	andeq	r4, r3, r8, lsl #8
     2f4:	02000400 	andeq	r0, r0, #0, 8
     2f8:	0003c312 	andeq	ip, r3, r2, lsl r3
     2fc:	18230200 	stmdane	r3!, {r9}
     300:	00030608 	andeq	r0, r3, r8, lsl #12
     304:	02010400 	andeq	r0, r1, #0, 8
     308:	0000a412 	andeq	sl, r0, r2, lsl r4
     30c:	24230200 	strtcs	r0, [r3], #-512	; 0xfffffe00
     310:	0002ac08 	andeq	sl, r2, r8, lsl #24
     314:	02020400 	andeq	r0, r2, #0, 8
     318:	0000a412 	andeq	sl, r0, r2, lsl r4
     31c:	28230200 	stmdacs	r3!, {r9}
     320:	00037008 	andeq	r7, r3, r8
     324:	02030400 	andeq	r0, r3, #0, 8
     328:	0000a412 	andeq	sl, r0, r2, lsl r4
     32c:	2c230200 	sfmcs	f0, 4, [r3], #-0
     330:	00029a08 	andeq	r9, r2, r8, lsl #20
     334:	02040400 	andeq	r0, r4, #0, 8
     338:	0000a412 	andeq	sl, r0, r2, lsl r4
     33c:	30230200 	eorcc	r0, r3, r0, lsl #4
     340:	00029f08 	andeq	r9, r2, r8, lsl #30
     344:	02050400 	andeq	r0, r5, #0, 8
     348:	0000a412 	andeq	sl, r0, r2, lsl r4
     34c:	34230200 	strtcc	r0, [r3], #-512	; 0xfffffe00
     350:	00023408 	andeq	r3, r2, r8, lsl #8
     354:	02060400 	andeq	r0, r6, #0, 8
     358:	0000a412 	andeq	sl, r0, r2, lsl r4
     35c:	38230200 	stmdacc	r3!, {r9}
     360:	00032308 	andeq	r2, r3, r8, lsl #6
     364:	02070400 	andeq	r0, r7, #0, 8
     368:	0000a412 	andeq	sl, r0, r2, lsl r4
     36c:	3c230200 	sfmcc	f0, 4, [r3], #-0
     370:	00020008 	andeq	r0, r2, r8
     374:	02080400 	andeq	r0, r8, #0, 8
     378:	0003dd12 	andeq	sp, r3, r2, lsl sp
     37c:	40230200 	eormi	r0, r3, r0, lsl #4
     380:	00024d08 	andeq	r4, r2, r8, lsl #26
     384:	02090400 	andeq	r0, r9, #0, 8
     388:	0000a912 	andeq	sl, r0, r2, lsl r9
     38c:	48230200 	stmdami	r3!, {r9}
     390:	00035b08 	andeq	r5, r3, r8, lsl #22
     394:	020a0400 	andeq	r0, sl, #0, 8
     398:	0000a912 	andeq	sl, r0, r2, lsl r9
     39c:	4c230200 	sfmmi	f0, 4, [r3], #-0
     3a0:	00022408 	andeq	r2, r2, r8, lsl #8
     3a4:	020b0400 	andeq	r0, fp, #0, 8
     3a8:	0003f712 	andeq	pc, r3, r2, lsl r7	; <UNPREDICTABLE>
     3ac:	50230200 	eorpl	r0, r3, r0, lsl #4
     3b0:	00036208 	andeq	r6, r3, r8, lsl #4
     3b4:	020c0400 	andeq	r0, ip, #0, 8
     3b8:	00041112 	andeq	r1, r4, r2, lsl r1
     3bc:	60230200 	eorvs	r0, r3, r0, lsl #4
     3c0:	0001ed08 	andeq	lr, r1, r8, lsl #26
     3c4:	020d0400 	andeq	r0, sp, #0, 8
     3c8:	0000a912 	andeq	sl, r0, r2, lsl r9
     3cc:	78230200 	stmdavc	r3!, {r9}
     3d0:	52544309 	subspl	r4, r4, #603979776	; 0x24000000
     3d4:	020e0400 	andeq	r0, lr, #0, 8
     3d8:	0000a912 	andeq	sl, r0, r2, lsl r9
     3dc:	7c230200 	sfmvc	f0, 4, [r3], #-0
     3e0:	0002a508 	andeq	sl, r2, r8, lsl #10
     3e4:	020f0400 	andeq	r0, pc, #0, 8
     3e8:	0000a912 	andeq	sl, r0, r2, lsl r9
     3ec:	80230300 	eorhi	r0, r3, r0, lsl #6
     3f0:	025c0801 	subseq	r0, ip, #65536	; 0x10000
     3f4:	10040000 	andne	r0, r4, r0
     3f8:	00a41202 	adceq	r1, r4, r2, lsl #4
     3fc:	23030000 	movwcs	r0, #12288	; 0x3000
     400:	6a080184 	bvs	200a18 <__ROM_SIZE+0x180a18>
     404:	04000003 	streq	r0, [r0], #-3
     408:	a4120211 	ldrge	r0, [r2], #-529	; 0xfffffdef
     40c:	03000000 	movweq	r0, #0
     410:	08018823 	stmdaeq	r1, {r0, r1, r5, fp, pc}
     414:	000002b1 			; <UNDEFINED> instruction: 0x000002b1
     418:	12021204 	andne	r1, r2, #4, 4	; 0x40000000
     41c:	000000a4 	andeq	r0, r0, r4, lsr #1
     420:	018c2303 	orreq	r2, ip, r3, lsl #6
     424:	0002f108 	andeq	pc, r2, r8, lsl #2
     428:	02130400 	andseq	r0, r3, #0, 8
     42c:	00041612 	andeq	r1, r4, r2, lsl r6
     430:	90230300 	eorls	r0, r3, r0, lsl #6
     434:	03280801 			; <UNDEFINED> instruction: 0x03280801
     438:	14040000 	strne	r0, [r4], #-0
     43c:	00a41202 	adceq	r1, r4, r2, lsl #4
     440:	23030000 	movwcs	r0, #12288	; 0x3000
     444:	8a0801e4 	bhi	200bdc <__ROM_SIZE+0x180bdc>
     448:	04000002 	streq	r0, [r0], #-2
     44c:	a4120215 	ldrge	r0, [r2], #-533	; 0xfffffdeb
     450:	03000000 	movweq	r0, #0
     454:	0801e823 	stmdaeq	r1, {r0, r1, r5, fp, sp, lr, pc}
     458:	000002c9 	andeq	r0, r0, r9, asr #5
     45c:	12021604 	andne	r1, r2, #4, 12	; 0x400000
     460:	00000426 	andeq	r0, r0, r6, lsr #8
     464:	01ec2303 	mvneq	r2, r3, lsl #6
     468:	0001e008 	andeq	lr, r1, r8
     46c:	02170400 	andseq	r0, r7, #0, 8
     470:	0000a412 	andeq	sl, r0, r2, lsl r4
     474:	80230300 	eorhi	r0, r3, r0, lsl #6
     478:	02d30804 	sbcseq	r0, r3, #4, 16	; 0x40000
     47c:	18040000 	stmdane	r4, {}	; <UNPREDICTABLE>
     480:	04361202 	ldrteq	r1, [r6], #-514	; 0xfffffdfe
     484:	23030000 	movwcs	r0, #12288	; 0x3000
     488:	b7080484 	strlt	r0, [r8, -r4, lsl #9]
     48c:	04000002 	streq	r0, [r0], #-2
     490:	a9120219 	ldmdbge	r2, {r0, r3, r4, r9}
     494:	03000000 	movweq	r0, #0
     498:	0804c023 	stmdaeq	r4, {r0, r1, r5, lr, pc}
     49c:	000002bd 			; <UNDEFINED> instruction: 0x000002bd
     4a0:	12021a04 	andne	r1, r2, #4, 20	; 0x4000
     4a4:	000000a9 	andeq	r0, r0, r9, lsr #1
     4a8:	04c42303 	strbeq	r2, [r4], #771	; 0x303
     4ac:	0002c308 	andeq	ip, r2, r8, lsl #6
     4b0:	021b0400 	andseq	r0, fp, #0, 8
     4b4:	0000a912 	andeq	sl, r0, r2, lsl r9
     4b8:	c8230300 	stmdagt	r3!, {r8, r9}
     4bc:	02dd0804 	sbcseq	r0, sp, #4, 16	; 0x40000
     4c0:	1c040000 	stcne	0, cr0, [r4], {-0}
     4c4:	04461202 	strbeq	r1, [r6], #-514	; 0xfffffdfe
     4c8:	23030000 	movwcs	r0, #12288	; 0x3000
     4cc:	2c0804cc 	cfstrscs	mvf0, [r8], {204}	; 0xcc
     4d0:	04000002 	streq	r0, [r0], #-2
     4d4:	a412021d 	ldrge	r0, [r2], #-541	; 0xfffffde3
     4d8:	03000000 	movweq	r0, #0
     4dc:	0804d023 	stmdaeq	r4, {r0, r1, r5, ip, lr, pc}
     4e0:	000002e7 	andeq	r0, r0, r7, ror #5
     4e4:	12021e04 	andne	r1, r2, #4, 28	; 0x40
     4e8:	00000446 	andeq	r0, r0, r6, asr #8
     4ec:	04d42303 	ldrbeq	r2, [r4], #771	; 0x303
     4f0:	00031508 	andeq	r1, r3, r8, lsl #10
     4f4:	021f0400 	andseq	r0, pc, #0, 8
     4f8:	0000a412 	andeq	sl, r0, r2, lsl r4
     4fc:	d8230300 	stmdale	r3!, {r8, r9}
     500:	01e50804 	mvneq	r0, r4, lsl #16
     504:	20040000 	andcs	r0, r4, r0
     508:	00a41202 	adceq	r1, r4, r2, lsl #4
     50c:	23030000 	movwcs	r0, #12288	; 0x3000
     510:	1d0804dc 	cfstrsne	mvf0, [r8, #-880]	; 0xfffffc90
     514:	04000003 	streq	r0, [r0], #-3
     518:	a4120221 	ldrge	r0, [r2], #-545	; 0xfffffddf
     51c:	03000000 	movweq	r0, #0
     520:	0804e023 	stmdaeq	r4, {r0, r1, r5, sp, lr, pc}
     524:	00000273 	andeq	r0, r0, r3, ror r2
     528:	12022204 	andne	r2, r2, #4, 4	; 0x40000000
     52c:	000000a4 	andeq	r0, r0, r4, lsr #1
     530:	04e42303 	strbteq	r2, [r4], #771	; 0x303
     534:	00025408 	andeq	r5, r2, r8, lsl #8
     538:	02230400 	eoreq	r0, r3, #0, 8
     53c:	0000a412 	andeq	sl, r0, r2, lsl r4
     540:	e8230300 	stmda	r3!, {r8, r9}
     544:	032d0804 			; <UNDEFINED> instruction: 0x032d0804
     548:	24040000 	strcs	r0, [r4], #-0
     54c:	00a41202 	adceq	r1, r4, r2, lsl #4
     550:	23030000 	movwcs	r0, #12288	; 0x3000
     554:	0c0804ec 	cfstrseq	mvf0, [r8], {236}	; 0xec
     558:	04000003 	streq	r0, [r0], #-3
     55c:	a4120225 	ldrge	r0, [r2], #-549	; 0xfffffddb
     560:	03000000 	movweq	r0, #0
     564:	0804f023 	stmdaeq	r4, {r0, r1, r5, ip, sp, lr, pc}
     568:	00000207 	andeq	r0, r0, r7, lsl #4
     56c:	12022604 	andne	r2, r2, #4, 12	; 0x400000
     570:	000000a4 	andeq	r0, r0, r4, lsr #1
     574:	04f42303 	ldrbteq	r2, [r4], #771	; 0x303
     578:	0001f908 	andeq	pc, r1, r8, lsl #18
     57c:	02270400 	eoreq	r0, r7, #0, 8
     580:	0000a412 	andeq	sl, r0, r2, lsl r4
     584:	f8230300 			; <UNDEFINED> instruction: 0xf8230300
     588:	930a0004 	movwls	r0, #40964	; 0xa004
     58c:	c3000000 	movwgt	r0, #0
     590:	0b000003 	bleq	5a4 <__STACKSEAL_SIZE+0x5a4>
     594:	00000080 	andeq	r0, r0, r0, lsl #1
     598:	b305000b 	movwlt	r0, #20491	; 0x500b
     59c:	0a000003 	beq	5b0 <__STACKSEAL_SIZE+0x5b0>
     5a0:	000000a9 	andeq	r0, r0, r9, lsr #1
     5a4:	000003d8 	ldrdeq	r0, [r0], -r8
     5a8:	0000800b 	andeq	r8, r0, fp
     5ac:	06000100 	streq	r0, [r0], -r0, lsl #2
     5b0:	000003c8 	andeq	r0, r0, r8, asr #7
     5b4:	0003d805 	andeq	sp, r3, r5, lsl #16
     5b8:	00a90a00 	adceq	r0, r9, r0, lsl #20
     5bc:	03f20000 	mvnseq	r0, #0
     5c0:	800b0000 	andhi	r0, fp, r0
     5c4:	03000000 	movweq	r0, #0
     5c8:	03e20600 	mvneq	r0, #0, 12
     5cc:	f2050000 	vhadd.s8	d0, d5, d0
     5d0:	0a000003 	beq	5e4 <__STACKSEAL_SIZE+0x5e4>
     5d4:	000000a9 	andeq	r0, r0, r9, lsr #1
     5d8:	0000040c 	andeq	r0, r0, ip, lsl #8
     5dc:	0000800b 	andeq	r8, r0, fp
     5e0:	06000500 	streq	r0, [r0], -r0, lsl #10
     5e4:	000003fc 	strdeq	r0, [r0], -ip
     5e8:	00040c05 	andeq	r0, r4, r5, lsl #24
     5ec:	00980a00 	addseq	r0, r8, r0, lsl #20
     5f0:	04260000 	strteq	r0, [r6], #-0
     5f4:	800b0000 	andhi	r0, fp, r0
     5f8:	14000000 	strne	r0, [r0], #-0
     5fc:	00980a00 	addseq	r0, r8, r0, lsl #20
     600:	04360000 	ldrteq	r0, [r6], #-0
     604:	800b0000 	andhi	r0, fp, r0
     608:	44000000 	strmi	r0, [r0], #-0
     60c:	00980a00 	addseq	r0, r8, r0, lsl #20
     610:	04460000 	strbeq	r0, [r6], #-0
     614:	800b0000 	andhi	r0, fp, r0
     618:	0e000000 	cdpeq	0, 0, cr0, cr0, cr0, {0}
     61c:	00980a00 	addseq	r0, r8, r0, lsl #20
     620:	04560000 	ldrbeq	r0, [r6], #-0
     624:	800b0000 	andhi	r0, fp, r0
     628:	00000000 	andeq	r0, r0, r0
     62c:	02440c00 	subeq	r0, r4, #0, 24
     630:	28040000 	stmdacs	r4, {}	; <UNPREDICTABLE>
     634:	00ae0302 	adceq	r0, lr, r2, lsl #6
     638:	49030000 	stmdbmi	r3, {}	; <UNPREDICTABLE>
     63c:	05000003 	streq	r0, [r0, #-3]
     640:	04740f24 	ldrbteq	r0, [r4], #-3876	; 0xfffff0dc
     644:	63060000 	movwvs	r0, #24576	; 0x6000
     648:	0d000004 	stceq	0, cr0, [r0, #-16]
     64c:	00047a04 	andeq	r7, r4, r4, lsl #20
     650:	0f010e00 	svceq	0x00010e00
     654:	00000263 	andeq	r0, r0, r3, ror #4
     658:	98112905 	ldmdals	r1, {r0, r2, r8, fp, sp}
     65c:	01000000 	mrseq	r0, (UNDEF: 0)
     660:	046f0a01 	strbteq	r0, [pc], #-2561	; 668 <__STACKSEAL_SIZE+0x668>
     664:	049b0000 	ldreq	r0, [fp], #0
     668:	80100000 	andshi	r0, r0, r0
     66c:	ef000000 	svc	0x00000000
     670:	8a060001 	bhi	18067c <__ROM_SIZE+0x10067c>
     674:	0f000004 	svceq	0x00000004
     678:	0000027b 	andeq	r0, r0, fp, ror r2
     67c:	9b203801 	blls	80e688 <__ROM_SIZE+0x78e688>
     680:	01000004 	tsteq	r0, r4
     684:	047c1101 	ldrbteq	r1, [ip], #-257	; 0xfffffeff
     688:	3e010000 	cdpcc	0, 0, cr0, cr1, cr0, {0}
     68c:	0003050a 	andeq	r0, r3, sl, lsl #10
     690:	12380000 	eorsne	r0, r8, #0
     694:	0002fb01 	andeq	pc, r2, r1, lsl #22
     698:	064c0100 	strbeq	r0, [ip], -r0, lsl #2
     69c:	00082801 	andeq	r2, r8, r1, lsl #16
     6a0:	00085410 	andeq	r5, r8, r0, lsl r4
     6a4:	007d0210 	rsbseq	r0, sp, r0, lsl r2
     6a8:	0e011201 	cdpeq	2, 0, cr1, cr1, cr1, {0}
     6ac:	01000002 	tsteq	r0, r2
     6b0:	00010644 	andeq	r0, r1, r4, asr #12
     6b4:	00000000 	andeq	r0, r0, r0
     6b8:	02000000 	andeq	r0, r0, #0
     6bc:	0001007d 	andeq	r0, r1, sp, ror r0
     6c0:	00001bc1 	andeq	r1, r0, r1, asr #23
     6c4:	01ff0002 	mvnseq	r0, r2
     6c8:	01040000 	mrseq	r0, (UNDEF: 4)
     6cc:	00000105 	andeq	r0, r0, r5, lsl #2
     6d0:	00045a0c 	andeq	r5, r4, ip, lsl #20
     6d4:	00005200 	andeq	r5, r0, r0, lsl #4
     6d8:	0000f800 	andeq	pc, r0, r0, lsl #16
	...
     6e4:	0002a400 	andeq	sl, r2, r0, lsl #8
     6e8:	04080200 	streq	r0, [r8], #-512	; 0xfffffe00
     6ec:	000000df 	ldrdeq	r0, [r0], -pc	; <UNPREDICTABLE>
     6f0:	45070402 	strmi	r0, [r7, #-1026]	; 0xfffffbfe
     6f4:	02000000 	andeq	r0, r0, #0
     6f8:	00ab0601 	adceq	r0, fp, r1, lsl #12
     6fc:	01020000 	mrseq	r0, (UNDEF: 2)
     700:	0000a908 	andeq	sl, r0, r8, lsl #18
     704:	05020200 	streq	r0, [r2, #-512]	; 0xfffffe00
     708:	000001c3 	andeq	r0, r0, r3, asr #3
     70c:	c7070202 	strgt	r0, [r7, -r2, lsl #4]
     710:	02000000 	andeq	r0, r0, #0
     714:	00050504 	andeq	r0, r5, r4, lsl #10
     718:	53030000 	movwpl	r0, #12288	; 0x3000
     71c:	02000000 	andeq	r0, r0, #0
     720:	00400704 	subeq	r0, r0, r4, lsl #14
     724:	08020000 	stmdaeq	r2, {}	; <UNPREDICTABLE>
     728:	00000005 	andeq	r0, r0, r5
     72c:	00660300 	rsbeq	r0, r6, r0, lsl #6
     730:	18040000 	stmdane	r4, {}	; <UNPREDICTABLE>
     734:	02000005 	andeq	r0, r0, #5
     738:	007e1969 	rsbseq	r1, lr, r9, ror #18
     73c:	08020000 	stmdaeq	r2, {}	; <UNPREDICTABLE>
     740:	00003b07 	andeq	r3, r0, r7, lsl #22
     744:	05040500 	streq	r0, [r4, #-1280]	; 0xfffffb00
     748:	00746e69 	rsbseq	r6, r4, r9, ror #28
     74c:	00008503 	andeq	r8, r0, r3, lsl #10
     750:	05410400 	strbeq	r0, [r1, #-1024]	; 0xfffffc00
     754:	e8020000 	stmda	r2, {}	; <UNPREDICTABLE>
     758:	0000301a 	andeq	r3, r0, sl, lsl r0
     75c:	00300300 	eorseq	r0, r0, r0, lsl #6
     760:	1a040000 	bne	100768 <__ROM_SIZE+0x80768>
     764:	03000005 	movweq	r0, #5
     768:	0072143c 	rsbseq	r1, r2, ip, lsr r4
     76c:	43040000 	movwmi	r0, #16384	; 0x4000
     770:	03000005 	movweq	r0, #5
     774:	00911552 	addseq	r1, r1, r2, asr r5
     778:	ab040000 	blge	100780 <__ROM_SIZE+0x80780>
     77c:	04000005 	streq	r0, [r0], #-5
     780:	00c61b28 	sbceq	r1, r6, r8, lsr #22
     784:	50060000 	andpl	r0, r6, r0
     788:	04000004 	streq	r0, [r0], #-4
     78c:	00e00006 	rsceq	r0, r0, r6
     790:	00070000 	andeq	r0, r7, r0
     794:	e0000005 	and	r0, r0, r5
     798:	02000000 	andeq	r0, r0, #0
     79c:	00010023 	andeq	r0, r1, r3, lsr #32
     7a0:	52040408 	andpl	r0, r4, #8, 8	; 0x8000000
     7a4:	04000004 	streq	r0, [r0], #-4
     7a8:	00ba1863 	adcseq	r1, sl, r3, ror #16
     7ac:	b0040000 	andlt	r0, r4, r0
     7b0:	05000003 	streq	r0, [r0, #-3]
     7b4:	003017d1 	ldrsbteq	r1, [r0], -r1
     7b8:	ee030000 	cdp	0, 0, cr0, cr3, cr0, {0}
     7bc:	02000000 	andeq	r0, r0, #0
     7c0:	00da0408 	sbcseq	r0, sl, r8, lsl #8
     7c4:	97040000 	strls	r0, [r4, -r0]
     7c8:	01000004 	tsteq	r0, r4
     7cc:	0112107a 	tsteq	r2, sl, ror r0
     7d0:	04090000 	streq	r0, [r9], #-0
     7d4:	00000118 	andeq	r0, r0, r8, lsl r1
     7d8:	0133010a 	teqeq	r3, sl, lsl #2
     7dc:	330b0000 	movwcc	r0, #45056	; 0xb000
     7e0:	0b000001 	bleq	7ec <__Vectors_Size+0x2c>
     7e4:	000000e0 	andeq	r0, r0, r0, ror #1
     7e8:	0000ee0b 	andeq	lr, r0, fp, lsl #28
     7ec:	00ee0b00 	rsceq	r0, lr, r0, lsl #22
     7f0:	02000000 	andeq	r0, r0, #0
     7f4:	00b20801 	adcseq	r0, r2, r1, lsl #16
     7f8:	33030000 	movwcc	r0, #12288	; 0x3000
     7fc:	0c000001 	stceq	0, cr0, [r0], {1}
     800:	097e0108 	ldmdbeq	lr!, {r3, r8}^
     804:	00000167 	andeq	r0, r0, r7, ror #2
     808:	7463660d 	strbtvc	r6, [r3], #-1549	; 0xfffff9f3
     80c:	0b7f0100 	bleq	1fc0c14 <__ROM_SIZE+0x1f40c14>
     810:	00000178 	andeq	r0, r0, r8, ror r1
     814:	0d002302 	stceq	3, cr2, [r0, #-8]
     818:	00677261 	rsbeq	r7, r7, r1, ror #4
     81c:	e0098001 	and	r8, r9, r1
     820:	02000000 	andeq	r0, r0, #0
     824:	0a000423 	beq	18b8 <__HEAP_SIZE+0x8b8>
     828:	00017801 	andeq	r7, r1, r1, lsl #16
     82c:	01330b00 	teqeq	r3, r0, lsl #22
     830:	e00b0000 	and	r0, fp, r0
     834:	00000000 	andeq	r0, r0, r0
     838:	01670409 	cmneq	r7, r9, lsl #8
     83c:	8d040000 	stchi	0, cr0, [r4, #-0]
     840:	01000005 	tsteq	r0, r5
     844:	013f0381 	teqeq	pc, r1, lsl #7
     848:	7e030000 	cdpvc	0, 0, cr0, cr3, cr0, {0}
     84c:	0e000001 	cdpeq	0, 0, cr0, cr0, cr1, {0}
     850:	00043001 	andeq	r3, r4, r1
     854:	038a0100 	orreq	r0, sl, #0, 2
     858:	00850105 	addeq	r0, r5, r5, lsl #2
	...
     864:	00900000 	addseq	r0, r0, r0
     868:	4c010000 	stcmi	0, cr0, [r1], {-0}
     86c:	0f000002 	svceq	0x00000002
     870:	0074756f 	rsbseq	r7, r4, pc, ror #10
     874:	16038a01 	strne	r8, [r3], -r1, lsl #20
     878:	00000178 	andeq	r0, r0, r8, ror r1
     87c:	000000f2 	strdeq	r0, [r0], -r2
     880:	000000ec 	andeq	r0, r0, ip, ror #1
     884:	6772610f 	ldrbvs	r6, [r2, -pc, lsl #2]!
     888:	038a0100 	orreq	r0, sl, #0, 2
     88c:	0000e03d 	andeq	lr, r0, sp, lsr r0
     890:	00012300 	andeq	r2, r1, r0, lsl #6
     894:	00011f00 	andeq	r1, r1, r0, lsl #30
     898:	04751000 	ldrbteq	r1, [r5], #-0
     89c:	8a010000 	bhi	408a4 <__RAM_SIZE+0x208a4>
     8a0:	024c4e03 	subeq	r4, ip, #3, 28	; 0x30
     8a4:	91020000 	mrsls	r0, (UNDEF: 2)
     8a8:	76121178 			; <UNDEFINED> instruction: 0x76121178
     8ac:	8c010061 	stchi	0, cr0, [r1], {97}	; 0x61
     8b0:	00e20b03 	rsceq	r0, r2, r3, lsl #22
     8b4:	91020000 	mrsls	r0, (UNDEF: 2)
     8b8:	0394136c 	orrseq	r1, r4, #108, 6	; 0xb0000001
     8bc:	8e010000 	cdphi	0, 0, cr0, cr1, cr0, {0}
     8c0:	018a1b03 	orreq	r1, sl, r3, lsl #22
     8c4:	91020000 	mrsls	r0, (UNDEF: 2)
     8c8:	65721464 	ldrbvs	r1, [r2, #-1124]!	; 0xfffffb9c
     8cc:	8f010074 	svchi	0x00010074
     8d0:	008c0d03 	addeq	r0, ip, r3, lsl #26
     8d4:	01460000 	mrseq	r0, (UNDEF: 70)
     8d8:	01440000 	mrseq	r0, (UNDEF: 68)
     8dc:	00150000 	andseq	r0, r5, r0
     8e0:	5f000000 	svcpl	0x00000000
     8e4:	16000005 	strne	r0, [r0], -r5
     8e8:	03055001 	movweq	r5, #20481	; 0x5001
     8ec:	00000000 	andeq	r0, r0, r0
     8f0:	02510116 	subseq	r0, r1, #-2147483643	; 0x80000005
     8f4:	01165491 			; <UNDEFINED> instruction: 0x01165491
     8f8:	ff090252 			; <UNDEFINED> instruction: 0xff090252
     8fc:	03530116 	cmpeq	r3, #-2147483643	; 0x80000005
     900:	16066891 			; <UNDEFINED> instruction: 0x16066891
     904:	02007d02 	andeq	r7, r0, #2, 26	; 0x80
     908:	00006c91 	muleq	r0, r1, ip
     90c:	013a0409 	teqeq	sl, r9, lsl #8
     910:	010e0000 	mrseq	r0, (UNDEF: 14)
     914:	00000483 	andeq	r0, r0, r3, lsl #9
     918:	05038401 	streq	r8, [r3, #-1025]	; 0xfffffbff
     91c:	00008501 	andeq	r8, r0, r1, lsl #10
	...
     928:	00015900 	andeq	r5, r1, r0, lsl #18
     92c:	02ee0100 	rsceq	r0, lr, #0, 2
     930:	fd170000 	ldc2	0, cr0, [r7, #-0]
     934:	01000003 	tsteq	r0, r3
     938:	ee150384 	cdp	3, 1, cr0, cr5, cr4, {4}
     93c:	97000002 	strls	r0, [r0, -r2]
     940:	91000001 	tstls	r0, r1
     944:	17000001 	strne	r0, [r0, -r1]
     948:	000000b7 	strheq	r0, [r0], -r7
     94c:	24038401 	strcs	r8, [r3], #-1025	; 0xfffffbff
     950:	000000ee 	andeq	r0, r0, lr, ror #1
     954:	000001c9 	andeq	r0, r0, r9, asr #3
     958:	000001c3 	andeq	r0, r0, r3, asr #3
     95c:	00047517 	andeq	r7, r4, r7, lsl r5
     960:	03840100 	orreq	r0, r4, #0, 2
     964:	00024c37 	andeq	r4, r2, r7, lsr ip
     968:	0001fb00 	andeq	pc, r1, r0, lsl #22
     96c:	0001f500 	andeq	pc, r1, r0, lsl #10
     970:	61760f00 	cmnvs	r6, r0, lsl #30
     974:	03840100 	orreq	r0, r4, #0, 2
     978:	0000e247 	andeq	lr, r0, r7, asr #4
     97c:	00022900 	andeq	r2, r2, r0, lsl #18
     980:	00022700 	andeq	r2, r2, r0, lsl #14
     984:	00001500 	andeq	r1, r0, r0, lsl #10
     988:	055f0000 	ldrbeq	r0, [pc, #-0]	; 990 <__Vectors_Size+0x1d0>
     98c:	01160000 	tsteq	r6, r0
     990:	00030550 	andeq	r0, r3, r0, asr r5
     994:	16000000 	strne	r0, [r0], -r0
     998:	f3035101 	vrhadd.u8	d5, d3, d1
     99c:	01165001 	tsteq	r6, r1
     9a0:	01f30352 	mvnseq	r0, r2, asr r3
     9a4:	53011651 	movwpl	r1, #5713	; 0x1651
     9a8:	5201f303 	andpl	pc, r1, #201326592	; 0xc000000
     9ac:	04090000 	streq	r0, [r9], #-0
     9b0:	00000133 	andeq	r0, r0, r3, lsr r1
     9b4:	03a8010e 			; <UNDEFINED> instruction: 0x03a8010e
     9b8:	7d010000 	stcvc	0, cr0, [r1, #-0]
     9bc:	85010503 	strhi	r0, [r1, #-1283]	; 0xfffffafd
	...
     9c8:	3c000000 	stccc	0, cr0, [r0], {-0}
     9cc:	01000002 	tsteq	r0, r2
     9d0:	00000374 	andeq	r0, r0, r4, ror r3
     9d4:	00047517 	andeq	r7, r4, r7, lsl r5
     9d8:	037d0100 	cmneq	sp, #0, 2
     9dc:	00024c19 	andeq	r4, r2, r9, lsl ip
     9e0:	00027a00 	andeq	r7, r2, r0, lsl #20
     9e4:	00027400 	andeq	r7, r2, r0, lsl #8
     9e8:	61760f00 	cmnvs	r6, r0, lsl #30
     9ec:	037d0100 	cmneq	sp, #0, 2
     9f0:	0000e229 	andeq	lr, r0, r9, lsr #4
     9f4:	0002a800 	andeq	sl, r2, r0, lsl #16
     9f8:	0002a600 	andeq	sl, r2, r0, lsl #12
     9fc:	03fd1300 	mvnseq	r1, #0, 6
     a00:	7f010000 	svcvc	0x00010000
     a04:	03740803 	cmneq	r4, #196608	; 0x30000
     a08:	91020000 	mrsls	r0, (UNDEF: 2)
     a0c:	00001574 	andeq	r1, r0, r4, ror r5
     a10:	055f0000 	ldrbeq	r0, [pc, #-0]	; a18 <__Vectors_Size+0x258>
     a14:	01160000 	tsteq	r6, r0
     a18:	99030550 	stmdbls	r3, {r4, r6, r8, sl}
     a1c:	16100019 			; <UNDEFINED> instruction: 0x16100019
     a20:	91025101 	tstls	r2, r1, lsl #2
     a24:	52011674 	andpl	r1, r1, #116, 12	; 0x7400000
     a28:	16ff0902 	ldrbtne	r0, [pc], r2, lsl #18
     a2c:	f3035301 	vcgt.u8	d5, d3, d1
     a30:	00005001 	andeq	r5, r0, r1
     a34:	00013318 	andeq	r3, r1, r8, lsl r3
     a38:	00038400 	andeq	r8, r3, r0, lsl #8
     a3c:	00301900 	eorseq	r1, r0, r0, lsl #18
     a40:	00000000 	andeq	r0, r0, r0
     a44:	0484010e 	streq	r0, [r4], #270	; 0x10e
     a48:	73010000 	movwvc	r0, #4096	; 0x1000
     a4c:	85010503 	strhi	r0, [r1, #-1283]	; 0xfffffafd
	...
     a58:	bb000000 	bllt	a60 <__Vectors_Size+0x2a0>
     a5c:	01000002 	tsteq	r0, r2
     a60:	00000433 	andeq	r0, r0, r3, lsr r4
     a64:	0003fd17 	andeq	pc, r3, r7, lsl sp	; <UNPREDICTABLE>
     a68:	03730100 	cmneq	r3, #0, 2
     a6c:	0002ee14 	andeq	lr, r2, r4, lsl lr
     a70:	00031d00 	andeq	r1, r3, r0, lsl #26
     a74:	00031700 	andeq	r1, r3, r0, lsl #14
     a78:	00b71700 	adcseq	r1, r7, r0, lsl #14
     a7c:	73010000 	movwvc	r0, #4096	; 0x1000
     a80:	00ee2303 	rsceq	r2, lr, r3, lsl #6
     a84:	034f0000 	movteq	r0, #61440	; 0xf000
     a88:	03490000 	movteq	r0, #36864	; 0x9000
     a8c:	75100000 	ldrvc	r0, [r0, #-0]
     a90:	01000004 	tsteq	r0, r4
     a94:	4c360373 	ldcmi	3, cr0, [r6], #-460	; 0xfffffe34
     a98:	02000002 	andeq	r0, r0, #2
     a9c:	12117891 	andsne	r7, r1, #9502720	; 0x910000
     aa0:	01006176 	tsteq	r0, r6, ror r1
     aa4:	e20b0375 	and	r0, fp, #-738197503	; 0xd4000001
     aa8:	02000000 	andeq	r0, r0, #0
     aac:	72146c91 	andsvc	r6, r4, #37120	; 0x9100
     ab0:	01007465 	tsteq	r0, r5, ror #8
     ab4:	8c0d0377 	stchi	3, cr0, [sp], {119}	; 0x77
     ab8:	7d000000 	stcvc	0, cr0, [r0, #-0]
     abc:	7b000003 	blvc	ad0 <__Vectors_Size+0x310>
     ac0:	15000003 	strne	r0, [r0, #-3]
     ac4:	00000000 	andeq	r0, r0, r0
     ac8:	0000055f 	andeq	r0, r0, pc, asr r5
     acc:	05500116 	ldrbeq	r0, [r0, #-278]	; 0xfffffeea
     ad0:	00000003 	andeq	r0, r0, r3
     ad4:	51011600 	tstpl	r1, r0, lsl #12
     ad8:	5001f303 	andpl	pc, r1, r3, lsl #6
     adc:	03520116 	cmpeq	r2, #-2147483643	; 0x80000005
     ae0:	165101f3 			; <UNDEFINED> instruction: 0x165101f3
     ae4:	91035301 	tstls	r3, r1, lsl #6
     ae8:	02160668 	andseq	r0, r6, #104, 12	; 0x6800000
     aec:	9102007d 	tstls	r2, sp, ror r0
     af0:	0e00006c 	cdpeq	0, 0, cr0, cr0, cr12, {3}
     af4:	0004be01 	andeq	fp, r4, r1, lsl #28
     af8:	03690100 	cmneq	r9, #0, 2
     afc:	00850105 	addeq	r0, r5, r5, lsl #2
	...
     b08:	03900000 	orrseq	r0, r0, #0
     b0c:	cc010000 	stcgt	0, cr0, [r1], {-0}
     b10:	17000004 	strne	r0, [r0, -r4]
     b14:	000003fd 	strdeq	r0, [r0], -sp
     b18:	13036901 	movwne	r6, #14593	; 0x3901
     b1c:	000002ee 	andeq	r0, r0, lr, ror #5
     b20:	000003f2 	strdeq	r0, [r0], -r2
     b24:	000003ec 	andeq	r0, r0, ip, ror #7
     b28:	00047510 	andeq	r7, r4, r0, lsl r5
     b2c:	03690100 	cmneq	r9, #0, 2
     b30:	00024c27 	andeq	r4, r2, r7, lsr #24
     b34:	74910200 	ldrvc	r0, [r1], #512	; 0x200
     b38:	61761211 	cmnvs	r6, r1, lsl r2
     b3c:	036b0100 	cmneq	fp, #0, 2
     b40:	0000e20b 	andeq	lr, r0, fp, lsl #4
     b44:	6c910200 	lfmvs	f0, 4, [r1], {0}
     b48:	74657214 	strbtvc	r7, [r5], #-532	; 0xfffffdec
     b4c:	036d0100 	cmneq	sp, #0, 2
     b50:	00008c0d 	andeq	r8, r0, sp, lsl #24
     b54:	00042000 	andeq	r2, r4, r0
     b58:	00041e00 	andeq	r1, r4, r0, lsl #28
     b5c:	00001500 	andeq	r1, r0, r0, lsl #10
     b60:	055f0000 	ldrbeq	r0, [pc, #-0]	; b68 <__Vectors_Size+0x3a8>
     b64:	01160000 	tsteq	r6, r0
     b68:	00030550 	andeq	r0, r3, r0, asr r5
     b6c:	16000000 	strne	r0, [r0], -r0
     b70:	f3035101 	vrhadd.u8	d5, d3, d1
     b74:	01165001 	tsteq	r6, r1
     b78:	ff090252 			; <UNDEFINED> instruction: 0xff090252
     b7c:	03530116 	cmpeq	r3, #-2147483643	; 0x80000005
     b80:	16065c91 			; <UNDEFINED> instruction: 0x16065c91
     b84:	02007d02 	andeq	r7, r0, #2, 26	; 0x80
     b88:	00006091 	muleq	r0, r1, r0
     b8c:	0486010e 	streq	r0, [r6], #270	; 0x10e
     b90:	5e010000 	cdppl	0, 0, cr0, cr1, cr0, {0}
     b94:	85010503 	strhi	r0, [r1, #-1283]	; 0xfffffafd
     b98:	a4000000 	strge	r0, [r0], #-0
     b9c:	d0100019 	andsle	r0, r0, r9, lsl r0
     ba0:	33100019 	tstcc	r0, #25
     ba4:	01000004 	tsteq	r0, r4
     ba8:	0000055f 	andeq	r0, r0, pc, asr r5
     bac:	00047510 	andeq	r7, r4, r0, lsl r5
     bb0:	035e0100 	cmpeq	lr, #0, 2
     bb4:	00024c18 	andeq	r4, r2, r8, lsl ip
     bb8:	70910200 	addsvc	r0, r1, r0, lsl #4
     bbc:	61761211 	cmnvs	r6, r1, lsl r2
     bc0:	03600100 	cmneq	r0, #0, 2
     bc4:	0000e20b 	andeq	lr, r0, fp, lsl #4
     bc8:	64910200 	ldrvs	r0, [r1], #512	; 0x200
     bcc:	0003fd13 	andeq	pc, r3, r3, lsl sp	; <UNPREDICTABLE>
     bd0:	03620100 	cmneq	r2, #0, 2
     bd4:	00037408 	andeq	r7, r3, r8, lsl #8
     bd8:	60910200 	addsvs	r0, r1, r0, lsl #4
     bdc:	74657214 	strbtvc	r7, [r5], #-532	; 0xfffffdec
     be0:	03630100 	cmneq	r3, #0, 2
     be4:	00008c0d 	andeq	r8, r0, sp, lsl #24
     be8:	00049100 	andeq	r9, r4, r0, lsl #2
     bec:	00048f00 	andeq	r8, r4, r0, lsl #30
     bf0:	19c01500 	stmibne	r0, {r8, sl, ip}^
     bf4:	055f1000 	ldrbeq	r1, [pc, #-0]	; bfc <__Vectors_Size+0x43c>
     bf8:	01160000 	tsteq	r6, r0
     bfc:	99030550 	stmdbls	r3, {r4, r6, r8, sl}
     c00:	16100019 			; <UNDEFINED> instruction: 0x16100019
     c04:	91025101 	tstls	r2, r1, lsl #2
     c08:	52011640 	andpl	r1, r1, #64, 12	; 0x4000000
     c0c:	16ff0902 	ldrbtne	r0, [pc], r2, lsl #18
     c10:	91035301 	tstls	r3, r1, lsl #6
     c14:	02160650 	andseq	r0, r6, #80, 12	; 0x5000000
     c18:	9102007d 	tstls	r2, sp, ror r0
     c1c:	1a000054 	bne	d74 <__Vectors_Size+0x5b4>
     c20:	00000482 	andeq	r0, r0, r2, lsl #9
     c24:	0c024101 	stfeqs	f4, [r2], {1}
     c28:	00008501 	andeq	r8, r0, r1, lsl #10
     c2c:	00131800 	andseq	r1, r3, r0, lsl #16
     c30:	00199810 	andseq	r9, r9, r0, lsl r8
     c34:	0004a410 	andeq	sl, r4, r0, lsl r4
     c38:	0b7d0100 	bleq	1f41040 <__ROM_SIZE+0x1ec1040>
     c3c:	6f0f0000 	svcvs	0x000f0000
     c40:	01007475 	tsteq	r0, r5, ror r4
     c44:	06240241 	strteq	r0, [r4], -r1, asr #4
     c48:	e5000001 	str	r0, [r0, #-1]
     c4c:	dd000004 	stcle	0, cr0, [r0, #-16]
     c50:	17000004 	strne	r0, [r0, -r4]
     c54:	000003fd 	strdeq	r0, [r0], -sp
     c58:	2f024101 	svccs	0x00024101
     c5c:	000002ee 	andeq	r0, r0, lr, ror #5
     c60:	00000523 	andeq	r0, r0, r3, lsr #10
     c64:	00000519 	andeq	r0, r0, r9, lsl r5
     c68:	0004e817 	andeq	lr, r4, r7, lsl r8
     c6c:	02410100 	subeq	r0, r1, #0, 2
     c70:	0000fa44 	andeq	pc, r0, r4, asr #20
     c74:	00057700 	andeq	r7, r5, r0, lsl #14
     c78:	00056500 	andeq	r6, r5, r0, lsl #10
     c7c:	04751700 	ldrbteq	r1, [r5], #-1792	; 0xfffff900
     c80:	41010000 	mrsmi	r0, (UNDEF: 1)
     c84:	024c5802 	subeq	r5, ip, #131072	; 0x20000
     c88:	05e90000 	strbeq	r0, [r9, #0]!
     c8c:	05e50000 	strbeq	r0, [r5, #0]!
     c90:	761b0000 	ldrvc	r0, [fp], -r0
     c94:	41010061 	tstmi	r1, r1, rrx
     c98:	00e26802 	rsceq	r6, r2, r2, lsl #16
     c9c:	91020000 	mrsls	r0, (UNDEF: 2)
     ca0:	04d31c00 	ldrbeq	r1, [r3], #3072	; 0xc00
     ca4:	43010000 	movwmi	r0, #4096	; 0x1000
     ca8:	00301002 	eorseq	r1, r0, r2
     cac:	061f0000 	ldreq	r0, [pc], -r0
     cb0:	06070000 	streq	r0, [r7], -r0
     cb4:	a51c0000 	ldrge	r0, [ip, #-0]
     cb8:	01000005 	tsteq	r0, r5
     cbc:	30170243 	andscc	r0, r7, r3, asr #4
     cc0:	c3000000 	movwgt	r0, #0
     cc4:	ad000006 	stcge	0, cr0, [r0, #-24]	; 0xffffffe8
     cc8:	1c000006 	stcne	0, cr0, [r0], {6}
     ccc:	000005e4 	andeq	r0, r0, r4, ror #11
     cd0:	1e024301 	cdpne	3, 0, cr4, cr2, cr1, {0}
     cd4:	00000030 	andeq	r0, r0, r0, lsr r0
     cd8:	0000076b 	andeq	r0, r0, fp, ror #14
     cdc:	0000074d 	andeq	r0, r0, sp, asr #14
     ce0:	01006e14 	tsteq	r0, r4, lsl lr
     ce4:	30290243 	eorcc	r0, r9, r3, asr #4
     ce8:	29000000 	stmdbcs	r0, {}	; <UNPREDICTABLE>
     cec:	1b000008 	blne	d14 <__Vectors_Size+0x554>
     cf0:	14000008 	strne	r0, [r0], #-8
     cf4:	00786469 	rsbseq	r6, r8, r9, ror #8
     cf8:	0a024401 	beq	91d04 <__ROM_SIZE+0x11d04>
     cfc:	000000ee 	andeq	r0, r0, lr, ror #1
     d00:	000008e5 	andeq	r0, r0, r5, ror #17
     d04:	00000885 	andeq	r0, r0, r5, lsl #17
     d08:	0013f41d 	andseq	pc, r3, sp, lsl r4	; <UNPREDICTABLE>
     d0c:	00141410 	andseq	r1, r4, r0, lsl r4
     d10:	00066310 	andeq	r6, r6, r0, lsl r3
     d14:	00771200 	rsbseq	r1, r7, r0, lsl #4
     d18:	11026c01 	tstne	r2, r1, lsl #24
     d1c:	0000008c 	andeq	r0, r0, ip, lsl #1
     d20:	1d005001 	stcne	0, cr5, [r0, #-4]
     d24:	1000143c 	andne	r1, r0, ip, lsr r4
     d28:	10001450 	andne	r1, r0, r0, asr r4
     d2c:	00000680 	andeq	r0, r0, r0, lsl #13
     d30:	00059f13 	andeq	r9, r5, r3, lsl pc
     d34:	02800100 	addeq	r0, r0, #0, 2
     d38:	00008c13 	andeq	r8, r0, r3, lsl ip
     d3c:	00530100 	subseq	r0, r3, r0, lsl #2
     d40:	00155e1d 	andseq	r5, r5, sp, lsl lr
     d44:	00174a10 	andseq	r4, r7, r0, lsl sl
     d48:	00087310 	andeq	r7, r8, r0, lsl r3
     d4c:	05df1c00 	ldrbeq	r1, [pc, #3072]	; 1954 <__HEAP_SIZE+0x954>
     d50:	b4010000 	strlt	r0, [r1], #-0
     d54:	00301602 	eorseq	r1, r0, r2, lsl #12
     d58:	0b1b0000 	bleq	6c0d60 <__ROM_SIZE+0x640d60>
     d5c:	0aff0000 	beq	fffc0d64 <__StackTop+0xc7fa0d64>
     d60:	e01e0000 	ands	r0, lr, r0
     d64:	e9000000 	stmdb	r0, {}	; <UNPREDICTABLE>
     d68:	1f000006 	svcne	0x00000006
     d6c:	00000409 	andeq	r0, r0, r9, lsl #8
     d70:	1d02d601 	stcne	6, cr13, [r2, #-4]
     d74:	0000006d 	andeq	r0, r0, sp, rrx
     d78:	00167415 	andseq	r7, r6, r5, lsl r4
     d7c:	00137c10 	andseq	r7, r3, r0, lsl ip
     d80:	50011600 	andpl	r1, r1, r0, lsl #12
     d84:	16007702 	strne	r7, [r0], -r2, lsl #14
     d88:	78025101 	stmdavc	r2, {r0, r8, ip, lr}
     d8c:	52011600 	andpl	r1, r1, #0, 12
     d90:	16007402 	strne	r7, [r0], -r2, lsl #8
     d94:	76025301 	strvc	r5, [r2], -r1, lsl #6
     d98:	7d021600 	stcvc	6, cr1, [r2, #-0]
     d9c:	007b0218 	rsbseq	r0, fp, r8, lsl r2
     da0:	1c7d0216 	lfmne	f0, 2, [sp], #-88	; 0xffffffa8
     da4:	00007502 	andeq	r7, r0, r2, lsl #10
     da8:	16801d00 	strne	r1, [r0], r0, lsl #26
     dac:	16b01000 	ldrtne	r1, [r0], r0
     db0:	073e1000 	ldreq	r1, [lr, -r0]!
     db4:	09130000 	ldmdbeq	r3, {}	; <UNPREDICTABLE>
     db8:	01000004 	tsteq	r0, r4
     dbc:	5a1802db 	bpl	601930 <__ROM_SIZE+0x581930>
     dc0:	01000000 	mrseq	r0, (UNDEF: 0)
     dc4:	16ae1552 	ssatne	r1, #15, r2, asr #10
     dc8:	150f1000 	strne	r1, [pc, #-0]	; dd0 <__Vectors_Size+0x610>
     dcc:	01160000 	tsteq	r6, r0
     dd0:	00770250 	rsbseq	r0, r7, r0, asr r2
     dd4:	02510116 	subseq	r0, r1, #-2147483643	; 0x80000005
     dd8:	01160078 	tsteq	r6, r8, ror r0
     ddc:	00740252 	rsbseq	r0, r4, r2, asr r2
     de0:	02530116 	subseq	r0, r3, #-2147483643	; 0x80000005
     de4:	02160076 	andseq	r0, r6, #118	; 0x76
     de8:	7b020c7d 	blvc	83fe4 <__ROM_SIZE+0x3fe4>
     dec:	7d021600 	stcvc	6, cr1, [r2, #-0]
     df0:	48910310 	ldmmi	r1, {r4, r8, r9}
     df4:	7d021606 	stcvc	6, cr1, [r2, #-24]	; 0xffffffe8
     df8:	00750214 	rsbseq	r0, r5, r4, lsl r2
     dfc:	c81e0000 	ldmdagt	lr, {}	; <UNPREDICTABLE>
     e00:	95000000 	strls	r0, [r0, #-0]
     e04:	1c000007 	stcne	0, cr0, [r0], {7}
     e08:	00000409 	andeq	r0, r0, r9, lsl #8
     e0c:	1702df01 	strne	sp, [r2, -r1, lsl #30]
     e10:	0000008c 	andeq	r0, r0, ip, lsl #1
     e14:	00000bcc 	andeq	r0, r0, ip, asr #23
     e18:	00000bca 	andeq	r0, r0, sl, asr #23
     e1c:	00162e15 	andseq	r2, r6, r5, lsl lr
     e20:	00150f10 	andseq	r0, r5, r0, lsl pc
     e24:	50011600 	andpl	r1, r1, r0, lsl #12
     e28:	16007702 	strne	r7, [r0], -r2, lsl #14
     e2c:	78025101 	stmdavc	r2, {r0, r8, ip, lr}
     e30:	52011600 	andpl	r1, r1, #0, 12
     e34:	16007402 	strne	r7, [r0], -r2, lsl #8
     e38:	76025301 	strvc	r5, [r2], -r1, lsl #6
     e3c:	7d021600 	stcvc	6, cr1, [r2, #-0]
     e40:	007b020c 	rsbseq	r0, fp, ip, lsl #4
     e44:	107d0216 	rsbsne	r0, sp, r6, lsl r2
     e48:	06489103 	strbeq	r9, [r8], -r3, lsl #2
     e4c:	147d0216 	ldrbtne	r0, [sp], #-534	; 0xfffffdea
     e50:	00007502 	andeq	r7, r0, r2, lsl #10
     e54:	00b01e00 	adcseq	r1, r0, r0, lsl #28
     e58:	07f20000 	ldrbeq	r0, [r2, r0]!
     e5c:	091c0000 	ldmdbeq	ip, {}	; <UNPREDICTABLE>
     e60:	01000004 	tsteq	r0, r4
     e64:	9d2002ee 	sfmls	f0, 4, [r0, #-952]!	; 0xfffffc48
     e68:	e3000000 	movw	r0, #0
     e6c:	df00000b 	svcle	0x0000000b
     e70:	1500000b 	strne	r0, [r0, #-11]
     e74:	100015d8 	ldrdne	r1, [r0], -r8
     e78:	0000150f 	andeq	r1, r0, pc, lsl #10
     e7c:	02500116 	subseq	r0, r0, #-2147483643	; 0x80000005
     e80:	01160077 	tsteq	r6, r7, ror r0
     e84:	00780251 	rsbseq	r0, r8, r1, asr r2
     e88:	02520116 	subseq	r0, r2, #-2147483643	; 0x80000005
     e8c:	01160074 	tsteq	r6, r4, ror r0
     e90:	00760253 	rsbseq	r0, r6, r3, asr r2
     e94:	047d0216 	ldrbteq	r0, [sp], #-534	; 0xfffffdea
     e98:	02163001 	andseq	r3, r6, #1
     e9c:	7b020c7d 	blvc	84098 <__ROM_SIZE+0x4098>
     ea0:	7d021600 	stcvc	6, cr1, [r2, #-0]
     ea4:	48910310 	ldmmi	r1, {r4, r8, r9}
     ea8:	7d021606 	stcvc	6, cr1, [r2, #-24]	; 0xffffffe8
     eac:	00750214 	rsbseq	r0, r5, r4, lsl r2
     eb0:	02200000 	eoreq	r0, r0, #0
     eb4:	7c100017 	ldcvc	0, cr0, [r0], {23}
     eb8:	34000013 	strcc	r0, [r0], #-19	; 0xffffffed
     ebc:	16000008 	strne	r0, [r0], -r8
     ec0:	77025001 	strvc	r5, [r2, -r1]
     ec4:	51011600 	tstpl	r1, r0, lsl #12
     ec8:	16007802 	strne	r7, [r0], -r2, lsl #16
     ecc:	74025201 	strvc	r5, [r2], #-513	; 0xfffffdff
     ed0:	53011600 	movwpl	r1, #5632	; 0x1600
     ed4:	16007602 	strne	r7, [r0], -r2, lsl #12
     ed8:	01087d02 	tsteq	r8, r2, lsl #26
     edc:	7d021630 	stcvc	6, cr1, [r2, #-192]	; 0xffffff40
     ee0:	007b0218 	rsbseq	r0, fp, r8, lsl r2
     ee4:	1c7d0216 	lfmne	f0, 2, [sp], #-88	; 0xffffffa8
     ee8:	06489103 	strbeq	r9, [r8], -r3, lsl #2
     eec:	207d0216 	rsbscs	r0, sp, r6, lsl r2
     ef0:	00007502 	andeq	r7, r0, r2, lsl #10
     ef4:	00172c15 	andseq	r2, r7, r5, lsl ip
     ef8:	00150f10 	andseq	r0, r5, r0, lsl pc
     efc:	50011600 	andpl	r1, r1, r0, lsl #12
     f00:	16007702 	strne	r7, [r0], -r2, lsl #14
     f04:	78025101 	stmdavc	r2, {r0, r8, ip, lr}
     f08:	52011600 	andpl	r1, r1, #0, 12
     f0c:	16007402 	strne	r7, [r0], -r2, lsl #8
     f10:	76025301 	strvc	r5, [r2], -r1, lsl #6
     f14:	7d021600 	stcvc	6, cr1, [r2, #-0]
     f18:	16300104 	ldrtne	r0, [r0], -r4, lsl #2
     f1c:	020c7d02 	andeq	r7, ip, #2, 26	; 0x80
     f20:	0216007b 	andseq	r0, r6, #123	; 0x7b
     f24:	9103107d 	tstls	r3, sp, ror r0
     f28:	02160648 	andseq	r0, r6, #72, 12	; 0x4800000
     f2c:	7502147d 	strvc	r1, [r2, #-1149]	; 0xfffffb83
     f30:	1e000000 	cdpne	0, 0, cr0, cr0, cr0, {0}
     f34:	00000098 	muleq	r0, r8, r0
     f38:	000008ec 	andeq	r0, r0, ip, ror #17
     f3c:	01006c14 	tsteq	r0, r4, lsl ip
     f40:	30160309 	andscc	r0, r6, r9, lsl #6
     f44:	16000000 	strne	r0, [r0], -r0
     f48:	0200000c 	andeq	r0, r0, #12
     f4c:	2100000c 	tstcs	r0, ip
     f50:	100017f6 	strdne	r1, [r0], -r6
     f54:	000008ab 	andeq	r0, r0, fp, lsr #17
     f58:	02510116 	subseq	r0, r1, #-2147483643	; 0x80000005
     f5c:	01160078 	tsteq	r6, r8, ror r0
     f60:	00740252 	rsbseq	r0, r4, r2, asr r2
     f64:	02530116 	subseq	r0, r3, #-2147483643	; 0x80000005
     f68:	21000076 	tstcs	r0, r6, ror r0
     f6c:	1000180e 	andne	r1, r0, lr, lsl #16
     f70:	000008cd 	andeq	r0, r0, sp, asr #17
     f74:	02500116 	subseq	r0, r0, #-2147483643	; 0x80000005
     f78:	01162008 	tsteq	r6, r8
     f7c:	00780251 	rsbseq	r0, r8, r1, asr r2
     f80:	02520116 	subseq	r0, r2, #-2147483643	; 0x80000005
     f84:	01167f7a 	tsteq	r6, sl, ror pc
     f88:	00760253 	rsbseq	r0, r6, r3, asr r2
     f8c:	183a2200 	ldmdane	sl!, {r9, sp}
     f90:	01161000 	tsteq	r6, r0
     f94:	20080250 	andcs	r0, r8, r0, asr r2
     f98:	02510116 	subseq	r0, r1, #-2147483643	; 0x80000005
     f9c:	01160078 	tsteq	r6, r8, ror r0
     fa0:	7f750252 	svcvc	0x00750252
     fa4:	02530116 	subseq	r0, r3, #-2147483643	; 0x80000005
     fa8:	00000076 	andeq	r0, r0, r6, ror r0
     fac:	00184a1d 	andseq	r4, r8, sp, lsl sl
     fb0:	00191410 	andseq	r1, r9, r0, lsl r4
     fb4:	0009b110 	andeq	fp, r9, r0, lsl r1
     fb8:	00701400 	rsbseq	r1, r0, r0, lsl #8
     fbc:	15031d01 	strne	r1, [r3, #-3329]	; 0xfffff2ff
     fc0:	0000024c 	andeq	r0, r0, ip, asr #4
     fc4:	00000c92 	muleq	r0, r2, ip
     fc8:	00000c8e 	andeq	r0, r0, lr, lsl #25
     fcc:	01006c14 	tsteq	r0, r4, lsl ip
     fd0:	3016031e 	andscc	r0, r6, lr, lsl r3
     fd4:	c6000000 	strgt	r0, [r0], -r0
     fd8:	b000000c 	andlt	r0, r0, ip
     fdc:	2300000c 	movwcs	r0, #12
     fe0:	00001964 	andeq	r1, r0, r4, ror #18
     fe4:	10001862 	andne	r1, r0, r2, ror #16
     fe8:	10001878 	andne	r1, r0, r8, ror r8
     fec:	1a031e01 	bne	c87f8 <__ROM_SIZE+0x487f8>
     ff0:	00000954 	andeq	r0, r0, r4, asr r9
     ff4:	00198224 	andseq	r8, r9, r4, lsr #4
     ff8:	000d4f00 	andeq	r4, sp, r0, lsl #30
     ffc:	000d4900 	andeq	r4, sp, r0, lsl #18
    1000:	19762500 	ldmdbne	r6!, {r8, sl, sp}^
    1004:	8e260000 	cdphi	0, 2, cr0, cr6, cr0, {0}
    1008:	7a000019 	bvc	1074 <__HEAP_SIZE+0x74>
    100c:	7800000d 	stmdavc	r0, {r0, r2, r3}
    1010:	0000000d 	andeq	r0, r0, sp
    1014:	0018b021 	andseq	fp, r8, r1, lsr #32
    1018:	00097610 	andeq	r7, r9, r0, lsl r6
    101c:	50011600 	andpl	r1, r1, r0, lsl #12
    1020:	16200802 	strtne	r0, [r0], -r2, lsl #16
    1024:	78025101 	stmdavc	r2, {r0, r8, ip, lr}
    1028:	52011600 	andpl	r1, r1, #0, 12
    102c:	167f7902 	ldrbtne	r7, [pc], -r2, lsl #18
    1030:	76025301 	strvc	r5, [r2], -r1, lsl #6
    1034:	d2210000 	eorle	r0, r1, #0
    1038:	92100018 	andsls	r0, r0, #24
    103c:	16000009 	strne	r0, [r0], -r9
    1040:	78025101 	stmdavc	r2, {r0, r8, ip, lr}
    1044:	52011600 	andpl	r1, r1, #0, 12
    1048:	167f7502 	ldrbtne	r7, [pc], -r2, lsl #10
    104c:	7b025301 	blvc	95c58 <__ROM_SIZE+0x15c58>
    1050:	04220000 	strteq	r0, [r2], #-0
    1054:	16100019 			; <UNDEFINED> instruction: 0x16100019
    1058:	08025001 	stmdaeq	r2, {r0, ip, lr}
    105c:	51011620 	tstpl	r1, r0, lsr #12
    1060:	16007802 	strne	r7, [r0], -r2, lsl #16
    1064:	75025201 	strvc	r5, [r2, #-513]	; 0xfffffdff
    1068:	5301167f 	movwpl	r1, #5759	; 0x167f
    106c:	00007602 	andeq	r7, r0, r2, lsl #12
    1070:	19141d00 	ldmdbne	r4, {r8, sl, fp, ip}
    1074:	194a1000 	stmdbne	sl, {ip}^
    1078:	0a161000 	beq	585080 <__ROM_SIZE+0x505080>
    107c:	d91c0000 	ldmdble	ip, {}	; <UNPREDICTABLE>
    1080:	01000005 	tsteq	r0, r5
    1084:	8414033a 	ldrhi	r0, [r4], #-826	; 0xfffffcc6
    1088:	8f00000b 	svchi	0x0000000b
    108c:	8d00000d 	stchi	0, cr0, [r0, #-52]	; 0xffffffcc
    1090:	1500000d 	strne	r0, [r0, #-13]
    1094:	10001940 	andne	r1, r0, r0, asr #18
    1098:	0000150f 	andeq	r1, r0, pc, lsl #10
    109c:	02500116 	subseq	r0, r0, #-2147483643	; 0x80000005
    10a0:	01160077 	tsteq	r6, r7, ror r0
    10a4:	00780251 	rsbseq	r0, r8, r1, asr r2
    10a8:	02520116 	subseq	r0, r2, #-2147483643	; 0x80000005
    10ac:	01160074 	tsteq	r6, r4, ror r0
    10b0:	00760253 	rsbseq	r0, r6, r3, asr r2
    10b4:	047d0216 	ldrbteq	r0, [sp], #-534	; 0xfffffdea
    10b8:	02163001 	andseq	r3, r6, #1
    10bc:	4001087d 	andmi	r0, r1, sp, ror r8
    10c0:	0c7d0216 	lfmeq	f0, 2, [sp], #-88	; 0xffffffa8
    10c4:	16007b02 	strne	r7, [r0], -r2, lsl #22
    10c8:	01107d02 	tsteq	r0, r2, lsl #26
    10cc:	7d021638 	stcvc	6, cr1, [r2, #-224]	; 0xffffff20
    10d0:	00750214 	rsbseq	r0, r5, r4, lsl r2
    10d4:	46270000 	strtmi	r0, [r7], -r0
    10d8:	78000019 	stmdavc	r0, {r0, r3, r4}
    10dc:	03100013 	tsteq	r0, #19
    10e0:	00137800 	andseq	r7, r3, r0, lsl #16
    10e4:	00137e10 	andseq	r7, r3, r0, lsl lr
    10e8:	02680110 	rsbeq	r0, r8, #16, 2
    10ec:	000a3f09 	andeq	r3, sl, r9, lsl #30
    10f0:	19582400 	ldmdbne	r8, {sl, sp}^
    10f4:	0da50000 	stceq	0, cr0, [r5]
    10f8:	0da30000 	stceq	0, cr0, [r3]
    10fc:	27000000 	strcs	r0, [r0, -r0]
    1100:	00001946 	andeq	r1, r0, r6, asr #18
    1104:	1000141e 	andne	r1, r0, lr, lsl r4
    1108:	141e0000 	ldrne	r0, [lr], #-0
    110c:	14241000 	strtne	r1, [r4], #-0
    1110:	7c011000 	stcvc	0, cr1, [r1], {-0}
    1114:	0a680b02 	beq	1a03d24 <__ROM_SIZE+0x1983d24>
    1118:	58240000 	stmdapl	r4!, {}	; <UNPREDICTABLE>
    111c:	ba000019 	blt	1188 <__HEAP_SIZE+0x188>
    1120:	b800000d 	stmdalt	r0, {r0, r2, r3}
    1124:	0000000d 	andeq	r0, r0, sp
    1128:	00134628 	andseq	r4, r3, r8, lsr #12
    112c:	00770210 	rsbseq	r0, r7, r0, lsl r2
    1130:	00000a87 	andeq	r0, r0, r7, lsl #21
    1134:	02510116 	subseq	r0, r1, #-2147483643	; 0x80000005
    1138:	01160078 	tsteq	r6, r8, ror r0
    113c:	00740252 	rsbseq	r0, r4, r2, asr r2
    1140:	02530116 	subseq	r0, r3, #-2147483643	; 0x80000005
    1144:	20000076 	andcs	r0, r0, r6, ror r0
    1148:	100013f0 	strdne	r1, [r0], -r0
    114c:	000018d8 	ldrdeq	r1, [r0], -r8
    1150:	00000a9b 	muleq	r0, fp, sl
    1154:	02500116 	subseq	r0, r0, #-2147483643	; 0x80000005
    1158:	20005491 	mulcs	r0, r1, r4
    115c:	10001438 	andne	r1, r0, r8, lsr r4
    1160:	000018d8 	ldrdeq	r1, [r0], -r8
    1164:	00000aaf 	andeq	r0, r0, pc, lsr #21
    1168:	02500116 	subseq	r0, r0, #-2147483643	; 0x80000005
    116c:	20005491 	mulcs	r0, r1, r4
    1170:	1000177a 	andne	r1, r0, sl, ror r7
    1174:	00000fa8 	andeq	r0, r0, r8, lsr #31
    1178:	00000aeb 	andeq	r0, r0, fp, ror #21
    117c:	02500116 	subseq	r0, r0, #-2147483643	; 0x80000005
    1180:	01160077 	tsteq	r6, r7, ror r0
    1184:	00780251 	rsbseq	r0, r8, r1, asr r2
    1188:	02520116 	subseq	r0, r2, #-2147483643	; 0x80000005
    118c:	01160074 	tsteq	r6, r4, ror r0
    1190:	00760253 	rsbseq	r0, r6, r3, asr r2
    1194:	087d0216 	ldmdaeq	sp!, {r1, r2, r4, r9}^
    1198:	16007b02 	strne	r7, [r0], -r2, lsl #22
    119c:	030c7d02 	movweq	r7, #52482	; 0xcd02
    11a0:	16064891 			; <UNDEFINED> instruction: 0x16064891
    11a4:	02107d02 	andseq	r7, r0, #2, 26	; 0x80
    11a8:	20000075 	andcs	r0, r0, r5, ror r0
    11ac:	100017ce 	andne	r1, r0, lr, asr #15
    11b0:	00000b89 	andeq	r0, r0, r9, lsl #23
    11b4:	00000b27 	andeq	r0, r0, r7, lsr #22
    11b8:	02500116 	subseq	r0, r0, #-2147483643	; 0x80000005
    11bc:	01160077 	tsteq	r6, r7, ror r0
    11c0:	00780251 	rsbseq	r0, r8, r1, asr r2
    11c4:	02520116 	subseq	r0, r2, #-2147483643	; 0x80000005
    11c8:	01160074 	tsteq	r6, r4, ror r0
    11cc:	00760253 	rsbseq	r0, r6, r3, asr r2
    11d0:	087d0216 	ldmdaeq	sp!, {r1, r2, r4, r9}^
    11d4:	16007b02 	strne	r7, [r0], -r2, lsl #22
    11d8:	030c7d02 	movweq	r7, #52482	; 0xcd02
    11dc:	16064891 			; <UNDEFINED> instruction: 0x16064891
    11e0:	02107d02 	andseq	r7, r0, #2, 26	; 0x80
    11e4:	21000075 	tstcs	r0, r5, ror r0
    11e8:	10001956 	andne	r1, r0, r6, asr r9
    11ec:	00000b49 	andeq	r0, r0, r9, asr #22
    11f0:	02500116 	subseq	r0, r0, #-2147483643	; 0x80000005
    11f4:	01162508 	tsteq	r6, r8, lsl #10
    11f8:	00780251 	rsbseq	r0, r8, r1, asr r2
    11fc:	02520116 	subseq	r0, r2, #-2147483643	; 0x80000005
    1200:	01160074 	tsteq	r6, r4, ror r0
    1204:	00760253 	rsbseq	r0, r6, r3, asr r2
    1208:	196a2100 	stmdbne	sl!, {r8, sp}^
    120c:	0b651000 	bleq	1945214 <__ROM_SIZE+0x18c5214>
    1210:	01160000 	tsteq	r6, r0
    1214:	00780251 	rsbseq	r0, r8, r1, asr r2
    1218:	02520116 	subseq	r0, r2, #-2147483643	; 0x80000005
    121c:	01160074 	tsteq	r6, r4, ror r0
    1220:	00760253 	rsbseq	r0, r6, r3, asr r2
    1224:	198a2200 	stmibne	sl, {r9, sp}
    1228:	01161000 	tsteq	r6, r0
    122c:	16300150 			; <UNDEFINED> instruction: 0x16300150
    1230:	78025101 	stmdavc	r2, {r0, r8, ip, lr}
    1234:	53011600 	movwpl	r1, #5632	; 0x1600
    1238:	00007602 	andeq	r7, r0, r2, lsl #12
    123c:	02010200 	andeq	r0, r1, #0, 4
    1240:	00000512 	andeq	r0, r0, r2, lsl r5
    1244:	000b7d03 	andeq	r7, fp, r3, lsl #26
    1248:	03cd1a00 	biceq	r1, sp, #0, 20
    124c:	d3010000 	movwle	r0, #4096	; 0x1000
    1250:	ee010f01 	cdp	15, 0, cr0, cr1, cr1, {0}
    1254:	90000000 	andls	r0, r0, r0
    1258:	7a10000b 	bvc	40128c <__ROM_SIZE+0x38128c>
    125c:	cd10000f 	ldcgt	0, cr0, [r0, #-60]	; 0xffffffc4
    1260:	0100000d 	tsteq	r0, sp
    1264:	00000fa3 	andeq	r0, r0, r3, lsr #31
    1268:	74756f0f 	ldrbtvc	r6, [r5], #-3855	; 0xfffff0f1
    126c:	01d30100 	bicseq	r0, r3, r0, lsl #2
    1270:	00010622 	andeq	r0, r1, r2, lsr #12
    1274:	000e2f00 	andeq	r2, lr, r0, lsl #30
    1278:	000e2b00 	andeq	r2, lr, r0, lsl #22
    127c:	03fd1700 	mvnseq	r1, #0, 14
    1280:	d3010000 	movwle	r0, #4096	; 0x1000
    1284:	02ee2d01 	rsceq	r2, lr, #1, 26	; 0x40
    1288:	0e510000 	cdpeq	0, 5, cr0, cr1, cr0, {0}
    128c:	0e4d0000 	cdpeq	0, 4, cr0, cr13, cr0, {0}
    1290:	690f0000 	stmdbvs	pc, {}	; <UNPREDICTABLE>
    1294:	01007864 	tsteq	r0, r4, ror #16
    1298:	ee3c01d3 	mrc	1, 1, r0, cr12, cr3, {6}
    129c:	85000000 	strhi	r0, [r0, #-0]
    12a0:	6f00000e 	svcvs	0x0000000e
    12a4:	1700000e 	strne	r0, [r0, -lr]
    12a8:	000004e8 	andeq	r0, r0, r8, ror #9
    12ac:	4801d301 	stmdami	r1, {r0, r8, r9, ip, lr, pc}
    12b0:	000000ee 	andeq	r0, r0, lr, ror #1
    12b4:	00000f0a 	andeq	r0, r0, sl, lsl #30
    12b8:	00000f06 	andeq	r0, r0, r6, lsl #30
    12bc:	00040917 	andeq	r0, r4, r7, lsl r9
    12c0:	01d30100 	bicseq	r0, r3, r0, lsl #2
    12c4:	00002957 	andeq	r2, r0, r7, asr r9
    12c8:	000f3400 	andeq	r3, pc, r0, lsl #8
    12cc:	000f2800 	andeq	r2, pc, r0, lsl #16
    12d0:	059f1700 	ldreq	r1, [pc, #1792]	; 19d8 <__HEAP_SIZE+0x9d8>
    12d4:	d3010000 	movwle	r0, #4096	; 0x1000
    12d8:	00306b01 	eorseq	r6, r0, r1, lsl #22
    12dc:	0f930000 	svceq	0x00930000
    12e0:	0f870000 	svceq	0x00870000
    12e4:	a5170000 	ldrge	r0, [r7, #-0]
    12e8:	01000005 	tsteq	r0, r5
    12ec:	307e01d3 	ldrsbtcc	r0, [lr], #-19	; 0xffffffed
    12f0:	e5000000 	str	r0, [r0, #-0]
    12f4:	e100000f 	tst	r0, pc
    12f8:	1700000f 	strne	r0, [r0, -pc]
    12fc:	000004d3 	ldrdeq	r0, [r0], -r3
    1300:	9201d301 	andls	sp, r1, #67108864	; 0x4000000
    1304:	00000030 	andeq	r0, r0, r0, lsr r0
    1308:	0000100d 	andeq	r1, r0, sp
    130c:	00001005 	andeq	r1, r0, r5
    1310:	00043a1c 	andeq	r3, r4, ip, lsl sl
    1314:	01db0100 	bicseq	r0, fp, r0, lsl #2
    1318:	000b840e 	andeq	r8, fp, lr, lsl #8
    131c:	00104800 	andseq	r4, r0, r0, lsl #16
    1320:	00104400 	andseq	r4, r0, r0, lsl #8
    1324:	01082900 	tsteq	r8, r0, lsl #18
    1328:	860301e7 	strhi	r0, [r3], -r7, ror #3
    132c:	2a00000c 	bcs	1364 <__HEAP_SIZE+0x364>
    1330:	e8010055 	stmda	r1, {r0, r2, r4, r6}
    1334:	00a20e01 	adceq	r0, r2, r1, lsl #28
    1338:	462a0000 	strtmi	r0, [sl], -r0
    133c:	01e90100 	mvneq	r0, r0, lsl #2
    1340:	0000290e 	andeq	r2, r0, lr, lsl #18
    1344:	2d1c0000 	ldccs	0, cr0, [ip, #-0]
    1348:	01000005 	tsteq	r0, r5
    134c:	650501ea 	strvs	r0, [r5, #-490]	; 0xfffffe16
    1350:	8c00000c 	stchi	0, cr0, [r0], {12}
    1354:	88000010 	stmdahi	r0, {r4}
    1358:	1c000010 	stcne	0, cr0, [r0], {16}
    135c:	0000038f 	andeq	r0, r0, pc, lsl #7
    1360:	0701ed01 	streq	lr, [r1, -r1, lsl #26]
    1364:	00000085 	andeq	r0, r0, r5, lsl #1
    1368:	000010c4 	andeq	r1, r0, r4, asr #1
    136c:	000010b8 	strheq	r1, [r0], -r8
    1370:	0003a11c 	andeq	sl, r3, ip, lsl r1
    1374:	01f00100 	mvnseq	r0, r0, lsl #2
    1378:	00008507 	andeq	r8, r0, r7, lsl #10
    137c:	00112100 	andseq	r2, r1, r0, lsl #2
    1380:	00111700 	andseq	r1, r1, r0, lsl #14
    1384:	007a1400 	rsbseq	r1, sl, r0, lsl #8
    1388:	1001f301 	andne	pc, r1, r1, lsl #6
    138c:	00000fa3 	andeq	r0, r0, r3, lsr #31
    1390:	00001163 	andeq	r1, r0, r3, ror #2
    1394:	00001161 	andeq	r1, r0, r1, ror #2
    1398:	00327a14 	eorseq	r7, r2, r4, lsl sl
    139c:	1001f401 	andne	pc, r1, r1, lsl #8
    13a0:	00000fa3 	andeq	r0, r0, r3, lsr #31
    13a4:	00001181 	andeq	r1, r0, r1, lsl #3
    13a8:	0000117b 	andeq	r1, r0, fp, ror r1
    13ac:	0003b71c 	andeq	fp, r3, ip, lsl r7
    13b0:	01ff0100 	mvnseq	r0, r0, lsl #2
    13b4:	00003010 	andeq	r3, r0, r0, lsl r0
    13b8:	0011bf00 	andseq	fp, r1, r0, lsl #30
    13bc:	0011b300 	andseq	fp, r1, r0, lsl #6
    13c0:	05a41c00 	streq	r1, [r4, #3072]!	; 0xc00
    13c4:	19010000 	stmdbne	r1, {}	; <UNPREDICTABLE>
    13c8:	00301002 	eorseq	r1, r0, r2
    13cc:	12160000 	andsne	r0, r6, #0
    13d0:	120c0000 	andne	r0, ip, #0
    13d4:	261c0000 	ldrcs	r0, [ip], -r0
    13d8:	01000004 	tsteq	r0, r4
    13dc:	fa10022c 	blx	401c94 <__ROM_SIZE+0x381c94>
    13e0:	58000000 	stmdapl	r0, {}	; <UNPREDICTABLE>
    13e4:	56000012 			; <UNDEFINED> instruction: 0x56000012
    13e8:	2b000012 	blcs	1438 <__HEAP_SIZE+0x438>
    13ec:	10000bae 	andne	r0, r0, lr, lsr #23
    13f0:	00001b1c 	andeq	r1, r0, ip, lsl fp
    13f4:	000bc22b 	andeq	ip, fp, fp, lsr #4
    13f8:	001b2710 	andseq	r2, fp, r0, lsl r7
    13fc:	0bd82b00 	bleq	ff60c004 <__StackTop+0xc75ec004>
    1400:	1b321000 	blne	c85408 <__ROM_SIZE+0xc05408>
    1404:	ea2b0000 	b	ac140c <__ROM_SIZE+0xa4140c>
    1408:	3210000b 	andscc	r0, r0, #11
    140c:	2b00001b 	blcs	1480 <__HEAP_SIZE+0x480>
    1410:	10000c26 	andne	r0, r0, r6, lsr #24
    1414:	00001b3d 	andeq	r1, r0, sp, lsr fp
    1418:	000c302b 	andeq	r3, ip, fp, lsr #32
    141c:	001b4810 	andseq	r4, fp, r0, lsl r8
    1420:	0c3a2b00 			; <UNDEFINED> instruction: 0x0c3a2b00
    1424:	1b531000 	blne	14c542c <__ROM_SIZE+0x144542c>
    1428:	4a2b0000 	bmi	ac1430 <__ROM_SIZE+0xa41430>
    142c:	5e10000c 	cdppl	0, 1, cr0, cr0, cr12, {0}
    1430:	2b00001b 	blcs	14a4 <__HEAP_SIZE+0x4a4>
    1434:	10000c54 	andne	r0, r0, r4, asr ip
    1438:	00001b48 	andeq	r1, r0, r8, asr #22
    143c:	000c602b 	andeq	r6, ip, fp, lsr #32
    1440:	001b5310 	andseq	r5, fp, r0, lsl r3
    1444:	0c642b00 			; <UNDEFINED> instruction: 0x0c642b00
    1448:	1b691000 	blne	1a45450 <__ROM_SIZE+0x19c5450>
    144c:	6a2b0000 	bvs	ac1454 <__ROM_SIZE+0xa41454>
    1450:	3d10000c 	ldccc	0, cr0, [r0, #-48]	; 0xffffffd0
    1454:	2b00001b 	blcs	14c8 <__HEAP_SIZE+0x4c8>
    1458:	10000c78 	andne	r0, r0, r8, ror ip
    145c:	00001b48 	andeq	r1, r0, r8, asr #22
    1460:	000c802b 	andeq	r8, ip, fp, lsr #32
    1464:	001b5310 	andseq	r5, fp, r0, lsl r3
    1468:	0c842b00 	vstmiaeq	r4, {d2-d1}
    146c:	1b691000 	blne	1a45474 <__ROM_SIZE+0x19c5474>
    1470:	942b0000 	strtls	r0, [fp], #-0
    1474:	4810000c 	ldmdami	r0, {r2, r3}
    1478:	2b00001b 	blcs	14ec <__HEAP_SIZE+0x4ec>
    147c:	10000c9e 	mulne	r0, lr, ip
    1480:	00001b3d 	andeq	r1, r0, sp, lsr fp
    1484:	000ca82b 	andeq	sl, ip, fp, lsr #16
    1488:	001b4810 	andseq	r4, fp, r0, lsl r8
    148c:	0cb42b00 	vldmiaeq	r4!, {d2-d1}
    1490:	1b5e1000 	blne	1785498 <__ROM_SIZE+0x1705498>
    1494:	c02b0000 	eorgt	r0, fp, r0
    1498:	4810000c 	ldmdami	r0, {r2, r3}
    149c:	2b00001b 	blcs	1510 <__HEAP_SIZE+0x510>
    14a0:	10000ce4 	andne	r0, r0, r4, ror #25
    14a4:	00001b53 	andeq	r1, r0, r3, asr fp
    14a8:	000cf62b 	andeq	pc, ip, fp, lsr #12
    14ac:	001b5e10 	andseq	r5, fp, r0, lsl lr
    14b0:	0d062b00 	vstreq	d2, [r6, #-0]
    14b4:	1b741000 	blne	1d054bc <__ROM_SIZE+0x1c854bc>
    14b8:	0e2b0000 	cdpeq	0, 2, cr0, cr11, cr0, {0}
    14bc:	5310000d 	tstpl	r0, #13
    14c0:	2b00001b 	blcs	1534 <__HEAP_SIZE+0x534>
    14c4:	10000d1a 	andne	r0, r0, sl, lsl sp
    14c8:	00001b74 	andeq	r1, r0, r4, ror fp
    14cc:	000d222b 	andeq	r2, sp, fp, lsr #4
    14d0:	001b5310 	andseq	r5, fp, r0, lsl r3
    14d4:	0d2e2b00 	vstmdbeq	lr!, {d2-d1}
    14d8:	1b741000 	blne	1d054e0 <__ROM_SIZE+0x1c854e0>
    14dc:	3a2b0000 	bcc	ac14e4 <__ROM_SIZE+0xa414e4>
    14e0:	5310000d 	tstpl	r0, #13
    14e4:	2b00001b 	blcs	1558 <__HEAP_SIZE+0x558>
    14e8:	10000d46 	andne	r0, r0, r6, asr #26
    14ec:	00001b74 	andeq	r1, r0, r4, ror fp
    14f0:	000d4e2b 	andeq	r4, sp, fp, lsr #28
    14f4:	001b5310 	andseq	r5, fp, r0, lsl r3
    14f8:	0d562b00 	vldreq	d18, [r6, #-0]
    14fc:	1b481000 	blne	1205504 <__ROM_SIZE+0x1185504>
    1500:	662b0000 	strtvs	r0, [fp], -r0
    1504:	2710000d 	ldrcs	r0, [r0, -sp]
    1508:	2b00001b 	blcs	157c <__HEAP_SIZE+0x57c>
    150c:	10000d76 	andne	r0, r0, r6, ror sp
    1510:	00001b74 	andeq	r1, r0, r4, ror fp
    1514:	000d9e2b 	andeq	r9, sp, fp, lsr #28
    1518:	001b7f10 	andseq	r7, fp, r0, lsl pc
    151c:	0db02b00 			; <UNDEFINED> instruction: 0x0db02b00
    1520:	1b321000 	blne	c85528 <__ROM_SIZE+0xc05528>
    1524:	e2200000 	eor	r0, r0, #0
    1528:	a810000d 	ldmdage	r0, {r0, r2, r3}
    152c:	ae00000f 	cdpge	0, 0, cr0, cr0, cr15, {0}
    1530:	1600000e 	strne	r0, [r0], -lr
    1534:	7a025001 	bvc	95540 <__ROM_SIZE+0x15540>
    1538:	51011600 	tstpl	r1, r0, lsl #12
    153c:	16007402 	strne	r7, [r0], -r2, lsl #8
    1540:	7b025201 	blvc	95d4c <__ROM_SIZE+0x15d4c>
    1544:	53011600 	movwpl	r1, #5632	; 0x1600
    1548:	16007502 	strne	r7, [r0], -r2, lsl #10
    154c:	05007d02 	streq	r7, [r0, #-3330]	; 0xfffff2fe
    1550:	08f60091 	ldmeq	r6!, {r0, r4, r7}^
    1554:	7d021629 	stcvc	6, cr1, [r2, #-164]	; 0xffffff5c
    1558:	08910308 	ldmeq	r1, {r3, r8, r9}
    155c:	7d021606 	stcvc	6, cr1, [r2, #-24]	; 0xffffffe8
    1560:	0c91030c 	ldceq	3, cr0, [r1], {12}
    1564:	7d021606 	stcvc	6, cr1, [r2, #-24]	; 0xffffffe8
    1568:	10910310 	addsne	r0, r1, r0, lsl r3
    156c:	bc2b0006 	stclt	0, cr0, [fp], #-24	; 0xffffffe8
    1570:	7410000e 	ldrvc	r0, [r0], #-14
    1574:	2b00001b 	blcs	15e8 <__HEAP_SIZE+0x5e8>
    1578:	10000ecc 	andne	r0, r0, ip, asr #29
    157c:	00001b32 	andeq	r1, r0, r2, lsr fp
    1580:	000ef420 	andeq	pc, lr, r0, lsr #8
    1584:	000fa810 	andeq	sl, pc, r0, lsl r8	; <UNPREDICTABLE>
    1588:	000f0c00 	andeq	r0, pc, r0, lsl #24
    158c:	50011600 	andpl	r1, r1, r0, lsl #12
    1590:	16007a02 	strne	r7, [r0], -r2, lsl #20
    1594:	74025101 	strvc	r5, [r2], #-257	; 0xfffffeff
    1598:	52011600 	andpl	r1, r1, #0, 12
    159c:	16007b02 	strne	r7, [r0], -r2, lsl #22
    15a0:	75025301 	strvc	r5, [r2, #-769]	; 0xfffffcff
    15a4:	7d021600 	stcvc	6, cr1, [r2, #-0]
    15a8:	a8910600 	ldmge	r1, {r9, sl}
    15ac:	2908f67f 	stmdbcs	r8, {r0, r1, r2, r3, r4, r5, r6, r9, sl, ip, sp, lr, pc}
    15b0:	087d0216 	ldmdaeq	sp!, {r1, r2, r4, r9}^
    15b4:	06089103 	streq	r9, [r8], -r3, lsl #2
    15b8:	0c7d0216 	lfmeq	f0, 2, [sp], #-88	; 0xffffffa8
    15bc:	16007802 	strne	r7, [r0], -r2, lsl #16
    15c0:	07107d02 	ldreq	r7, [r0, -r2, lsl #26]
    15c4:	0b061091 	bleq	185810 <__ROM_SIZE+0x105810>
    15c8:	001af7ff 			; <UNDEFINED> instruction: 0x001af7ff
    15cc:	000f1421 	andeq	r1, pc, r1, lsr #8
    15d0:	000f2810 	andeq	r2, pc, r0, lsl r8	; <UNPREDICTABLE>
    15d4:	51011600 	tstpl	r1, r0, lsl #12
    15d8:	16007402 	strne	r7, [r0], -r2, lsl #8
    15dc:	78025201 	stmdavc	r2, {r0, r9, ip, lr}
    15e0:	5301167f 	movwpl	r1, #5759	; 0x167f
    15e4:	00007502 	andeq	r7, r0, r2, lsl #10
    15e8:	000f3e20 	andeq	r3, pc, r0, lsr #28
    15ec:	00150f10 	andseq	r0, r5, r0, lsl pc
    15f0:	000f8400 	andeq	r8, pc, r0, lsl #8
    15f4:	50011600 	andpl	r1, r1, r0, lsl #12
    15f8:	16007a02 	strne	r7, [r0], -r2, lsl #20
    15fc:	74025101 	strvc	r5, [r2], #-257	; 0xfffffeff
    1600:	52011600 	andpl	r1, r1, #0, 12
    1604:	16007802 	strne	r7, [r0], -r2, lsl #16
    1608:	75025301 	strvc	r5, [r2, #-769]	; 0xfffffcff
    160c:	7d021600 	stcvc	6, cr1, [r2, #-0]
    1610:	00760c00 	rsbseq	r0, r6, r0, lsl #24
    1614:	0076264f 	rsbseq	r2, r6, pc, asr #12
    1618:	4f007627 	svcmi	0x00007627
    161c:	02161c26 	andseq	r1, r6, #9728	; 0x2600
    1620:	7604047d 			; <UNDEFINED> instruction: 0x7604047d
    1624:	16254f00 	strtne	r4, [r5], -r0, lsl #30
    1628:	01087d02 	tsteq	r8, r2, lsl #26
    162c:	7d02163a 	stcvc	6, cr1, [r2, #-232]	; 0xffffff18
    1630:	b091040c 	addslt	r0, r1, ip, lsl #8
    1634:	0216067f 	andseq	r0, r6, #133169152	; 0x7f00000
    1638:	7702107d 	smlsdxvc	r2, sp, r0, r1
    163c:	7d021600 	stcvc	6, cr1, [r2, #-0]
    1640:	00350114 	eorseq	r0, r5, r4, lsl r1
    1644:	000f6c22 	andeq	r6, pc, r2, lsr #24
    1648:	50011610 	andpl	r1, r1, r0, lsl r6
    164c:	16200802 	strtne	r0, [r0], -r2, lsl #16
    1650:	74025101 	strvc	r5, [r2], #-257	; 0xfffffeff
    1654:	52011600 	andpl	r1, r1, #0, 12
    1658:	167f7602 	ldrbtne	r7, [pc], -r2, lsl #12
    165c:	75025301 	strvc	r5, [r2, #-769]	; 0xfffffcff
    1660:	03000000 	movweq	r0, #0
    1664:	00000029 	andeq	r0, r0, r9, lsr #32
    1668:	00047c1a 	andeq	r7, r4, sl, lsl ip
    166c:	01530100 	cmpeq	r3, r0, lsl #2
    1670:	00ee010f 	rsceq	r0, lr, pc, lsl #2
    1674:	0f800000 	svceq	0x00800000
    1678:	13161000 	tstne	r6, #0
    167c:	126b1000 	rsbne	r1, fp, #0
    1680:	57010000 	strpl	r0, [r1, -r0]
    1684:	0f000013 	svceq	0x00000013
    1688:	0074756f 	rsbseq	r7, r4, pc, ror #10
    168c:	22015301 	andcs	r5, r1, #67108864	; 0x4000000
    1690:	00000106 	andeq	r0, r0, r6, lsl #2
    1694:	000012cd 	andeq	r1, r0, sp, asr #5
    1698:	000012c9 	andeq	r1, r0, r9, asr #5
    169c:	0003fd17 	andeq	pc, r3, r7, lsl sp	; <UNPREDICTABLE>
    16a0:	01530100 	cmpeq	r3, r0, lsl #2
    16a4:	0002ee2d 	andeq	lr, r2, sp, lsr #28
    16a8:	0012f100 	andseq	pc, r2, r0, lsl #2
    16ac:	0012ed00 	andseq	lr, r2, r0, lsl #26
    16b0:	64690f00 	strbtvs	r0, [r9], #-3840	; 0xfffff100
    16b4:	53010078 	movwpl	r0, #4216	; 0x1078
    16b8:	00ee3c01 	rsceq	r3, lr, r1, lsl #24
    16bc:	13150000 	tstne	r5, #0
    16c0:	13110000 	tstne	r1, #0
    16c4:	e8170000 	ldmda	r7, {}	; <UNPREDICTABLE>
    16c8:	01000004 	tsteq	r0, r4
    16cc:	ee480153 	mcr	1, 2, r0, cr8, cr3, {2}
    16d0:	37000000 	strcc	r0, [r0, -r0]
    16d4:	33000013 	movwcc	r0, #19
    16d8:	17000013 	smladne	r0, r3, r0, r0
    16dc:	00000409 	andeq	r0, r0, r9, lsl #8
    16e0:	57015301 	strpl	r5, [r1, -r1, lsl #6]
    16e4:	00000029 	andeq	r0, r0, r9, lsr #32
    16e8:	0000135f 	andeq	r1, r0, pc, asr r3
    16ec:	00001355 	andeq	r1, r0, r5, asr r3
    16f0:	00059f17 	andeq	r9, r5, r7, lsl pc
    16f4:	01530100 	cmpeq	r3, r0, lsl #2
    16f8:	0000306b 	andeq	r3, r0, fp, rrx
    16fc:	0013b700 	andseq	fp, r3, r0, lsl #14
    1700:	0013af00 	andseq	sl, r3, r0, lsl #30
    1704:	05a51700 	streq	r1, [r5, #1792]!	; 0x700
    1708:	53010000 	movwpl	r0, #4096	; 0x1000
    170c:	00307e01 	eorseq	r7, r0, r1, lsl #28
    1710:	13f70000 	mvnsne	r0, #0
    1714:	13ed0000 	mvnne	r0, #0
    1718:	d3170000 	tstle	r7, #0
    171c:	01000004 	tsteq	r0, r4
    1720:	30920153 	addscc	r0, r2, r3, asr r1
    1724:	3d000000 	stccc	0, cr0, [r0, #-0]
    1728:	39000014 	stmdbcc	r0, {r2, r4}
    172c:	12000014 	andne	r0, r0, #20
    1730:	00667562 	rsbeq	r7, r6, r2, ror #10
    1734:	08015501 	stmdaeq	r1, {r0, r8, sl, ip, lr}
    1738:	00001357 	andeq	r1, r0, r7, asr r3
    173c:	7fb09103 	svcvc	0x00b09103
    1740:	6e656c14 	mcrvs	12, 3, r6, cr5, cr4, {0}
    1744:	01560100 	cmpeq	r6, r0, lsl #2
    1748:	0000ee0a 	andeq	lr, r0, sl, lsl #28
    174c:	00148b00 	andseq	r8, r4, r0, lsl #22
    1750:	00145d00 	andseq	r5, r4, r0, lsl #26
    1754:	05ee1c00 	strbeq	r1, [lr, #3072]!	; 0xc00
    1758:	57010000 	strpl	r0, [r1, -r0]
    175c:	00290a01 	eoreq	r0, r9, r1, lsl #20
    1760:	15aa0000 	strne	r0, [sl, #0]!
    1764:	15a00000 	strne	r0, [r0, #0]!
    1768:	89130000 	ldmdbhi	r3, {}	; <UNPREDICTABLE>
    176c:	01000003 	tsteq	r0, r3
    1770:	7717015a 			; <UNDEFINED> instruction: 0x7717015a
    1774:	05000013 	streq	r0, [r0, #-19]	; 0xffffffed
    1778:	0033c803 	eorseq	ip, r3, r3, lsl #16
    177c:	043a1c10 	ldrteq	r1, [sl], #-3088	; 0xfffff3f0
    1780:	6f010000 	svcvs	0x00010000
    1784:	0b7d0801 	bleq	1f43790 <__ROM_SIZE+0x1ec3790>
    1788:	160c0000 	strne	r0, [ip], -r0
    178c:	16000000 	strne	r0, [r0], -r0
    1790:	e51c0000 	ldr	r0, [ip, #-0]
    1794:	01000003 	tsteq	r0, r3
    1798:	8507017f 	strhi	r0, [r7, #-383]	; 0xfffffe81
    179c:	69000000 	stmdbvs	r0, {}	; <UNPREDICTABLE>
    17a0:	5f000016 	svcpl	0x00000016
    17a4:	14000016 	strne	r0, [r0], #-22	; 0xffffffea
    17a8:	00706d74 	rsbseq	r6, r0, r4, ror sp
    17ac:	0a018001 	beq	617b8 <__RAM_SIZE+0x417b8>
    17b0:	00000029 	andeq	r0, r0, r9, lsr #32
    17b4:	000016ac 	andeq	r1, r0, ip, lsr #13
    17b8:	000016a8 	andeq	r1, r0, r8, lsr #13
    17bc:	0004041c 	andeq	r0, r4, ip, lsl r4
    17c0:	01810100 	orreq	r0, r1, r0, lsl #2
    17c4:	00005f11 	andeq	r5, r0, r1, lsl pc
    17c8:	0016dd00 	andseq	sp, r6, r0, lsl #26
    17cc:	0016d100 	andseq	sp, r6, r0, lsl #2
    17d0:	119a1d00 	orrsne	r1, sl, r0, lsl #26
    17d4:	11fa1000 	mvnsne	r1, r0
    17d8:	11341000 	teqne	r4, r0
    17dc:	b71c0000 	ldrlt	r0, [ip, -r0]
    17e0:	01000000 	mrseq	r0, (UNDEF: 0)
    17e4:	3012019c 	mulscc	r2, ip, r1
    17e8:	2c000000 	stccs	0, cr0, [r0], {-0}
    17ec:	28000017 	stmdacs	r0, {r0, r1, r2, r4}
    17f0:	00000017 	andeq	r0, r0, r7, lsl r0
    17f4:	000fa42b 	andeq	sl, pc, fp, lsr #8
    17f8:	001b1c10 	andseq	r1, fp, r0, lsl ip
    17fc:	0fb82b00 	svceq	0x00b82b00
    1800:	1b321000 	blne	c85808 <__ROM_SIZE+0xc05808>
    1804:	ca2b0000 	bgt	ac180c <__ROM_SIZE+0xa4180c>
    1808:	2710000f 	ldrcs	r0, [r0, -pc]
    180c:	2b00001b 	blcs	1880 <__HEAP_SIZE+0x880>
    1810:	10000fdc 	ldrdne	r0, [r0], -ip
    1814:	00001b27 	andeq	r1, r0, r7, lsr #22
    1818:	000fee2b 	andeq	lr, pc, fp, lsr #28
    181c:	001b3210 	andseq	r3, fp, r0, lsl r2
    1820:	0ffe2b00 	svceq	0x00fe2b00
    1824:	1b321000 	blne	c8582c <__ROM_SIZE+0xc0582c>
    1828:	46200000 	strtmi	r0, [r0], -r0
    182c:	91100010 	tstls	r0, r0, lsl r0
    1830:	b4000017 	strlt	r0, [r0], #-23	; 0xffffffe9
    1834:	16000011 			; <UNDEFINED> instruction: 0x16000011
    1838:	91045001 	tstls	r4, r1
    183c:	16067f9c 			; <UNDEFINED> instruction: 0x16067f9c
    1840:	91045101 	tstls	r4, r1, lsl #2
    1844:	16067fa8 	strne	r7, [r6], -r8, lsr #31
    1848:	7a025201 	bvc	96054 <__ROM_SIZE+0x16054>
    184c:	53011600 	movwpl	r1, #5632	; 0x1600
    1850:	16007b02 	strne	r7, [r0], -r2, lsl #22
    1854:	05007d02 	streq	r7, [r0, #-3330]	; 0xfffff2fe
    1858:	0033b803 	eorseq	fp, r3, r3, lsl #16
    185c:	7d021610 	stcvc	6, cr1, [r2, #-64]	; 0xffffffc0
    1860:	16330104 	ldrtne	r0, [r3], -r4, lsl #2
    1864:	03087d02 	movweq	r7, #36098	; 0x8d02
    1868:	16060c91 			; <UNDEFINED> instruction: 0x16060c91
    186c:	030c7d02 	movweq	r7, #52482	; 0xcd02
    1870:	00061091 	muleq	r6, r1, r0
    1874:	00106420 	andseq	r6, r0, r0, lsr #8
    1878:	00179110 	andseq	r9, r7, r0, lsl r1
    187c:	0011fe00 	andseq	pc, r1, r0, lsl #28
    1880:	50011600 	andpl	r1, r1, r0, lsl #12
    1884:	7f9c9104 	svcvc	0x009c9104
    1888:	51011606 	tstpl	r1, r6, lsl #12
    188c:	7fa89104 	svcvc	0x00a89104
    1890:	52011606 	andpl	r1, r1, #6291456	; 0x600000
    1894:	16007a02 	strne	r7, [r0], -r2, lsl #20
    1898:	7b025301 	blvc	964a4 <__ROM_SIZE+0x164a4>
    189c:	7d021600 	stcvc	6, cr1, [r2, #-0]
    18a0:	bc030500 	cfstr32lt	mvfx0, [r3], {-0}
    18a4:	16100033 			; <UNDEFINED> instruction: 0x16100033
    18a8:	01047d02 	tsteq	r4, r2, lsl #26
    18ac:	7d021634 	stcvc	6, cr1, [r2, #-208]	; 0xffffff30
    18b0:	0c910308 	ldceq	3, cr0, [r1], {8}
    18b4:	7d021606 	stcvc	6, cr1, [r2, #-24]	; 0xffffffe8
    18b8:	1091030c 	addsne	r0, r1, ip, lsl #6
    18bc:	8c200006 	stchi	0, cr0, [r0], #-24	; 0xffffffe8
    18c0:	91100010 	tstls	r0, r0, lsl r0
    18c4:	38000017 	stmdacc	r0, {r0, r1, r2, r4}
    18c8:	16000012 			; <UNDEFINED> instruction: 0x16000012
    18cc:	91045001 	tstls	r4, r1
    18d0:	16067f9c 			; <UNDEFINED> instruction: 0x16067f9c
    18d4:	91045101 	tstls	r4, r1, lsl #2
    18d8:	16067fa8 	strne	r7, [r6], -r8, lsr #31
    18dc:	7a025201 	bvc	960e8 <__ROM_SIZE+0x160e8>
    18e0:	53011600 	movwpl	r1, #5632	; 0x1600
    18e4:	16007b02 	strne	r7, [r0], -r2, lsl #22
    18e8:	03087d02 	movweq	r7, #36098	; 0x8d02
    18ec:	16060c91 			; <UNDEFINED> instruction: 0x16060c91
    18f0:	030c7d02 	movweq	r7, #52482	; 0xcd02
    18f4:	00061091 	muleq	r6, r1, r0
    18f8:	0010b020 	andseq	fp, r0, r0, lsr #32
    18fc:	000b8910 	andeq	r8, fp, r0, lsl r9
    1900:	00128100 	andseq	r8, r2, r0, lsl #2
    1904:	50011600 	andpl	r1, r1, r0, lsl #12
    1908:	7f9c9104 	svcvc	0x009c9104
    190c:	51011606 	tstpl	r1, r6, lsl #12
    1910:	7fa89104 	svcvc	0x00a89104
    1914:	52011606 	andpl	r1, r1, #6291456	; 0x600000
    1918:	16007a02 	strne	r7, [r0], -r2, lsl #20
    191c:	7b025301 	blvc	96528 <__ROM_SIZE+0x16528>
    1920:	7d021600 	stcvc	6, cr1, [r2, #-0]
    1924:	08f50300 	ldmeq	r5!, {r8, r9}^
    1928:	7d021629 	stcvc	6, cr1, [r2, #-164]	; 0xffffff5c
    192c:	00750208 	rsbseq	r0, r5, r8, lsl #4
    1930:	0c7d0216 	lfmeq	f0, 2, [sp], #-88	; 0xffffffa8
    1934:	060c9103 	streq	r9, [ip], -r3, lsl #2
    1938:	107d0216 	rsbsne	r0, sp, r6, lsl r2
    193c:	06109103 	ldreq	r9, [r0], -r3, lsl #2
    1940:	10be2b00 	adcsne	r2, lr, r0, lsl #22
    1944:	1b5e1000 	blne	178594c <__ROM_SIZE+0x170594c>
    1948:	d42b0000 	strtle	r0, [fp], #-0
    194c:	69100010 	ldmdbvs	r0, {r4}
    1950:	2b00001b 	blcs	19c4 <__HEAP_SIZE+0x9c4>
    1954:	100010da 	ldrdne	r1, [r0], -sl
    1958:	00001b3d 	andeq	r1, r0, sp, lsr fp
    195c:	0010e62b 	andseq	lr, r0, fp, lsr #12
    1960:	001b5e10 	andseq	r5, fp, r0, lsl lr
    1964:	10f82b00 	rscsne	r2, r8, r0, lsl #22
    1968:	1b481000 	blne	1205970 <__ROM_SIZE+0x1185970>
    196c:	042b0000 	strteq	r0, [fp], #-0
    1970:	8a100011 	bhi	4019bc <__ROM_SIZE+0x3819bc>
    1974:	2b00001b 	blcs	19e8 <__HEAP_SIZE+0x9e8>
    1978:	1000110a 	andne	r1, r0, sl, lsl #2
    197c:	00001b95 	muleq	r0, r5, fp
    1980:	0011162b 	andseq	r1, r1, fp, lsr #12
    1984:	001b5e10 	andseq	r5, fp, r0, lsl lr
    1988:	11262b00 			; <UNDEFINED> instruction: 0x11262b00
    198c:	1b271000 	blne	9c5994 <__ROM_SIZE+0x945994>
    1990:	302b0000 	eorcc	r0, fp, r0
    1994:	95100011 	ldrls	r0, [r0, #-17]	; 0xffffffef
    1998:	2b00001b 	blcs	1a0c <__HEAP_SIZE+0xa0c>
    199c:	1000113c 	andne	r1, r0, ip, lsr r1
    19a0:	00001ba0 	andeq	r1, r0, r0, lsr #23
    19a4:	00114a2b 	andseq	r4, r1, fp, lsr #20
    19a8:	001b3d10 	andseq	r3, fp, r0, lsl sp
    19ac:	11562b00 	cmpne	r6, r0, lsl #22
    19b0:	1b5e1000 	blne	17859b8 <__ROM_SIZE+0x17059b8>
    19b4:	622b0000 	eorvs	r0, fp, #0
    19b8:	32100011 	andscc	r0, r0, #17
    19bc:	2b00001b 	blcs	1a30 <__HEAP_SIZE+0xa30>
    19c0:	10001170 	andne	r1, r0, r0, ror r1
    19c4:	00001b27 	andeq	r1, r0, r7, lsr #22
    19c8:	00118a2b 	andseq	r8, r1, fp, lsr #20
    19cc:	001b3210 	andseq	r3, fp, r0, lsl r2
    19d0:	12a21500 	adcne	r1, r2, #0, 10
    19d4:	17911000 	ldrne	r1, [r1, r0]
    19d8:	01160000 	tsteq	r6, r0
    19dc:	9c910450 	cfldrsls	mvf0, [r1], {80}	; 0x50
    19e0:	0116067f 	tsteq	r6, pc, ror r6
    19e4:	a8910451 	ldmge	r1, {r0, r4, r6, sl}
    19e8:	0116067f 	tsteq	r6, pc, ror r6
    19ec:	007a0252 	rsbseq	r0, sl, r2, asr r2
    19f0:	02530116 	subseq	r0, r3, #-2147483643	; 0x80000005
    19f4:	0216007b 	andseq	r0, r6, #123	; 0x7b
    19f8:	9103007d 	tstls	r3, sp, ror r0
    19fc:	02167fb0 	andseq	r7, r6, #176, 30	; 0x2c0
    1a00:	7402047d 	strvc	r0, [r2], #-1149	; 0xfffffb83
    1a04:	7d021600 	stcvc	6, cr1, [r2, #-0]
    1a08:	0c910308 	ldceq	3, cr0, [r1], {8}
    1a0c:	7d021606 	stcvc	6, cr1, [r2, #-24]	; 0xffffffe8
    1a10:	1091030c 	addsne	r0, r1, ip, lsl #6
    1a14:	18000006 	stmdane	r0, {r1, r2}
    1a18:	00000133 	andeq	r0, r0, r3, lsr r1
    1a1c:	00001367 	andeq	r1, r0, r7, ror #6
    1a20:	00003019 	andeq	r3, r0, r9, lsl r0
    1a24:	18001f00 	stmdane	r0, {r8, r9, sl, fp, ip}
    1a28:	00000fa3 	andeq	r0, r0, r3, lsr #31
    1a2c:	00001377 	andeq	r1, r0, r7, ror r3
    1a30:	00003019 	andeq	r3, r0, r9, lsl r0
    1a34:	03000900 	movweq	r0, #2304	; 0x900
    1a38:	00001367 	andeq	r1, r0, r7, ror #6
    1a3c:	0005c91a 	andeq	ip, r5, sl, lsl r9
    1a40:	01320100 	teqeq	r2, r0, lsl #2
    1a44:	00ee010f 	rsceq	r0, lr, pc, lsl #2
    1a48:	0ac40000 	beq	ff101a50 <__StackTop+0xc70e1a50>
    1a4c:	0b8a1000 	bleq	fe285a54 <__StackTop+0xc6265a54>
    1a50:	174a1000 	strbne	r1, [sl, -r0]
    1a54:	0f010000 	svceq	0x00010000
    1a58:	0f000015 	svceq	0x00000015
    1a5c:	0074756f 	rsbseq	r7, r4, pc, ror #10
    1a60:	2c013201 	sfmcs	f3, 4, [r1], {1}
    1a64:	00000106 	andeq	r0, r0, r6, lsl #2
    1a68:	0000178b 	andeq	r1, r0, fp, lsl #15
    1a6c:	00001783 	andeq	r1, r0, r3, lsl #15
    1a70:	0003fd17 	andeq	pc, r3, r7, lsl sp	; <UNPREDICTABLE>
    1a74:	01320100 	teqeq	r2, r0, lsl #2
    1a78:	0002ee37 	andeq	lr, r2, r7, lsr lr
    1a7c:	0017cb00 	andseq	ip, r7, r0, lsl #22
    1a80:	0017c300 	andseq	ip, r7, r0, lsl #6
    1a84:	64690f00 	strbtvs	r0, [r9], #-3840	; 0xfffff100
    1a88:	32010078 	andcc	r0, r1, #120	; 0x78
    1a8c:	00ee4601 	rsceq	r4, lr, r1, lsl #12
    1a90:	180b0000 	stmdane	fp, {}	; <UNPREDICTABLE>
    1a94:	18030000 	stmdane	r3, {}	; <UNPREDICTABLE>
    1a98:	e8170000 	ldmda	r7, {}	; <UNPREDICTABLE>
    1a9c:	01000004 	tsteq	r0, r4
    1aa0:	ee520132 	mrc	1, 2, r0, cr2, cr2, {1}
    1aa4:	47000000 	strmi	r0, [r0, -r0]
    1aa8:	43000018 	movwmi	r0, #24
    1aac:	17000018 	smladne	r0, r8, r0, r0
    1ab0:	00000409 	andeq	r0, r0, r9, lsl #8
    1ab4:	6d013201 	sfmvs	f3, 4, [r1, #-4]
    1ab8:	0000007e 	andeq	r0, r0, lr, ror r0
    1abc:	0000186f 	andeq	r1, r0, pc, ror #16
    1ac0:	00001865 	andeq	r1, r0, r5, ror #16
    1ac4:	00043a10 	andeq	r3, r4, r0, lsl sl
    1ac8:	01320100 	teqeq	r2, r0, lsl #2
    1acc:	000b7d79 	andeq	r7, fp, r9, ror sp
    1ad0:	08910200 	ldmeq	r1, {r9}
    1ad4:	0005df10 	andeq	sp, r5, r0, lsl pc
    1ad8:	01320100 	teqeq	r2, r0, lsl #2
    1adc:	00007e96 	muleq	r0, r6, lr
    1ae0:	10910200 	addsne	r0, r1, r0, lsl #4
    1ae4:	00059f10 	andeq	r9, r5, r0, lsl pc
    1ae8:	01320100 	teqeq	r2, r0, lsl #2
    1aec:	000030a9 	andeq	r3, r0, r9, lsr #1
    1af0:	18910200 	ldmne	r1, {r9}
    1af4:	0005a510 	andeq	sl, r5, r0, lsl r5
    1af8:	01320100 	teqeq	r2, r0, lsl #2
    1afc:	000030bc 	strheq	r3, [r0], -ip
    1b00:	1c910200 	lfmne	f0, 4, [r1], {0}
    1b04:	0004d317 	andeq	sp, r4, r7, lsl r3
    1b08:	01320100 	teqeq	r2, r0, lsl #2
    1b0c:	000030d0 	ldrdeq	r3, [r0], -r0
    1b10:	0018c300 	andseq	ip, r8, r0, lsl #6
    1b14:	0018bf00 	andseq	fp, r8, r0, lsl #30
    1b18:	75621200 	strbvc	r1, [r2, #-512]!	; 0xfffffe00
    1b1c:	34010066 	strcc	r0, [r1], #-102	; 0xffffff9a
    1b20:	13570801 	cmpne	r7, #65536	; 0x10000
    1b24:	91030000 	mrsls	r0, (UNDEF: 3)
    1b28:	6c147fb8 	ldcvs	15, cr7, [r4], {184}	; 0xb8
    1b2c:	01006e65 	tsteq	r0, r5, ror #28
    1b30:	ee0a0135 	mcr	1, 0, r0, cr10, cr5, {1}
    1b34:	ee000000 	cdp	0, 0, cr0, cr0, cr0, {0}
    1b38:	e2000018 	and	r0, r0, #24
    1b3c:	1e000018 	mcrne	0, 0, r0, cr0, cr8, {0}
    1b40:	00000078 	andeq	r0, r0, r8, ror r0
    1b44:	000014b0 			; <UNDEFINED> instruction: 0x000014b0
    1b48:	0005271c 	andeq	r2, r5, ip, lsl r7
    1b4c:	013f0100 	teqeq	pc, r0, lsl #2
    1b50:	00013a12 	andeq	r3, r1, r2, lsl sl
    1b54:	00193e00 	andseq	r3, r9, r0, lsl #28
    1b58:	00193a00 	andseq	r3, r9, r0, lsl #20
    1b5c:	0b1c2b00 	bleq	70c764 <__ROM_SIZE+0x68c764>
    1b60:	1bab1000 	blne	feac5b68 <__StackTop+0xc6aa5b68>
    1b64:	3c2b0000 	stccc	0, cr0, [fp], #-0
    1b68:	ab10000b 	blge	401b9c <__ROM_SIZE+0x381b9c>
    1b6c:	0000001b 	andeq	r0, r0, fp, lsl r0
    1b70:	000b8415 	andeq	r8, fp, r5, lsl r4
    1b74:	00167010 	andseq	r7, r6, r0, lsl r0
    1b78:	50011600 	andpl	r1, r1, r0, lsl #12
    1b7c:	7fac9104 	svcvc	0x00ac9104
    1b80:	51011606 	tstpl	r1, r6, lsl #12
    1b84:	7fb09104 	svcvc	0x00b09104
    1b88:	52011606 	andpl	r1, r1, #6291456	; 0x600000
    1b8c:	7fb49104 	svcvc	0x00b49104
    1b90:	53011606 	movwpl	r1, #5638	; 0x1606
    1b94:	16007b02 	strne	r7, [r0], -r2, lsl #22
    1b98:	03007d02 	movweq	r7, #3330	; 0xd02
    1b9c:	167fb891 			; <UNDEFINED> instruction: 0x167fb891
    1ba0:	02047d02 	andeq	r7, r4, #2, 26	; 0x80
    1ba4:	02160079 	andseq	r0, r6, #121	; 0x79
    1ba8:	9104087d 	tstls	r4, sp, ror r8
    1bac:	16019408 	strne	r9, [r1], -r8, lsl #8
    1bb0:	020c7d02 	andeq	r7, ip, #2, 26	; 0x80
    1bb4:	02160077 	andseq	r0, r6, #119	; 0x77
    1bb8:	9103107d 	tstls	r3, sp, ror r0
    1bbc:	02160618 	andseq	r0, r6, #24, 12	; 0x1800000
    1bc0:	9103147d 	tstls	r3, sp, ror r4
    1bc4:	0216061c 	andseq	r0, r6, #28, 12	; 0x1c00000
    1bc8:	7a02187d 	bvc	87dc4 <__ROM_SIZE+0x7dc4>
    1bcc:	1a000000 	bne	1bd4 <__HEAP_SIZE+0xbd4>
    1bd0:	000004b3 			; <UNDEFINED> instruction: 0x000004b3
    1bd4:	0f011901 	svceq	0x00011901
    1bd8:	0000ee01 	andeq	lr, r0, r1, lsl #28
    1bdc:	000a3000 	andeq	r3, sl, r0
    1be0:	000ac410 	andeq	ip, sl, r0, lsl r4
    1be4:	00195c10 	andseq	r5, r9, r0, lsl ip
    1be8:	16700100 	ldrbtne	r0, [r0], -r0, lsl #2
    1bec:	6f0f0000 	svcvs	0x000f0000
    1bf0:	01007475 	tsteq	r0, r5, ror r4
    1bf4:	06270119 			; <UNDEFINED> instruction: 0x06270119
    1bf8:	99000001 	stmdbls	r0, {r0}
    1bfc:	95000019 	strls	r0, [r0, #-25]	; 0xffffffe7
    1c00:	17000019 	smladne	r0, r9, r0, r0
    1c04:	000003fd 	strdeq	r0, [r0], -sp
    1c08:	32011901 	andcc	r1, r1, #16384	; 0x4000
    1c0c:	000002ee 	andeq	r0, r0, lr, ror #5
    1c10:	000019be 			; <UNDEFINED> instruction: 0x000019be
    1c14:	000019ba 			; <UNDEFINED> instruction: 0x000019ba
    1c18:	7864690f 	stmdavc	r4!, {r0, r1, r2, r3, r8, fp, sp, lr}^
    1c1c:	01190100 	tsteq	r9, r0, lsl #2
    1c20:	0000ee41 	andeq	lr, r0, r1, asr #28
    1c24:	0019e300 	andseq	lr, r9, r0, lsl #6
    1c28:	0019df00 	andseq	sp, r9, r0, lsl #30
    1c2c:	04e81700 	strbteq	r1, [r8], #1792	; 0x700
    1c30:	19010000 	stmdbne	r1, {}	; <UNPREDICTABLE>
    1c34:	00ee4d01 	rsceq	r4, lr, r1, lsl #26
    1c38:	1a080000 	bne	201c40 <__ROM_SIZE+0x181c40>
    1c3c:	1a040000 	bne	101c44 <__ROM_SIZE+0x81c44>
    1c40:	09170000 	ldmdbeq	r7, {}	; <UNPREDICTABLE>
    1c44:	01000004 	tsteq	r0, r4
    1c48:	5f630119 	svcpl	0x00630119
    1c4c:	33000000 	movwcc	r0, #0
    1c50:	2900001a 	stmdbcs	r0, {r1, r3, r4}
    1c54:	1000001a 	andne	r0, r0, sl, lsl r0
    1c58:	0000043a 	andeq	r0, r0, sl, lsr r4
    1c5c:	6f011901 	svcvs	0x00011901
    1c60:	00000b7d 	andeq	r0, r0, sp, ror fp
    1c64:	10049102 	andne	r9, r4, r2, lsl #2
    1c68:	000005df 	ldrdeq	r0, [r0], -pc	; <UNPREDICTABLE>
    1c6c:	87011901 	strhi	r1, [r1, -r1, lsl #18]
    1c70:	0000005f 	andeq	r0, r0, pc, asr r0
    1c74:	10089102 	andne	r9, r8, r2, lsl #2
    1c78:	0000059f 	muleq	r0, pc, r5	; <UNPREDICTABLE>
    1c7c:	9a011901 	bls	48088 <__RAM_SIZE+0x28088>
    1c80:	00000030 	andeq	r0, r0, r0, lsr r0
    1c84:	100c9102 	andne	r9, ip, r2, lsl #2
    1c88:	000005a5 	andeq	r0, r0, r5, lsr #11
    1c8c:	ad011901 	vstrge.16	s2, [r1, #-2]	; <UNPREDICTABLE>
    1c90:	00000030 	andeq	r0, r0, r0, lsr r0
    1c94:	17109102 	ldrne	r9, [r0, -r2, lsl #2]
    1c98:	000004d3 	ldrdeq	r0, [r0], -r3
    1c9c:	c1011901 	tstgt	r1, r1, lsl #18
    1ca0:	00000030 	andeq	r0, r0, r0, lsr r0
    1ca4:	00001a78 	andeq	r1, r0, r8, ror sl
    1ca8:	00001a74 	andeq	r1, r0, r4, ror sl
    1cac:	66756212 			; <UNDEFINED> instruction: 0x66756212
    1cb0:	011b0100 	tsteq	fp, r0, lsl #2
    1cb4:	00135708 	andseq	r5, r3, r8, lsl #14
    1cb8:	48910200 	ldmmi	r1, {r9}
    1cbc:	6e656c14 	mcrvs	12, 3, r6, cr5, cr4, {0}
    1cc0:	011c0100 	tsteq	ip, r0, lsl #2
    1cc4:	0000ee0a 	andeq	lr, r0, sl, lsl #28
    1cc8:	001aa300 	andseq	sl, sl, r0, lsl #6
    1ccc:	001a9700 	andseq	r9, sl, r0, lsl #14
    1cd0:	00581e00 	subseq	r1, r8, r0, lsl #28
    1cd4:	16300000 	ldrtne	r0, [r0], -r0
    1cd8:	271c0000 	ldrcs	r0, [ip, -r0]
    1cdc:	01000005 	tsteq	r0, r5
    1ce0:	3a120126 	bcc	482180 <__ROM_SIZE+0x402180>
    1ce4:	fb000001 	blx	1cf2 <__HEAP_SIZE+0xcf2>
    1ce8:	ef00001a 	svc	0x0000001a
    1cec:	0000001a 	andeq	r0, r0, sl, lsl r0
    1cf0:	000ac015 	andeq	ip, sl, r5, lsl r0
    1cf4:	00167010 	andseq	r7, r6, r0, lsl r0
    1cf8:	7d021600 	stcvc	6, cr1, [r2, #-0]
    1cfc:	00740200 	rsbseq	r0, r4, r0, lsl #4
    1d00:	047d0216 	ldrbteq	r0, [sp], #-534	; 0xfffffdea
    1d04:	16007702 	strne	r7, [r0], -r2, lsl #14
    1d08:	04087d02 	streq	r7, [r8], #-3330	; 0xfffff2fe
    1d0c:	01940491 			; <UNDEFINED> instruction: 0x01940491
    1d10:	0c7d0216 	lfmeq	f0, 2, [sp], #-88	; 0xffffffa8
    1d14:	16007502 	strne	r7, [r0], -r2, lsl #10
    1d18:	03107d02 	tsteq	r0, #2, 26	; 0x80
    1d1c:	16060c91 			; <UNDEFINED> instruction: 0x16060c91
    1d20:	03147d02 	tsteq	r4, #2, 26	; 0x80
    1d24:	16061091 			; <UNDEFINED> instruction: 0x16061091
    1d28:	02187d02 	andseq	r7, r8, #2, 26	; 0x80
    1d2c:	00000076 	andeq	r0, r0, r6, ror r0
    1d30:	00046f2c 	andeq	r6, r4, ip, lsr #30
    1d34:	0fe30100 	svceq	0x00e30100
    1d38:	0000ee01 	andeq	lr, r0, r1, lsl #28
    1d3c:	0008f800 	andeq	pc, r8, r0, lsl #16
    1d40:	000a3010 	andeq	r3, sl, r0, lsl r0
    1d44:	001b6910 	andseq	r6, fp, r0, lsl r9
    1d48:	17910100 	ldrne	r0, [r1, r0, lsl #2]
    1d4c:	6f2d0000 	svcvs	0x002d0000
    1d50:	01007475 	tsteq	r0, r5, ror r4
    1d54:	010629e3 	smlatteq	r6, r3, r9, r2
    1d58:	1bb30000 	blne	fecc1d60 <__StackTop+0xc6ca1d60>
    1d5c:	1bad0000 	blne	feb41d64 <__StackTop+0xc6b21d64>
    1d60:	fd2e0000 	stc2	0, cr0, [lr, #-0]
    1d64:	01000003 	tsteq	r0, r3
    1d68:	02ee34e3 	rsceq	r3, lr, #-486539264	; 0xe3000000
    1d6c:	1be50000 	blne	ff941d74 <__StackTop+0xc7921d74>
    1d70:	1bdf0000 	blne	ff7c1d78 <__StackTop+0xc77a1d78>
    1d74:	692d0000 	pushvs	{}	; <UNPREDICTABLE>
    1d78:	01007864 	tsteq	r0, r4, ror #16
    1d7c:	00ee43e3 	rsceq	r4, lr, r3, ror #7
    1d80:	1c170000 	ldcne	0, cr0, [r7], {-0}
    1d84:	1c110000 	ldcne	0, cr0, [r1], {-0}
    1d88:	e82e0000 	stmda	lr!, {}	; <UNPREDICTABLE>
    1d8c:	01000004 	tsteq	r0, r4
    1d90:	00ee4fe3 	rsceq	r4, lr, r3, ror #31
    1d94:	1c490000 	marne	acc0, r0, r9
    1d98:	1c430000 	marne	acc0, r0, r3
    1d9c:	622d0000 	eorvs	r0, sp, #0
    1da0:	01006675 	tsteq	r0, r5, ror r6
    1da4:	02ee5de3 	rsceq	r5, lr, #14528	; 0x38c0
    1da8:	1c790000 	ldclne	0, cr0, [r9], #-0
    1dac:	1c750000 	ldclne	0, cr0, [r5], #-0
    1db0:	6c2d0000 	stcvs	0, cr0, [sp], #-0
    1db4:	01006e65 	tsteq	r0, r5, ror #28
    1db8:	00ee69e3 	rsceq	r6, lr, r3, ror #19
    1dbc:	1ccb0000 	stclne	0, cr0, [fp], {0}
    1dc0:	1c990000 	ldcne	0, cr0, [r9], {0}
    1dc4:	3a2e0000 	bcc	b81dcc <__ROM_SIZE+0xb01dcc>
    1dc8:	01000004 	tsteq	r0, r4
    1dcc:	0b7d73e3 	bleq	1f5ed60 <__ROM_SIZE+0x1eded60>
    1dd0:	1dff0000 	ldclne	0, cr0, [pc]	; 1dd8 <__HEAP_SIZE+0xdd8>
    1dd4:	1dfb0000 	ldclne	0, cr0, [fp]
    1dd8:	df2e0000 	svcle	0x002e0000
    1ddc:	01000005 	tsteq	r0, r5
    1de0:	00308ae3 	eorseq	r8, r0, r3, ror #21
    1de4:	1e230000 	cdpne	0, 2, cr0, cr3, cr0, {0}
    1de8:	1e1f0000 	cdpne	0, 1, cr0, cr15, cr0, {0}
    1dec:	9f2e0000 	svcls	0x002e0000
    1df0:	01000005 	tsteq	r0, r5
    1df4:	00309de3 	eorseq	r9, r0, r3, ror #27
    1df8:	1e470000 	cdpne	0, 4, cr0, cr7, cr0, {0}
    1dfc:	1e430000 	cdpne	0, 4, cr0, cr3, cr0, {0}
    1e00:	a52e0000 	strge	r0, [lr, #-0]!
    1e04:	01000005 	tsteq	r0, r5
    1e08:	0030b0e3 	eorseq	fp, r0, r3, ror #1
    1e0c:	1e6b0000 	cdpne	0, 6, cr0, cr11, cr0, {0}
    1e10:	1e670000 	cdpne	0, 6, cr0, cr7, cr0, {0}
    1e14:	d32e0000 			; <UNDEFINED> instruction: 0xd32e0000
    1e18:	01000004 	tsteq	r0, r4
    1e1c:	0030c4e3 	eorseq	ip, r0, r3, ror #9
    1e20:	1e8e0000 	cdpne	0, 8, cr0, cr14, cr0, {0}
    1e24:	1e8a0000 	cdpne	0, 8, cr0, cr10, cr0, {0}
    1e28:	b2150000 	andslt	r0, r5, #0
    1e2c:	91100009 	tstls	r0, r9
    1e30:	16000017 			; <UNDEFINED> instruction: 0x16000017
    1e34:	02007d02 	andeq	r7, r0, #2, 26	; 0x80
    1e38:	02160075 	andseq	r0, r6, #117	; 0x75
    1e3c:	7402047d 	strvc	r0, [r2], #-1149	; 0xfffffb83
    1e40:	7d021600 	stcvc	6, cr1, [r2, #-0]
    1e44:	00770208 	rsbseq	r0, r7, r8, lsl #4
    1e48:	0c7d0216 	lfmeq	f0, 2, [sp], #-88	; 0xffffffa8
    1e4c:	00007602 	andeq	r7, r0, r2, lsl #12
    1e50:	05572c00 	ldrbeq	r2, [r7, #-3072]	; 0xfffff400
    1e54:	c7010000 	strgt	r0, [r1, -r0]
    1e58:	00ee010f 	rsceq	r0, lr, pc, lsl #2
    1e5c:	087a0000 	ldmdaeq	sl!, {}^	; <UNPREDICTABLE>
    1e60:	08f81000 	ldmeq	r8!, {ip}^
    1e64:	1eae1000 	cdpne	0, 10, cr1, cr14, cr0, {0}
    1e68:	d8010000 	stmdale	r1, {}	; <UNPREDICTABLE>
    1e6c:	2d000018 	stccs	0, cr0, [r0, #-96]	; 0xffffffa0
    1e70:	0074756f 	rsbseq	r7, r4, pc, ror #10
    1e74:	0625c701 	strteq	ip, [r5], -r1, lsl #14
    1e78:	f6000001 			; <UNDEFINED> instruction: 0xf6000001
    1e7c:	f200001e 	vqadd.s8	d0, d0, d14
    1e80:	2e00001e 	mcrcs	0, 0, r0, cr0, cr14, {0}
    1e84:	000003fd 	strdeq	r0, [r0], -sp
    1e88:	ee30c701 	cdp	7, 3, cr12, cr0, cr1, {0}
    1e8c:	18000002 	stmdane	r0, {r1}
    1e90:	1400001f 	strne	r0, [r0], #-31	; 0xffffffe1
    1e94:	2d00001f 	stccs	0, cr0, [r0, #-124]	; 0xffffff84
    1e98:	00786469 	rsbseq	r6, r8, r9, ror #8
    1e9c:	ee3fc701 	cdp	7, 3, cr12, cr15, cr1, {0}
    1ea0:	42000000 	andmi	r0, r0, #0
    1ea4:	3600001f 			; <UNDEFINED> instruction: 0x3600001f
    1ea8:	2e00001f 	mcrcs	0, 0, r0, cr0, cr15, {0}
    1eac:	000004e8 	andeq	r0, r0, r8, ror #9
    1eb0:	ee4bc701 	cdp	7, 4, cr12, cr11, cr1, {0}
    1eb4:	90000000 	andls	r0, r0, r0
    1eb8:	8c00001f 	stchi	0, cr0, [r0], {31}
    1ebc:	2d00001f 	stccs	0, cr0, [r0, #-124]	; 0xffffff84
    1ec0:	00667562 	rsbeq	r7, r6, r2, ror #10
    1ec4:	4c5fc701 	mrrcmi	7, 0, ip, pc, cr1	; <UNPREDICTABLE>
    1ec8:	b2000002 	andlt	r0, r0, #2
    1ecc:	ae00001f 	mcrge	0, 0, r0, cr0, cr15, {0}
    1ed0:	2d00001f 	stccs	0, cr0, [r0, #-124]	; 0xffffff84
    1ed4:	006e656c 	rsbeq	r6, lr, ip, ror #10
    1ed8:	ee6bc701 	cdp	7, 6, cr12, cr11, cr1, {0}
    1edc:	d6000000 	strle	r0, [r0], -r0
    1ee0:	d200001f 	andle	r0, r0, #31
    1ee4:	2e00001f 	mcrcs	0, 0, r0, cr0, cr15, {0}
    1ee8:	000005a5 	andeq	r0, r0, r5, lsr #11
    1eec:	307dc701 	rsbscc	ip, sp, r1, lsl #14
    1ef0:	f9000000 			; <UNDEFINED> instruction: 0xf9000000
    1ef4:	f500001f 			; <UNDEFINED> instruction: 0xf500001f
    1ef8:	2e00001f 	mcrcs	0, 0, r0, cr0, cr15, {0}
    1efc:	000004d3 	ldrdeq	r0, [r0], -r3
    1f00:	3091c701 	addscc	ip, r1, r1, lsl #14
    1f04:	1d000000 	stcne	0, cr0, [r0, #-0]
    1f08:	19000020 	stmdbne	r0, {r5}
    1f0c:	2f000020 	svccs	0x00000020
    1f10:	00000426 	andeq	r0, r0, r6, lsr #8
    1f14:	fa10c901 	blx	434320 <__ROM_SIZE+0x3b4320>
    1f18:	43000000 	movwmi	r0, #0
    1f1c:	3d000020 	stccc	0, cr0, [r0, #-128]	; 0xffffff80
    1f20:	1e000020 	cdpne	0, 0, cr0, cr0, cr0, {1}
    1f24:	00000040 	andeq	r0, r0, r0, asr #32
    1f28:	0000189d 	muleq	r0, sp, r8
    1f2c:	01006930 	tsteq	r0, r0, lsr r9
    1f30:	00ee11cd 	rsceq	r1, lr, sp, asr #3
    1f34:	20720000 	rsbscs	r0, r2, r0
    1f38:	20700000 	rsbscs	r0, r0, r0
    1f3c:	ae220000 	cdpge	0, 2, cr0, cr2, cr0, {0}
    1f40:	16100008 	ldrne	r0, [r0], -r8
    1f44:	08025001 	stmdaeq	r2, {r0, ip, lr}
    1f48:	51011620 	tstpl	r1, r0, lsr #12
    1f4c:	16007602 	strne	r7, [r0], -r2, lsl #12
    1f50:	7b025201 	blvc	9675c <__ROM_SIZE+0x1675c>
    1f54:	5301167f 	movwpl	r1, #5759	; 0x167f
    1f58:	00007702 	andeq	r7, r0, r2, lsl #14
    1f5c:	08cc2100 	stmiaeq	ip, {r8, sp}^
    1f60:	18b91000 	ldmne	r9!, {ip}
    1f64:	01160000 	tsteq	r6, r0
    1f68:	00760251 	rsbseq	r0, r6, r1, asr r2
    1f6c:	02520116 	subseq	r0, r2, #-2147483643	; 0x80000005
    1f70:	01167f78 	tsteq	r6, r8, ror pc
    1f74:	00770253 	rsbseq	r0, r7, r3, asr r2
    1f78:	08f42200 	ldmeq	r4!, {r9, sp}^
    1f7c:	01161000 	tsteq	r6, r0
    1f80:	20080250 	andcs	r0, r8, r0, asr r2
    1f84:	02510116 	subseq	r0, r1, #-2147483643	; 0x80000005
    1f88:	01160076 	tsteq	r6, r6, ror r0
    1f8c:	7f740252 	svcvc	0x00740252
    1f90:	02530116 	subseq	r0, r3, #-2147483643	; 0x80000005
    1f94:	00000077 	andeq	r0, r0, r7, ror r0
    1f98:	0004ef31 	andeq	lr, r4, r1, lsr pc
    1f9c:	15bc0100 	ldrne	r0, [ip, #256]!	; 0x100
    1fa0:	00003001 	andeq	r3, r0, r1
    1fa4:	00085600 	andeq	r5, r8, r0, lsl #12
    1fa8:	00087a10 	andeq	r7, r8, r0, lsl sl
    1fac:	007d0210 	rsbseq	r0, sp, r0, lsl r2
    1fb0:	00194001 	andseq	r4, r9, r1
    1fb4:	74732d00 	ldrbtvc	r2, [r3], #-3328	; 0xfffff300
    1fb8:	bc010072 	stclt	0, cr0, [r1], {114}	; 0x72
    1fbc:	00194028 	andseq	r4, r9, r8, lsr #32
    1fc0:	00208900 	eoreq	r8, r0, r0, lsl #18
    1fc4:	00208500 	eoreq	r8, r0, r0, lsl #10
    1fc8:	00693000 	rsbeq	r3, r9, r0
    1fcc:	3010be01 	andscc	fp, r0, r1, lsl #28
    1fd0:	ad000000 	stcge	0, cr0, [r0, #-0]
    1fd4:	a7000020 	strge	r0, [r0, -r0, lsr #32]
    1fd8:	32000020 	andcc	r0, r0, #32
    1fdc:	00001946 	andeq	r1, r0, r6, asr #18
    1fe0:	10000870 	andne	r0, r0, r0, ror r8
    1fe4:	08700000 	ldmdaeq	r0!, {}^	; <UNPREDICTABLE>
    1fe8:	08741000 	ldmdaeq	r4!, {ip}^
    1fec:	bf011000 	svclt	0x00011000
    1ff0:	1958240a 	ldmdbne	r8, {r1, r3, sl, sp}^
    1ff4:	20db0000 	sbcscs	r0, fp, r0
    1ff8:	20d70000 	sbcscs	r0, r7, r0
    1ffc:	00000000 	andeq	r0, r0, r0
    2000:	024c0409 	subeq	r0, ip, #150994944	; 0x9000000
    2004:	23330000 	teqcs	r3, #0
    2008:	01000005 	tsteq	r0, r5
    200c:	7d0114b5 	cfstrsvc	mvf1, [r1, #-724]	; 0xfffffd2c
    2010:	0300000b 	movweq	r0, #11
    2014:	00001964 	andeq	r1, r0, r4, ror #18
    2018:	00686334 	rsbeq	r6, r8, r4, lsr r3
    201c:	3323b501 			; <UNDEFINED> instruction: 0x3323b501
    2020:	00000001 	andeq	r0, r0, r1
    2024:	0004f533 	andeq	pc, r4, r3, lsr r5	; <UNPREDICTABLE>
    2028:	1cab0100 	stfnes	f0, [fp]
    202c:	00003001 	andeq	r3, r0, r1
    2030:	19990300 	ldmibne	r9, {r8, r9}
    2034:	73340000 	teqvc	r4, #0
    2038:	01007274 	tsteq	r0, r4, ror r2
    203c:	024c33ab 	subeq	r3, ip, #-1409286142	; 0xac000002
    2040:	dd350000 	ldcle	0, cr0, [r5, #-0]
    2044:	01000003 	tsteq	r0, r3
    2048:	00ee3fab 	rsceq	r3, lr, fp, lsr #31
    204c:	73360000 	teqvc	r6, #0
    2050:	0fad0100 	svceq	0x00ad0100
    2054:	0000024c 	andeq	r0, r0, ip, asr #4
    2058:	040f3700 	streq	r3, [pc], #-1792	; 2060 <__HEAP_SIZE+0x1060>
    205c:	9f010000 	svcls	0x00010000
    2060:	00000114 	andeq	r0, r0, r4, lsl r1
    2064:	00000000 	andeq	r0, r0, r0
    2068:	20fb0000 	rscscs	r0, fp, r0
    206c:	04010000 	streq	r0, [r1], #-0
    2070:	2e00001a 	mcrcs	0, 0, r0, cr0, cr10, {0}
    2074:	0000054d 	andeq	r0, r0, sp, asr #10
    2078:	33229f01 			; <UNDEFINED> instruction: 0x33229f01
    207c:	2d000001 	stccs	0, cr0, [r0, #-4]
    2080:	27000021 	strcs	r0, [r0, -r1, lsr #32]
    2084:	2e000021 	cdpcs	0, 0, cr0, cr0, cr1, {1}
    2088:	000003fd 	strdeq	r0, [r0], -sp
    208c:	e0339f01 	eors	r9, r3, r1, lsl #30
    2090:	5f000000 	svcpl	0x00000000
    2094:	59000021 	stmdbpl	r0, {r0, r5}
    2098:	2d000021 	stccs	0, cr0, [r0, #-132]	; 0xffffff7c
    209c:	00786469 	rsbseq	r6, r8, r9, ror #8
    20a0:	ee429f01 	cdp	15, 4, cr9, cr2, cr1, {0}
    20a4:	91000000 	mrsls	r0, (UNDEF: 0)
    20a8:	8b000021 	blhi	2134 <__HEAP_SIZE+0x1134>
    20ac:	2e000021 	cdpcs	0, 0, cr0, cr0, cr1, {1}
    20b0:	000004e8 	andeq	r0, r0, r8, ror #9
    20b4:	ee4e9f01 	cdp	15, 4, cr9, cr14, cr1, {0}
    20b8:	c3000000 	movwgt	r0, #0
    20bc:	bd000021 	stclt	0, cr0, [r0, #-132]	; 0xffffff7c
    20c0:	00000021 	andeq	r0, r0, r1, lsr #32
    20c4:	0003d338 	andeq	sp, r3, r8, lsr r3
    20c8:	14950100 	ldrne	r0, [r5], #256	; 0x100
    20cc:	00199801 	andseq	r9, r9, r1, lsl #16
    20d0:	0019a410 	andseq	sl, r9, r0, lsl r4
    20d4:	0021ef10 	eoreq	lr, r1, r0, lsl pc
    20d8:	1a780100 	bne	1e024e0 <__ROM_SIZE+0x1d824e0>
    20dc:	4d2e0000 	stcmi	0, cr0, [lr, #-0]
    20e0:	01000005 	tsteq	r0, r5
    20e4:	01332395 	teqeq	r3, r5	; <illegal shifter operand>
    20e8:	22130000 	andscs	r0, r3, #0
    20ec:	220f0000 	andcs	r0, pc, #0
    20f0:	fd2e0000 	stc2	0, cr0, [lr, #-0]
    20f4:	01000003 	tsteq	r0, r3
    20f8:	00e03495 	smlaleq	r3, r0, r5, r4
    20fc:	22380000 	eorscs	r0, r8, #0
    2100:	22340000 	eorscs	r0, r4, #0
    2104:	692d0000 	pushvs	{}	; <UNPREDICTABLE>
    2108:	01007864 	tsteq	r0, r4, ror #16
    210c:	00ee4395 	smlaleq	r4, lr, r5, r3
    2110:	225d0000 	subscs	r0, sp, #0
    2114:	22590000 	subscs	r0, r9, #0
    2118:	e82e0000 	stmda	lr!, {}	; <UNPREDICTABLE>
    211c:	01000004 	tsteq	r0, r4
    2120:	00ee4f95 	smlaleq	r4, lr, r5, pc	; <UNPREDICTABLE>
    2124:	22820000 	addcs	r0, r2, #0
    2128:	227e0000 	rsbscs	r0, lr, #0
    212c:	a22b0000 	eorge	r0, fp, #0
    2130:	b6100019 			; <UNDEFINED> instruction: 0xb6100019
    2134:	0000001b 	andeq	r0, r0, fp, lsl r0
    2138:	00048d39 	andeq	r8, r4, r9, lsr sp
    213c:	148e0100 	strne	r0, [lr], #256	; 0x100
    2140:	00085401 	andeq	r5, r8, r1, lsl #8
    2144:	00085610 	andeq	r5, r8, r0, lsl r6
    2148:	007d0210 	rsbseq	r0, sp, r0, lsl r2
    214c:	001aca01 	andseq	ip, sl, r1, lsl #20
    2150:	054d3a00 	strbeq	r3, [sp, #-2560]	; 0xfffff600
    2154:	8e010000 	cdphi	0, 0, cr0, cr1, cr0, {0}
    2158:	00013323 	andeq	r3, r1, r3, lsr #6
    215c:	3a500100 	bcc	1402564 <__ROM_SIZE+0x1382564>
    2160:	000003fd 	strdeq	r0, [r0], -sp
    2164:	e0348e01 	eors	r8, r4, r1, lsl #28
    2168:	01000000 	mrseq	r0, (UNDEF: 0)
    216c:	64693b51 	strbtvs	r3, [r9], #-2897	; 0xfffff4af
    2170:	8e010078 	mcrhi	0, 0, r0, cr1, cr8, {3}
    2174:	0000ee43 	andeq	lr, r0, r3, asr #28
    2178:	3a520100 	bcc	1482580 <__ROM_SIZE+0x1402580>
    217c:	000004e8 	andeq	r0, r0, r8, ror #9
    2180:	ee4f8e01 	cdp	14, 4, cr8, cr15, cr1, {0}
    2184:	01000000 	mrseq	r0, (UNDEF: 0)
    2188:	f8390053 			; <UNDEFINED> instruction: 0xf8390053
    218c:	01000003 	tsteq	r0, r3
    2190:	00011485 	andeq	r1, r1, r5, lsl #9
    2194:	00000000 	andeq	r0, r0, r0
    2198:	02000000 	andeq	r0, r0, #0
    219c:	1c01007d 	stcne	0, cr0, [r1], {125}	; 0x7d
    21a0:	3a00001b 	bcc	2214 <__HEAP_SIZE+0x1214>
    21a4:	0000054d 	andeq	r0, r0, sp, asr #10
    21a8:	33258501 			; <UNDEFINED> instruction: 0x33258501
    21ac:	01000001 	tsteq	r0, r1
    21b0:	03fd3a50 	mvnseq	r3, #80, 20	; 0x50000
    21b4:	85010000 	strhi	r0, [r1, #-0]
    21b8:	0000e036 	andeq	lr, r0, r6, lsr r0
    21bc:	3b510100 	blcc	14425c4 <__ROM_SIZE+0x13c25c4>
    21c0:	00786469 	rsbseq	r6, r8, r9, ror #8
    21c4:	ee458501 	cdp	5, 4, cr8, cr5, cr1, {0}
    21c8:	01000000 	mrseq	r0, (UNDEF: 0)
    21cc:	04e83a52 	strbteq	r3, [r8], #2642	; 0xa52
    21d0:	85010000 	strhi	r0, [r1, #-0]
    21d4:	0000ee51 	andeq	lr, r0, r1, asr lr
    21d8:	00530100 	subseq	r0, r3, r0, lsl #2
    21dc:	3201013c 	andcc	r0, r1, #60, 2
    21e0:	32000005 	andcc	r0, r0, #5
    21e4:	3c000005 	stccc	0, cr0, [r0], {5}
    21e8:	04d90101 	ldrbeq	r0, [r9], #257	; 0x101
    21ec:	04d90000 	ldrbeq	r0, [r9], #0
    21f0:	013c0000 	teqeq	ip, r0
    21f4:	0005ba01 	andeq	fp, r5, r1, lsl #20
    21f8:	0005ba00 	andeq	fp, r5, r0, lsl #20
    21fc:	01013c00 	tsteq	r1, r0, lsl #24
    2200:	0000037d 	andeq	r0, r0, sp, ror r3
    2204:	0000037d 	andeq	r0, r0, sp, ror r3
    2208:	0501013c 	streq	r0, [r1, #-316]	; 0xfffffec4
    220c:	05000005 	streq	r0, [r0, #-5]
    2210:	3c000005 	stccc	0, cr0, [r0], {5}
    2214:	04430101 	strbeq	r0, [r3], #-257	; 0xfffffeff
    2218:	04430000 	strbeq	r0, [r3], #-0
    221c:	013c0000 	teqeq	ip, r0
    2220:	00056001 	andeq	r6, r5, r1
    2224:	00056000 	andeq	r6, r5, r0
    2228:	01013c00 	tsteq	r1, r0, lsl #24
    222c:	000003eb 	andeq	r0, r0, fp, ror #7
    2230:	000003eb 	andeq	r0, r0, fp, ror #7
    2234:	c001013c 	andgt	r0, r1, ip, lsr r1
    2238:	c0000003 	andgt	r0, r0, r3
    223c:	3c000003 	stccc	0, cr0, [r0], {3}
    2240:	04a40101 	strteq	r0, [r4], #257	; 0x101
    2244:	04a40000 	strteq	r0, [r4], #0
    2248:	013c0000 	teqeq	ip, r0
    224c:	00041801 	andeq	r1, r4, r1, lsl #16
    2250:	00041800 	andeq	r1, r4, r0, lsl #16
    2254:	01013c00 	tsteq	r1, r0, lsl #24
    2258:	000004c6 	andeq	r0, r0, r6, asr #9
    225c:	000004c6 	andeq	r0, r0, r6, asr #9
    2260:	7e01013c 	mcrvc	1, 0, r0, cr1, cr12, {1}
    2264:	7e000005 	cdpvc	0, 0, cr0, cr0, cr5, {0}
    2268:	3c000005 	stccc	0, cr0, [r0], {5}
    226c:	056d0101 	strbeq	r0, [sp, #-257]!	; 0xfffffeff
    2270:	056d0000 	strbeq	r0, [sp, #-0]!
    2274:	013d0000 	teqeq	sp, r0
    2278:	00037501 	andeq	r7, r3, r1, lsl #10
    227c:	00037500 	andeq	r7, r3, r0, lsl #10
    2280:	05310700 	ldreq	r0, [r1, #-1792]!	; 0xfffff900
    2284:	00011400 	andeq	r1, r1, r0, lsl #8
    2288:	d0000200 	andle	r0, r0, r0, lsl #4
    228c:	04000005 	streq	r0, [r0], #-5
    2290:	00010501 	andeq	r0, r1, r1, lsl #10
    2294:	05fa0c00 	ldrbeq	r0, [sl, #3072]!	; 0xc00
    2298:	00520000 	subseq	r0, r2, r0
    229c:	01900000 	orrseq	r0, r0, r0
	...
    22a8:	14b50000 	ldrtne	r0, [r5], #0
    22ac:	01020000 	mrseq	r0, (UNDEF: 2)
    22b0:	0000ab06 	andeq	sl, r0, r6, lsl #22
    22b4:	08010200 	stmdaeq	r1, {r9}
    22b8:	000000a9 	andeq	r0, r0, r9, lsr #1
    22bc:	c3050202 	movwgt	r0, #20994	; 0x5202
    22c0:	02000001 	andeq	r0, r0, #1
    22c4:	00c70702 	sbceq	r0, r7, r2, lsl #14
    22c8:	04020000 	streq	r0, [r2], #-0
    22cc:	00000505 	andeq	r0, r0, r5, lsl #10
    22d0:	02390300 	eorseq	r0, r9, #0, 6
    22d4:	4f020000 	svcmi	0x00020000
    22d8:	00005819 	andeq	r5, r0, r9, lsl r8
    22dc:	07040200 	streq	r0, [r4, -r0, lsl #4]
    22e0:	00000040 	andeq	r0, r0, r0, asr #32
    22e4:	00050802 	andeq	r0, r5, r2, lsl #16
    22e8:	02000000 	andeq	r0, r0, #0
    22ec:	003b0708 	eorseq	r0, fp, r8, lsl #14
    22f0:	04040000 	streq	r0, [r4], #-0
    22f4:	746e6905 	strbtvc	r6, [lr], #-2309	; 0xfffff6fb
    22f8:	07040200 	streq	r0, [r4, -r0, lsl #4]
    22fc:	00000045 	andeq	r0, r0, r5, asr #32
    2300:	00023b03 	andeq	r3, r2, r3, lsl #22
    2304:	14300300 	ldrtne	r0, [r0], #-768	; 0xfffffd00
    2308:	0000004c 	andeq	r0, r0, ip, asr #32
    230c:	da040802 	ble	10431c <__ROM_SIZE+0x8431c>
    2310:	02000000 	andeq	r0, r0, #0
    2314:	00b20801 	adcseq	r0, r2, r1, lsl #16
    2318:	8e050000 	cdphi	0, 0, cr0, cr5, cr0, {0}
    231c:	06000000 	streq	r0, [r0], -r0
    2320:	00009504 	andeq	r9, r0, r4, lsl #10
    2324:	0d010700 	stceq	7, cr0, [r1, #-0]
    2328:	01000006 	tsteq	r0, r6
    232c:	00010622 	andeq	r0, r1, r2, lsr #12
    2330:	00000000 	andeq	r0, r0, r0
    2334:	a3000000 	movwge	r0, #0
    2338:	01000022 	tsteq	r0, r2, lsr #32
    233c:	000000d9 	ldrdeq	r0, [r0], -r9
    2340:	0005f308 	andeq	pc, r5, r8, lsl #6
    2344:	1c220100 	stfnes	f0, [r2], #-0
    2348:	0000009a 	muleq	r0, sl, r0
    234c:	000022c7 	andeq	r2, r0, r7, asr #5
    2350:	000022c3 	andeq	r2, r0, r3, asr #5
    2354:	00000009 	andeq	r0, r0, r9
    2358:	0000ef00 	andeq	lr, r0, r0, lsl #30
    235c:	010a0000 	mrseq	r0, (UNDEF: 10)
    2360:	000000bd 	strheq	r0, [r0], -sp
    2364:	01061e01 	tsteq	r6, r1, lsl #28
    2368:	100019dc 	ldrdne	r1, [r0], -ip
    236c:	100019e8 	andne	r1, r0, r8, ror #19
    2370:	01007d02 	tsteq	r0, r2, lsl #26
    2374:	0375010b 	cmneq	r5, #-1073741822	; 0xc0000002
    2378:	dc040000 	stcle	0, cr0, [r4], {-0}
    237c:	006d0105 	rsbeq	r0, sp, r5, lsl #2
    2380:	19d00000 	ldmibne	r0, {}^	; <UNPREDICTABLE>
    2384:	19dc1000 	ldmibne	ip, {ip}^
    2388:	7d021000 	stcvc	0, cr1, [r2, #-0]
    238c:	630c0100 	movwvs	r0, #49408	; 0xc100
    2390:	19010068 	stmdbne	r1, {r3, r5, r6}
    2394:	00006d01 	andeq	r6, r0, r1, lsl #26
    2398:	00500100 	subseq	r0, r0, r0, lsl #2
    239c:	0008a700 	andeq	sl, r8, r0, lsl #14
    23a0:	9d000200 	sfmls	f0, 4, [r0, #-0]
    23a4:	04000006 	streq	r0, [r0], #-6
    23a8:	00010501 	andeq	r0, r1, r1, lsl #10
    23ac:	071f0c00 	ldreq	r0, [pc, -r0, lsl #24]
    23b0:	00520000 	subseq	r0, r2, r0
    23b4:	01b00000 	movseq	r0, r0
	...
    23c0:	16880000 	strne	r0, [r8], r0
    23c4:	01020000 	mrseq	r0, (UNDEF: 2)
    23c8:	0000ab06 	andeq	sl, r0, r6, lsl #22
    23cc:	08010200 	stmdaeq	r1, {r9}
    23d0:	000000a9 	andeq	r0, r0, r9, lsr #1
    23d4:	c3050202 	movwgt	r0, #20994	; 0x5202
    23d8:	03000001 	movweq	r0, #1
    23dc:	0000065f 	andeq	r0, r0, pc, asr r6
    23e0:	4a193903 	bmi	6507f4 <__ROM_SIZE+0x5d07f4>
    23e4:	02000000 	andeq	r0, r0, #0
    23e8:	00c70702 	sbceq	r0, r7, r2, lsl #14
    23ec:	04020000 	streq	r0, [r2], #-0
    23f0:	00000505 	andeq	r0, r0, r5, lsl #10
    23f4:	02390300 	eorseq	r0, r9, #0, 6
    23f8:	4f030000 	svcmi	0x00030000
    23fc:	00006419 	andeq	r6, r0, r9, lsl r4
    2400:	07040200 	streq	r0, [r4, -r0, lsl #4]
    2404:	00000040 	andeq	r0, r0, r0, asr #32
    2408:	00050802 	andeq	r0, r5, r2, lsl #16
    240c:	02000000 	andeq	r0, r0, #0
    2410:	003b0708 	eorseq	r0, fp, r8, lsl #14
    2414:	04040000 	streq	r0, [r4], #-0
    2418:	746e6905 	strbtvc	r6, [lr], #-2309	; 0xfffff6fb
    241c:	07040200 	streq	r0, [r4, -r0, lsl #4]
    2420:	00000045 	andeq	r0, r0, r5, asr #32
    2424:	da040802 	ble	104434 <__ROM_SIZE+0x84434>
    2428:	02000000 	andeq	r0, r0, #0
    242c:	00b20801 	adcseq	r0, r2, r1, lsl #16
    2430:	61030000 	mrsvs	r0, (UNDEF: 3)
    2434:	04000006 	streq	r0, [r0], #-6
    2438:	003e1424 	eorseq	r1, lr, r4, lsr #8
    243c:	3b030000 	blcc	c2444 <__ROM_SIZE+0x42444>
    2440:	04000002 	streq	r0, [r0], #-2
    2444:	00581430 	subseq	r1, r8, r0, lsr r4
    2448:	0a030000 	beq	c2450 <__ROM_SIZE+0x42450>
    244c:	05000007 	streq	r0, [r0, #-7]
    2450:	00b92318 	adcseq	r2, r9, r8, lsl r3
    2454:	4d050000 	stcmi	0, cr0, [r5, #-0]
    2458:	20000007 	andcs	r0, r0, r7
    245c:	39081905 	stmdbcc	r8, {r0, r2, r8, fp, ip}
    2460:	06000001 	streq	r0, [r0], -r1
    2464:	05003072 	streq	r3, [r0, #-114]	; 0xffffff8e
    2468:	0080121a 	addeq	r1, r0, sl, lsl r2
    246c:	23020000 	movwcs	r0, #8192	; 0x2000
    2470:	31720600 	cmncc	r2, r0, lsl #12
    2474:	121b0500 	andsne	r0, fp, #0, 10
    2478:	00000080 	andeq	r0, r0, r0, lsl #1
    247c:	06042302 	streq	r2, [r4], -r2, lsl #6
    2480:	05003272 	streq	r3, [r0, #-626]	; 0xfffffd8e
    2484:	0080121c 	addeq	r1, r0, ip, lsl r2
    2488:	23020000 	movwcs	r0, #8192	; 0x2000
    248c:	33720608 	cmncc	r2, #8, 12	; 0x800000
    2490:	121d0500 	andsne	r0, sp, #0, 10
    2494:	00000080 	andeq	r0, r0, r0, lsl #1
    2498:	060c2302 	streq	r2, [ip], -r2, lsl #6
    249c:	00323172 	eorseq	r3, r2, r2, ror r1
    24a0:	80121e05 	andshi	r1, r2, r5, lsl #28
    24a4:	02000000 	andeq	r0, r0, #0
    24a8:	6c061023 	stcvs	0, cr1, [r6], {35}	; 0x23
    24ac:	1f050072 	svcne	0x00050072
    24b0:	00008012 	andeq	r8, r0, r2, lsl r0
    24b4:	14230200 	strtne	r0, [r3], #-512	; 0xfffffe00
    24b8:	00637006 	rsbeq	r7, r3, r6
    24bc:	80122005 	andshi	r2, r2, r5
    24c0:	02000000 	andeq	r0, r0, #0
    24c4:	70061823 	andvc	r1, r6, r3, lsr #16
    24c8:	05007273 	streq	r7, [r0, #-627]	; 0xfffffd8d
    24cc:	00801221 	addeq	r1, r0, r1, lsr #4
    24d0:	23020000 	movwcs	r0, #8192	; 0x2000
    24d4:	b803001c 	stmdalt	r3, {r2, r3, r4}
    24d8:	05000006 	streq	r0, [r0, #-6]
    24dc:	01452324 	cmpeq	r5, r4, lsr #6
    24e0:	eb050000 	bl	1424e8 <__ROM_SIZE+0xc24e8>
    24e4:	20000006 	andcs	r0, r0, r6
    24e8:	c5082505 	strgt	r2, [r8, #-1285]	; 0xfffffafb
    24ec:	06000001 	streq	r0, [r0], -r1
    24f0:	05003472 	streq	r3, [r0, #-1138]	; 0xfffffb8e
    24f4:	00801226 	addeq	r1, r0, r6, lsr #4
    24f8:	23020000 	movwcs	r0, #8192	; 0x2000
    24fc:	35720600 	ldrbcc	r0, [r2, #-1536]!	; 0xfffffa00
    2500:	12270500 	eorne	r0, r7, #0, 10
    2504:	00000080 	andeq	r0, r0, r0, lsl #1
    2508:	06042302 	streq	r2, [r4], -r2, lsl #6
    250c:	05003672 	streq	r3, [r0, #-1650]	; 0xfffff98e
    2510:	00801228 	addeq	r1, r0, r8, lsr #4
    2514:	23020000 	movwcs	r0, #8192	; 0x2000
    2518:	37720608 	ldrbcc	r0, [r2, -r8, lsl #12]!
    251c:	12290500 	eorne	r0, r9, #0, 10
    2520:	00000080 	andeq	r0, r0, r0, lsl #1
    2524:	060c2302 	streq	r2, [ip], -r2, lsl #6
    2528:	05003872 	streq	r3, [r0, #-2162]	; 0xfffff78e
    252c:	0080122a 	addeq	r1, r0, sl, lsr #4
    2530:	23020000 	movwcs	r0, #8192	; 0x2000
    2534:	39720610 	ldmdbcc	r2!, {r4, r9, sl}^
    2538:	122b0500 	eorne	r0, fp, #0, 10
    253c:	00000080 	andeq	r0, r0, r0, lsl #1
    2540:	06142302 	ldreq	r2, [r4], -r2, lsl #6
    2544:	00303172 	eorseq	r3, r0, r2, ror r1
    2548:	80122c05 	andshi	r2, r2, r5, lsl #24
    254c:	02000000 	andeq	r0, r0, #0
    2550:	72061823 	andvc	r1, r6, #2293760	; 0x230000
    2554:	05003131 	streq	r3, [r0, #-305]	; 0xfffffecf
    2558:	0080122d 	addeq	r1, r0, sp, lsr #4
    255c:	23020000 	movwcs	r0, #8192	; 0x2000
    2560:	5103001c 	tstpl	r3, ip, lsl r0
    2564:	05000006 	streq	r0, [r0, #-6]
    2568:	01d11c30 	bicseq	r1, r1, r0, lsr ip
    256c:	fe050000 	cdp2	0, 0, cr0, cr5, cr0, {0}
    2570:	40000006 	andmi	r0, r0, r6
    2574:	fd083105 	stc2	1, cr3, [r8, #-20]	; 0xffffffec
    2578:	07000001 	streq	r0, [r0, -r1]
    257c:	000006f7 	strdeq	r0, [r0], -r7
    2580:	391a3205 	ldmdbcc	sl, {r0, r2, r9, ip, sp}
    2584:	02000001 	andeq	r0, r0, #1
    2588:	59070023 	stmdbpl	r7, {r0, r1, r5}
    258c:	05000007 	streq	r0, [r0, #-7]
    2590:	00ad1a33 	adceq	r1, sp, r3, lsr sl
    2594:	23020000 	movwcs	r0, #8192	; 0x2000
    2598:	93080020 	movwls	r0, #32800	; 0x8020
    259c:	01000007 	tsteq	r0, r7
    25a0:	0080151c 	addeq	r1, r0, ip, lsl r5
    25a4:	01010000 	mrseq	r0, (UNDEF: 1)
    25a8:	0007a908 	andeq	sl, r7, r8, lsl #18
    25ac:	151d0100 	ldrne	r0, [sp, #-256]	; 0xffffff00
    25b0:	00000080 	andeq	r0, r0, r0, lsl #1
    25b4:	6a080101 	bvs	2029c0 <__ROM_SIZE+0x1829c0>
    25b8:	01000006 	tsteq	r0, r6
    25bc:	0080151e 	addeq	r1, r0, lr, lsl r5
    25c0:	01010000 	mrseq	r0, (UNDEF: 1)
    25c4:	00068408 	andeq	r8, r6, r8, lsl #8
    25c8:	151f0100 	ldrne	r0, [pc, #-256]	; 24d0 <__HEAP_SIZE+0x14d0>
    25cc:	00000080 	andeq	r0, r0, r0, lsl #1
    25d0:	01090101 	tsteq	r9, r1, lsl #2
    25d4:	0000077f 	andeq	r0, r0, pc, ror r7
    25d8:	0106be01 	tsteq	r6, r1, lsl #28
	...
    25e4:	000022e5 	andeq	r2, r0, r5, ror #5
    25e8:	00028001 	andeq	r8, r2, r1
    25ec:	70730a00 	rsbsvc	r0, r3, r0, lsl #20
    25f0:	0ebf0100 	frdeqe	f0, f7, f0
    25f4:	000000a1 	andeq	r0, r0, r1, lsr #1
    25f8:	00002309 	andeq	r2, r0, r9, lsl #6
    25fc:	00002305 	andeq	r2, r0, r5, lsl #6
    2600:	0000000b 	andeq	r0, r0, fp
    2604:	00028000 	andeq	r8, r2, r0
    2608:	00000c00 	andeq	r0, r0, r0, lsl #24
    260c:	088f0000 	stmeq	pc, {}	; <UNPREDICTABLE>
    2610:	010d0000 	mrseq	r0, (UNDEF: 13)
    2614:	00030550 	andeq	r0, r3, r0, asr r5
    2618:	00000000 	andeq	r0, r0, r0
    261c:	06930e00 	ldreq	r0, [r3], r0, lsl #28
    2620:	b8010000 	stmdalt	r1, {}	; <UNPREDICTABLE>
    2624:	00a10111 	adceq	r0, r1, r1, lsl r1
	...
    2630:	7d020000 	stcvc	0, cr0, [r2, #-0]
    2634:	03230100 			; <UNDEFINED> instruction: 0x03230100
    2638:	730f0000 	movwvc	r0, #61440	; 0xf000
    263c:	01000007 	tsteq	r0, r7
    2640:	00a10eb9 	strhteq	r0, [r1], r9
    2644:	23290000 			; <UNDEFINED> instruction: 0x23290000
    2648:	23270000 			; <UNDEFINED> instruction: 0x23270000
    264c:	6e100000 	cdpvs	0, 1, cr0, cr0, cr0, {0}
    2650:	00000008 	andeq	r0, r0, r8
    2654:	03000000 	movweq	r0, #0
	...
    2660:	d813ba01 	ldmdale	r3, {r0, r9, fp, ip, sp, pc}
    2664:	11000002 	tstne	r0, r2
    2668:	00000881 	andeq	r0, r0, r1, lsl #17
    266c:	0000233e 	andeq	r2, r0, lr, lsr r3
    2670:	0000233c 	andeq	r2, r0, ip, lsr r3
    2674:	084d1000 	stmdaeq	sp, {ip}^
	...
    2684:	01000000 	mrseq	r0, (UNDEF: 0)
    2688:	02ff30bb 	rscseq	r3, pc, #187	; 0xbb
    268c:	60110000 	andsvs	r0, r1, r0
    2690:	53000008 	movwpl	r0, #8
    2694:	51000023 	tstpl	r0, r3, lsr #32
    2698:	00000023 	andeq	r0, r0, r3, lsr #32
    269c:	00082c12 	andeq	r2, r8, r2, lsl ip
	...
    26ac:	bb010000 	bllt	426b4 <__RAM_SIZE+0x226b4>
    26b0:	083f113e 	ldmdaeq	pc!, {r1, r2, r3, r4, r5, r8, ip}	; <UNPREDICTABLE>
    26b4:	23680000 	cmncs	r8, #0
    26b8:	23660000 	cmncs	r6, #0
    26bc:	00000000 	andeq	r0, r0, r0
    26c0:	07600109 	strbeq	r0, [r0, -r9, lsl #2]!
    26c4:	67010000 	strvs	r0, [r1, -r0]
    26c8:	1a4c0106 	bne	1302ae8 <__ROM_SIZE+0x1282ae8>
    26cc:	1c081000 	stcne	0, cr1, [r8], {-0}
    26d0:	237b1000 	cmncs	fp, #0
    26d4:	56010000 	strpl	r0, [r1], -r0
    26d8:	13000006 	movwne	r0, #6
    26dc:	00000686 	andeq	r0, r0, r6, lsl #13
    26e0:	56276701 	strtpl	r6, [r7], -r1, lsl #14
    26e4:	9f000006 	svcls	0x00000006
    26e8:	9b000023 	blls	277c <__HEAP_SIZE+0x177c>
    26ec:	13000023 	movwne	r0, #35	; 0x23
    26f0:	000006a1 	andeq	r0, r0, r1, lsr #13
    26f4:	803b6701 	eorshi	r6, fp, r1, lsl #14
    26f8:	c3000000 	movwgt	r0, #0
    26fc:	bd000023 	stclt	0, cr0, [r0, #-140]	; 0xffffff74
    2700:	14000023 	strne	r0, [r0], #-35	; 0xffffffdd
    2704:	00000704 	andeq	r0, r0, r4, lsl #14
    2708:	c51a6801 	ldrgt	r6, [sl, #-2049]	; 0xfffff7ff
    270c:	05000001 	streq	r0, [r0, #-1]
    2710:	00008c03 	andeq	r8, r0, r3, lsl #24
    2714:	07b01538 			; <UNDEFINED> instruction: 0x07b01538
    2718:	69010000 	stmdbvs	r1, {}	; <UNPREDICTABLE>
    271c:	00008012 	andeq	r8, r0, r2, lsl r0
    2720:	2f0f1000 	svccs	0x000f1000
    2724:	01000006 	tsteq	r0, r6
    2728:	0080126a 	addeq	r1, r0, sl, ror #4
    272c:	23f30000 	mvnscs	r0, #0
    2730:	23ef0000 	mvncs	r0, #0
    2734:	cd0f0000 	stcgt	0, cr0, [pc, #-0]	; 273c <__HEAP_SIZE+0x173c>
    2738:	01000006 	tsteq	r0, r6
    273c:	0080126b 	addeq	r1, r0, fp, ror #4
    2740:	24160000 	ldrcs	r0, [r6], #-0
    2744:	24120000 	ldrcs	r0, [r2], #-0
    2748:	700a0000 	andvc	r0, sl, r0
    274c:	6c010063 	stcvs	0, cr0, [r1], {99}	; 0x63
    2750:	00008012 	andeq	r8, r0, r2, lsl r0
    2754:	00243c00 	eoreq	r3, r4, r0, lsl #24
    2758:	00243400 	eoreq	r3, r4, r0, lsl #8
    275c:	706f0a00 	rsbvc	r0, pc, r0, lsl #20
    2760:	1a6c0100 	bne	1b02b68 <__ROM_SIZE+0x1a82b68>
    2764:	00000080 	andeq	r0, r0, r0, lsl #1
    2768:	00002477 	andeq	r2, r0, r7, ror r4
    276c:	00002473 	andeq	r2, r0, r3, ror r4
    2770:	001b5016 	andseq	r5, fp, r6, lsl r0
    2774:	001b9010 	andseq	r9, fp, r0, lsl r0
    2778:	00042b10 	andeq	r2, r4, r0, lsl fp
    277c:	079a0f00 	ldreq	r0, [sl, r0, lsl #30]
    2780:	99010000 	stmdbls	r1, {}	; <UNPREDICTABLE>
    2784:	0000790e 	andeq	r7, r0, lr, lsl #18
    2788:	00249a00 	eoreq	r9, r4, r0, lsl #20
    278c:	00249600 	eoreq	r9, r4, r0, lsl #12
    2790:	1b7e1700 	blne	1f88398 <__ROM_SIZE+0x1f08398>
    2794:	06bd1000 	ldrteq	r1, [sp], r0
    2798:	04080000 	streq	r0, [r8], #-0
    279c:	010d0000 	mrseq	r0, (UNDEF: 13)
    27a0:	00770250 	rsbseq	r0, r7, r0, asr r2
    27a4:	1b820b00 	blne	fe0853ac <__StackTop+0xc60653ac>
    27a8:	065c1000 	ldrbeq	r1, [ip], -r0
    27ac:	8e0c0000 	cdphi	0, 0, cr0, cr12, cr0, {0}
    27b0:	8f10001b 	svchi	0x0010001b
    27b4:	0d000008 	stceq	0, cr0, [r0, #-32]	; 0xffffffe0
    27b8:	03055001 	movweq	r5, #20481	; 0x5001
    27bc:	100035cc 	andne	r3, r0, ip, asr #11
    27c0:	0251010d 	subseq	r0, r1, #1073741827	; 0x40000003
    27c4:	00000077 	andeq	r0, r0, r7, ror r0
    27c8:	001a9c17 	andseq	r9, sl, r7, lsl ip
    27cc:	00089d10 	andeq	r9, r8, r0, lsl sp
    27d0:	00043f00 	andeq	r3, r4, r0, lsl #30
    27d4:	50010d00 	andpl	r0, r1, r0, lsl #26
    27d8:	00007702 	andeq	r7, r0, r2, lsl #14
    27dc:	001aa217 	andseq	sl, sl, r7, lsl r2
    27e0:	00089d10 	andeq	r9, r8, r0, lsl sp
    27e4:	00045600 	andeq	r5, r4, r0, lsl #12
    27e8:	50010d00 	andpl	r0, r1, r0, lsl #26
    27ec:	34180305 	ldrcc	r0, [r8], #-773	; 0xfffffcfb
    27f0:	17001000 	strne	r1, [r0, -r0]
    27f4:	10001aa8 	andne	r1, r0, r8, lsr #21
    27f8:	0000089d 	muleq	r0, sp, r8
    27fc:	0000046d 	andeq	r0, r0, sp, ror #8
    2800:	0550010d 	ldrbeq	r0, [r0, #-269]	; 0xfffffef3
    2804:	00343803 	eorseq	r3, r4, r3, lsl #16
    2808:	b0170010 	andslt	r0, r7, r0, lsl r0
    280c:	8f10001a 	svchi	0x0010001a
    2810:	84000008 	strhi	r0, [r0], #-8
    2814:	0d000004 	stceq	0, cr0, [r0, #-16]
    2818:	03055001 	movweq	r5, #20481	; 0x5001
    281c:	1000344c 	andne	r3, r0, ip, asr #8
    2820:	1ab81700 	bne	fee08428 <__StackTop+0xc6de8428>
    2824:	088f1000 	stmeq	pc, {ip}	; <UNPREDICTABLE>
    2828:	049b0000 	ldreq	r0, [fp], #0
    282c:	010d0000 	mrseq	r0, (UNDEF: 13)
    2830:	60030550 	andvs	r0, r3, r0, asr r5
    2834:	00100034 	andseq	r0, r0, r4, lsr r0
    2838:	001ac017 	andseq	ip, sl, r7, lsl r0
    283c:	00088f10 	andeq	r8, r8, r0, lsl pc
    2840:	0004b200 	andeq	fp, r4, r0, lsl #4
    2844:	50010d00 	andpl	r0, r1, r0, lsl #26
    2848:	34740305 	ldrbtcc	r0, [r4], #-773	; 0xfffffcfb
    284c:	17001000 	strne	r1, [r0, -r0]
    2850:	10001ac8 	andne	r1, r0, r8, asr #21
    2854:	0000088f 	andeq	r0, r0, pc, lsl #17
    2858:	000004c9 	andeq	r0, r0, r9, asr #9
    285c:	0550010d 	ldrbeq	r0, [r0, #-269]	; 0xfffffef3
    2860:	00348803 	eorseq	r8, r4, r3, lsl #16
    2864:	d0170010 	andsle	r0, r7, r0, lsl r0
    2868:	8f10001a 	svchi	0x0010001a
    286c:	e0000008 	and	r0, r0, r8
    2870:	0d000004 	stceq	0, cr0, [r0, #-16]
    2874:	03055001 	movweq	r5, #20481	; 0x5001
    2878:	1000349c 	mulne	r0, ip, r4
    287c:	1ad81700 	bne	ff608484 <__StackTop+0xc75e8484>
    2880:	088f1000 	stmeq	pc, {ip}	; <UNPREDICTABLE>
    2884:	04f70000 	ldrbteq	r0, [r7], #0
    2888:	010d0000 	mrseq	r0, (UNDEF: 13)
    288c:	b0030550 	andlt	r0, r3, r0, asr r5
    2890:	00100034 	andseq	r0, r0, r4, lsr r0
    2894:	001ae017 	andseq	lr, sl, r7, lsl r0
    2898:	00088f10 	andeq	r8, r8, r0, lsl pc
    289c:	00050e00 	andeq	r0, r5, r0, lsl #28
    28a0:	50010d00 	andpl	r0, r1, r0, lsl #26
    28a4:	34c40305 	strbcc	r0, [r4], #773	; 0x305
    28a8:	17001000 	strne	r1, [r0, -r0]
    28ac:	10001ae8 	andne	r1, r0, r8, ror #21
    28b0:	0000088f 	andeq	r0, r0, pc, lsl #17
    28b4:	00000525 	andeq	r0, r0, r5, lsr #10
    28b8:	0550010d 	ldrbeq	r0, [r0, #-269]	; 0xfffffef3
    28bc:	0034d803 	eorseq	sp, r4, r3, lsl #16
    28c0:	f0170010 			; <UNDEFINED> instruction: 0xf0170010
    28c4:	8f10001a 	svchi	0x0010001a
    28c8:	3c000008 	stccc	0, cr0, [r0], {8}
    28cc:	0d000005 	stceq	0, cr0, [r0, #-20]	; 0xffffffec
    28d0:	03055001 	movweq	r5, #20481	; 0x5001
    28d4:	100034ec 	andne	r3, r0, ip, ror #9
    28d8:	1af81700 	bne	ffe084e0 <__StackTop+0xc7de84e0>
    28dc:	088f1000 	stmeq	pc, {ip}	; <UNPREDICTABLE>
    28e0:	05530000 	ldrbeq	r0, [r3, #-0]
    28e4:	010d0000 	mrseq	r0, (UNDEF: 13)
    28e8:	00030550 	andeq	r0, r3, r0, asr r5
    28ec:	00100035 	andseq	r0, r0, r5, lsr r0
    28f0:	001b0017 	andseq	r0, fp, r7, lsl r0
    28f4:	00088f10 	andeq	r8, r8, r0, lsl pc
    28f8:	00056a00 	andeq	r6, r5, r0, lsl #20
    28fc:	50010d00 	andpl	r0, r1, r0, lsl #26
    2900:	35140305 	ldrcc	r0, [r4, #-773]	; 0xfffffcfb
    2904:	17001000 	strne	r1, [r0, -r0]
    2908:	10001b08 	andne	r1, r0, r8, lsl #22
    290c:	0000088f 	andeq	r0, r0, pc, lsl #17
    2910:	00000581 	andeq	r0, r0, r1, lsl #11
    2914:	0550010d 	ldrbeq	r0, [r0, #-269]	; 0xfffffef3
    2918:	00352803 	eorseq	r2, r5, r3, lsl #16
    291c:	10170010 	andsne	r0, r7, r0, lsl r0
    2920:	8f10001b 	svchi	0x0010001b
    2924:	98000008 	stmdals	r0, {r3}
    2928:	0d000005 	stceq	0, cr0, [r0, #-20]	; 0xffffffec
    292c:	03055001 	movweq	r5, #20481	; 0x5001
    2930:	1000353c 	andne	r3, r0, ip, lsr r5
    2934:	1b181700 	blne	60853c <__ROM_SIZE+0x58853c>
    2938:	088f1000 	stmeq	pc, {ip}	; <UNPREDICTABLE>
    293c:	05af0000 	streq	r0, [pc, #0]!	; 2944 <__HEAP_SIZE+0x1944>
    2940:	010d0000 	mrseq	r0, (UNDEF: 13)
    2944:	50030550 	andpl	r0, r3, r0, asr r5
    2948:	00100035 	andseq	r0, r0, r5, lsr r0
    294c:	001b2017 	andseq	r2, fp, r7, lsl r0
    2950:	00088f10 	andeq	r8, r8, r0, lsl pc
    2954:	0005c600 	andeq	ip, r5, r0, lsl #12
    2958:	50010d00 	andpl	r0, r1, r0, lsl #26
    295c:	35640305 	strbcc	r0, [r4, #-773]!	; 0xfffffcfb
    2960:	17001000 	strne	r1, [r0, -r0]
    2964:	10001b28 	andne	r1, r0, r8, lsr #22
    2968:	0000088f 	andeq	r0, r0, pc, lsl #17
    296c:	000005dd 	ldrdeq	r0, [r0], -sp
    2970:	0550010d 	ldrbeq	r0, [r0, #-269]	; 0xfffffef3
    2974:	00357803 	eorseq	r7, r5, r3, lsl #16
    2978:	2e170010 	mrccs	0, 0, r0, cr7, cr0, {0}
    297c:	9d10001b 	ldcls	0, cr0, [r0, #-108]	; 0xffffff94
    2980:	f1000008 	cps	#8
    2984:	0d000005 	stceq	0, cr0, [r0, #-20]	; 0xffffffec
    2988:	77025001 	strvc	r5, [r2, -r1]
    298c:	36170000 	ldrcc	r0, [r7], -r0
    2990:	8f10001b 	svchi	0x0010001b
    2994:	0e000008 	cdpeq	0, 0, cr0, cr0, cr8, {0}
    2998:	0d000006 	stceq	0, cr0, [r0, #-24]	; 0xffffffe8
    299c:	03055001 	movweq	r5, #20481	; 0x5001
    29a0:	1000358c 	andne	r3, r0, ip, lsl #11
    29a4:	0251010d 	subseq	r0, r1, #1073741827	; 0x40000003
    29a8:	17000076 	smlsdxne	r0, r6, r0, r0
    29ac:	10001b4a 	andne	r1, r0, sl, asr #22
    29b0:	0000088f 	andeq	r0, r0, pc, lsl #17
    29b4:	0000062b 	andeq	r0, r0, fp, lsr #12
    29b8:	0550010d 	ldrbeq	r0, [r0, #-269]	; 0xfffffef3
    29bc:	0035a403 	eorseq	sl, r5, r3, lsl #8
    29c0:	51010d10 	tstpl	r1, r0, lsl sp
    29c4:	00007602 	andeq	r7, r0, r2, lsl #12
    29c8:	001b5017 	andseq	r5, fp, r7, lsl r0
    29cc:	00089d10 	andeq	r9, r8, r0, lsl sp
    29d0:	00064200 	andeq	r4, r6, r0, lsl #4
    29d4:	50010d00 	andpl	r0, r1, r0, lsl #26
    29d8:	35bc0305 	ldrcc	r0, [ip, #773]!	; 0x305
    29dc:	0c001000 	stceq	0, cr1, [r0], {-0}
    29e0:	10001b96 	mulne	r0, r6, fp
    29e4:	0000089d 	muleq	r0, sp, r8
    29e8:	0550010d 	ldrbeq	r0, [r0, #-269]	; 0xfffffef3
    29ec:	00343403 	eorseq	r3, r4, r3, lsl #8
    29f0:	18000010 	stmdane	r0, {r4}
    29f4:	00008004 	andeq	r8, r0, r4
    29f8:	063d0e00 	ldrteq	r0, [sp], -r0, lsl #28
    29fc:	58010000 	stmdapl	r1, {}	; <UNPREDICTABLE>
    2a00:	06b6010d 	ldrteq	r0, [r6], sp, lsl #2
    2a04:	1a140000 	bne	502a0c <__ROM_SIZE+0x482a0c>
    2a08:	1a4a1000 	bne	1286a10 <__ROM_SIZE+0x1206a10>
    2a0c:	7d021000 	stcvc	0, cr1, [r2, #-0]
    2a10:	06b60100 	ldrteq	r0, [r6], r0, lsl #2
    2a14:	69190000 	ldmdbvs	r9, {}	; <UNPREDICTABLE>
    2a18:	0100736e 	tsteq	r0, lr, ror #6
    2a1c:	00802e58 	addeq	r2, r0, r8, asr lr
    2a20:	24bd0000 	ldrtcs	r0, [sp], #0
    2a24:	24b90000 	ldrtcs	r0, [r9], #0
    2a28:	db0f0000 	blle	3c2a30 <__ROM_SIZE+0x342a30>
    2a2c:	01000006 	tsteq	r0, r6
    2a30:	00950e5c 	addseq	r0, r5, ip, asr lr
    2a34:	24e00000 	strbtcs	r0, [r0], #0
    2a38:	24de0000 	ldrbcs	r0, [lr], #0
    2a3c:	e30f0000 	movw	r0, #61440	; 0xf000
    2a40:	01000006 	tsteq	r0, r6
    2a44:	00950e5d 	addseq	r0, r5, sp, asr lr
    2a48:	25070000 	strcs	r0, [r7, #-0]
    2a4c:	24f30000 	ldrbtcs	r0, [r3], #0
    2a50:	02000000 	andeq	r0, r0, #0
    2a54:	05120201 	ldreq	r0, [r2, #-513]	; 0xfffffdff
    2a58:	721a0000 	andsvc	r0, sl, #0
    2a5c:	01000006 	tsteq	r0, r6
    2a60:	8001154d 	andhi	r1, r1, sp, asr #10
    2a64:	e8000000 	stmda	r0, {}	; <UNPREDICTABLE>
    2a68:	14100019 	ldrne	r0, [r0], #-25	; 0xffffffe7
    2a6c:	aa10001a 	bge	402adc <__ROM_SIZE+0x382adc>
    2a70:	01000025 	tsteq	r0, r5, lsr #32
    2a74:	0000072e 	andeq	r0, r0, lr, lsr #14
    2a78:	00637019 	rsbeq	r7, r3, r9, lsl r0
    2a7c:	80344d01 	eorshi	r4, r4, r1, lsl #26
    2a80:	da000000 	ble	2a88 <__HEAP_SIZE+0x1a88>
    2a84:	d6000025 	strle	r0, [r0], -r5, lsr #32
    2a88:	14000025 	strne	r0, [r0], #-37	; 0xffffffdb
    2a8c:	00000409 	andeq	r0, r0, r9, lsl #8
    2a90:	2e0e4e01 	cdpcs	14, 0, cr4, cr14, cr1, {0}
    2a94:	02000007 	andeq	r0, r0, #7
    2a98:	7d0f7c91 	stcvc	12, cr7, [pc, #-580]	; 285c <__HEAP_SIZE+0x185c>
    2a9c:	01000006 	tsteq	r0, r6
    2aa0:	0080124f 	addeq	r1, r0, pc, asr #4
    2aa4:	26010000 	strcs	r0, [r1], -r0
    2aa8:	25fb0000 	ldrbcs	r0, [fp, #0]!
    2aac:	ee1b0000 	cdp	0, 1, cr0, cr11, cr0, {0}
    2ab0:	04100019 	ldreq	r0, [r0], #-25	; 0xffffffe7
    2ab4:	0a10001a 	beq	402b24 <__ROM_SIZE+0x382b24>
    2ab8:	50010069 	andpl	r0, r1, r9, rrx
    2abc:	0000790e 	andeq	r7, r0, lr, lsl #18
    2ac0:	00263600 	eoreq	r3, r6, r0, lsl #12
    2ac4:	00263200 	eoreq	r3, r6, r0, lsl #4
    2ac8:	1c000000 	stcne	0, cr0, [r0], {-0}
    2acc:	00000095 	muleq	r0, r5, r0
    2ad0:	0000073e 	andeq	r0, r0, lr, lsr r7
    2ad4:	0000801d 	andeq	r8, r0, sp, lsl r0
    2ad8:	09000100 	stmdbeq	r0, {r8}
    2adc:	0006a801 	andeq	sl, r6, r1, lsl #16
    2ae0:	06420100 	strbeq	r0, [r2], -r0, lsl #2
    2ae4:	00000001 	andeq	r0, r0, r1
    2ae8:	00000000 	andeq	r0, r0, r0
    2aec:	00265500 	eoreq	r5, r6, r0, lsl #10
    2af0:	082c0100 	stmdaeq	ip!, {r8}
    2af4:	00170000 	andseq	r0, r7, r0
    2af8:	9d000000 	stcls	0, cr0, [r0, #-0]
    2afc:	70000008 	andvc	r0, r0, r8
    2b00:	0d000007 	stceq	0, cr0, [r0, #-28]	; 0xffffffe4
    2b04:	03055001 	movweq	r5, #20481	; 0x5001
    2b08:	00000000 	andeq	r0, r0, r0
    2b0c:	00001700 	andeq	r1, r0, r0, lsl #14
    2b10:	088f0000 	stmeq	pc, {}	; <UNPREDICTABLE>
    2b14:	078a0000 	streq	r0, [sl, r0]
    2b18:	010d0000 	mrseq	r0, (UNDEF: 13)
    2b1c:	00760250 	rsbseq	r0, r6, r0, asr r2
    2b20:	0251010d 	subseq	r0, r1, #1073741827	; 0x40000003
    2b24:	17000075 	smlsdxne	r0, r5, r0, r0
    2b28:	00000000 	andeq	r0, r0, r0
    2b2c:	0000088f 	andeq	r0, r0, pc, lsl #17
    2b30:	000007a7 	andeq	r0, r0, r7, lsr #15
    2b34:	0550010d 	ldrbeq	r0, [r0, #-269]	; 0xfffffef3
    2b38:	00000003 	andeq	r0, r0, r3
    2b3c:	51010d00 	tstpl	r1, r0, lsl #26
    2b40:	00007702 	andeq	r7, r0, r2, lsl #14
    2b44:	00000017 	andeq	r0, r0, r7, lsl r0
    2b48:	00088f00 	andeq	r8, r8, r0, lsl #30
    2b4c:	0007c400 	andeq	ip, r7, r0, lsl #8
    2b50:	50010d00 	andpl	r0, r1, r0, lsl #26
    2b54:	0d007402 	cfstrseq	mvf7, [r0, #-8]
    2b58:	77055101 	strvc	r5, [r5, -r1, lsl #2]
    2b5c:	1c007500 	cfstr32ne	mvfx7, [r0], {-0}
    2b60:	00001700 	andeq	r1, r0, r0, lsl #14
    2b64:	089d0000 	ldmeq	sp, {}	; <UNPREDICTABLE>
    2b68:	07db0000 	ldrbeq	r0, [fp, r0]
    2b6c:	010d0000 	mrseq	r0, (UNDEF: 13)
    2b70:	00030550 	andeq	r0, r3, r0, asr r5
    2b74:	00000000 	andeq	r0, r0, r0
    2b78:	00000017 	andeq	r0, r0, r7, lsl r0
    2b7c:	00088f00 	andeq	r8, r8, r0, lsl #30
    2b80:	0007f500 	andeq	pc, r7, r0, lsl #10
    2b84:	50010d00 	andpl	r0, r1, r0, lsl #26
    2b88:	0d007602 	stceq	6, cr7, [r0, #-8]
    2b8c:	75025101 	strvc	r5, [r2, #-257]	; 0xfffffeff
    2b90:	00170000 	andseq	r0, r7, r0
    2b94:	8f000000 	svchi	0x00000000
    2b98:	12000008 	andne	r0, r0, #8
    2b9c:	0d000008 	stceq	0, cr0, [r0, #-32]	; 0xffffffe0
    2ba0:	03055001 	movweq	r5, #20481	; 0x5001
    2ba4:	00000000 	andeq	r0, r0, r0
    2ba8:	0251010d 	subseq	r0, r1, #1073741827	; 0x40000003
    2bac:	0c000076 	stceq	0, cr0, [r0], {118}	; 0x76
    2bb0:	00000000 	andeq	r0, r0, r0
    2bb4:	0000088f 	andeq	r0, r0, pc, lsl #17
    2bb8:	0250010d 	subseq	r0, r0, #1073741827	; 0x40000003
    2bbc:	010d0074 	tsteq	sp, r4, ror r0
    2bc0:	00760551 	rsbseq	r0, r6, r1, asr r5
    2bc4:	001c0075 	andseq	r0, ip, r5, ror r0
    2bc8:	079f1e00 	ldreq	r1, [pc, r0, lsl #28]
    2bcc:	63020000 	movwvs	r0, #8192	; 0x2000
    2bd0:	a1011f04 	tstge	r1, r4, lsl #30
    2bd4:	03000000 	movweq	r0, #0
    2bd8:	0000084d 	andeq	r0, r0, sp, asr #16
    2bdc:	00068c1f 	andeq	r8, r6, pc, lsl ip
    2be0:	04650200 	strbteq	r0, [r5], #-512	; 0xfffffe00
    2be4:	0000a10c 	andeq	sl, r0, ip, lsl #2
    2be8:	251e0000 	ldrcs	r0, [lr, #-0]
    2bec:	02000006 	andeq	r0, r0, #6
    2bf0:	011f042d 	tsteq	pc, sp, lsr #8
    2bf4:	000000a1 	andeq	r0, r0, r1, lsr #1
    2bf8:	00086e03 	andeq	r6, r8, r3, lsl #28
    2bfc:	068c1f00 	streq	r1, [ip], r0, lsl #30
    2c00:	2f020000 	svccs	0x00020000
    2c04:	00a10c04 	adceq	r0, r1, r4, lsl #24
    2c08:	1e000000 	cdpne	0, 0, cr0, cr0, cr0, {0}
    2c0c:	00000617 	andeq	r0, r0, r7, lsl r6
    2c10:	1f03cb02 	svcne	0x0003cb02
    2c14:	0000a101 	andeq	sl, r0, r1, lsl #2
    2c18:	088f0300 	stmeq	pc, {r8, r9}	; <UNPREDICTABLE>
    2c1c:	8c1f0000 	ldchi	0, cr0, [pc], {-0}
    2c20:	02000006 	andeq	r0, r0, #6
    2c24:	a10c03cd 	smlabtge	ip, sp, r3, r0
    2c28:	00000000 	andeq	r0, r0, r0
    2c2c:	86010120 	strhi	r0, [r1], -r0, lsr #2
    2c30:	86000004 	strhi	r0, [r0], -r4
    2c34:	06000004 	streq	r0, [r0], -r4
    2c38:	012105c8 	smlawteq	r1, r8, r5, r0
    2c3c:	00003601 	andeq	r3, r0, r1, lsl #12
    2c40:	00002c00 	andeq	r2, r0, r0, lsl #24
    2c44:	00000700 	andeq	r0, r0, r0, lsl #14
    2c48:	00000022 	andeq	r0, r0, r2, lsr #32
    2c4c:	08c60002 	stmiaeq	r6, {r1}^
    2c50:	01040000 	mrseq	r0, (UNDEF: 4)
    2c54:	00001b34 	andeq	r1, r0, r4, lsr fp
    2c58:	10001c08 	andne	r1, r0, r8, lsl #24
    2c5c:	10001c78 	andne	r1, r0, r8, ror ip
    2c60:	000007be 			; <UNDEFINED> instruction: 0x000007be
    2c64:	00000052 	andeq	r0, r0, r2, asr r0
    2c68:	000007d0 	ldrdeq	r0, [r0], -r0	; <UNPREDICTABLE>
    2c6c:	00228001 	eoreq	r8, r2, r1
    2c70:	00020000 	andeq	r0, r2, r0
    2c74:	000008da 	ldrdeq	r0, [r0], -sl
    2c78:	1bac0104 	blne	feb03090 <__StackTop+0xc6ae3090>
    2c7c:	1c780000 	ldclne	0, cr0, [r8], #-0
    2c80:	1c941000 	ldcne	0, cr1, [r4], {0}
    2c84:	07de1000 	ldrbeq	r1, [lr, r0]
    2c88:	00520000 	subseq	r0, r2, r0
    2c8c:	07d00000 	ldrbeq	r0, [r0, r0]
    2c90:	80010000 	andhi	r0, r1, r0

Disassembly of section .debug_abbrev:

00000000 <.debug_abbrev>:
   0:	25011101 	strcs	r1, [r1, #-257]	; 0xfffffeff
   4:	030b130e 	movweq	r1, #45838	; 0xb30e
   8:	550e1b0e 	strpl	r1, [lr, #-2830]	; 0xfffff4f2
   c:	52011106 	andpl	r1, r1, #-2147483647	; 0x80000001
  10:	00061001 	andeq	r1, r6, r1
  14:	00240200 	eoreq	r0, r4, r0, lsl #4
  18:	0b3e0b0b 	bleq	f82c4c <__ROM_SIZE+0xf02c4c>
  1c:	00000e03 	andeq	r0, r0, r3, lsl #28
  20:	0b002403 	bleq	9034 <__HEAP_SIZE+0x8034>
  24:	030b3e0b 	movweq	r3, #48651	; 0xbe0b
  28:	04000008 	streq	r0, [r0], #-8
  2c:	0c3f012e 	ldfeqs	f0, [pc], #-184	; ffffff7c <__StackTop+0xc7fdff7c>
  30:	0b3a0e03 	bleq	e83844 <__ROM_SIZE+0xe03844>
  34:	0b390b3b 	bleq	e42d28 <__ROM_SIZE+0xdc2d28>
  38:	13490c27 	movtne	r0, #39975	; 0x9c27
  3c:	01120111 	tsteq	r2, r1, lsl r1
  40:	42970640 	addsmi	r0, r7, #64, 12	; 0x4000000
  44:	0013010c 	andseq	r0, r3, ip, lsl #2
  48:	00340500 	eorseq	r0, r4, r0, lsl #10
  4c:	0b3a0e03 	bleq	e83860 <__ROM_SIZE+0xe03860>
  50:	0b390b3b 	bleq	e42d44 <__ROM_SIZE+0xdc2d44>
  54:	06021349 	streq	r1, [r2], -r9, asr #6
  58:	000642b7 			; <UNDEFINED> instruction: 0x000642b7
  5c:	82890600 	addhi	r0, r9, #0, 12
  60:	01110001 	tsteq	r1, r1
  64:	00001331 	andeq	r1, r0, r1, lsr r3
  68:	01828907 	orreq	r8, r2, r7, lsl #18
  6c:	31011101 	tstcc	r1, r1, lsl #2
  70:	00130113 	andseq	r0, r3, r3, lsl r1
  74:	828a0800 	addhi	r0, sl, #0, 16
  78:	0a020001 	beq	80084 <__ROM_SIZE+0x84>
  7c:	000a4291 	muleq	sl, r1, r2
  80:	82890900 	addhi	r0, r9, #0, 18
  84:	01110101 	tsteq	r1, r1, lsl #2
  88:	00001331 	andeq	r1, r0, r1, lsr r3
  8c:	3f012e0a 	svccc	0x00012e0a
  90:	3a0e030c 	bcc	380cc8 <__ROM_SIZE+0x300cc8>
  94:	390b3b0b 	stmdbcc	fp, {r0, r1, r3, r8, r9, fp, ip, sp}
  98:	110c270b 	tstne	ip, fp, lsl #14
  9c:	40011201 	andmi	r1, r1, r1, lsl #4
  a0:	0c429706 	mcrreq	7, 0, r9, r2, cr6
  a4:	00001301 	andeq	r1, r0, r1, lsl #6
  a8:	0300340b 	movweq	r3, #1035	; 0x40b
  ac:	3413490e 	ldrcc	r4, [r3], #-2318	; 0xfffff6f2
  b0:	000a020c 	andeq	r0, sl, ip, lsl #4
  b4:	01010c00 	tsteq	r1, r0, lsl #24
  b8:	13011349 	movwne	r1, #4937	; 0x1349
  bc:	210d0000 	mrscs	r0, (UNDEF: 13)
  c0:	2f134900 	svccs	0x00134900
  c4:	0e00000b 	cdpeq	0, 0, cr0, cr0, cr11, {0}
  c8:	13490026 	movtne	r0, #36902	; 0x9026
  cc:	2e0f0000 	cdpcs	0, 0, cr0, cr15, cr0, {0}
  d0:	030c3f00 	movweq	r3, #52992	; 0xcf00
  d4:	3b0b3a0e 	blcc	2ce914 <__ROM_SIZE+0x24e914>
  d8:	270b390b 	strcs	r3, [fp, -fp, lsl #18]
  dc:	1201110c 	andne	r1, r1, #12, 2
  e0:	970a4001 	strls	r4, [sl, -r1]
  e4:	00000c42 	andeq	r0, r0, r2, asr #24
  e8:	3f002e10 	svccc	0x00002e10
  ec:	870c3c0c 	strhi	r3, [ip, -ip, lsl #24]
  f0:	0e030e40 	cdpeq	14, 0, cr0, cr3, cr0, {2}
  f4:	0b3b0b3a 	bleq	ec2de4 <__ROM_SIZE+0xe42de4>
  f8:	00000b39 	andeq	r0, r0, r9, lsr fp
  fc:	3f002e11 	svccc	0x00002e11
 100:	870c3c0c 	strhi	r3, [ip, -ip, lsl #24]
 104:	0e030e40 	cdpeq	14, 0, cr0, cr3, cr0, {2}
 108:	0b3b0b3a 	bleq	ec2df8 <__ROM_SIZE+0xe42df8>
 10c:	01000000 	mrseq	r0, (UNDEF: 0)
 110:	0e250111 	mcreq	1, 1, r0, cr5, cr1, {0}
 114:	0e030b13 	vmoveq.32	d3[0], r0
 118:	06550e1b 			; <UNDEFINED> instruction: 0x06550e1b
 11c:	01520111 	cmpeq	r2, r1, lsl r1
 120:	00000610 	andeq	r0, r0, r0, lsl r6
 124:	0b002402 	bleq	9134 <__HEAP_SIZE+0x8134>
 128:	030b3e0b 	movweq	r3, #48651	; 0xbe0b
 12c:	0300000e 	movweq	r0, #14
 130:	0e030016 	mcreq	0, 0, r0, cr3, cr6, {0}
 134:	0b3b0b3a 	bleq	ec2e24 <__ROM_SIZE+0xe42e24>
 138:	13490b39 	movtne	r0, #39737	; 0x9b39
 13c:	24040000 	strcs	r0, [r4], #-0
 140:	3e0b0b00 	vmlacc.f64	d0, d11, d0
 144:	0008030b 	andeq	r0, r8, fp, lsl #6
 148:	00350500 	eorseq	r0, r5, r0, lsl #10
 14c:	00001349 	andeq	r1, r0, r9, asr #6
 150:	49002606 	stmdbmi	r0, {r1, r2, r9, sl, sp}
 154:	07000013 	smladeq	r0, r3, r0, r0
 158:	050b0113 	streq	r0, [fp, #-275]	; 0xfffffeed
 15c:	053b0b3a 	ldreq	r0, [fp, #-2874]!	; 0xfffff4c6
 160:	13010b39 	movwne	r0, #6969	; 0x1b39
 164:	0d080000 	stceq	0, cr0, [r8, #-0]
 168:	3a0e0300 	bcc	380d70 <__ROM_SIZE+0x300d70>
 16c:	39053b0b 	stmdbcc	r5, {r0, r1, r3, r8, r9, fp, ip, sp}
 170:	3813490b 	ldmdacc	r3, {r0, r1, r3, r8, fp, lr}
 174:	0900000a 	stmdbeq	r0, {r1, r3}
 178:	0803000d 	stmdaeq	r3, {r0, r2, r3}
 17c:	053b0b3a 	ldreq	r0, [fp, #-2874]!	; 0xfffff4c6
 180:	13490b39 	movtne	r0, #39737	; 0x9b39
 184:	00000a38 	andeq	r0, r0, r8, lsr sl
 188:	4901010a 	stmdbmi	r1, {r1, r3, r8}
 18c:	00130113 	andseq	r0, r3, r3, lsl r1
 190:	00210b00 	eoreq	r0, r1, r0, lsl #22
 194:	0b2f1349 	bleq	bc4ec0 <__ROM_SIZE+0xb44ec0>
 198:	160c0000 	strne	r0, [ip], -r0
 19c:	3a0e0300 	bcc	380da4 <__ROM_SIZE+0x300da4>
 1a0:	39053b0b 	stmdbcc	r5, {r0, r1, r3, r8, r9, fp, ip, sp}
 1a4:	0013490b 	andseq	r4, r3, fp, lsl #18
 1a8:	000f0d00 	andeq	r0, pc, r0, lsl #26
 1ac:	13490b0b 	movtne	r0, #39691	; 0x9b0b
 1b0:	150e0000 	strne	r0, [lr, #-0]
 1b4:	000c2700 	andeq	r2, ip, r0, lsl #14
 1b8:	00340f00 	eorseq	r0, r4, r0, lsl #30
 1bc:	0b3a0e03 	bleq	e839d0 <__ROM_SIZE+0xe039d0>
 1c0:	0b390b3b 	bleq	e42eb4 <__ROM_SIZE+0xdc2eb4>
 1c4:	0c3f1349 	ldceq	3, cr1, [pc], #-292	; a8 <__STACKSEAL_SIZE+0xa8>
 1c8:	00000c3c 	andeq	r0, r0, ip, lsr ip
 1cc:	49002110 	stmdbmi	r0, {r4, r8, sp}
 1d0:	00052f13 	andeq	r2, r5, r3, lsl pc
 1d4:	00341100 	eorseq	r1, r4, r0, lsl #2
 1d8:	0b3a1347 	bleq	e84efc <__ROM_SIZE+0xe04efc>
 1dc:	0b390b3b 	bleq	e42ed0 <__ROM_SIZE+0xdc2ed0>
 1e0:	00000a02 	andeq	r0, r0, r2, lsl #20
 1e4:	3f002e12 	svccc	0x00002e12
 1e8:	3a0e030c 	bcc	380e20 <__ROM_SIZE+0x300e20>
 1ec:	390b3b0b 	stmdbcc	fp, {r0, r1, r3, r8, r9, fp, ip, sp}
 1f0:	110c270b 	tstne	ip, fp, lsl #14
 1f4:	40011201 	andmi	r1, r1, r1, lsl #4
 1f8:	0c42970a 	mcrreq	7, 0, r9, r2, cr10
 1fc:	01000000 	mrseq	r0, (UNDEF: 0)
 200:	0e250111 	mcreq	1, 1, r0, cr5, cr1, {0}
 204:	0e030b13 	vmoveq.32	d3[0], r0
 208:	06550e1b 			; <UNDEFINED> instruction: 0x06550e1b
 20c:	01520111 	cmpeq	r2, r1, lsl r1
 210:	00000610 	andeq	r0, r0, r0, lsl r6
 214:	0b002402 	bleq	9224 <__HEAP_SIZE+0x8224>
 218:	030b3e0b 	movweq	r3, #48651	; 0xbe0b
 21c:	0300000e 	movweq	r0, #14
 220:	13490026 	movtne	r0, #36902	; 0x9026
 224:	16040000 	strne	r0, [r4], -r0
 228:	3a0e0300 	bcc	380e30 <__ROM_SIZE+0x300e30>
 22c:	390b3b0b 	stmdbcc	fp, {r0, r1, r3, r8, r9, fp, ip, sp}
 230:	0013490b 	andseq	r4, r3, fp, lsl #18
 234:	00240500 	eoreq	r0, r4, r0, lsl #10
 238:	0b3e0b0b 	bleq	f82e6c <__ROM_SIZE+0xf02e6c>
 23c:	00000803 	andeq	r0, r0, r3, lsl #16
 240:	03011306 	movweq	r1, #4870	; 0x1306
 244:	3a0b0b0e 	bcc	2c2e84 <__ROM_SIZE+0x242e84>
 248:	010b3b0b 	tsteq	fp, fp, lsl #22
 24c:	07000013 	smladeq	r0, r3, r0, r0
 250:	0e03000d 	cdpeq	0, 0, cr0, cr3, cr13, {0}
 254:	0a381349 	beq	e04f80 <__ROM_SIZE+0xd84f80>
 258:	00000c34 	andeq	r0, r0, r4, lsr ip
 25c:	0b000f08 	bleq	3e84 <__HEAP_SIZE+0x2e84>
 260:	0900000b 	stmdbeq	r0, {r0, r1, r3}
 264:	0b0b000f 	bleq	2c02a8 <__ROM_SIZE+0x2402a8>
 268:	00001349 	andeq	r1, r0, r9, asr #6
 26c:	2701150a 	strcs	r1, [r1, -sl, lsl #10]
 270:	0013010c 	andseq	r0, r3, ip, lsl #2
 274:	00050b00 	andeq	r0, r5, r0, lsl #22
 278:	00001349 	andeq	r1, r0, r9, asr #6
 27c:	0b01130c 	bleq	44eb4 <__RAM_SIZE+0x24eb4>
 280:	3b0b3a0b 	blcc	2ceab4 <__ROM_SIZE+0x24eab4>
 284:	010b390b 	tsteq	fp, fp, lsl #18
 288:	0d000013 	stceq	0, cr0, [r0, #-76]	; 0xffffffb4
 28c:	0803000d 	stmdaeq	r3, {r0, r2, r3}
 290:	0b3b0b3a 	bleq	ec2f80 <__ROM_SIZE+0xe42f80>
 294:	13490b39 	movtne	r0, #39737	; 0x9b39
 298:	00000a38 	andeq	r0, r0, r8, lsr sl
 29c:	3f012e0e 	svccc	0x00012e0e
 2a0:	3a0e030c 	bcc	380ed8 <__ROM_SIZE+0x300ed8>
 2a4:	39053b0b 	stmdbcc	r5, {r0, r1, r3, r8, r9, fp, ip, sp}
 2a8:	490c270b 	stmdbmi	ip, {r0, r1, r3, r8, r9, sl, sp}
 2ac:	12011113 	andne	r1, r1, #-1073741820	; 0xc0000004
 2b0:	97064001 	strls	r4, [r6, -r1]
 2b4:	13010c42 	movwne	r0, #7234	; 0x1c42
 2b8:	050f0000 	streq	r0, [pc, #-0]	; 2c0 <__STACKSEAL_SIZE+0x2c0>
 2bc:	3a080300 	bcc	200ec4 <__ROM_SIZE+0x180ec4>
 2c0:	39053b0b 	stmdbcc	r5, {r0, r1, r3, r8, r9, fp, ip, sp}
 2c4:	0213490b 	andseq	r4, r3, #180224	; 0x2c000
 2c8:	0642b706 	strbeq	fp, [r2], -r6, lsl #14
 2cc:	05100000 	ldreq	r0, [r0, #-0]
 2d0:	3a0e0300 	bcc	380ed8 <__ROM_SIZE+0x300ed8>
 2d4:	39053b0b 	stmdbcc	r5, {r0, r1, r3, r8, r9, fp, ip, sp}
 2d8:	0213490b 	andseq	r4, r3, #180224	; 0x2c000
 2dc:	1100000a 	tstne	r0, sl
 2e0:	00000018 	andeq	r0, r0, r8, lsl r0
 2e4:	03003412 	movweq	r3, #1042	; 0x412
 2e8:	3b0b3a08 	blcc	2ceb10 <__ROM_SIZE+0x24eb10>
 2ec:	490b3905 	stmdbmi	fp, {r0, r2, r8, fp, ip, sp}
 2f0:	000a0213 	andeq	r0, sl, r3, lsl r2
 2f4:	00341300 	eorseq	r1, r4, r0, lsl #6
 2f8:	0b3a0e03 	bleq	e83b0c <__ROM_SIZE+0xe03b0c>
 2fc:	0b39053b 	bleq	e417f0 <__ROM_SIZE+0xdc17f0>
 300:	0a021349 	beq	8502c <__ROM_SIZE+0x502c>
 304:	34140000 	ldrcc	r0, [r4], #-0
 308:	3a080300 	bcc	200f10 <__ROM_SIZE+0x180f10>
 30c:	39053b0b 	stmdbcc	r5, {r0, r1, r3, r8, r9, fp, ip, sp}
 310:	0213490b 	andseq	r4, r3, #180224	; 0x2c000
 314:	0642b706 	strbeq	fp, [r2], -r6, lsl #14
 318:	89150000 	ldmdbhi	r5, {}	; <UNPREDICTABLE>
 31c:	11010182 	smlabbne	r1, r2, r1, r0
 320:	00133101 	andseq	r3, r3, r1, lsl #2
 324:	828a1600 	addhi	r1, sl, #0, 12
 328:	0a020001 	beq	80334 <__ROM_SIZE+0x334>
 32c:	000a4291 	muleq	sl, r1, r2
 330:	00051700 	andeq	r1, r5, r0, lsl #14
 334:	0b3a0e03 	bleq	e83b48 <__ROM_SIZE+0xe03b48>
 338:	0b39053b 	bleq	e4182c <__ROM_SIZE+0xdc182c>
 33c:	06021349 	streq	r1, [r2], -r9, asr #6
 340:	000642b7 			; <UNDEFINED> instruction: 0x000642b7
 344:	01011800 	tsteq	r1, r0, lsl #16
 348:	13011349 	movwne	r1, #4937	; 0x1349
 34c:	21190000 	tstcs	r9, r0
 350:	2f134900 	svccs	0x00134900
 354:	1a00000b 	bne	388 <__STACKSEAL_SIZE+0x388>
 358:	0e03012e 	adfeqsp	f0, f3, #0.5
 35c:	053b0b3a 	ldreq	r0, [fp, #-2874]!	; 0xfffff4c6
 360:	0c270b39 			; <UNDEFINED> instruction: 0x0c270b39
 364:	01111349 	tsteq	r1, r9, asr #6
 368:	06400112 			; <UNDEFINED> instruction: 0x06400112
 36c:	010c4297 			; <UNDEFINED> instruction: 0x010c4297
 370:	1b000013 	blne	3c4 <__STACKSEAL_SIZE+0x3c4>
 374:	08030005 	stmdaeq	r3, {r0, r2}
 378:	053b0b3a 	ldreq	r0, [fp, #-2874]!	; 0xfffff4c6
 37c:	13490b39 	movtne	r0, #39737	; 0x9b39
 380:	00000a02 	andeq	r0, r0, r2, lsl #20
 384:	0300341c 	movweq	r3, #1052	; 0x41c
 388:	3b0b3a0e 	blcc	2cebc8 <__ROM_SIZE+0x24ebc8>
 38c:	490b3905 	stmdbmi	fp, {r0, r2, r8, fp, ip, sp}
 390:	b7060213 	smladlt	r6, r3, r2, r0
 394:	00000642 	andeq	r0, r0, r2, asr #12
 398:	11010b1d 	tstne	r1, sp, lsl fp
 39c:	01011201 	tsteq	r1, r1, lsl #4
 3a0:	1e000013 	mcrne	0, 0, r0, cr0, cr3, {0}
 3a4:	0655010b 	ldrbeq	r0, [r5], -fp, lsl #2
 3a8:	00001301 	andeq	r1, r0, r1, lsl #6
 3ac:	0300341f 	movweq	r3, #1055	; 0x41f
 3b0:	3b0b3a0e 	blcc	2cebf0 <__ROM_SIZE+0x24ebf0>
 3b4:	490b3905 	stmdbmi	fp, {r0, r2, r8, fp, ip, sp}
 3b8:	20000013 	andcs	r0, r0, r3, lsl r0
 3bc:	01018289 	smlabbeq	r1, r9, r2, r8
 3c0:	13310111 	teqne	r1, #1073741828	; 0x40000004
 3c4:	00001301 	andeq	r1, r0, r1, lsl #6
 3c8:	01828921 	orreq	r8, r2, r1, lsr #18
 3cc:	01011101 	tsteq	r1, r1, lsl #2
 3d0:	22000013 	andcs	r0, r0, #19
 3d4:	01018289 	smlabbeq	r1, r9, r2, r8
 3d8:	00000111 	andeq	r0, r0, r1, lsl r1
 3dc:	31011d23 	tstcc	r1, r3, lsr #26
 3e0:	12011113 	andne	r1, r1, #-1073741820	; 0xc0000004
 3e4:	590b5801 	stmdbpl	fp, {r0, fp, ip, lr}
 3e8:	010b5705 	tsteq	fp, r5, lsl #14
 3ec:	24000013 	strcs	r0, [r0], #-19	; 0xffffffed
 3f0:	13310005 	teqne	r1, #5
 3f4:	42b70602 	adcsmi	r0, r7, #2097152	; 0x200000
 3f8:	25000006 	strcs	r0, [r0, #-6]
 3fc:	13310005 	teqne	r1, #5
 400:	34260000 	strtcc	r0, [r6], #-0
 404:	02133100 	andseq	r3, r3, #0, 2
 408:	0642b706 	strbeq	fp, [r2], -r6, lsl #14
 40c:	1d270000 	stcne	0, cr0, [r7, #-0]
 410:	52133101 	andspl	r3, r3, #1073741824	; 0x40000000
 414:	0542b801 	strbeq	fp, [r2, #-2049]	; 0xfffff7ff
 418:	01120111 	tsteq	r2, r1, lsl r1
 41c:	05590b58 	ldrbeq	r0, [r9, #-2904]	; 0xfffff4a8
 420:	13010b57 	movwne	r0, #6999	; 0x1b57
 424:	89280000 	stmdbhi	r8!, {}	; <UNPREDICTABLE>
 428:	11010182 	smlabbne	r1, r2, r1, r0
 42c:	0a429301 	beq	10a5038 <__ROM_SIZE+0x1025038>
 430:	00001301 	andeq	r1, r0, r1, lsl #6
 434:	0b011729 	bleq	460e0 <__RAM_SIZE+0x260e0>
 438:	3b0b3a0b 	blcc	2cec6c <__ROM_SIZE+0x24ec6c>
 43c:	010b3905 	tsteq	fp, r5, lsl #18
 440:	2a000013 	bcs	494 <__STACKSEAL_SIZE+0x494>
 444:	0803000d 	stmdaeq	r3, {r0, r2, r3}
 448:	053b0b3a 	ldreq	r0, [fp, #-2874]!	; 0xfffff4c6
 44c:	13490b39 	movtne	r0, #39737	; 0x9b39
 450:	892b0000 	stmdbhi	fp!, {}	; <UNPREDICTABLE>
 454:	11000182 	smlabbne	r0, r2, r1, r0
 458:	00133101 	andseq	r3, r3, r1, lsl #2
 45c:	012e2c00 			; <UNDEFINED> instruction: 0x012e2c00
 460:	0b3a0e03 	bleq	e83c74 <__ROM_SIZE+0xe03c74>
 464:	0b390b3b 	bleq	e43158 <__ROM_SIZE+0xdc3158>
 468:	13490c27 	movtne	r0, #39975	; 0x9c27
 46c:	01120111 	tsteq	r2, r1, lsl r1
 470:	42970640 	addsmi	r0, r7, #64, 12	; 0x4000000
 474:	0013010c 	andseq	r0, r3, ip, lsl #2
 478:	00052d00 	andeq	r2, r5, r0, lsl #26
 47c:	0b3a0803 	bleq	e82490 <__ROM_SIZE+0xe02490>
 480:	0b390b3b 	bleq	e43174 <__ROM_SIZE+0xdc3174>
 484:	06021349 	streq	r1, [r2], -r9, asr #6
 488:	000642b7 			; <UNDEFINED> instruction: 0x000642b7
 48c:	00052e00 	andeq	r2, r5, r0, lsl #28
 490:	0b3a0e03 	bleq	e83ca4 <__ROM_SIZE+0xe03ca4>
 494:	0b390b3b 	bleq	e43188 <__ROM_SIZE+0xdc3188>
 498:	06021349 	streq	r1, [r2], -r9, asr #6
 49c:	000642b7 			; <UNDEFINED> instruction: 0x000642b7
 4a0:	00342f00 	eorseq	r2, r4, r0, lsl #30
 4a4:	0b3a0e03 	bleq	e83cb8 <__ROM_SIZE+0xe03cb8>
 4a8:	0b390b3b 	bleq	e4319c <__ROM_SIZE+0xdc319c>
 4ac:	06021349 	streq	r1, [r2], -r9, asr #6
 4b0:	000642b7 			; <UNDEFINED> instruction: 0x000642b7
 4b4:	00343000 	eorseq	r3, r4, r0
 4b8:	0b3a0803 	bleq	e824cc <__ROM_SIZE+0xe024cc>
 4bc:	0b390b3b 	bleq	e431b0 <__ROM_SIZE+0xdc31b0>
 4c0:	06021349 	streq	r1, [r2], -r9, asr #6
 4c4:	000642b7 			; <UNDEFINED> instruction: 0x000642b7
 4c8:	012e3100 			; <UNDEFINED> instruction: 0x012e3100
 4cc:	0b3a0e03 	bleq	e83ce0 <__ROM_SIZE+0xe03ce0>
 4d0:	0b390b3b 	bleq	e431c4 <__ROM_SIZE+0xdc31c4>
 4d4:	13490c27 	movtne	r0, #39975	; 0x9c27
 4d8:	01120111 	tsteq	r2, r1, lsl r1
 4dc:	42970a40 	addsmi	r0, r7, #64, 20	; 0x40000
 4e0:	0013010c 	andseq	r0, r3, ip, lsl #2
 4e4:	011d3200 	tsteq	sp, r0, lsl #4
 4e8:	01521331 	cmpeq	r2, r1, lsr r3
 4ec:	110542b8 			; <UNDEFINED> instruction: 0x110542b8
 4f0:	58011201 	stmdapl	r1, {r0, r9, ip}
 4f4:	570b590b 	strpl	r5, [fp, -fp, lsl #18]
 4f8:	3300000b 	movwcc	r0, #11
 4fc:	0e03012e 	adfeqsp	f0, f3, #0.5
 500:	0b3b0b3a 	bleq	ec31f0 <__ROM_SIZE+0xe431f0>
 504:	0c270b39 			; <UNDEFINED> instruction: 0x0c270b39
 508:	0b201349 	bleq	805234 <__ROM_SIZE+0x785234>
 50c:	00001301 	andeq	r1, r0, r1, lsl #6
 510:	03000534 	movweq	r0, #1332	; 0x534
 514:	3b0b3a08 	blcc	2ced3c <__ROM_SIZE+0x24ed3c>
 518:	490b390b 	stmdbmi	fp, {r0, r1, r3, r8, fp, ip, sp}
 51c:	35000013 	strcc	r0, [r0, #-19]	; 0xffffffed
 520:	0e030005 	cdpeq	0, 0, cr0, cr3, cr5, {0}
 524:	0b3b0b3a 	bleq	ec3214 <__ROM_SIZE+0xe43214>
 528:	13490b39 	movtne	r0, #39737	; 0x9b39
 52c:	34360000 	ldrtcc	r0, [r6], #-0
 530:	3a080300 	bcc	201138 <__ROM_SIZE+0x181138>
 534:	390b3b0b 	stmdbcc	fp, {r0, r1, r3, r8, r9, fp, ip, sp}
 538:	0013490b 	andseq	r4, r3, fp, lsl #18
 53c:	012e3700 			; <UNDEFINED> instruction: 0x012e3700
 540:	0b3a0e03 	bleq	e83d54 <__ROM_SIZE+0xe03d54>
 544:	0b390b3b 	bleq	e43238 <__ROM_SIZE+0xdc3238>
 548:	01110c27 	tsteq	r1, r7, lsr #24
 54c:	06400112 			; <UNDEFINED> instruction: 0x06400112
 550:	010c4296 			; <UNDEFINED> instruction: 0x010c4296
 554:	38000013 	stmdacc	r0, {r0, r1, r4}
 558:	0e03012e 	adfeqsp	f0, f3, #0.5
 55c:	0b3b0b3a 	bleq	ec324c <__ROM_SIZE+0xe4324c>
 560:	0c270b39 			; <UNDEFINED> instruction: 0x0c270b39
 564:	01120111 	tsteq	r2, r1, lsl r1
 568:	42970640 	addsmi	r0, r7, #64, 12	; 0x4000000
 56c:	0013010c 	andseq	r0, r3, ip, lsl #2
 570:	012e3900 			; <UNDEFINED> instruction: 0x012e3900
 574:	0b3a0e03 	bleq	e83d88 <__ROM_SIZE+0xe03d88>
 578:	0b390b3b 	bleq	e4326c <__ROM_SIZE+0xdc326c>
 57c:	01110c27 	tsteq	r1, r7, lsr #24
 580:	0a400112 	beq	10009d0 <__ROM_SIZE+0xf809d0>
 584:	010c4297 			; <UNDEFINED> instruction: 0x010c4297
 588:	3a000013 	bcc	5dc <__STACKSEAL_SIZE+0x5dc>
 58c:	0e030005 	cdpeq	0, 0, cr0, cr3, cr5, {0}
 590:	0b3b0b3a 	bleq	ec3280 <__ROM_SIZE+0xe43280>
 594:	13490b39 	movtne	r0, #39737	; 0x9b39
 598:	00000a02 	andeq	r0, r0, r2, lsl #20
 59c:	0300053b 	movweq	r0, #1339	; 0x53b
 5a0:	3b0b3a08 	blcc	2cedc8 <__ROM_SIZE+0x24edc8>
 5a4:	490b390b 	stmdbmi	fp, {r0, r1, r3, r8, fp, ip, sp}
 5a8:	000a0213 	andeq	r0, sl, r3, lsl r2
 5ac:	002e3c00 	eoreq	r3, lr, r0, lsl #24
 5b0:	0c3c0c3f 	ldceq	12, cr0, [ip], #-252	; 0xffffff04
 5b4:	030e4087 	movweq	r4, #57479	; 0xe087
 5b8:	3d00000e 	stccc	0, cr0, [r0, #-56]	; 0xffffffc8
 5bc:	0c3f002e 	ldceq	0, cr0, [pc], #-184	; 50c <__STACKSEAL_SIZE+0x50c>
 5c0:	40870c3c 	addmi	r0, r7, ip, lsr ip
 5c4:	3a0e030e 	bcc	381204 <__ROM_SIZE+0x301204>
 5c8:	390b3b0b 	stmdbcc	fp, {r0, r1, r3, r8, r9, fp, ip, sp}
 5cc:	0000000b 	andeq	r0, r0, fp
 5d0:	25011101 	strcs	r1, [r1, #-257]	; 0xfffffeff
 5d4:	030b130e 	movweq	r1, #45838	; 0xb30e
 5d8:	550e1b0e 	strpl	r1, [lr, #-2830]	; 0xfffff4f2
 5dc:	52011106 	andpl	r1, r1, #-2147483647	; 0x80000001
 5e0:	00061001 	andeq	r1, r6, r1
 5e4:	00240200 	eoreq	r0, r4, r0, lsl #4
 5e8:	0b3e0b0b 	bleq	f8321c <__ROM_SIZE+0xf0321c>
 5ec:	00000e03 	andeq	r0, r0, r3, lsl #28
 5f0:	03001603 	movweq	r1, #1539	; 0x603
 5f4:	3b0b3a0e 	blcc	2cee34 <__ROM_SIZE+0x24ee34>
 5f8:	490b390b 	stmdbmi	fp, {r0, r1, r3, r8, fp, ip, sp}
 5fc:	04000013 	streq	r0, [r0], #-19	; 0xffffffed
 600:	0b0b0024 	bleq	2c0698 <__ROM_SIZE+0x240698>
 604:	08030b3e 	stmdaeq	r3, {r1, r2, r3, r4, r5, r8, r9, fp}
 608:	26050000 	strcs	r0, [r5], -r0
 60c:	00134900 	andseq	r4, r3, r0, lsl #18
 610:	000f0600 	andeq	r0, pc, r0, lsl #12
 614:	13490b0b 	movtne	r0, #39691	; 0x9b0b
 618:	2e070000 	cdpcs	0, 0, cr0, cr7, cr0, {0}
 61c:	030c3f01 	movweq	r3, #52993	; 0xcf01
 620:	3b0b3a0e 	blcc	2cee60 <__ROM_SIZE+0x24ee60>
 624:	270b390b 	strcs	r3, [fp, -fp, lsl #18]
 628:	1201110c 	andne	r1, r1, #12, 2
 62c:	97064001 	strls	r4, [r6, -r1]
 630:	13010c42 	movwne	r0, #7234	; 0x1c42
 634:	05080000 	streq	r0, [r8, #-0]
 638:	3a0e0300 	bcc	381240 <__ROM_SIZE+0x301240>
 63c:	390b3b0b 	stmdbcc	fp, {r0, r1, r3, r8, r9, fp, ip, sp}
 640:	0213490b 	andseq	r4, r3, #180224	; 0x2c000
 644:	0642b706 	strbeq	fp, [r2], -r6, lsl #14
 648:	89090000 	stmdbhi	r9, {}	; <UNPREDICTABLE>
 64c:	11000182 	smlabbne	r0, r2, r1, r0
 650:	00133101 	andseq	r3, r3, r1, lsl #2
 654:	002e0a00 	eoreq	r0, lr, r0, lsl #20
 658:	0e030c3f 	mcreq	12, 0, r0, cr3, cr15, {1}
 65c:	0b3b0b3a 	bleq	ec334c <__ROM_SIZE+0xe4334c>
 660:	0c270b39 			; <UNDEFINED> instruction: 0x0c270b39
 664:	01120111 	tsteq	r2, r1, lsl r1
 668:	42970a40 	addsmi	r0, r7, #64, 20	; 0x40000
 66c:	0b00000c 	bleq	6a4 <__STACKSEAL_SIZE+0x6a4>
 670:	0c3f012e 	ldfeqs	f0, [pc], #-184	; 5c0 <__STACKSEAL_SIZE+0x5c0>
 674:	0b3a0e03 	bleq	e83e88 <__ROM_SIZE+0xe03e88>
 678:	0b390b3b 	bleq	e4336c <__ROM_SIZE+0xdc336c>
 67c:	13490c27 	movtne	r0, #39975	; 0x9c27
 680:	01120111 	tsteq	r2, r1, lsl r1
 684:	42970a40 	addsmi	r0, r7, #64, 20	; 0x40000
 688:	0c00000c 	stceq	0, cr0, [r0], {12}
 68c:	08030005 	stmdaeq	r3, {r0, r2}
 690:	0b3b0b3a 	bleq	ec3380 <__ROM_SIZE+0xe43380>
 694:	13490b39 	movtne	r0, #39737	; 0x9b39
 698:	00000a02 	andeq	r0, r0, r2, lsl #20
 69c:	01110100 	tsteq	r1, r0, lsl #2
 6a0:	0b130e25 	bleq	4c3f3c <__ROM_SIZE+0x443f3c>
 6a4:	0e1b0e03 	cdpeq	14, 1, cr0, cr11, cr3, {0}
 6a8:	01110655 	tsteq	r1, r5, asr r6
 6ac:	06100152 			; <UNDEFINED> instruction: 0x06100152
 6b0:	24020000 	strcs	r0, [r2], #-0
 6b4:	3e0b0b00 	vmlacc.f64	d0, d11, d0
 6b8:	000e030b 	andeq	r0, lr, fp, lsl #6
 6bc:	00160300 	andseq	r0, r6, r0, lsl #6
 6c0:	0b3a0e03 	bleq	e83ed4 <__ROM_SIZE+0xe03ed4>
 6c4:	0b390b3b 	bleq	e433b8 <__ROM_SIZE+0xdc33b8>
 6c8:	00001349 	andeq	r1, r0, r9, asr #6
 6cc:	0b002404 	bleq	96e4 <__HEAP_SIZE+0x86e4>
 6d0:	030b3e0b 	movweq	r3, #48651	; 0xbe0b
 6d4:	05000008 	streq	r0, [r0, #-8]
 6d8:	0e030113 	mcreq	1, 0, r0, cr3, cr3, {0}
 6dc:	0b3a0b0b 	bleq	e83310 <__ROM_SIZE+0xe03310>
 6e0:	0b390b3b 	bleq	e433d4 <__ROM_SIZE+0xdc33d4>
 6e4:	00001301 	andeq	r1, r0, r1, lsl #6
 6e8:	03000d06 	movweq	r0, #3334	; 0xd06
 6ec:	3b0b3a08 	blcc	2cef14 <__ROM_SIZE+0x24ef14>
 6f0:	490b390b 	stmdbmi	fp, {r0, r1, r3, r8, fp, ip, sp}
 6f4:	000a3813 	andeq	r3, sl, r3, lsl r8
 6f8:	000d0700 	andeq	r0, sp, r0, lsl #14
 6fc:	0b3a0e03 	bleq	e83f10 <__ROM_SIZE+0xe03f10>
 700:	0b390b3b 	bleq	e433f4 <__ROM_SIZE+0xdc33f4>
 704:	0a381349 	beq	e05430 <__ROM_SIZE+0xd85430>
 708:	34080000 	strcc	r0, [r8], #-0
 70c:	3a0e0300 	bcc	381314 <__ROM_SIZE+0x301314>
 710:	390b3b0b 	stmdbcc	fp, {r0, r1, r3, r8, r9, fp, ip, sp}
 714:	3f13490b 	svccc	0x0013490b
 718:	000c3c0c 	andeq	r3, ip, ip, lsl #24
 71c:	012e0900 			; <UNDEFINED> instruction: 0x012e0900
 720:	0e030c3f 	mcreq	12, 0, r0, cr3, cr15, {1}
 724:	0b3b0b3a 	bleq	ec3414 <__ROM_SIZE+0xe43414>
 728:	0c270b39 			; <UNDEFINED> instruction: 0x0c270b39
 72c:	01120111 	tsteq	r2, r1, lsl r1
 730:	42970640 	addsmi	r0, r7, #64, 12	; 0x4000000
 734:	0013010c 	andseq	r0, r3, ip, lsl #2
 738:	00340a00 	eorseq	r0, r4, r0, lsl #20
 73c:	0b3a0803 	bleq	e82750 <__ROM_SIZE+0xe02750>
 740:	0b390b3b 	bleq	e43434 <__ROM_SIZE+0xdc3434>
 744:	06021349 	streq	r1, [r2], -r9, asr #6
 748:	000642b7 			; <UNDEFINED> instruction: 0x000642b7
 74c:	82890b00 	addhi	r0, r9, #0, 22
 750:	01110001 	tsteq	r1, r1
 754:	00001331 	andeq	r1, r0, r1, lsr r3
 758:	0182890c 	orreq	r8, r2, ip, lsl #18
 75c:	31011101 	tstcc	r1, r1, lsl #2
 760:	0d000013 	stceq	0, cr0, [r0, #-76]	; 0xffffffb4
 764:	0001828a 	andeq	r8, r1, sl, lsl #5
 768:	42910a02 	addsmi	r0, r1, #8192	; 0x2000
 76c:	0e00000a 	cdpeq	0, 0, cr0, cr0, cr10, {0}
 770:	0e03012e 	adfeqsp	f0, f3, #0.5
 774:	0b3b0b3a 	bleq	ec3464 <__ROM_SIZE+0xe43464>
 778:	0c270b39 			; <UNDEFINED> instruction: 0x0c270b39
 77c:	01111349 	tsteq	r1, r9, asr #6
 780:	0a400112 	beq	1000bd0 <__ROM_SIZE+0xf80bd0>
 784:	010c4297 			; <UNDEFINED> instruction: 0x010c4297
 788:	0f000013 	svceq	0x00000013
 78c:	0e030034 	mcreq	0, 0, r0, cr3, cr4, {1}
 790:	0b3b0b3a 	bleq	ec3480 <__ROM_SIZE+0xe43480>
 794:	13490b39 	movtne	r0, #39737	; 0x9b39
 798:	42b70602 	adcsmi	r0, r7, #2097152	; 0x200000
 79c:	10000006 	andne	r0, r0, r6
 7a0:	1331011d 	teqne	r1, #1073741831	; 0x40000007
 7a4:	42b80152 	adcsmi	r0, r8, #-2147483628	; 0x80000014
 7a8:	1201110b 	andne	r1, r1, #-1073741822	; 0xc0000002
 7ac:	590b5801 	stmdbpl	fp, {r0, fp, ip, lr}
 7b0:	010b570b 	tsteq	fp, fp, lsl #14
 7b4:	11000013 	tstne	r0, r3, lsl r0
 7b8:	13310034 	teqne	r1, #52	; 0x34
 7bc:	42b70602 	adcsmi	r0, r7, #2097152	; 0x200000
 7c0:	12000006 	andne	r0, r0, #6
 7c4:	1331011d 	teqne	r1, #1073741831	; 0x40000007
 7c8:	42b80152 	adcsmi	r0, r8, #-2147483628	; 0x80000014
 7cc:	1201110b 	andne	r1, r1, #-1073741822	; 0xc0000002
 7d0:	590b5801 	stmdbpl	fp, {r0, fp, ip, lr}
 7d4:	000b570b 	andeq	r5, fp, fp, lsl #14
 7d8:	00051300 	andeq	r1, r5, r0, lsl #6
 7dc:	0b3a0e03 	bleq	e83ff0 <__ROM_SIZE+0xe03ff0>
 7e0:	0b390b3b 	bleq	e434d4 <__ROM_SIZE+0xdc34d4>
 7e4:	06021349 	streq	r1, [r2], -r9, asr #6
 7e8:	000642b7 			; <UNDEFINED> instruction: 0x000642b7
 7ec:	00341400 	eorseq	r1, r4, r0, lsl #8
 7f0:	0b3a0e03 	bleq	e84004 <__ROM_SIZE+0xe04004>
 7f4:	0b390b3b 	bleq	e434e8 <__ROM_SIZE+0xdc34e8>
 7f8:	0a021349 	beq	85524 <__ROM_SIZE+0x5524>
 7fc:	34150000 	ldrcc	r0, [r5], #-0
 800:	3a0e0300 	bcc	381408 <__ROM_SIZE+0x301408>
 804:	390b3b0b 	stmdbcc	fp, {r0, r1, r3, r8, r9, fp, ip, sp}
 808:	1c13490b 			; <UNDEFINED> instruction: 0x1c13490b
 80c:	1600000b 	strne	r0, [r0], -fp
 810:	0111010b 	tsteq	r1, fp, lsl #2
 814:	13010112 	movwne	r0, #4370	; 0x1112
 818:	89170000 	ldmdbhi	r7, {}	; <UNPREDICTABLE>
 81c:	11010182 	smlabbne	r1, r2, r1, r0
 820:	01133101 	tsteq	r3, r1, lsl #2
 824:	18000013 	stmdane	r0, {r0, r1, r4}
 828:	0b0b000f 	bleq	2c086c <__ROM_SIZE+0x24086c>
 82c:	00001349 	andeq	r1, r0, r9, asr #6
 830:	03000519 	movweq	r0, #1305	; 0x519
 834:	3b0b3a08 	blcc	2cf05c <__ROM_SIZE+0x24f05c>
 838:	490b390b 	stmdbmi	fp, {r0, r1, r3, r8, fp, ip, sp}
 83c:	b7060213 	smladlt	r6, r3, r2, r0
 840:	00000642 	andeq	r0, r0, r2, asr #12
 844:	03012e1a 	movweq	r2, #7706	; 0x1e1a
 848:	3b0b3a0e 	blcc	2cf088 <__ROM_SIZE+0x24f088>
 84c:	270b390b 	strcs	r3, [fp, -fp, lsl #18]
 850:	1113490c 	tstne	r3, ip, lsl #18
 854:	40011201 	andmi	r1, r1, r1, lsl #4
 858:	0c429706 	mcrreq	7, 0, r9, r2, cr6
 85c:	00001301 	andeq	r1, r0, r1, lsl #6
 860:	11010b1b 	tstne	r1, fp, lsl fp
 864:	00011201 	andeq	r1, r1, r1, lsl #4
 868:	01011c00 	tsteq	r1, r0, lsl #24
 86c:	13011349 	movwne	r1, #4937	; 0x1349
 870:	211d0000 	tstcs	sp, r0
 874:	2f134900 	svccs	0x00134900
 878:	1e00000b 	cdpne	0, 0, cr0, cr0, cr11, {0}
 87c:	0e03012e 	adfeqsp	f0, f3, #0.5
 880:	053b0b3a 	ldreq	r0, [fp, #-2874]!	; 0xfffff4c6
 884:	0c270b39 			; <UNDEFINED> instruction: 0x0c270b39
 888:	0b201349 	bleq	8055b4 <__ROM_SIZE+0x7855b4>
 88c:	00001301 	andeq	r1, r0, r1, lsl #6
 890:	0300341f 	movweq	r3, #1055	; 0x41f
 894:	3b0b3a0e 	blcc	2cf0d4 <__ROM_SIZE+0x24f0d4>
 898:	490b3905 	stmdbmi	fp, {r0, r2, r8, fp, ip, sp}
 89c:	20000013 	andcs	r0, r0, r3, lsl r0
 8a0:	0c3f002e 	ldceq	0, cr0, [pc], #-184	; 7f0 <__Vectors_Size+0x30>
 8a4:	40870c3c 	addmi	r0, r7, ip, lsr ip
 8a8:	3a0e030e 	bcc	3814e8 <__ROM_SIZE+0x3014e8>
 8ac:	390b3b0b 	stmdbcc	fp, {r0, r1, r3, r8, r9, fp, ip, sp}
 8b0:	2100000b 	tstcs	r0, fp
 8b4:	0c3f002e 	ldceq	0, cr0, [pc], #-184	; 804 <__Vectors_Size+0x44>
 8b8:	40870c3c 	addmi	r0, r7, ip, lsr ip
 8bc:	3a0e030e 	bcc	3814fc <__ROM_SIZE+0x3014fc>
 8c0:	000b3b0b 	andeq	r3, fp, fp, lsl #22
 8c4:	11010000 	mrsne	r0, (UNDEF: 1)
 8c8:	11061000 	mrsne	r1, (UNDEF: 6)
 8cc:	03011201 	movweq	r1, #4609	; 0x1201
 8d0:	250e1b0e 	strcs	r1, [lr, #-2830]	; 0xfffff4f2
 8d4:	0005130e 	andeq	r1, r5, lr, lsl #6
 8d8:	11010000 	mrsne	r0, (UNDEF: 1)
 8dc:	11061000 	mrsne	r1, (UNDEF: 6)
 8e0:	03011201 	movweq	r1, #4609	; 0x1201
 8e4:	250e1b0e 	strcs	r1, [lr, #-2830]	; 0xfffff4f2
 8e8:	0005130e 	andeq	r1, r5, lr, lsl #6
	...

Disassembly of section .debug_loc:

00000000 <.debug_loc>:
       0:	10000804 	andne	r0, r0, r4, lsl #16
       4:	10000806 	andne	r0, r0, r6, lsl #16
       8:	007d0002 	rsbseq	r0, sp, r2
       c:	10000806 	andne	r0, r0, r6, lsl #16
      10:	10000828 	andne	r0, r0, r8, lsr #16
      14:	087d0002 	ldmdaeq	sp!, {r1}^
	...
      20:	00000001 	andeq	r0, r0, r1
      24:	08060000 	stmdaeq	r6, {}	; <UNPREDICTABLE>
      28:	08121000 	ldmdaeq	r2, {ip}
      2c:	00021000 	andeq	r1, r2, r0
      30:	08129f30 	ldmdaeq	r2, {r4, r5, r8, r9, sl, fp, ip, pc}
      34:	08161000 	ldmdaeq	r6, {ip}
      38:	00011000 	andeq	r1, r1, r0
      3c:	00081651 	andeq	r1, r8, r1, asr r6
      40:	00082810 	andeq	r2, r8, r0, lsl r8
      44:	54000110 	strpl	r0, [r0], #-272	; 0xfffffef0
	...
      58:	007d0002 	rsbseq	r0, sp, r2
	...
      64:	087d0002 	ldmdaeq	sp!, {r1}^
	...
      78:	007d0002 	rsbseq	r0, sp, r2
	...
      84:	087d0002 	ldmdaeq	sp!, {r1}^
	...
      98:	007d0002 	rsbseq	r0, sp, r2
	...
      a4:	087d0002 	ldmdaeq	sp!, {r1}^
	...
      b0:	0c7d0002 	ldcleq	0, cr0, [sp], #-8
	...
      bc:	287d0002 	ldmdacs	sp!, {r1}^
	...
      c8:	0c7d0002 	ldcleq	0, cr0, [sp], #-8
	...
      d4:	087d0002 	ldmdaeq	sp!, {r1}^
	...
      e0:	007d0002 	rsbseq	r0, sp, r2
	...
      f8:	00010000 	andeq	r0, r1, r0
      fc:	00000050 	andeq	r0, r0, r0, asr r0
     100:	00000000 	andeq	r0, r0, r0
     104:	91000200 	mrsls	r0, R8_usr
     108:	00000054 	andeq	r0, r0, r4, asr r0
     10c:	00000000 	andeq	r0, r0, r0
     110:	f3000400 	vshl.u8	d0, d0, d0
     114:	009f5001 	addseq	r5, pc, r1
	...
     128:	01000000 	mrseq	r0, (UNDEF: 0)
     12c:	00005100 	andeq	r5, r0, r0, lsl #2
     130:	00000000 	andeq	r0, r0, r0
     134:	00040000 	andeq	r0, r4, r0
     138:	9f5101f3 	svcls	0x005101f3
	...
     14c:	00010000 	andeq	r0, r1, r0
     150:	00000050 	andeq	r0, r0, r0, asr r0
	...
     160:	7d000200 	sfmvc	f0, 4, [r0, #-0]
	...
     16c:	7d000200 	sfmvc	f0, 4, [r0, #-0]
     170:	00000004 	andeq	r0, r0, r4
     174:	00000000 	andeq	r0, r0, r0
     178:	7d000200 	sfmvc	f0, 4, [r0, #-0]
     17c:	00000010 	andeq	r0, r0, r0, lsl r0
     180:	00000000 	andeq	r0, r0, r0
     184:	7d000200 	sfmvc	f0, 4, [r0, #-0]
     188:	00000004 	andeq	r0, r0, r4
	...
     19c:	01000000 	mrseq	r0, (UNDEF: 0)
     1a0:	00005000 	andeq	r5, r0, r0
     1a4:	00000000 	andeq	r0, r0, r0
     1a8:	00010000 	andeq	r0, r1, r0
     1ac:	00000051 	andeq	r0, r0, r1, asr r0
     1b0:	00000000 	andeq	r0, r0, r0
     1b4:	f3000400 	vshl.u8	d0, d0, d0
     1b8:	009f5001 	addseq	r5, pc, r1
	...
     1d0:	51000100 	mrspl	r0, (UNDEF: 16)
	...
     1dc:	00520001 	subseq	r0, r2, r1
     1e0:	00000000 	andeq	r0, r0, r0
     1e4:	04000000 	streq	r0, [r0], #-0
     1e8:	5101f300 	mrspl	pc, SP_irq	; <UNPREDICTABLE>
     1ec:	0000009f 	muleq	r0, pc, r0	; <UNPREDICTABLE>
	...
     200:	01000000 	mrseq	r0, (UNDEF: 0)
     204:	00005200 	andeq	r5, r0, r0, lsl #4
     208:	00000000 	andeq	r0, r0, r0
     20c:	00010000 	andeq	r0, r1, r0
     210:	00000053 	andeq	r0, r0, r3, asr r0
     214:	00000000 	andeq	r0, r0, r0
     218:	f3000400 	vshl.u8	d0, d0, d0
     21c:	009f5201 	addseq	r5, pc, r1, lsl #4
	...
     230:	53000100 	movwpl	r0, #256	; 0x100
	...
     244:	007d0002 	rsbseq	r0, sp, r2
	...
     250:	047d0002 	ldrbteq	r0, [sp], #-2
	...
     25c:	187d0002 	ldmdane	sp!, {r1}^
	...
     268:	047d0002 	ldrbteq	r0, [sp], #-2
	...
     280:	00010000 	andeq	r0, r1, r0
     284:	00000050 	andeq	r0, r0, r0, asr r0
     288:	00000000 	andeq	r0, r0, r0
     28c:	53000100 	movwpl	r0, #256	; 0x100
	...
     298:	01f30004 	mvnseq	r0, r4
     29c:	00009f50 	andeq	r9, r0, r0, asr pc
	...
     2b0:	00510001 	subseq	r0, r1, r1
	...
     2c0:	02000000 	andeq	r0, r0, #0
     2c4:	00007d00 	andeq	r7, r0, r0, lsl #26
     2c8:	00000000 	andeq	r0, r0, r0
     2cc:	02000000 	andeq	r0, r0, #0
     2d0:	00087d00 	andeq	r7, r8, r0, lsl #26
     2d4:	00000000 	andeq	r0, r0, r0
     2d8:	02000000 	andeq	r0, r0, #0
     2dc:	00107d00 	andseq	r7, r0, r0, lsl #26
     2e0:	00000000 	andeq	r0, r0, r0
     2e4:	02000000 	andeq	r0, r0, #0
     2e8:	00207d00 	eoreq	r7, r0, r0, lsl #26
     2ec:	00000000 	andeq	r0, r0, r0
     2f0:	02000000 	andeq	r0, r0, #0
     2f4:	00107d00 	andseq	r7, r0, r0, lsl #26
     2f8:	00000000 	andeq	r0, r0, r0
     2fc:	02000000 	andeq	r0, r0, #0
     300:	00087d00 	andeq	r7, r8, r0, lsl #26
     304:	00000000 	andeq	r0, r0, r0
     308:	02000000 	andeq	r0, r0, #0
     30c:	00007d00 	andeq	r7, r0, r0, lsl #26
	...
     324:	50000100 	andpl	r0, r0, r0, lsl #2
	...
     330:	00510001 	subseq	r0, r1, r1
     334:	00000000 	andeq	r0, r0, r0
     338:	04000000 	streq	r0, [r0], #-0
     33c:	5001f300 	andpl	pc, r1, r0, lsl #6
     340:	0000009f 	muleq	r0, pc, r0	; <UNPREDICTABLE>
	...
     354:	01000000 	mrseq	r0, (UNDEF: 0)
     358:	00005100 	andeq	r5, r0, r0, lsl #2
     35c:	00000000 	andeq	r0, r0, r0
     360:	00010000 	andeq	r0, r1, r0
     364:	00000052 	andeq	r0, r0, r2, asr r0
     368:	00000000 	andeq	r0, r0, r0
     36c:	f3000400 	vshl.u8	d0, d0, d0
     370:	009f5101 	addseq	r5, pc, r1, lsl #2
	...
     384:	50000100 	andpl	r0, r0, r0, lsl #2
	...
     398:	007d0002 	rsbseq	r0, sp, r2
	...
     3a4:	0c7d0002 	ldcleq	0, cr0, [sp], #-8
	...
     3b0:	107d0002 	rsbsne	r0, sp, r2
	...
     3bc:	207d0002 	rsbscs	r0, sp, r2
	...
     3c8:	107d0002 	rsbsne	r0, sp, r2
	...
     3d4:	0c7d0002 	ldcleq	0, cr0, [sp], #-8
	...
     3e0:	007d0002 	rsbseq	r0, sp, r2
	...
     3f8:	00010000 	andeq	r0, r1, r0
     3fc:	00000050 	andeq	r0, r0, r0, asr r0
     400:	00000000 	andeq	r0, r0, r0
     404:	51000100 	mrspl	r0, (UNDEF: 16)
	...
     410:	01f30004 	mvnseq	r0, r4
     414:	00009f50 	andeq	r9, r0, r0, asr pc
	...
     428:	00500001 	subseq	r0, r0, r1
     42c:	00000000 	andeq	r0, r0, r0
     430:	a4000000 	strge	r0, [r0], #-0
     434:	a6100019 			; <UNDEFINED> instruction: 0xa6100019
     438:	02100019 	andseq	r0, r0, #25
     43c:	a6007d00 	strge	r7, [r0], -r0, lsl #26
     440:	a8100019 	ldmdage	r0, {r0, r3, r4}
     444:	02100019 	andseq	r0, r0, #25
     448:	a8107d00 	ldmdage	r0, {r8, sl, fp, ip, sp, lr}
     44c:	aa100019 	bge	4004b8 <__ROM_SIZE+0x3804b8>
     450:	02100019 	andseq	r0, r0, #25
     454:	aa147d00 	bge	51f85c <__ROM_SIZE+0x49f85c>
     458:	c2100019 	andsgt	r0, r0, #25
     45c:	02100019 	andseq	r0, r0, #25
     460:	c2287d00 	eorgt	r7, r8, #0, 26
     464:	c6100019 			; <UNDEFINED> instruction: 0xc6100019
     468:	02100019 	andseq	r0, r0, #25
     46c:	c6147d00 	ldrgt	r7, [r4], -r0, lsl #26
     470:	c8100019 	ldmdagt	r0, {r0, r3, r4}
     474:	02100019 	andseq	r0, r0, #25
     478:	c8107d00 	ldmdagt	r0, {r8, sl, fp, ip, sp, lr}
     47c:	d0100019 	andsle	r0, r0, r9, lsl r0
     480:	02100019 	andseq	r0, r0, #25
     484:	00007d00 	andeq	r7, r0, r0, lsl #26
	...
     490:	0019c000 	andseq	ip, r9, r0
     494:	0019d010 	andseq	sp, r9, r0, lsl r0
     498:	50000110 	andpl	r0, r0, r0, lsl r1
	...
     4a4:	10001318 	andne	r1, r0, r8, lsl r3
     4a8:	1000131c 	andne	r1, r0, ip, lsl r3
     4ac:	007d0002 	rsbseq	r0, sp, r2
     4b0:	1000131c 	andne	r1, r0, ip, lsl r3
     4b4:	1000131e 	andne	r1, r0, lr, lsl r3
     4b8:	247d0002 	ldrbtcs	r0, [sp], #-2
     4bc:	1000131e 	andne	r1, r0, lr, lsl r3
     4c0:	1000198e 	andne	r1, r0, lr, lsl #19
     4c4:	e07d0003 	rsbs	r0, sp, r3
     4c8:	00198e00 	andseq	r8, r9, r0, lsl #28
     4cc:	00199810 	andseq	r9, r9, r0, lsl r8
     4d0:	7d000210 	sfmvc	f0, 4, [r0, #-64]	; 0xffffffc0
     4d4:	00000024 	andeq	r0, r0, r4, lsr #32
	...
     4e4:	00131800 	andseq	r1, r3, r0, lsl #16
     4e8:	00132c10 	andseq	r2, r3, r0, lsl ip
     4ec:	50000110 	andpl	r0, r0, r0, lsl r1
     4f0:	1000132e 	andne	r1, r0, lr, lsr #6
     4f4:	10001974 	andne	r1, r0, r4, ror r9
     4f8:	74570001 	ldrbvc	r0, [r7], #-1
     4fc:	78100019 	ldmdavc	r0, {r0, r3, r4}
     500:	01100019 	tsteq	r0, r9, lsl r0
     504:	19785000 	ldmdbne	r8!, {ip, lr}^
     508:	19921000 	ldmibne	r2, {ip}
     50c:	00011000 	andeq	r1, r1, r0
     510:	00000057 	andeq	r0, r0, r7, asr r0
	...
     520:	18000000 	stmdane	r0, {}	; <UNPREDICTABLE>
     524:	2e100013 	mrccs	0, 0, r0, cr0, cr3, {0}
     528:	01100013 	tsteq	r0, r3, lsl r0
     52c:	132e5100 			; <UNDEFINED> instruction: 0x132e5100
     530:	19741000 	ldmdbne	r4!, {ip}^
     534:	00011000 	andeq	r1, r1, r0
     538:	00197458 	andseq	r7, r9, r8, asr r4
     53c:	00197810 	andseq	r7, r9, r0, lsl r8
     540:	51000110 	tstpl	r0, r0, lsl r1
     544:	10001978 	andne	r1, r0, r8, ror r9
     548:	10001992 	mulne	r0, r2, r9
     54c:	92580001 	subsls	r0, r8, #1
     550:	98100019 	ldmdals	r0, {r0, r3, r4}
     554:	04100019 	ldreq	r0, [r0], #-25	; 0xffffffe7
     558:	5101f300 	mrspl	pc, SP_irq	; <UNPREDICTABLE>
     55c:	0000009f 	muleq	r0, pc, r0	; <UNPREDICTABLE>
	...
     574:	18000000 	stmdane	r0, {}	; <UNPREDICTABLE>
     578:	2e100013 	mrccs	0, 0, r0, cr0, cr3, {0}
     57c:	01100013 	tsteq	r0, r3, lsl r0
     580:	132e5200 			; <UNDEFINED> instruction: 0x132e5200
     584:	18961000 	ldmne	r6, {ip}
     588:	00011000 	andeq	r1, r1, r0
     58c:	00189656 	andseq	r9, r8, r6, asr r6
     590:	00189810 	andseq	r9, r8, r0, lsl r8
     594:	5b000110 	blpl	9dc <__Vectors_Size+0x21c>
     598:	10001898 	mulne	r0, r8, r8
     59c:	100018c2 	andne	r1, r0, r2, asr #17
     5a0:	c2560001 	subsgt	r0, r6, #1
     5a4:	ec100018 	ldc	0, cr0, [r0], {24}
     5a8:	01100018 	tsteq	r0, r8, lsl r0
     5ac:	18ec5b00 	stmiane	ip!, {r8, r9, fp, ip, lr}^
     5b0:	19741000 	ldmdbne	r4!, {ip}^
     5b4:	00011000 	andeq	r1, r1, r0
     5b8:	00197456 	andseq	r7, r9, r6, asr r4
     5bc:	00197810 	andseq	r7, r9, r0, lsl r8
     5c0:	52000110 	andpl	r0, r0, #16, 2
     5c4:	10001978 	andne	r1, r0, r8, ror r9
     5c8:	10001992 	mulne	r0, r2, r9
     5cc:	92560001 	subsls	r0, r6, #1
     5d0:	98100019 	ldmdals	r0, {r0, r3, r4}
     5d4:	04100019 	ldreq	r0, [r0], #-25	; 0xffffffe7
     5d8:	5201f300 	andpl	pc, r1, #0, 6
     5dc:	0000009f 	muleq	r0, pc, r0	; <UNPREDICTABLE>
	...
     5e8:	00131800 	andseq	r1, r3, r0, lsl #16
     5ec:	00132e10 	andseq	r2, r3, r0, lsl lr
     5f0:	53000110 	movwpl	r0, #272	; 0x110
     5f4:	10001974 	andne	r1, r0, r4, ror r9
     5f8:	10001978 	andne	r1, r0, r8, ror r9
     5fc:	00530001 	subseq	r0, r3, r1
     600:	00000000 	andeq	r0, r0, r0
     604:	01000000 	mrseq	r0, (UNDEF: 0)
	...
     61c:	54000000 	strpl	r0, [r0], #-0
     620:	56100013 			; <UNDEFINED> instruction: 0x56100013
     624:	02100013 	andseq	r0, r0, #19
     628:	569f3000 	ldrpl	r3, [pc], r0
     62c:	54100013 	ldrpl	r0, [r0], #-19	; 0xffffffed
     630:	01100014 	tsteq	r0, r4, lsl r0
     634:	14545500 	ldrbne	r5, [r4], #-1280	; 0xfffffb00
     638:	14661000 	strbtne	r1, [r6], #-0
     63c:	00011000 	andeq	r1, r1, r0
     640:	00146651 	andseq	r6, r4, r1, asr r6
     644:	00147010 	andseq	r7, r4, r0, lsl r0
     648:	55000110 	strpl	r0, [r0, #-272]	; 0xfffffef0
     64c:	10001470 	andne	r1, r0, r0, ror r4
     650:	10001482 	andne	r1, r0, r2, lsl #9
     654:	82510001 	subshi	r0, r1, #1
     658:	30100014 	andscc	r0, r0, r4, lsl r0
     65c:	01100016 	tsteq	r0, r6, lsl r0
     660:	16385500 	ldrtne	r5, [r8], -r0, lsl #10
     664:	16541000 	ldrbne	r1, [r4], -r0
     668:	00011000 	andeq	r1, r1, r0
     66c:	00165455 	andseq	r5, r6, r5, asr r4
     670:	00167310 	andseq	r7, r6, r0, lsl r3
     674:	91000210 	tstls	r0, r0, lsl r2
     678:	00167840 	andseq	r7, r6, r0, asr #16
     67c:	0017dc10 	andseq	sp, r7, r0, lsl ip
     680:	55000110 	strpl	r0, [r0, #-272]	; 0xfffffef0
     684:	1000184a 	andne	r1, r0, sl, asr #16
     688:	100018a4 	andne	r1, r0, r4, lsr #17
     68c:	14550001 	ldrbne	r0, [r5], #-1
     690:	4c100019 	ldcmi	0, cr0, [r0], {25}
     694:	01100019 	tsteq	r0, r9, lsl r0
     698:	19605500 	stmdbne	r0!, {r8, sl, ip, lr}^
     69c:	19621000 	stmdbne	r2!, {ip}^
     6a0:	00011000 	andeq	r1, r1, r0
     6a4:	00000055 	andeq	r0, r0, r5, asr r0
     6a8:	00000000 	andeq	r0, r0, r0
     6ac:	00000200 	andeq	r0, r0, r0, lsl #4
	...
     6bc:	02020000 	andeq	r0, r2, #0
     6c0:	78000000 	stmdavc	r0, {}	; <UNPREDICTABLE>
     6c4:	8a100013 	bhi	400718 <__ROM_SIZE+0x380718>
     6c8:	02100013 	andseq	r0, r0, #19
     6cc:	8a9f3000 	bhi	fe7cc6d4 <__StackTop+0xc67ac6d4>
     6d0:	b7100013 			; <UNDEFINED> instruction: 0xb7100013
     6d4:	02100013 	andseq	r0, r0, #19
     6d8:	ea489100 	b	1224ae0 <__ROM_SIZE+0x11a4ae0>
     6dc:	f2100013 	vqadd.s16	d0, d0, d3
     6e0:	02100013 	andseq	r0, r0, #19
     6e4:	f29f3000 	vaddl.s16	<illegal reg q1.5>, d15, d0
     6e8:	f4100013 			; <UNDEFINED> instruction: 0xf4100013
     6ec:	01100013 	tsteq	r0, r3, lsl r0
     6f0:	13f45000 	mvnsne	r5, #0
     6f4:	14021000 	strne	r1, [r2], #-0
     6f8:	00021000 	andeq	r1, r2, r0
     6fc:	14029f30 	strne	r9, [r2], #-3888	; 0xfffff0d0
     700:	140a1000 	strne	r1, [sl], #-0
     704:	00021000 	andeq	r1, r2, r0
     708:	140a4891 	strne	r4, [sl], #-2193	; 0xfffff76f
     70c:	14121000 	ldrne	r1, [r2], #-0
     710:	00021000 	andeq	r1, r2, r0
     714:	14129f30 	ldrne	r9, [r2], #-3888	; 0xfffff0d0
     718:	14141000 	ldrne	r1, [r4], #-0
     71c:	00011000 	andeq	r1, r1, r0
     720:	00141453 	andseq	r1, r4, r3, asr r4
     724:	00191410 	andseq	r1, r9, r0, lsl r4
     728:	91000210 	tstls	r0, r0, lsl r2
     72c:	00191448 	andseq	r1, r9, r8, asr #8
     730:	00194a10 	andseq	r4, r9, r0, lsl sl
     734:	38000210 	stmdacc	r0, {r4, r9}
     738:	00194a9f 	mulseq	r9, pc, sl	; <UNPREDICTABLE>
     73c:	00197410 	andseq	r7, r9, r0, lsl r4
     740:	91000210 	tstls	r0, r0, lsl r2
     744:	00000048 	andeq	r0, r0, r8, asr #32
     748:	00000000 	andeq	r0, r0, r0
     74c:	00000100 	andeq	r0, r0, r0, lsl #2
	...
     768:	8a000000 	bhi	770 <__STACKSEAL_SIZE+0x770>
     76c:	96100013 			; <UNDEFINED> instruction: 0x96100013
     770:	02100013 	andseq	r0, r0, #19
     774:	969f3000 	ldrls	r3, [pc], r0
     778:	b7100013 			; <UNDEFINED> instruction: 0xb7100013
     77c:	01100013 	tsteq	r0, r3, lsl r0
     780:	14145b00 	ldrne	r5, [r4], #-2816	; 0xfffff500
     784:	143a1000 	ldrtne	r1, [sl], #-0
     788:	00021000 	andeq	r1, r2, r0
     78c:	143a9f30 	ldrtne	r9, [sl], #-3888	; 0xfffff0d0
     790:	143c1000 	ldrtne	r1, [ip], #-0
     794:	00011000 	andeq	r1, r1, r0
     798:	00143c50 	andseq	r3, r4, r0, asr ip
     79c:	00144810 	andseq	r4, r4, r0, lsl r8
     7a0:	30000210 	andcc	r0, r0, r0, lsl r2
     7a4:	0014489f 	mulseq	r4, pc, r8	; <UNPREDICTABLE>
     7a8:	0017e210 	andseq	lr, r7, r0, lsl r2
     7ac:	5b000110 	blpl	bf4 <__Vectors_Size+0x434>
     7b0:	1000181e 	andne	r1, r0, lr, lsl r8
     7b4:	10001824 	andne	r1, r0, r4, lsr #16
     7b8:	4a5b0001 	bmi	16c07c4 <__ROM_SIZE+0x16407c4>
     7bc:	94100018 	ldrls	r0, [r0], #-24	; 0xffffffe8
     7c0:	01100018 	tsteq	r0, r8, lsl r0
     7c4:	18945b00 	ldmne	r4, {r8, r9, fp, ip, lr}
     7c8:	18981000 	ldmne	r8, {ip}
     7cc:	00011000 	andeq	r1, r1, r0
     7d0:	00189854 	andseq	r9, r8, r4, asr r8
     7d4:	0018c010 	andseq	ip, r8, r0, lsl r0
     7d8:	5b000110 	blpl	c20 <__Vectors_Size+0x460>
     7dc:	100018c0 	andne	r1, r0, r0, asr #17
     7e0:	100018c4 	andne	r1, r0, r4, asr #17
     7e4:	c4540001 	ldrbgt	r0, [r4], #-1
     7e8:	c6100018 			; <UNDEFINED> instruction: 0xc6100018
     7ec:	01100018 	tsteq	r0, r8, lsl r0
     7f0:	18c65300 	stmiane	r6, {r8, r9, ip, lr}^
     7f4:	18e01000 	stmiane	r0!, {ip}^
     7f8:	00011000 	andeq	r1, r1, r0
     7fc:	0018e054 	andseq	lr, r8, r4, asr r0
     800:	0018e410 	andseq	lr, r8, r0, lsl r4
     804:	53000110 	movwpl	r0, #272	; 0x110
     808:	10001914 	andne	r1, r0, r4, lsl r9
     80c:	10001974 	andne	r1, r0, r4, ror r9
     810:	005b0001 	subseq	r0, fp, r1
	...
     81c:	01000100 	mrseq	r0, (UNDEF: 16)
     820:	01000100 	mrseq	r0, (UNDEF: 16)
     824:	00000100 	andeq	r0, r0, r0, lsl #2
     828:	00137800 	andseq	r7, r3, r0, lsl #16
     82c:	0013b710 	andseq	fp, r3, r0, lsl r7
     830:	30000210 	andcc	r0, r0, r0, lsl r2
     834:	0013c09f 	mulseq	r3, pc, r0	; <UNPREDICTABLE>
     838:	0013c210 	andseq	ip, r3, r0, lsl r2
     83c:	31000210 	tstcc	r0, r0, lsl r2
     840:	0013ca9f 	mulseq	r3, pc, sl	; <UNPREDICTABLE>
     844:	0013cc10 	andseq	ip, r3, r0, lsl ip
     848:	31000210 	tstcc	r0, r0, lsl r2
     84c:	0013d49f 	mulseq	r3, pc, r4	; <UNPREDICTABLE>
     850:	0013d610 	andseq	sp, r3, r0, lsl r6
     854:	31000210 	tstcc	r0, r0, lsl r2
     858:	0013de9f 	mulseq	r3, pc, lr	; <UNPREDICTABLE>
     85c:	0013e010 	andseq	lr, r3, r0, lsl r0
     860:	31000210 	tstcc	r0, r0, lsl r2
     864:	0013e89f 	mulseq	r3, pc, r8	; <UNPREDICTABLE>
     868:	0013ea10 	andseq	lr, r3, r0, lsl sl
     86c:	31000210 	tstcc	r0, r0, lsl r2
     870:	0013ea9f 	mulseq	r3, pc, sl	; <UNPREDICTABLE>
     874:	00197410 	andseq	r7, r9, r0, lsl r4
     878:	30000210 	andcc	r0, r0, r0, lsl r2
     87c:	0000009f 	muleq	r0, pc, r0	; <UNPREDICTABLE>
     880:	00000000 	andeq	r0, r0, r0
     884:	00000200 	andeq	r0, r0, r0, lsl #4
	...
     8e4:	00132400 	andseq	r2, r3, r0, lsl #8
     8e8:	00132e10 	andseq	r2, r3, r0, lsl lr
     8ec:	30000210 	andcc	r0, r0, r0, lsl r2
     8f0:	00132e9f 	mulseq	r3, pc, lr	; <UNPREDICTABLE>
     8f4:	00133e10 	andseq	r3, r3, r0, lsl lr
     8f8:	54000110 	strpl	r0, [r0], #-272	; 0xfffffef0
     8fc:	1000133e 	andne	r1, r0, lr, lsr r3
     900:	10001350 	andne	r1, r0, r0, asr r3
     904:	50550001 	subspl	r0, r5, r1
     908:	da100013 	ble	40095c <__ROM_SIZE+0x38095c>
     90c:	01100015 	tsteq	r0, r5, lsl r0
     910:	15da5400 	ldrbne	r5, [sl, #1024]	; 0x400
     914:	15dc1000 	ldrbne	r1, [ip]
     918:	00011000 	andeq	r1, r1, r0
     91c:	0015dc50 	andseq	sp, r5, r0, asr ip
     920:	00163010 	andseq	r3, r6, r0, lsl r0
     924:	54000110 	strpl	r0, [r0], #-272	; 0xfffffef0
     928:	10001630 	andne	r1, r0, r0, lsr r6
     92c:	10001638 	andne	r1, r0, r8, lsr r6
     930:	38500001 	ldmdacc	r0, {r0}^
     934:	76100016 			; <UNDEFINED> instruction: 0x76100016
     938:	01100016 	tsteq	r0, r6, lsl r0
     93c:	16765400 	ldrbtne	r5, [r6], -r0, lsl #8
     940:	16781000 	ldrbtne	r1, [r8], -r0
     944:	00011000 	andeq	r1, r1, r0
     948:	00167850 	andseq	r7, r6, r0, asr r8
     94c:	0016b010 	andseq	fp, r6, r0, lsl r0
     950:	54000110 	strpl	r0, [r0], #-272	; 0xfffffef0
     954:	100016b0 			; <UNDEFINED> instruction: 0x100016b0
     958:	100016b2 			; <UNDEFINED> instruction: 0x100016b2
     95c:	b2500001 	subslt	r0, r0, #1
     960:	04100016 	ldreq	r0, [r0], #-22	; 0xffffffea
     964:	01100017 	tsteq	r0, r7, lsl r0
     968:	17045400 	strne	r5, [r4, -r0, lsl #8]
     96c:	17061000 	strne	r1, [r6, -r0]
     970:	00011000 	andeq	r1, r1, r0
     974:	00170650 	andseq	r0, r7, r0, asr r6
     978:	00172e10 	andseq	r2, r7, r0, lsl lr
     97c:	54000110 	strpl	r0, [r0], #-272	; 0xfffffef0
     980:	1000172e 	andne	r1, r0, lr, lsr #14
     984:	10001730 	andne	r1, r0, r0, lsr r7
     988:	30500001 	subscc	r0, r0, r1
     98c:	7c100017 	ldcvc	0, cr0, [r0], {23}
     990:	01100017 	tsteq	r0, r7, lsl r0
     994:	177c5400 	ldrbne	r5, [ip, -r0, lsl #8]!
     998:	17841000 	strne	r1, [r4, r0]
     99c:	00011000 	andeq	r1, r1, r0
     9a0:	00178450 	andseq	r8, r7, r0, asr r4
     9a4:	0017d010 	andseq	sp, r7, r0, lsl r0
     9a8:	54000110 	strpl	r0, [r0], #-272	; 0xfffffef0
     9ac:	100017d0 	ldrdne	r1, [r0], -r0
     9b0:	100017d8 	ldrdne	r1, [r0], -r8
     9b4:	d8500001 	ldmdale	r0, {r0}^
     9b8:	ec100017 	ldc	0, cr0, [r0], {23}
     9bc:	01100017 	tsteq	r0, r7, lsl r0
     9c0:	17ec5400 	strbne	r5, [ip, r0, lsl #8]!
     9c4:	18021000 	stmdane	r2, {ip}
     9c8:	00011000 	andeq	r1, r1, r0
     9cc:	0018025a 	andseq	r0, r8, sl, asr r2
     9d0:	00180610 	andseq	r0, r8, r0, lsl r6
     9d4:	52000110 	andpl	r0, r0, #16, 2
     9d8:	10001806 	andne	r1, r0, r6, lsl #16
     9dc:	10001812 	andne	r1, r0, r2, lsl r8
     9e0:	125a0001 	subsne	r0, sl, #1
     9e4:	1e100018 	mrcne	0, 0, r0, cr0, cr8, {0}
     9e8:	01100018 	tsteq	r0, r8, lsl r0
     9ec:	181e5200 	ldmdane	lr, {r9, ip, lr}
     9f0:	18281000 	stmdane	r8!, {ip}
     9f4:	00011000 	andeq	r1, r1, r0
     9f8:	00182854 	andseq	r2, r8, r4, asr r8
     9fc:	00182e10 	andseq	r2, r8, r0, lsl lr
     a00:	5a000110 	bpl	e48 <__Vectors_Size+0x688>
     a04:	1000182e 	andne	r1, r0, lr, lsr #16
     a08:	10001832 	andne	r1, r0, r2, lsr r8
     a0c:	32520001 	subscc	r0, r2, #1
     a10:	3e100018 	mrccc	0, 0, r0, cr0, cr8, {0}
     a14:	01100018 	tsteq	r0, r8, lsl r0
     a18:	183e5500 	ldmdane	lr!, {r8, sl, ip, lr}
     a1c:	184a1000 	stmdane	sl, {ip}^
     a20:	00011000 	andeq	r1, r1, r0
     a24:	00184a52 	andseq	r4, r8, r2, asr sl
     a28:	00189210 	andseq	r9, r8, r0, lsl r2
     a2c:	54000110 	strpl	r0, [r0], #-272	; 0xfffffef0
     a30:	10001892 	mulne	r0, r2, r8
     a34:	10001898 	mulne	r0, r8, r8
     a38:	98520001 	ldmdals	r2, {r0}^
     a3c:	a0100018 	andsge	r0, r0, r8, lsl r0
     a40:	01100018 	tsteq	r0, r8, lsl r0
     a44:	18a05400 	stmiane	r0!, {sl, ip, lr}
     a48:	18a81000 	stmiane	r8!, {ip}
     a4c:	00011000 	andeq	r1, r1, r0
     a50:	0018a852 	andseq	sl, r8, r2, asr r8
     a54:	0018b410 	andseq	fp, r8, r0, lsl r4
     a58:	59000110 	stmdbpl	r0, {r4, r8}
     a5c:	100018b4 			; <UNDEFINED> instruction: 0x100018b4
     a60:	100018cc 	andne	r1, r0, ip, asr #17
     a64:	cc520001 	mrrcgt	0, 0, r0, r2, cr1
     a68:	d4100018 	ldrle	r0, [r0], #-24	; 0xffffffe8
     a6c:	01100018 	tsteq	r0, r8, lsl r0
     a70:	18d45500 	ldmne	r4, {r8, sl, ip, lr}^
     a74:	18fc1000 	ldmne	ip!, {ip}^
     a78:	00011000 	andeq	r1, r1, r0
     a7c:	0018fc52 	andseq	pc, r8, r2, asr ip	; <UNPREDICTABLE>
     a80:	00190810 	andseq	r0, r9, r0, lsl r8
     a84:	55000110 	strpl	r0, [r0, #-272]	; 0xfffffef0
     a88:	10001908 	andne	r1, r0, r8, lsl #18
     a8c:	10001914 	andne	r1, r0, r4, lsl r9
     a90:	14520001 	ldrbne	r0, [r2], #-1
     a94:	42100019 	andsmi	r0, r0, #25
     a98:	01100019 	tsteq	r0, r9, lsl r0
     a9c:	19425400 	stmdbne	r2, {sl, ip, lr}^
     aa0:	194a1000 	stmdbne	sl, {ip}^
     aa4:	00011000 	andeq	r1, r1, r0
     aa8:	00194a50 	andseq	r4, r9, r0, asr sl
     aac:	00194c10 	andseq	r4, r9, r0, lsl ip
     ab0:	54000110 	strpl	r0, [r0], #-272	; 0xfffffef0
     ab4:	1000194c 	andne	r1, r0, ip, asr #18
     ab8:	10001960 	andne	r1, r0, r0, ror #18
     abc:	60550001 	subsvs	r0, r5, r1
     ac0:	62100019 	andsvs	r0, r0, #25
     ac4:	01100019 	tsteq	r0, r9, lsl r0
     ac8:	19625400 	stmdbne	r2!, {sl, ip, lr}^
     acc:	19741000 	ldmdbne	r4!, {ip}^
     ad0:	00011000 	andeq	r1, r1, r0
     ad4:	00197455 	andseq	r7, r9, r5, asr r4
     ad8:	00197810 	andseq	r7, r9, r0, lsl r8
     adc:	30000210 	andcc	r0, r0, r0, lsl r2
     ae0:	0019789f 	mulseq	r9, pc, r8	; <UNPREDICTABLE>
     ae4:	00199210 	andseq	r9, r9, r0, lsl r2
     ae8:	54000110 	strpl	r0, [r0], #-272	; 0xfffffef0
     aec:	10001992 	mulne	r0, r2, r9
     af0:	10001998 	mulne	r0, r8, r9
     af4:	00500001 	subseq	r0, r0, r1
     af8:	00000000 	andeq	r0, r0, r0
     afc:	01000000 	mrseq	r0, (UNDEF: 0)
	...
     b18:	6e000000 	cdpvs	0, 0, cr0, cr0, cr0, {0}
     b1c:	76100015 			; <UNDEFINED> instruction: 0x76100015
     b20:	02100015 	andseq	r0, r0, #21
     b24:	789f3a00 	ldmvc	pc, {r9, fp, ip, sp}	; <UNPREDICTABLE>
     b28:	c8100015 	ldmdagt	r0, {r0, r2, r4}
     b2c:	01100015 	tsteq	r0, r5, lsl r0
     b30:	15c85300 	strbne	r5, [r8, #768]	; 0x300
     b34:	15d71000 	ldrbne	r1, [r7]
     b38:	00031000 	andeq	r1, r3, r0
     b3c:	e87fa891 	ldmda	pc!, {r0, r4, r7, fp, sp, pc}^	; <UNPREDICTABLE>
     b40:	24100015 	ldrcs	r0, [r0], #-21	; 0xffffffeb
     b44:	01100016 	tsteq	r0, r6, lsl r0
     b48:	16245300 	strtne	r5, [r4], -r0, lsl #6
     b4c:	162d1000 	strtne	r1, [sp], -r0
     b50:	00031000 	andeq	r1, r3, r0
     b54:	387fa891 	ldmdacc	pc!, {r0, r4, r7, fp, sp, pc}^	; <UNPREDICTABLE>
     b58:	5e100016 	mrcpl	0, 0, r0, cr0, cr6, {0}
     b5c:	01100016 	tsteq	r0, r6, lsl r0
     b60:	165e5300 	ldrbne	r5, [lr], -r0, lsl #6
     b64:	16731000 	ldrbtne	r1, [r3], -r0
     b68:	00031000 	andeq	r1, r3, r0
     b6c:	787fb091 	ldmdavc	pc!, {r0, r4, r7, ip, sp, pc}^	; <UNPREDICTABLE>
     b70:	a4100016 	ldrge	r0, [r0], #-22	; 0xffffffea
     b74:	01100016 	tsteq	r0, r6, lsl r0
     b78:	16a45300 	strtne	r5, [r4], r0, lsl #6
     b7c:	16ad1000 	strtne	r1, [sp], r0
     b80:	00031000 	andeq	r1, r3, r0
     b84:	b27fa891 	rsbslt	sl, pc, #9502720	; 0x910000
     b88:	f8100016 			; <UNDEFINED> instruction: 0xf8100016
     b8c:	01100016 	tsteq	r0, r6, lsl r0
     b90:	16f85300 	ldrbtne	r5, [r8], r0, lsl #6
     b94:	17011000 	strne	r1, [r1, -r0]
     b98:	00031000 	andeq	r1, r3, r0
     b9c:	067fb091 			; <UNDEFINED> instruction: 0x067fb091
     ba0:	1a100017 	bne	400c04 <__ROM_SIZE+0x380c04>
     ba4:	01100017 	tsteq	r0, r7, lsl r0
     ba8:	171a5300 	ldrne	r5, [sl, -r0, lsl #6]
     bac:	172b1000 	strne	r1, [fp, -r0]!
     bb0:	00031000 	andeq	r1, r3, r0
     bb4:	307fa891 			; <UNDEFINED> instruction: 0x307fa891
     bb8:	4a100017 	bmi	400c1c <__ROM_SIZE+0x380c1c>
     bbc:	01100017 	tsteq	r0, r7, lsl r0
     bc0:	00005300 	andeq	r5, r0, r0, lsl #6
	...
     bcc:	10001608 	andne	r1, r0, r8, lsl #12
     bd0:	1000161e 	andne	r1, r0, lr, lsl r6
     bd4:	00520001 	subseq	r0, r2, r1
	...
     be0:	ba000000 	blt	be8 <__Vectors_Size+0x428>
     be4:	d0100015 	andsle	r0, r0, r5, lsl r0
     be8:	01100015 	tsteq	r0, r5, lsl r0
     bec:	15d05200 	ldrbne	r5, [r0, #512]	; 0x200
     bf0:	15d71000 	ldrbne	r1, [r7]
     bf4:	00021000 	andeq	r1, r2, r0
     bf8:	0000007d 	andeq	r0, r0, sp, ror r0
     bfc:	00000000 	andeq	r0, r0, r0
     c00:	00010000 	andeq	r0, r1, r0
	...
     c14:	17d80000 	ldrbne	r0, [r8, r0]
     c18:	17e21000 	strbne	r1, [r2, r0]!
     c1c:	00021000 	andeq	r1, r2, r0
     c20:	17e29f31 			; <UNDEFINED> instruction: 0x17e29f31
     c24:	17f81000 	ldrbne	r1, [r8, r0]!
     c28:	00011000 	andeq	r1, r1, r0
     c2c:	00180259 	andseq	r0, r8, r9, asr r2
     c30:	00181210 	andseq	r1, r8, r0, lsl r2
     c34:	59000110 	stmdbpl	r0, {r4, r8}
     c38:	10001812 	andne	r1, r0, r2, lsl r8
     c3c:	10001816 	andne	r1, r0, r6, lsl r8
     c40:	16530001 	ldrbne	r0, [r3], -r1
     c44:	1e100018 	mrcne	0, 0, r0, cr0, cr8, {0}
     c48:	01100018 	tsteq	r0, r8, lsl r0
     c4c:	181e5900 	ldmdane	lr, {r8, fp, ip, lr}
     c50:	18281000 	stmdane	r8!, {ip}
     c54:	00021000 	andeq	r1, r2, r0
     c58:	18289f31 	stmdane	r8!, {r0, r4, r5, r8, r9, sl, fp, ip, pc}
     c5c:	18301000 	ldmdane	r0!, {ip}
     c60:	00011000 	andeq	r1, r1, r0
     c64:	00183059 	andseq	r3, r8, r9, asr r0
     c68:	00183e10 	andseq	r3, r8, r0, lsl lr
     c6c:	54000110 	strpl	r0, [r0], #-272	; 0xfffffef0
     c70:	1000183e 	andne	r1, r0, lr, lsr r8
     c74:	10001842 	andne	r1, r0, r2, asr #16
     c78:	42590001 	subsmi	r0, r9, #1
     c7c:	4a100018 	bmi	400ce4 <__ROM_SIZE+0x380ce4>
     c80:	01100018 	tsteq	r0, r8, lsl r0
     c84:	00005400 	andeq	r5, r0, r0, lsl #8
	...
     c90:	18c40000 	stmiane	r4, {}^	; <UNPREDICTABLE>
     c94:	18ec1000 	stmiane	ip!, {ip}^
     c98:	00011000 	andeq	r1, r1, r0
     c9c:	0018f45a 	andseq	pc, r8, sl, asr r4	; <UNPREDICTABLE>
     ca0:	0018f810 	andseq	pc, r8, r0, lsl r8	; <UNPREDICTABLE>
     ca4:	5a000110 	bpl	10ec <__HEAP_SIZE+0xec>
	...
     cc4:	18780000 	ldmdane	r8!, {}^	; <UNPREDICTABLE>
     cc8:	18981000 	ldmne	r8, {ip}
     ccc:	00011000 	andeq	r1, r1, r0
     cd0:	00189c59 	andseq	r9, r8, r9, asr ip
     cd4:	0018a410 	andseq	sl, r8, r0, lsl r4
     cd8:	59000110 	stmdbpl	r0, {r4, r8}
     cdc:	100018a4 	andne	r1, r0, r4, lsr #17
     ce0:	100018b4 			; <UNDEFINED> instruction: 0x100018b4
     ce4:	b4550001 	ldrblt	r0, [r5], #-1
     ce8:	b6100018 			; <UNDEFINED> instruction: 0xb6100018
     cec:	01100018 	tsteq	r0, r8, lsl r0
     cf0:	18b65300 	ldmne	r6!, {r8, r9, ip, lr}
     cf4:	18c41000 	stmiane	r4, {ip}^
     cf8:	00011000 	andeq	r1, r1, r0
     cfc:	0018c455 	andseq	ip, r8, r5, asr r4
     d00:	0018ec10 	andseq	lr, r8, r0, lsl ip
     d04:	59000110 	stmdbpl	r0, {r4, r8}
     d08:	100018f4 	strdne	r1, [r0], -r4
     d0c:	100018fa 	strdne	r1, [r0], -sl
     d10:	fa590001 	blx	1640d1c <__ROM_SIZE+0x15c0d1c>
     d14:	08100018 	ldmdaeq	r0, {r3, r4}
     d18:	01100019 	tsteq	r0, r9, lsl r0
     d1c:	19085400 	stmdbne	r8, {sl, ip, lr}
     d20:	190c1000 	stmdbne	ip, {ip}
     d24:	00011000 	andeq	r1, r1, r0
     d28:	00190c59 	andseq	r0, r9, r9, asr ip
     d2c:	00191210 	andseq	r1, r9, r0, lsl r2
     d30:	54000110 	strpl	r0, [r0], #-272	; 0xfffffef0
     d34:	10001912 	andne	r1, r0, r2, lsl r9
     d38:	10001914 	andne	r1, r0, r4, lsl r9
     d3c:	01790003 	cmneq	r9, r3
     d40:	0000009f 	muleq	r0, pc, r0	; <UNPREDICTABLE>
	...
     d4c:	62000000 	andvs	r0, r0, #0
     d50:	68100018 	ldmdavs	r0, {r3, r4}
     d54:	01100018 	tsteq	r0, r8, lsl r0
     d58:	18685200 	stmdane	r8!, {r9, ip, lr}^
     d5c:	18701000 	ldmdane	r0!, {ip}^
     d60:	00011000 	andeq	r1, r1, r0
     d64:	00187053 	andseq	r7, r8, r3, asr r0
     d68:	00187410 	andseq	r7, r8, r0, lsl r4
     d6c:	52000110 	andpl	r0, r0, #16, 2
	...
     d78:	18620000 	stmdane	r2!, {}^	; <UNPREDICTABLE>
     d7c:	18781000 	ldmdane	r8!, {ip}^
     d80:	00011000 	andeq	r1, r1, r0
     d84:	00000059 	andeq	r0, r0, r9, asr r0
     d88:	00000000 	andeq	r0, r0, r0
     d8c:	18000100 	stmdane	r0, {r8}
     d90:	4a100019 	bmi	400dfc <__ROM_SIZE+0x380dfc>
     d94:	02100019 	andseq	r0, r0, #25
     d98:	009f3000 	addseq	r3, pc, r0
     d9c:	00000000 	andeq	r0, r0, r0
     da0:	03000000 	movweq	r0, #0
     da4:	00137800 	andseq	r7, r3, r0, lsl #16
     da8:	00137e10 	andseq	r7, r3, r0, lsl lr
     dac:	51000110 	tstpl	r0, r0, lsl r1
	...
     db8:	141e0000 	ldrne	r0, [lr], #-0
     dbc:	14241000 	strtne	r1, [r4], #-0
     dc0:	00011000 	andeq	r1, r1, r0
     dc4:	00000052 	andeq	r0, r0, r2, asr r0
     dc8:	00000000 	andeq	r0, r0, r0
     dcc:	000b9000 	andeq	r9, fp, r0
     dd0:	000b9410 	andeq	r9, fp, r0, lsl r4
     dd4:	7d000210 	sfmvc	f0, 4, [r0, #-64]	; 0xffffffc0
     dd8:	000b9400 	andeq	r9, fp, r0, lsl #8
     ddc:	000b9810 	andeq	r9, fp, r0, lsl r8
     de0:	7d000210 	sfmvc	f0, 4, [r0, #-64]	; 0xffffffc0
     de4:	000b9824 	andeq	r9, fp, r4, lsr #16
     de8:	000b9a10 	andeq	r9, fp, r0, lsl sl
     dec:	7d000210 	sfmvc	f0, 4, [r0, #-64]	; 0xffffffc0
     df0:	000b9a2c 	andeq	r9, fp, ip, lsr #20
     df4:	000de410 	andeq	lr, sp, r0, lsl r4
     df8:	7d000310 	stcvc	3, cr0, [r0, #-64]	; 0xffffffc0
     dfc:	0de400f0 	stcleq	0, cr0, [r4, #960]!	; 0x3c0
     e00:	0de81000 	stcleq	0, cr1, [r8]
     e04:	00021000 	andeq	r1, r2, r0
     e08:	0de82c7d 	stcleq	12, cr2, [r8, #500]!	; 0x1f4
     e0c:	0dec1000 	stcleq	0, cr1, [ip]
     e10:	00021000 	andeq	r1, r2, r0
     e14:	0dec247d 	cfstrdeq	mvd2, [ip, #500]!	; 0x1f4
     e18:	0f7a1000 	svceq	0x007a1000
     e1c:	00031000 	andeq	r1, r3, r0
     e20:	0000f07d 	andeq	pc, r0, sp, ror r0	; <UNPREDICTABLE>
	...
     e2c:	90000000 	andls	r0, r0, r0
     e30:	a810000b 	ldmdage	r0, {r0, r1, r3}
     e34:	0110000b 	tsteq	r0, fp
     e38:	0ba85000 	bleq	fea14e40 <__StackTop+0xc69f4e40>
     e3c:	0f7a1000 	svceq	0x007a1000
     e40:	00011000 	andeq	r1, r1, r0
     e44:	0000005a 	andeq	r0, r0, sl, asr r0
	...
     e50:	000b9000 	andeq	r9, fp, r0
     e54:	000baa10 	andeq	sl, fp, r0, lsl sl
     e58:	51000110 	tstpl	r0, r0, lsl r1
     e5c:	10000baa 	andne	r0, r0, sl, lsr #23
     e60:	10000f7a 	andne	r0, r0, sl, ror pc
     e64:	00540001 	subseq	r0, r4, r1
	...
     e84:	000b9000 	andeq	r9, fp, r0
     e88:	000ba610 	andeq	sl, fp, r0, lsl r6
     e8c:	52000110 	andpl	r0, r0, #16, 2
     e90:	10000ba6 	andne	r0, r0, r6, lsr #23
     e94:	10000de2 	andne	r0, r0, r2, ror #27
     e98:	ec5b0001 	mrrc	0, 0, r0, fp, cr1
     e9c:	f410000d 			; <UNDEFINED> instruction: 0xf410000d
     ea0:	0110000e 	tsteq	r0, lr
     ea4:	0ef45b00 	vmoveq.f64	d21, #64	; 0x3e000000  0.125
     ea8:	0f0a1000 	svceq	0x000a1000
     eac:	00011000 	andeq	r1, r1, r0
     eb0:	000f0a50 	andeq	r0, pc, r0, asr sl	; <UNPREDICTABLE>
     eb4:	000f3e10 	andeq	r3, pc, r0, lsl lr	; <UNPREDICTABLE>
     eb8:	58000110 	stmdapl	r0, {r4, r8}
     ebc:	10000f3e 	andne	r0, r0, lr, lsr pc
     ec0:	10000f4c 	andne	r0, r0, ip, asr #30
     ec4:	4c500001 	mrrcmi	0, 0, r0, r0, cr1	; <UNPREDICTABLE>
     ec8:	5c10000f 	ldcpl	0, cr0, [r0], {15}
     ecc:	0110000f 	tsteq	r0, pc
     ed0:	0f5c5b00 	svceq	0x005c5b00
     ed4:	0f621000 	svceq	0x00621000
     ed8:	00011000 	andeq	r1, r1, r0
     edc:	000f6250 	andeq	r6, pc, r0, asr r2	; <UNPREDICTABLE>
     ee0:	000f6410 	andeq	r6, pc, r0, lsl r4	; <UNPREDICTABLE>
     ee4:	52000110 	andpl	r0, r0, #16, 2
     ee8:	10000f64 	andne	r0, r0, r4, ror #30
     eec:	10000f6e 	andne	r0, r0, lr, ror #30
     ef0:	6e560001 	cdpvs	0, 5, cr0, cr6, cr1, {0}
     ef4:	7a10000f 	bvc	400f38 <__ROM_SIZE+0x380f38>
     ef8:	0110000f 	tsteq	r0, pc
     efc:	00005200 	andeq	r5, r0, r0, lsl #4
	...
     f08:	0b900000 	bleq	fe400f10 <__StackTop+0xc63e0f10>
     f0c:	0bad1000 	bleq	feb44f14 <__StackTop+0xc6b24f14>
     f10:	00011000 	andeq	r1, r1, r0
     f14:	000bad53 	andeq	sl, fp, r3, asr sp
     f18:	000f7a10 	andeq	r7, pc, r0, lsl sl	; <UNPREDICTABLE>
     f1c:	55000110 	strpl	r0, [r0, #-272]	; 0xfffffef0
	...
     f34:	10000b90 	mulne	r0, r0, fp
     f38:	10000bf8 	strdne	r0, [r0], -r8
     f3c:	00910002 	addseq	r0, r1, r2
     f40:	10000bf8 	strdne	r0, [r0], -r8
     f44:	10000dc2 	andne	r0, r0, r2, asr #27
     f48:	a8910003 	ldmge	r1, {r0, r1}
     f4c:	000dc27f 	andeq	ip, sp, pc, ror r2
     f50:	000de210 	andeq	lr, sp, r0, lsl r2
     f54:	91000210 	tstls	r0, r0, lsl r2
     f58:	000dec00 	andeq	lr, sp, r0, lsl #24
     f5c:	000e0010 	andeq	r0, lr, r0, lsl r0
     f60:	91000210 	tstls	r0, r0, lsl r2
     f64:	000e0000 	andeq	r0, lr, r0
     f68:	000ed010 	andeq	sp, lr, r0, lsl r0
     f6c:	91000310 	tstls	r0, r0, lsl r3
     f70:	0f4c7fa8 	svceq	0x004c7fa8
     f74:	0f5a1000 	svceq	0x005a1000
     f78:	00031000 	andeq	r1, r3, r0
     f7c:	007fa891 			; <UNDEFINED> instruction: 0x007fa891
	...
     f90:	90000000 	andls	r0, r0, r0
     f94:	0610000b 	ldreq	r0, [r0], -fp
     f98:	0210000c 	andseq	r0, r0, #12
     f9c:	06089100 	streq	r9, [r8], -r0, lsl #2
     fa0:	c010000c 	andsgt	r0, r0, ip
     fa4:	0210000d 	andseq	r0, r0, #13
     fa8:	c0089100 	andgt	r9, r8, r0, lsl #2
     fac:	c210000d 	andsgt	r0, r0, #13
     fb0:	0110000d 	tsteq	r0, sp
     fb4:	0dc25300 	stcleq	3, cr5, [r2]
     fb8:	0e341000 	cdpeq	0, 3, cr1, cr4, cr0, {0}
     fbc:	00021000 	andeq	r1, r2, r0
     fc0:	0e340891 	mrceq	8, 1, r0, cr4, cr1, {4}
     fc4:	0e9c1000 	cdpeq	0, 9, cr1, cr12, cr0, {0}
     fc8:	00011000 	andeq	r1, r1, r0
     fcc:	000e9c53 	andeq	r9, lr, r3, asr ip
     fd0:	000f7a10 	andeq	r7, pc, r0, lsl sl	; <UNPREDICTABLE>
     fd4:	91000210 	tstls	r0, r0, lsl r2
     fd8:	00000008 	andeq	r0, r0, r8
	...
     fe4:	000b9000 	andeq	r9, fp, r0
     fe8:	000dec10 	andeq	lr, sp, r0, lsl ip
     fec:	91000210 	tstls	r0, r0, lsl r2
     ff0:	000dec0c 	andeq	lr, sp, ip, lsl #24
     ff4:	000f7a10 	andeq	r7, pc, r0, lsl sl	; <UNPREDICTABLE>
     ff8:	91000210 	tstls	r0, r0, lsl r2
     ffc:	0000000c 	andeq	r0, r0, ip
	...
    100c:	000b9000 	andeq	r9, fp, r0
    1010:	000dec10 	andeq	lr, sp, r0, lsl ip
    1014:	91000210 	tstls	r0, r0, lsl r2
    1018:	000dec10 	andeq	lr, sp, r0, lsl ip
    101c:	000e1210 	andeq	r1, lr, r0, lsl r2
    1020:	91000210 	tstls	r0, r0, lsl r2
    1024:	000e1210 	andeq	r1, lr, r0, lsl r2
    1028:	000e1610 	andeq	r1, lr, r0, lsl r6
    102c:	53000110 	movwpl	r0, #272	; 0x110
    1030:	10000e16 	andne	r0, r0, r6, lsl lr
    1034:	10000f7a 	andne	r0, r0, sl, ror pc
    1038:	10910002 	addsne	r0, r1, r2
	...
    1044:	00000001 	andeq	r0, r0, r1
    1048:	10000bde 	ldrdne	r0, [r0], -lr
    104c:	10000dc2 	andne	r0, r0, r2, asr #27
    1050:	00910012 	addseq	r0, r1, r2, lsl r0
    1054:	f42908f6 	vld2.<illegal width 64>	{d0-d1}, [r9 :256], r6
    1058:	00000829 	andeq	r0, r0, r9, lsr #16
    105c:	00000000 	andeq	r0, r0, r0
    1060:	9f2d0000 	svcls	0x002d0000
    1064:	10000dec 	andne	r0, r0, ip, ror #27
    1068:	10000f7a 	andne	r0, r0, sl, ror pc
    106c:	00910012 	addseq	r0, r1, r2, lsl r0
    1070:	f42908f6 	vld2.<illegal width 64>	{d0-d1}, [r9 :256], r6
    1074:	00000829 	andeq	r0, r0, r9, lsr #16
    1078:	00000000 	andeq	r0, r0, r0
    107c:	9f2d0000 	svcls	0x002d0000
	...
    1088:	00010000 	andeq	r0, r1, r0
    108c:	10000de2 	andne	r0, r0, r2, ror #27
    1090:	10000de8 	andne	r0, r0, r8, ror #27
    1094:	50900008 	addspl	r0, r0, r8
    1098:	51900493 			; <UNDEFINED> instruction: 0x51900493
    109c:	0eb00493 	mrceq	4, 5, r0, cr0, cr3, {4}
    10a0:	0f7a1000 	svceq	0x007a1000
    10a4:	00081000 	andeq	r1, r8, r0
    10a8:	04935090 	ldreq	r5, [r3], #144	; 0x90
    10ac:	04935190 	ldreq	r5, [r3], #400	; 0x190
	...
    10c4:	10000c10 	andne	r0, r0, r0, lsl ip
    10c8:	10000c22 	andne	r0, r0, r2, lsr #24
    10cc:	81700004 	cmnhi	r0, r4
    10d0:	0c229f78 	stceq	15, cr9, [r2], #-480	; 0xfffffe20
    10d4:	0c251000 	stceq	0, cr1, [r5], #-0
    10d8:	00011000 	andeq	r1, r1, r0
    10dc:	000c8650 	andeq	r8, ip, r0, asr r6
    10e0:	000c8e10 	andeq	r8, ip, r0, lsl lr
    10e4:	50000110 	andpl	r0, r0, r0, lsl r1
    10e8:	10000c8e 	andne	r0, r0, lr, lsl #25
    10ec:	10000cc8 	andne	r0, r0, r8, asr #25
    10f0:	c8570001 	ldmdagt	r7, {r0}^
    10f4:	8410000c 	ldrhi	r0, [r0], #-12
    10f8:	0410000d 	ldreq	r0, [r0], #-13
    10fc:	78817700 	stmvc	r1, {r8, r9, sl, ip, sp, lr}
    1100:	000e029f 	muleq	lr, pc, r2	; <UNPREDICTABLE>
    1104:	000e0410 	andeq	r0, lr, r0, lsl r4
    1108:	77000410 	smladvc	r0, r0, r4, r0
    110c:	009f7881 	addseq	r7, pc, r1, lsl #17
	...
    111c:	00000200 	andeq	r0, r0, r0, lsl #4
    1120:	000c6600 	andeq	r6, ip, r0, lsl #12
    1124:	000c6910 	andeq	r6, ip, r0, lsl r9
    1128:	50000110 	andpl	r0, r0, r0, lsl r1
    112c:	10000c69 	andne	r0, r0, r9, ror #24
    1130:	10000dbc 			; <UNDEFINED> instruction: 0x10000dbc
    1134:	02560001 	subseq	r0, r6, #1
    1138:	0a10000e 	beq	401178 <__ROM_SIZE+0x381178>
    113c:	0110000e 	tsteq	r0, lr
    1140:	0e125600 	cfmsub32eq	mvax0, mvfx5, mvfx2, mvfx0
    1144:	0e161000 	cdpeq	0, 1, cr1, cr6, cr0, {0}
    1148:	00021000 	andeq	r1, r2, r0
    114c:	0e169f30 	mrceq	15, 0, r9, cr6, cr0, {1}
    1150:	0f621000 	svceq	0x00621000
    1154:	00011000 	andeq	r1, r1, r0
    1158:	00000056 	andeq	r0, r0, r6, asr r0
    115c:	00000000 	andeq	r0, r0, r0
    1160:	b8000000 	stmdalt	r0, {}	; <UNPREDICTABLE>
    1164:	f810000c 			; <UNDEFINED> instruction: 0xf810000c
    1168:	0610000c 	ldreq	r0, [r0], -ip
    116c:	04935800 	ldreq	r5, [r3], #2048	; 0x800
    1170:	00049359 	andeq	r9, r4, r9, asr r3
	...
    1180:	000cc400 	andeq	ip, ip, r0, lsl #8
    1184:	000cde10 	andeq	sp, ip, r0, lsl lr
    1188:	50000610 	andpl	r0, r0, r0, lsl r6
    118c:	93510493 	cmpls	r1, #-1828716544	; 0x93000000
    1190:	000cde04 	andeq	sp, ip, r4, lsl #28
    1194:	000dc210 	andeq	ip, sp, r0, lsl r2
    1198:	91000310 	tstls	r0, r0, lsl r3
    119c:	0e027fb8 	mcreq	15, 0, r7, cr2, cr8, {5}
    11a0:	0f7a1000 	svceq	0x007a1000
    11a4:	00031000 	andeq	r1, r3, r0
    11a8:	007fb891 			; <UNDEFINED> instruction: 0x007fb891
	...
    11b4:	01010000 	mrseq	r0, (UNDEF: 1)
    11b8:	00000000 	andeq	r0, r0, r0
    11bc:	84000000 	strhi	r0, [r0], #-0
    11c0:	c210000d 	andsgt	r0, r0, #13
    11c4:	0110000d 	tsteq	r0, sp
    11c8:	0e065700 	cdpeq	7, 0, cr5, cr6, cr0, {0}
    11cc:	0e121000 	cdpeq	0, 1, cr1, cr2, cr0, {0}
    11d0:	00011000 	andeq	r1, r1, r0
    11d4:	000e1257 	andeq	r1, lr, r7, asr r2
    11d8:	000e1610 	andeq	r1, lr, r0, lsl r6
    11dc:	30000210 	andcc	r0, r0, r0, lsl r2
    11e0:	000e169f 	muleq	lr, pc, r6	; <UNPREDICTABLE>
    11e4:	000f2210 	andeq	r2, pc, r0, lsl r2	; <UNPREDICTABLE>
    11e8:	57000110 	smladpl	r0, r0, r1, r0
    11ec:	10000f22 	andne	r0, r0, r2, lsr #30
    11f0:	10000f4a 	andne	r0, r0, sl, asr #30
    11f4:	01770003 	cmneq	r7, r3
    11f8:	000f4c9f 	muleq	pc, pc, ip	; <UNPREDICTABLE>
    11fc:	000f6210 	andeq	r6, pc, r0, lsl r2	; <UNPREDICTABLE>
    1200:	57000110 	smladpl	r0, r0, r1, r0
	...
    120c:	00000001 	andeq	r0, r0, r1
    1210:	00000000 	andeq	r0, r0, r0
    1214:	0e160000 	cdpeq	0, 1, cr0, cr6, cr0, {0}
    1218:	0e201000 	cdpeq	0, 2, cr1, cr0, cr0, {0}
    121c:	00021000 	andeq	r1, r2, r0
    1220:	0e200c91 	mcreq	12, 1, r0, cr0, cr1, {4}
    1224:	0e221000 	cdpeq	0, 2, cr1, cr2, cr0, {0}
    1228:	00011000 	andeq	r1, r1, r0
    122c:	000e9c58 	andeq	r9, lr, r8, asr ip
    1230:	000ea010 	andeq	sl, lr, r0, lsl r0
    1234:	53000110 	movwpl	r0, #272	; 0x110
    1238:	10000ea0 	andne	r0, r0, r0, lsr #29
    123c:	10000f0a 	andne	r0, r0, sl, lsl #30
    1240:	4c580001 	mrrcmi	0, 0, r0, r8, cr1
    1244:	6210000f 	andsvs	r0, r0, #15
    1248:	0110000f 	tsteq	r0, pc
    124c:	00005800 	andeq	r5, r0, r0, lsl #16
    1250:	00000000 	andeq	r0, r0, r0
    1254:	00010000 	andeq	r0, r1, r0
    1258:	10000ec0 	andne	r0, r0, r0, asr #29
    125c:	10000f7a 	andne	r0, r0, sl, ror pc
    1260:	005b0001 	subseq	r0, fp, r1
    1264:	00000000 	andeq	r0, r0, r0
    1268:	80000000 	andhi	r0, r0, r0
    126c:	8410000f 	ldrhi	r0, [r0], #-15
    1270:	0210000f 	andseq	r0, r0, #15
    1274:	84007d00 	strhi	r7, [r0], #-3328	; 0xfffff300
    1278:	8810000f 	ldmdahi	r0, {r0, r1, r2, r3}
    127c:	0210000f 	andseq	r0, r0, #15
    1280:	88247d00 	stmdahi	r4!, {r8, sl, fp, ip, sp, lr}
    1284:	8a10000f 	bhi	4012c8 <__ROM_SIZE+0x3812c8>
    1288:	0210000f 	andseq	r0, r0, #15
    128c:	8a2c7d00 	bhi	b20694 <__ROM_SIZE+0xaa0694>
    1290:	a410000f 	ldrge	r0, [r0], #-15
    1294:	03100012 	tsteq	r0, #18
    1298:	01807d00 	orreq	r7, r0, r0, lsl #26
    129c:	100012a4 	andne	r1, r0, r4, lsr #5
    12a0:	100012a8 	andne	r1, r0, r8, lsr #5
    12a4:	2c7d0002 	ldclcs	0, cr0, [sp], #-8
    12a8:	100012a8 	andne	r1, r0, r8, lsr #5
    12ac:	100012ac 	andne	r1, r0, ip, lsr #5
    12b0:	247d0002 	ldrbtcs	r0, [sp], #-2
    12b4:	100012ac 	andne	r1, r0, ip, lsr #5
    12b8:	10001316 	andne	r1, r0, r6, lsl r3
    12bc:	807d0003 	rsbshi	r0, sp, r3
    12c0:	00000001 	andeq	r0, r0, r1
	...
    12cc:	000f8000 	andeq	r8, pc, r0
    12d0:	000f9e10 	andeq	r9, pc, r0, lsl lr	; <UNPREDICTABLE>
    12d4:	50000110 	andpl	r0, r0, r0, lsl r1
    12d8:	10000f9e 	mulne	r0, lr, pc	; <UNPREDICTABLE>
    12dc:	10001316 	andne	r1, r0, r6, lsl r3
    12e0:	9c910003 	ldcls	0, cr0, [r1], {3}
    12e4:	0000007f 	andeq	r0, r0, pc, ror r0
	...
    12f0:	000f8000 	andeq	r8, pc, r0
    12f4:	000fa010 	andeq	sl, pc, r0, lsl r0	; <UNPREDICTABLE>
    12f8:	51000110 	tstpl	r0, r0, lsl r1
    12fc:	10000fa0 	andne	r0, r0, r0, lsr #31
    1300:	10001316 	andne	r1, r0, r6, lsl r3
    1304:	a8910003 	ldmge	r1, {r0, r1}
    1308:	0000007f 	andeq	r0, r0, pc, ror r0
	...
    1314:	000f8000 	andeq	r8, pc, r0
    1318:	000f9a10 	andeq	r9, pc, r0, lsl sl	; <UNPREDICTABLE>
    131c:	52000110 	andpl	r0, r0, #16, 2
    1320:	10000f9a 	mulne	r0, sl, pc	; <UNPREDICTABLE>
    1324:	10001316 	andne	r1, r0, r6, lsl r3
    1328:	005a0001 	subseq	r0, sl, r1
	...
    1334:	80000000 	andhi	r0, r0, r0
    1338:	9c10000f 	ldcls	0, cr0, [r0], {15}
    133c:	0110000f 	tsteq	r0, pc
    1340:	0f9c5300 	svceq	0x009c5300
    1344:	13161000 	tstne	r6, #0
    1348:	00011000 	andeq	r1, r1, r0
    134c:	0000005b 	andeq	r0, r0, fp, asr r0
	...
    135c:	80000000 	andhi	r0, r0, r0
    1360:	0610000f 	ldreq	r0, [r0], -pc
    1364:	02100010 	andseq	r0, r0, #16
    1368:	06009100 	streq	r9, [r0], -r0, lsl #2
    136c:	2a100010 	bcs	4013b4 <__ROM_SIZE+0x3813b4>
    1370:	06100010 			; <UNDEFINED> instruction: 0x06100010
    1374:	04935800 	ldreq	r5, [r3], #2048	; 0x800
    1378:	2a049359 	bcs	1260e4 <__ROM_SIZE+0xa60e4>
    137c:	c2100010 	andsgt	r0, r0, #16
    1380:	02100010 	andseq	r0, r0, #16
    1384:	c2009100 	andgt	r9, r0, #0, 2
    1388:	5a100010 	bpl	4013d0 <__ROM_SIZE+0x3813d0>
    138c:	06100011 			; <UNDEFINED> instruction: 0x06100011
    1390:	04935800 	ldreq	r5, [r3], #2048	; 0x800
    1394:	7e049359 	mcrvc	3, 0, r9, cr4, cr9, {2}
    1398:	fa100011 	blx	4013e4 <__ROM_SIZE+0x3813e4>
    139c:	06100011 			; <UNDEFINED> instruction: 0x06100011
    13a0:	04935800 	ldreq	r5, [r3], #2048	; 0x800
    13a4:	00049359 	andeq	r9, r4, r9, asr r3
	...
    13b4:	80000000 	andhi	r0, r0, r0
    13b8:	0e10000f 	cdpeq	0, 1, cr0, cr0, cr15, {0}
    13bc:	02100010 	andseq	r0, r0, #16
    13c0:	10089100 	andne	r9, r8, r0, lsl #2
    13c4:	2a100010 	bcs	40140c <__ROM_SIZE+0x38140c>
    13c8:	01100010 	tsteq	r0, r0, lsl r0
    13cc:	102a5500 	eorne	r5, sl, r0, lsl #10
    13d0:	10cc1000 	sbcne	r1, ip, r0
    13d4:	00021000 	andeq	r1, r2, r0
    13d8:	10cc0891 	smullne	r0, ip, r1, r8
    13dc:	119a1000 	orrsne	r1, sl, r0
    13e0:	00011000 	andeq	r1, r1, r0
    13e4:	00000055 	andeq	r0, r0, r5, asr r0
	...
    13f4:	80000000 	andhi	r0, r0, r0
    13f8:	7010000f 	andsvc	r0, r0, pc
    13fc:	02100012 	andseq	r0, r0, #18
    1400:	700c9100 	andvc	r9, ip, r0, lsl #2
    1404:	c2100012 	andsgt	r0, r0, #18
    1408:	02100012 	andseq	r0, r0, #18
    140c:	c20c9100 	andgt	r9, ip, #0, 2
    1410:	c6100012 			; <UNDEFINED> instruction: 0xc6100012
    1414:	01100012 	tsteq	r0, r2, lsl r0
    1418:	12c65300 	sbcne	r5, r6, #0, 6
    141c:	12de1000 	sbcsne	r1, lr, #0
    1420:	00011000 	andeq	r1, r1, r0
    1424:	0012de51 	andseq	sp, r2, r1, asr lr
    1428:	00131610 	andseq	r1, r3, r0, lsl r6
    142c:	91000210 	tstls	r0, r0, lsl r2
    1430:	0000000c 	andeq	r0, r0, ip
	...
    143c:	000f8000 	andeq	r8, pc, r0
    1440:	0012ac10 	andseq	sl, r2, r0, lsl ip
    1444:	91000210 	tstls	r0, r0, lsl r2
    1448:	0012ac10 	andseq	sl, r2, r0, lsl ip
    144c:	00131610 	andseq	r1, r3, r0, lsl r6
    1450:	91000210 	tstls	r0, r0, lsl r2
    1454:	00000010 	andeq	r0, r0, r0, lsl r0
    1458:	00000000 	andeq	r0, r0, r0
    145c:	00000200 	andeq	r0, r0, r0, lsl #4
    1460:	00000101 	andeq	r0, r0, r1, lsl #2
	...
    146c:	00000101 	andeq	r0, r0, r1, lsl #2
    1470:	00000101 	andeq	r0, r0, r1, lsl #2
    1474:	00000000 	andeq	r0, r0, r0
    1478:	00000101 	andeq	r0, r0, r1, lsl #2
    147c:	01010000 	mrseq	r0, (UNDEF: 1)
    1480:	01010000 	mrseq	r0, (UNDEF: 1)
    1484:	01010000 	mrseq	r0, (UNDEF: 1)
    1488:	98000000 	stmdals	r0, {}	; <UNPREDICTABLE>
    148c:	1010000f 	andsne	r0, r0, pc
    1490:	02100010 	andseq	r0, r0, #16
    1494:	109f3000 	addsne	r3, pc, r0
    1498:	18100010 	ldmdane	r0, {r4}
    149c:	01100010 	tsteq	r0, r0, lsl r0
    14a0:	10185400 	andsne	r5, r8, r0, lsl #8
    14a4:	10281000 	eorne	r1, r8, r0
    14a8:	00031000 	andeq	r1, r3, r0
    14ac:	289f0174 	ldmcs	pc, {r2, r4, r5, r6, r8}	; <UNPREDICTABLE>
    14b0:	2a100010 	bcs	4014f8 <__ROM_SIZE+0x3814f8>
    14b4:	01100010 	tsteq	r0, r0, lsl r0
    14b8:	102a5400 	eorne	r5, sl, r0, lsl #8
    14bc:	10cc1000 	sbcne	r1, ip, r0
    14c0:	00021000 	andeq	r1, r2, r0
    14c4:	10cc9f30 	sbcne	r9, ip, r0, lsr pc
    14c8:	11b41000 			; <UNDEFINED> instruction: 0x11b41000
    14cc:	00011000 	andeq	r1, r1, r0
    14d0:	0011b454 	andseq	fp, r1, r4, asr r4
    14d4:	0011ce10 	andseq	ip, r1, r0, lsl lr
    14d8:	52000110 	andpl	r0, r0, #16, 2
    14dc:	100011ce 	andne	r1, r0, lr, asr #3
    14e0:	100011d6 	ldrdne	r1, [r0], -r6
    14e4:	d6540001 	ldrble	r0, [r4], -r1
    14e8:	e6100011 			; <UNDEFINED> instruction: 0xe6100011
    14ec:	03100011 	tsteq	r0, #17
    14f0:	9f017400 	svcls	0x00017400
    14f4:	100011e6 	andne	r1, r0, r6, ror #3
    14f8:	100011ec 	andne	r1, r0, ip, ror #3
    14fc:	ec540001 	mrrc	0, 0, r0, r4, cr1
    1500:	fa100011 	blx	40154c <__ROM_SIZE+0x38154c>
    1504:	03100011 	tsteq	r0, #17
    1508:	9f017400 	svcls	0x00017400
    150c:	100011fa 	strdne	r1, [r0], -sl
    1510:	10001216 	andne	r1, r0, r6, lsl r2
    1514:	16540001 	ldrbne	r0, [r4], -r1
    1518:	66100012 			; <UNDEFINED> instruction: 0x66100012
    151c:	01100012 	tsteq	r0, r2, lsl r0
    1520:	12665100 	rsbne	r5, r6, #0, 2
    1524:	127a1000 	rsbsne	r1, sl, #0
    1528:	00011000 	andeq	r1, r1, r0
    152c:	00127a54 	andseq	r7, r2, r4, asr sl
    1530:	00128810 	andseq	r8, r2, r0, lsl r8
    1534:	74000310 	strvc	r0, [r0], #-784	; 0xfffffcf0
    1538:	12889f01 	addne	r9, r8, #1, 30
    153c:	12a21000 	adcne	r1, r2, #0
    1540:	00011000 	andeq	r1, r1, r0
    1544:	0012ac54 	andseq	sl, r2, r4, asr ip
    1548:	0012c610 	andseq	ip, r2, r0, lsl r6
    154c:	54000110 	strpl	r0, [r0], #-272	; 0xfffffef0
    1550:	100012c6 	andne	r1, r0, r6, asr #5
    1554:	100012d4 	ldrdne	r1, [r0], -r4
    1558:	01740003 	cmneq	r4, r3
    155c:	0012d49f 	mulseq	r2, pc, r4	; <UNPREDICTABLE>
    1560:	0012ee10 	andseq	lr, r2, r0, lsl lr
    1564:	54000110 	strpl	r0, [r0], #-272	; 0xfffffef0
    1568:	100012ee 	andne	r1, r0, lr, ror #5
    156c:	100012fc 	strdne	r1, [r0], -ip
    1570:	01740003 	cmneq	r4, r3
    1574:	0012fc9f 	mulseq	r2, pc, ip	; <UNPREDICTABLE>
    1578:	00130610 	andseq	r0, r3, r0, lsl r6
    157c:	54000110 	strpl	r0, [r0], #-272	; 0xfffffef0
    1580:	10001306 	andne	r1, r0, r6, lsl #6
    1584:	10001314 	andne	r1, r0, r4, lsl r3
    1588:	01740003 	cmneq	r4, r3
    158c:	0013149f 	mulseq	r3, pc, r4	; <UNPREDICTABLE>
    1590:	00131610 	andseq	r1, r3, r0, lsl r6
    1594:	54000110 	strpl	r0, [r0], #-272	; 0xfffffef0
	...
    15a0:	00000003 	andeq	r0, r0, r3
    15a4:	00000000 	andeq	r0, r0, r0
    15a8:	0f980000 	svceq	0x00980000
    15ac:	111e1000 	tstne	lr, r0
    15b0:	000a1000 	andeq	r1, sl, r0
    15b4:	0000089e 	muleq	r0, lr, r8
    15b8:	00000000 	andeq	r0, r0, r0
    15bc:	111e0000 	tstne	lr, r0
    15c0:	11201000 			; <UNDEFINED> instruction: 0x11201000
    15c4:	00061000 	andeq	r1, r6, r0
    15c8:	53049352 	movwpl	r9, #17234	; 0x4352
    15cc:	11200493 			; <UNDEFINED> instruction: 0x11200493
    15d0:	115a1000 	cmpne	sl, r0
    15d4:	00031000 	andeq	r1, r3, r0
    15d8:	5a7fa091 	bpl	1fe9824 <__ROM_SIZE+0x1f69824>
    15dc:	7e100011 	mrcvc	0, 0, r0, cr0, cr1, {0}
    15e0:	06100011 			; <UNDEFINED> instruction: 0x06100011
    15e4:	04935700 	ldreq	r5, [r3], #1792	; 0x700
    15e8:	7e049358 	mcrvc	3, 0, r9, cr4, cr8, {2}
    15ec:	fa100011 	blx	401638 <__ROM_SIZE+0x381638>
    15f0:	03100011 	tsteq	r0, #17
    15f4:	7fa09100 	svcvc	0x00a09100
	...
    1600:	00000001 	andeq	r0, r0, r1
    1604:	00010100 	andeq	r0, r1, r0, lsl #2
    1608:	00000000 	andeq	r0, r0, r0
    160c:	10000ff2 	strdne	r0, [r0], -r2
    1610:	10001006 	andne	r1, r0, r6
    1614:	9f300002 	svcls	0x00300002
    1618:	10001006 	andne	r1, r0, r6
    161c:	1000102a 	andne	r1, r0, sl, lsr #32
    1620:	ac910003 	ldcge	0, cr0, [r1], {3}
    1624:	0010b27f 	andseq	fp, r0, pc, ror r2
    1628:	0010b210 	andseq	fp, r0, r0, lsl r2
    162c:	30000210 	andcc	r0, r0, r0, lsl r2
    1630:	0010b29f 	mulseq	r0, pc, r2	; <UNPREDICTABLE>
    1634:	0010c810 	andseq	ip, r0, r0, lsl r8
    1638:	31000210 	tstcc	r0, r0, lsl r2
    163c:	0010c89f 	mulseq	r0, pc, r8	; <UNPREDICTABLE>
    1640:	0012a210 	andseq	sl, r2, r0, lsl r2
    1644:	91000310 	tstls	r0, r0, lsl r3
    1648:	12ac7fac 	adcne	r7, ip, #172, 30	; 0x2b0
    164c:	13161000 	tstne	r6, #0
    1650:	00031000 	andeq	r1, r3, r0
    1654:	007fac91 			; <UNDEFINED> instruction: 0x007fac91
	...
    1668:	0010d600 	andseq	sp, r0, r0, lsl #12
    166c:	0010d910 	andseq	sp, r0, r0, lsl r9
    1670:	50000110 	andpl	r0, r0, r0, lsl r1
    1674:	100010d9 	ldrdne	r1, [r0], -r9
    1678:	10001226 	andne	r1, r0, r6, lsr #4
    167c:	26560001 	ldrbcs	r0, [r6], -r1
    1680:	66100012 			; <UNDEFINED> instruction: 0x66100012
    1684:	01100012 	tsteq	r0, r2, lsl r0
    1688:	12665200 	rsbne	r5, r6, #0, 4
    168c:	12a21000 	adcne	r1, r2, #0
    1690:	00011000 	andeq	r1, r1, r0
    1694:	0012ac56 	andseq	sl, r2, r6, asr ip
    1698:	00131610 	andseq	r1, r3, r0, lsl r6
    169c:	56000110 			; <UNDEFINED> instruction: 0x56000110
	...
    16ac:	10001100 	andne	r1, r0, r0, lsl #2
    16b0:	10001103 	andne	r1, r0, r3, lsl #2
    16b4:	93520006 	cmpls	r2, #6
    16b8:	04935304 	ldreq	r5, [r3], #772	; 0x304
    16bc:	10001103 	andne	r1, r0, r3, lsl #2
    16c0:	1000111e 	andne	r1, r0, lr, lsl r1
    16c4:	a0910003 	addsge	r0, r1, r3
    16c8:	0000007f 	andeq	r0, r0, pc, ror r0
	...
    16d4:	00000101 	andeq	r0, r0, r1, lsl #2
    16d8:	01010000 	mrseq	r0, (UNDEF: 1)
    16dc:	00110600 	andseq	r0, r1, r0, lsl #12
    16e0:	00110910 	andseq	r0, r1, r0, lsl r9
    16e4:	50000110 	andpl	r0, r0, r0, lsl r1
    16e8:	10001109 	andne	r1, r0, r9, lsl #2
    16ec:	1000113e 	andne	r1, r0, lr, lsr r1
    16f0:	3e570001 	cdpcc	0, 5, cr0, cr7, cr1, {0}
    16f4:	42100011 	andsmi	r0, r0, #17
    16f8:	02100011 	andseq	r0, r0, #17
    16fc:	429f3000 	addsmi	r3, pc, #0
    1700:	58100011 	ldmdapl	r0, {r0, r4}
    1704:	01100011 	tsteq	r0, r1, lsl r0
    1708:	117e5700 	cmnne	lr, r0, lsl #14
    170c:	11c21000 	bicne	r1, r2, r0
    1710:	00011000 	andeq	r1, r1, r0
    1714:	0011c257 	andseq	ip, r1, r7, asr r2
    1718:	0011ce10 	andseq	ip, r1, r0, lsl lr
    171c:	51000110 	tstpl	r0, r0, lsl r1
	...
    172c:	1000119a 	mulne	r0, sl, r1
    1730:	100011d4 	ldrdne	r1, [r0], -r4
    1734:	d4550001 	ldrble	r0, [r5], #-1
    1738:	e8100011 	ldmda	r0, {r0, r4}
    173c:	01100011 	tsteq	r0, r1, lsl r0
    1740:	00005300 	andeq	r5, r0, r0, lsl #6
    1744:	00000000 	andeq	r0, r0, r0
    1748:	0ac40000 	beq	ff101750 <__StackTop+0xc70e1750>
    174c:	0ac81000 	beq	ff205754 <__StackTop+0xc71e5754>
    1750:	00021000 	andeq	r1, r2, r0
    1754:	0ac8007d 	beq	ff201950 <__StackTop+0xc71e1950>
    1758:	0aca1000 	beq	ff285760 <__StackTop+0xc7265760>
    175c:	00021000 	andeq	r1, r2, r0
    1760:	0aca247d 	beq	ff28a95c <__StackTop+0xc726a95c>
    1764:	0b861000 	bleq	fe18576c <__StackTop+0xc616576c>
    1768:	00031000 	andeq	r1, r3, r0
    176c:	8600f87d 			; <UNDEFINED> instruction: 0x8600f87d
    1770:	8a10000b 	bhi	4017a4 <__ROM_SIZE+0x3817a4>
    1774:	0210000b 	andseq	r0, r0, #11
    1778:	00247d00 	eoreq	r7, r4, r0, lsl #26
	...
    1788:	c4000000 	strgt	r0, [r0], #-0
    178c:	fa10000a 	blx	4017bc <__ROM_SIZE+0x3817bc>
    1790:	0110000a 	tsteq	r0, sl
    1794:	0afa5000 	beq	ffe9579c <__StackTop+0xc7e7579c>
    1798:	0b581000 	bleq	16057a0 <__ROM_SIZE+0x15857a0>
    179c:	00031000 	andeq	r1, r3, r0
    17a0:	587fac91 	ldmdapl	pc!, {r0, r4, r7, sl, fp, sp, pc}^	; <UNPREDICTABLE>
    17a4:	5c10000b 	ldcpl	0, cr0, [r0], {11}
    17a8:	0110000b 	tsteq	r0, fp
    17ac:	0b5c5000 	bleq	17157b4 <__ROM_SIZE+0x16957b4>
    17b0:	0b8a1000 	bleq	fe2857b8 <__StackTop+0xc62657b8>
    17b4:	00031000 	andeq	r1, r3, r0
    17b8:	007fac91 			; <UNDEFINED> instruction: 0x007fac91
	...
    17c8:	c4000000 	strgt	r0, [r0], #-0
    17cc:	fa10000a 	blx	4017fc <__ROM_SIZE+0x3817fc>
    17d0:	0110000a 	tsteq	r0, sl
    17d4:	0afa5100 	beq	ffe95bdc <__StackTop+0xc7e75bdc>
    17d8:	0b581000 	bleq	16057e0 <__ROM_SIZE+0x15857e0>
    17dc:	00031000 	andeq	r1, r3, r0
    17e0:	587fb091 	ldmdapl	pc!, {r0, r4, r7, ip, sp, pc}^	; <UNPREDICTABLE>
    17e4:	5c10000b 	ldcpl	0, cr0, [r0], {11}
    17e8:	0110000b 	tsteq	r0, fp
    17ec:	0b5c5100 	bleq	1715bf4 <__ROM_SIZE+0x1695bf4>
    17f0:	0b8a1000 	bleq	fe2857f8 <__StackTop+0xc62657f8>
    17f4:	00031000 	andeq	r1, r3, r0
    17f8:	007fb091 			; <UNDEFINED> instruction: 0x007fb091
	...
    1808:	c4000000 	strgt	r0, [r0], #-0
    180c:	fa10000a 	blx	40183c <__ROM_SIZE+0x38183c>
    1810:	0110000a 	tsteq	r0, sl
    1814:	0afa5200 	beq	ffe9601c <__StackTop+0xc7e7601c>
    1818:	0b581000 	bleq	1605820 <__ROM_SIZE+0x1585820>
    181c:	00031000 	andeq	r1, r3, r0
    1820:	587fb491 	ldmdapl	pc!, {r0, r4, r7, sl, ip, sp, pc}^	; <UNPREDICTABLE>
    1824:	5c10000b 	ldcpl	0, cr0, [r0], {11}
    1828:	0110000b 	tsteq	r0, fp
    182c:	0b5c5200 	bleq	1716034 <__ROM_SIZE+0x1696034>
    1830:	0b8a1000 	bleq	fe285838 <__StackTop+0xc6265838>
    1834:	00031000 	andeq	r1, r3, r0
    1838:	007fb491 			; <UNDEFINED> instruction: 0x007fb491
	...
    1844:	c4000000 	strgt	r0, [r0], #-0
    1848:	e410000a 	ldr	r0, [r0], #-10
    184c:	0110000a 	tsteq	r0, sl
    1850:	0ae45300 	beq	ff916458 <__StackTop+0xc78f6458>
    1854:	0b8a1000 	bleq	fe28585c <__StackTop+0xc626585c>
    1858:	00011000 	andeq	r1, r1, r0
    185c:	0000005b 	andeq	r0, r0, fp, asr r0
	...
    186c:	c4000000 	strgt	r0, [r0], #-0
    1870:	fa10000a 	blx	4018a0 <__ROM_SIZE+0x3818a0>
    1874:	0210000a 	andseq	r0, r0, #10
    1878:	fa009100 	blx	25c80 <__RAM_SIZE+0x5c80>
    187c:	1c10000a 	ldcne	0, cr0, [r0], {10}
    1880:	0610000b 	ldreq	r0, [r0], -fp
    1884:	04935500 	ldreq	r5, [r3], #1280	; 0x500
    1888:	1c049356 	stcne	3, cr9, [r4], {86}	; 0x56
    188c:	3010000b 	andscc	r0, r0, fp
    1890:	0610000b 	ldreq	r0, [r0], -fp
    1894:	04935000 	ldreq	r5, [r3], #0
    1898:	30049351 	andcc	r9, r4, r1, asr r3
    189c:	5810000b 	ldmdapl	r0, {r0, r1, r3}
    18a0:	0610000b 	ldreq	r0, [r0], -fp
    18a4:	04935500 	ldreq	r5, [r3], #1280	; 0x500
    18a8:	58049356 	stmdapl	r4, {r1, r2, r4, r6, r8, r9, ip, pc}
    18ac:	5c10000b 	ldcpl	0, cr0, [r0], {11}
    18b0:	0210000b 	andseq	r0, r0, #11
    18b4:	00009100 	andeq	r9, r0, r0, lsl #2
	...
    18c0:	c4000000 	strgt	r0, [r0], #-0
    18c4:	ea10000a 	b	4018f4 <__ROM_SIZE+0x3818f4>
    18c8:	0210000a 	andseq	r0, r0, #10
    18cc:	ea209100 	b	825cd4 <__ROM_SIZE+0x7a5cd4>
    18d0:	8a10000a 	bhi	401900 <__ROM_SIZE+0x381900>
    18d4:	0110000b 	tsteq	r0, fp
    18d8:	00005a00 	andeq	r5, r0, r0, lsl #20
    18dc:	00000000 	andeq	r0, r0, r0
    18e0:	00020000 	andeq	r0, r2, r0
	...
    18ec:	0ae00000 	beq	ff8018f4 <__StackTop+0xc77e18f4>
    18f0:	0afa1000 	beq	ffe858f8 <__StackTop+0xc7e658f8>
    18f4:	00021000 	andeq	r1, r2, r0
    18f8:	0afa9f30 	beq	ffea95c0 <__StackTop+0xc7e895c0>
    18fc:	0b041000 	bleq	105904 <__ROM_SIZE+0x85904>
    1900:	00011000 	andeq	r1, r1, r0
    1904:	000b0454 	andeq	r0, fp, r4, asr r4
    1908:	000b3010 	andeq	r3, fp, r0, lsl r0
    190c:	59000110 	stmdbpl	r0, {r4, r8}
    1910:	10000b30 	andne	r0, r0, r0, lsr fp
    1914:	10000b58 	andne	r0, r0, r8, asr fp
    1918:	58540001 	ldmdapl	r4, {r0}^
    191c:	5c10000b 	ldcpl	0, cr0, [r0], {11}
    1920:	0210000b 	andseq	r0, r0, #11
    1924:	5c9f3000 	ldcpl	0, cr3, [pc], {0}
    1928:	8a10000b 	bhi	40195c <__ROM_SIZE+0x38195c>
    192c:	0110000b 	tsteq	r0, fp
    1930:	00005900 	andeq	r5, r0, r0, lsl #18
	...
    193c:	0afa0000 	beq	ffe81944 <__StackTop+0xc7e61944>
    1940:	0b081000 	bleq	205948 <__ROM_SIZE+0x185948>
    1944:	00011000 	andeq	r1, r1, r0
    1948:	000b3e53 	andeq	r3, fp, r3, asr lr
    194c:	000b5810 	andeq	r5, fp, r0, lsl r8
    1950:	53000110 	movwpl	r0, #272	; 0x110
	...
    195c:	10000a30 	andne	r0, r0, r0, lsr sl
    1960:	10000a32 	andne	r0, r0, r2, lsr sl
    1964:	007d0002 	rsbseq	r0, sp, r2
    1968:	10000a32 	andne	r0, r0, r2, lsr sl
    196c:	10000a34 	andne	r0, r0, r4, lsr sl
    1970:	147d0002 	ldrbtne	r0, [sp], #-2
    1974:	10000a34 	andne	r0, r0, r4, lsr sl
    1978:	10000ac2 	andne	r0, r0, r2, asr #21
    197c:	d87d0003 	ldmdale	sp!, {r0, r1}^
    1980:	000ac200 	andeq	ip, sl, r0, lsl #4
    1984:	000ac410 	andeq	ip, sl, r0, lsl r4
    1988:	7d000210 	sfmvc	f0, 4, [r0, #-64]	; 0xffffffc0
    198c:	00000014 	andeq	r0, r0, r4, lsl r0
	...
    1998:	000a3000 	andeq	r3, sl, r0
    199c:	000abf10 	andeq	fp, sl, r0, lsl pc
    19a0:	50000110 	andpl	r0, r0, r0, lsl r1
    19a4:	10000abf 			; <UNDEFINED> instruction: 0x10000abf
    19a8:	10000ac4 	andne	r0, r0, r4, asr #21
    19ac:	01f30004 	mvnseq	r0, r4
    19b0:	00009f50 	andeq	r9, r0, r0, asr pc
	...
    19bc:	0a300000 	beq	c019c4 <__ROM_SIZE+0xb819c4>
    19c0:	0abf1000 	beq	fefc59c8 <__StackTop+0xc6fa59c8>
    19c4:	00011000 	andeq	r1, r1, r0
    19c8:	000abf51 	andeq	fp, sl, r1, asr pc
    19cc:	000ac410 	andeq	ip, sl, r0, lsl r4
    19d0:	f3000410 	vqshl.u8	d0, d0, d0
    19d4:	009f5101 	addseq	r5, pc, r1, lsl #2
	...
    19e0:	30000000 	andcc	r0, r0, r0
    19e4:	bf10000a 	svclt	0x0010000a
    19e8:	0110000a 	tsteq	r0, sl
    19ec:	0abf5200 	beq	fefd61f4 <__StackTop+0xc6fb61f4>
    19f0:	0ac41000 	beq	ff1059f8 <__StackTop+0xc70e59f8>
    19f4:	00041000 	andeq	r1, r4, r0
    19f8:	9f5201f3 	svcls	0x005201f3
	...
    1a08:	10000a30 	andne	r0, r0, r0, lsr sl
    1a0c:	10000abf 			; <UNDEFINED> instruction: 0x10000abf
    1a10:	bf530001 	svclt	0x00530001
    1a14:	c410000a 	ldrgt	r0, [r0], #-10
    1a18:	0410000a 	ldreq	r0, [r0], #-10
    1a1c:	5301f300 	movwpl	pc, #4864	; 0x1300	; <UNPREDICTABLE>
    1a20:	0000009f 	muleq	r0, pc, r0	; <UNPREDICTABLE>
	...
    1a30:	30000000 	andcc	r0, r0, r0
    1a34:	4e10000a 	cdpmi	0, 1, cr0, cr0, cr10, {0}
    1a38:	0210000a 	andseq	r0, r0, #10
    1a3c:	4e009100 	mvfmis	f1, f0
    1a40:	6810000a 	ldmdavs	r0, {r1, r3}
    1a44:	0110000a 	tsteq	r0, sl
    1a48:	0a685400 	beq	1a16a50 <__ROM_SIZE+0x1996a50>
    1a4c:	0a741000 	beq	1d05a54 <__ROM_SIZE+0x1c85a54>
    1a50:	00011000 	andeq	r1, r1, r0
    1a54:	000a745c 	andeq	r7, sl, ip, asr r4
    1a58:	000aa210 	andeq	sl, sl, r0, lsl r2
    1a5c:	54000110 	strpl	r0, [r0], #-272	; 0xfffffef0
    1a60:	10000aa2 	andne	r0, r0, r2, lsr #21
    1a64:	10000aa4 	andne	r0, r0, r4, lsr #21
    1a68:	00910002 	addseq	r0, r1, r2
	...
    1a78:	10000a30 	andne	r0, r0, r0, lsr sl
    1a7c:	10000a40 	andne	r0, r0, r0, asr #20
    1a80:	14910002 	ldrne	r0, [r1], #2
    1a84:	10000a40 	andne	r0, r0, r0, asr #20
    1a88:	10000ac4 	andne	r0, r0, r4, asr #21
    1a8c:	00560001 	subseq	r0, r6, r1
    1a90:	00000000 	andeq	r0, r0, r0
    1a94:	02000000 	andeq	r0, r0, #0
	...
    1aa0:	3a000000 	bcc	1aa8 <__HEAP_SIZE+0xaa8>
    1aa4:	4e10000a 	cdpmi	0, 1, cr0, cr0, cr10, {0}
    1aa8:	0210000a 	andseq	r0, r0, #10
    1aac:	4e9f3000 	cdpmi	0, 9, cr3, cr15, cr0, {0}
    1ab0:	5a10000a 	bpl	401ae0 <__ROM_SIZE+0x381ae0>
    1ab4:	0110000a 	tsteq	r0, sl
    1ab8:	0a5a5e00 	beq	16992c0 <__ROM_SIZE+0x16192c0>
    1abc:	0a741000 	beq	1d05ac4 <__ROM_SIZE+0x1c85ac4>
    1ac0:	00011000 	andeq	r1, r1, r0
    1ac4:	000a7457 	andeq	r7, sl, r7, asr r4
    1ac8:	000aa210 	andeq	sl, sl, r0, lsl r2
    1acc:	5e000110 	fltpls	f0, r0
    1ad0:	10000aa2 	andne	r0, r0, r2, lsr #21
    1ad4:	10000aa4 	andne	r0, r0, r4, lsr #21
    1ad8:	9f300002 	svcls	0x00300002
    1adc:	10000aa4 	andne	r0, r0, r4, lsr #21
    1ae0:	10000ac4 	andne	r0, r0, r4, asr #21
    1ae4:	00570001 	subseq	r0, r7, r1
	...
    1af8:	4e000000 	cdpmi	0, 0, cr0, cr0, cr0, {0}
    1afc:	5210000a 	andspl	r0, r0, #10
    1b00:	0110000a 	tsteq	r0, sl
    1b04:	0a525c00 	beq	1498b0c <__ROM_SIZE+0x1418b0c>
    1b08:	0a561000 	beq	1585b10 <__ROM_SIZE+0x1505b10>
    1b0c:	00031000 	andeq	r1, r3, r0
    1b10:	569f507c 			; <UNDEFINED> instruction: 0x569f507c
    1b14:	7410000a 	ldrvc	r0, [r0], #-10
    1b18:	1210000a 	andsne	r0, r0, #10
    1b1c:	74007400 	strvc	r7, [r0], #-1024	; 0xfffffc00
    1b20:	7530f700 	ldrvc	pc, [r0, #-1792]!	; 0xfffff900
    1b24:	1b30f700 	blne	c3f72c <__ROM_SIZE+0xbbf72c>
    1b28:	007500f7 	ldrshteq	r0, [r5], #-7
    1b2c:	809f1c1e 	addshi	r1, pc, lr, lsl ip	; <UNPREDICTABLE>
    1b30:	9010000a 	andsls	r0, r0, sl
    1b34:	0110000a 	tsteq	r0, sl
    1b38:	0a905c00 	beq	fe418b40 <__StackTop+0xc63f8b40>
    1b3c:	0a9e1000 	beq	fe785b44 <__StackTop+0xc6765b44>
    1b40:	00121000 	andseq	r1, r2, r0
    1b44:	00740074 	rsbseq	r0, r4, r4, ror r0
    1b48:	007530f7 	ldrshteq	r3, [r5], #-7
    1b4c:	f71b30f7 			; <UNDEFINED> instruction: 0xf71b30f7
    1b50:	1e007500 	cfsh32ne	mvfx7, mvfx0, #0
    1b54:	0a9e9f1c 	beq	fe7a97cc <__StackTop+0xc67897cc>
    1b58:	0aa21000 	beq	fe885b60 <__StackTop+0xc6865b60>
    1b5c:	00011000 	andeq	r1, r1, r0
    1b60:	0000005c 	andeq	r0, r0, ip, asr r0
    1b64:	00000000 	andeq	r0, r0, r0
    1b68:	0008f800 	andeq	pc, r8, r0, lsl #16
    1b6c:	0008fc10 	andeq	pc, r8, r0, lsl ip	; <UNPREDICTABLE>
    1b70:	7d000210 	sfmvc	f0, 4, [r0, #-64]	; 0xffffffc0
    1b74:	0008fc00 	andeq	pc, r8, r0, lsl #24
    1b78:	0008fe10 	andeq	pc, r8, r0, lsl lr	; <UNPREDICTABLE>
    1b7c:	7d000210 	sfmvc	f0, 4, [r0, #-64]	; 0xffffffc0
    1b80:	0008fe1c 	andeq	pc, r8, ip, lsl lr	; <UNPREDICTABLE>
    1b84:	0009b410 	andeq	fp, r9, r0, lsl r4
    1b88:	7d000210 	sfmvc	f0, 4, [r0, #-64]	; 0xffffffc0
    1b8c:	0009b430 	andeq	fp, r9, r0, lsr r4
    1b90:	0009b810 	andeq	fp, r9, r0, lsl r8
    1b94:	7d000210 	sfmvc	f0, 4, [r0, #-64]	; 0xffffffc0
    1b98:	0009b81c 	andeq	fp, r9, ip, lsl r8
    1b9c:	000a3010 	andeq	r3, sl, r0, lsl r0
    1ba0:	7d000210 	sfmvc	f0, 4, [r0, #-64]	; 0xffffffc0
    1ba4:	00000030 	andeq	r0, r0, r0, lsr r0
	...
    1bb0:	f8000000 			; <UNDEFINED> instruction: 0xf8000000
    1bb4:	b1100008 	tstlt	r0, r8
    1bb8:	01100009 	tsteq	r0, r9
    1bbc:	09b15000 	ldmibeq	r1!, {ip, lr}
    1bc0:	09b81000 	ldmibeq	r8!, {ip}
    1bc4:	00041000 	andeq	r1, r4, r0
    1bc8:	9f5001f3 	svcls	0x005001f3
    1bcc:	100009b8 			; <UNDEFINED> instruction: 0x100009b8
    1bd0:	10000a30 	andne	r0, r0, r0, lsr sl
    1bd4:	00500001 	subseq	r0, r0, r1
	...
    1be4:	0008f800 	andeq	pc, r8, r0, lsl #16
    1be8:	0009b110 	andeq	fp, r9, r0, lsl r1
    1bec:	51000110 	tstpl	r0, r0, lsl r1
    1bf0:	100009b1 			; <UNDEFINED> instruction: 0x100009b1
    1bf4:	100009b8 			; <UNDEFINED> instruction: 0x100009b8
    1bf8:	01f30004 	mvnseq	r0, r4
    1bfc:	09b89f51 	ldmibeq	r8!, {r0, r4, r6, r8, r9, sl, fp, ip, pc}
    1c00:	0a301000 	beq	c05c08 <__ROM_SIZE+0xb85c08>
    1c04:	00011000 	andeq	r1, r1, r0
    1c08:	00000051 	andeq	r0, r0, r1, asr r0
	...
    1c14:	f8000000 			; <UNDEFINED> instruction: 0xf8000000
    1c18:	b1100008 	tstlt	r0, r8
    1c1c:	01100009 	tsteq	r0, r9
    1c20:	09b15200 	ldmibeq	r1!, {r9, ip, lr}
    1c24:	09b81000 	ldmibeq	r8!, {ip}
    1c28:	00041000 	andeq	r1, r4, r0
    1c2c:	9f5201f3 	svcls	0x005201f3
    1c30:	100009b8 			; <UNDEFINED> instruction: 0x100009b8
    1c34:	10000a30 	andne	r0, r0, r0, lsr sl
    1c38:	00520001 	subseq	r0, r2, r1
	...
    1c48:	0008f800 	andeq	pc, r8, r0, lsl #16
    1c4c:	0009b110 	andeq	fp, r9, r0, lsl r1
    1c50:	53000110 	movwpl	r0, #272	; 0x110
    1c54:	100009b1 			; <UNDEFINED> instruction: 0x100009b1
    1c58:	100009b8 			; <UNDEFINED> instruction: 0x100009b8
    1c5c:	01f30004 	mvnseq	r0, r4
    1c60:	09b89f53 	ldmibeq	r8!, {r0, r1, r4, r6, r8, r9, sl, fp, ip, pc}
    1c64:	0a301000 	beq	c05c6c <__ROM_SIZE+0xb85c6c>
    1c68:	00011000 	andeq	r1, r1, r0
    1c6c:	00000053 	andeq	r0, r0, r3, asr r0
	...
    1c78:	0008f800 	andeq	pc, r8, r0, lsl #16
    1c7c:	0009b810 	andeq	fp, r9, r0, lsl r8
    1c80:	91000210 	tstls	r0, r0, lsl r2
    1c84:	0009b800 	andeq	fp, r9, r0, lsl #16
    1c88:	000a3010 	andeq	r3, sl, r0, lsl r0
    1c8c:	91000210 	tstls	r0, r0, lsl r2
	...
    1c9c:	00000101 	andeq	r0, r0, r1, lsl #2
    1ca0:	00000101 	andeq	r0, r0, r1, lsl #2
    1ca4:	00000101 	andeq	r0, r0, r1, lsl #2
    1ca8:	00000101 	andeq	r0, r0, r1, lsl #2
    1cac:	00000101 	andeq	r0, r0, r1, lsl #2
    1cb0:	00000000 	andeq	r0, r0, r0
    1cb4:	01010000 	mrseq	r0, (UNDEF: 1)
    1cb8:	01010000 	mrseq	r0, (UNDEF: 1)
    1cbc:	01010000 	mrseq	r0, (UNDEF: 1)
    1cc0:	01010000 	mrseq	r0, (UNDEF: 1)
    1cc4:	01010000 	mrseq	r0, (UNDEF: 1)
    1cc8:	f8000000 			; <UNDEFINED> instruction: 0xf8000000
    1ccc:	30100008 	andscc	r0, r0, r8
    1cd0:	02100009 	andseq	r0, r0, #9
    1cd4:	30049100 	andcc	r9, r4, r0, lsl #2
    1cd8:	30100009 	andscc	r0, r0, r9
    1cdc:	01100009 	tsteq	r0, r9
    1ce0:	09305400 	ldmdbeq	r0!, {sl, ip, lr}
    1ce4:	093a1000 	ldmdbeq	sl!, {ip}
    1ce8:	00031000 	andeq	r1, r3, r0
    1cec:	3a9f0174 	bcc	fe7c22c4 <__StackTop+0xc67a22c4>
    1cf0:	50100009 	andspl	r0, r0, r9
    1cf4:	01100009 	tsteq	r0, r9
    1cf8:	09505400 	ldmdbeq	r0, {sl, ip, lr}^
    1cfc:	095a1000 	ldmdbeq	sl, {ip}^
    1d00:	00031000 	andeq	r1, r3, r0
    1d04:	5a9f0174 	bpl	fe7c22dc <__StackTop+0xc67a22dc>
    1d08:	88100009 	ldmdahi	r0, {r0, r3}
    1d0c:	01100009 	tsteq	r0, r9
    1d10:	09885400 	stmibeq	r8, {sl, ip, lr}
    1d14:	09921000 	ldmibeq	r2, {ip}
    1d18:	00031000 	andeq	r1, r3, r0
    1d1c:	929f0174 	addsls	r0, pc, #116, 2
    1d20:	9c100009 	ldcls	0, cr0, [r0], {9}
    1d24:	01100009 	tsteq	r0, r9
    1d28:	099c5400 	ldmibeq	ip, {sl, ip, lr}
    1d2c:	09a61000 	stmibeq	r6!, {ip}
    1d30:	00031000 	andeq	r1, r3, r0
    1d34:	a69f0174 			; <UNDEFINED> instruction: 0xa69f0174
    1d38:	b8100009 	ldmdalt	r0, {r0, r3}
    1d3c:	01100009 	tsteq	r0, r9
    1d40:	09b85400 	ldmibeq	r8!, {sl, ip, lr}
    1d44:	09bc1000 	ldmibeq	ip!, {ip}
    1d48:	00031000 	andeq	r1, r3, r0
    1d4c:	bc9f7f74 	ldclt	15, cr7, [pc], {116}	; 0x74
    1d50:	ca100009 	bgt	401d7c <__ROM_SIZE+0x381d7c>
    1d54:	01100009 	tsteq	r0, r9
    1d58:	09ca5c00 	stmibeq	sl, {sl, fp, ip, lr}^
    1d5c:	09cc1000 	stmibeq	ip, {ip}^
    1d60:	00011000 	andeq	r1, r1, r0
    1d64:	0009cc54 	andeq	ip, r9, r4, asr ip
    1d68:	0009d010 	andeq	sp, r9, r0, lsl r0
    1d6c:	5c000110 	stfpls	f0, [r0], {16}
    1d70:	100009d0 	ldrdne	r0, [r0], -r0	; <UNPREDICTABLE>
    1d74:	100009da 	ldrdne	r0, [r0], -sl
    1d78:	da540001 	ble	1501d84 <__ROM_SIZE+0x1481d84>
    1d7c:	e4100009 	ldr	r0, [r0], #-9
    1d80:	03100009 	tsteq	r0, #9
    1d84:	9f017400 	svcls	0x00017400
    1d88:	100009e4 	andne	r0, r0, r4, ror #19
    1d8c:	100009f0 	strdne	r0, [r0], -r0	; <UNPREDICTABLE>
    1d90:	f0540001 			; <UNDEFINED> instruction: 0xf0540001
    1d94:	fa100009 	blx	401dc0 <__ROM_SIZE+0x381dc0>
    1d98:	03100009 	tsteq	r0, #9
    1d9c:	9f017400 	svcls	0x00017400
    1da0:	100009fa 	strdne	r0, [r0], -sl
    1da4:	10000a00 	andne	r0, r0, r0, lsl #20
    1da8:	00540001 	subseq	r0, r4, r1
    1dac:	0a10000a 	beq	401ddc <__ROM_SIZE+0x381ddc>
    1db0:	0310000a 	tsteq	r0, #10
    1db4:	9f017400 	svcls	0x00017400
    1db8:	10000a0a 	andne	r0, r0, sl, lsl #20
    1dbc:	10000a12 	andne	r0, r0, r2, lsl sl
    1dc0:	12540001 	subsne	r0, r4, #1
    1dc4:	1c10000a 	ldcne	0, cr0, [r0], {10}
    1dc8:	0310000a 	tsteq	r0, #10
    1dcc:	9f017400 	svcls	0x00017400
    1dd0:	10000a1c 	andne	r0, r0, ip, lsl sl
    1dd4:	10000a24 	andne	r0, r0, r4, lsr #20
    1dd8:	24540001 	ldrbcs	r0, [r4], #-1
    1ddc:	2e10000a 	cdpcs	0, 1, cr0, cr0, cr10, {0}
    1de0:	0310000a 	tsteq	r0, #10
    1de4:	9f017400 	svcls	0x00017400
    1de8:	10000a2e 	andne	r0, r0, lr, lsr #20
    1dec:	10000a30 	andne	r0, r0, r0, lsr sl
    1df0:	00540001 	subseq	r0, r4, r1
	...
    1dfc:	f8000000 			; <UNDEFINED> instruction: 0xf8000000
    1e00:	b8100008 	ldmdalt	r0, {r3}
    1e04:	02100009 	andseq	r0, r0, #9
    1e08:	b8089100 	stmdalt	r8, {r8, ip, pc}
    1e0c:	30100009 	andscc	r0, r0, r9
    1e10:	0210000a 	andseq	r0, r0, #10
    1e14:	00089100 	andeq	r9, r8, r0, lsl #2
	...
    1e20:	f8000000 			; <UNDEFINED> instruction: 0xf8000000
    1e24:	b8100008 	ldmdalt	r0, {r3}
    1e28:	02100009 	andseq	r0, r0, #9
    1e2c:	b80c9100 	stmdalt	ip, {r8, ip, pc}
    1e30:	30100009 	andscc	r0, r0, r9
    1e34:	0210000a 	andseq	r0, r0, #10
    1e38:	000c9100 	andeq	r9, ip, r0, lsl #2
	...
    1e44:	f8000000 			; <UNDEFINED> instruction: 0xf8000000
    1e48:	b8100008 	ldmdalt	r0, {r3}
    1e4c:	02100009 	andseq	r0, r0, #9
    1e50:	b8109100 	ldmdalt	r0, {r8, ip, pc}
    1e54:	30100009 	andscc	r0, r0, r9
    1e58:	0210000a 	andseq	r0, r0, #10
    1e5c:	00109100 	andseq	r9, r0, r0, lsl #2
	...
    1e68:	f8000000 			; <UNDEFINED> instruction: 0xf8000000
    1e6c:	2e100008 	cdpcs	0, 1, cr0, cr0, cr8, {0}
    1e70:	02100009 	andseq	r0, r0, #9
    1e74:	2e149100 	mnfcss	f1, f0
    1e78:	30100009 	andscc	r0, r0, r9
    1e7c:	0110000a 	tsteq	r0, sl
    1e80:	00005700 	andeq	r5, r0, r0, lsl #14
	...
    1e8c:	08f80000 	ldmeq	r8!, {}^	; <UNPREDICTABLE>
    1e90:	09b81000 	ldmibeq	r8!, {ip}
    1e94:	00021000 	andeq	r1, r2, r0
    1e98:	09b81891 	ldmibeq	r8!, {r0, r4, r7, fp, ip}
    1e9c:	0a301000 	beq	c05ea4 <__ROM_SIZE+0xb85ea4>
    1ea0:	00021000 	andeq	r1, r2, r0
    1ea4:	00001891 	muleq	r0, r1, r8
    1ea8:	00000000 	andeq	r0, r0, r0
    1eac:	087a0000 	ldmdaeq	sl!, {}^	; <UNPREDICTABLE>
    1eb0:	087e1000 	ldmdaeq	lr!, {ip}^
    1eb4:	00021000 	andeq	r1, r2, r0
    1eb8:	087e007d 	ldmdaeq	lr!, {r0, r2, r3, r4, r5, r6}^
    1ebc:	08801000 	stmeq	r0, {ip}
    1ec0:	00021000 	andeq	r1, r2, r0
    1ec4:	0880247d 	stmeq	r0, {r0, r2, r3, r4, r5, r6, sl, sp}
    1ec8:	08de1000 	ldmeq	lr, {ip}^
    1ecc:	00021000 	andeq	r1, r2, r0
    1ed0:	08de307d 	ldmeq	lr, {r0, r2, r3, r4, r5, r6, ip, sp}^
    1ed4:	08e21000 	stmiaeq	r2!, {ip}^
    1ed8:	00021000 	andeq	r1, r2, r0
    1edc:	08e2247d 	stmiaeq	r2!, {r0, r2, r3, r4, r5, r6, sl, sp}^
    1ee0:	08f81000 	ldmeq	r8!, {ip}^
    1ee4:	00021000 	andeq	r1, r2, r0
    1ee8:	0000307d 	andeq	r3, r0, sp, ror r0
	...
    1ef4:	087a0000 	ldmdaeq	sl!, {}^	; <UNPREDICTABLE>
    1ef8:	089e1000 	ldmeq	lr, {ip}
    1efc:	00011000 	andeq	r1, r1, r0
    1f00:	00089e50 	andeq	r9, r8, r0, asr lr
    1f04:	0008f810 	andeq	pc, r8, r0, lsl r8	; <UNPREDICTABLE>
    1f08:	55000110 	strpl	r0, [r0, #-272]	; 0xfffffef0
	...
    1f18:	1000087a 	andne	r0, r0, sl, ror r8
    1f1c:	1000089e 	mulne	r0, lr, r8
    1f20:	9e510001 	cdpls	0, 5, cr0, cr1, cr1, {0}
    1f24:	f8100008 			; <UNDEFINED> instruction: 0xf8100008
    1f28:	01100008 	tsteq	r0, r8
    1f2c:	00005600 	andeq	r5, r0, r0, lsl #12
	...
    1f40:	087a0000 	ldmdaeq	sl!, {}^	; <UNPREDICTABLE>
    1f44:	08a61000 	stmiaeq	r6!, {ip}
    1f48:	00011000 	andeq	r1, r1, r0
    1f4c:	0008a652 	andeq	sl, r8, r2, asr r6
    1f50:	0008b610 	andeq	fp, r8, r0, lsl r6
    1f54:	5b000110 	blpl	239c <__HEAP_SIZE+0x139c>
    1f58:	100008b6 			; <UNDEFINED> instruction: 0x100008b6
    1f5c:	100008c2 	andne	r0, r0, r2, asr #17
    1f60:	c2520001 	subsgt	r0, r2, #1
    1f64:	ce100008 	cdpgt	0, 1, cr0, cr0, cr8, {0}
    1f68:	01100008 	tsteq	r0, r8
    1f6c:	08ce5800 	stmiaeq	lr, {fp, ip, lr}^
    1f70:	08ec1000 	stmiaeq	ip!, {ip}^
    1f74:	00011000 	andeq	r1, r1, r0
    1f78:	0008ec52 	andeq	lr, r8, r2, asr ip
    1f7c:	0008f810 	andeq	pc, r8, r0, lsl r8	; <UNPREDICTABLE>
    1f80:	54000110 	strpl	r0, [r0], #-272	; 0xfffffef0
	...
    1f90:	1000087a 	andne	r0, r0, sl, ror r8
    1f94:	10000894 	mulne	r0, r4, r8
    1f98:	94530001 	ldrbls	r0, [r3], #-1
    1f9c:	f8100008 			; <UNDEFINED> instruction: 0xf8100008
    1fa0:	01100008 	tsteq	r0, r8
    1fa4:	00005700 	andeq	r5, r0, r0, lsl #14
	...
    1fb0:	087a0000 	ldmdaeq	sl!, {}^	; <UNPREDICTABLE>
    1fb4:	08e21000 	stmiaeq	r2!, {ip}^
    1fb8:	00021000 	andeq	r1, r2, r0
    1fbc:	08e20091 	stmiaeq	r2!, {r0, r4, r7}^
    1fc0:	08f81000 	ldmeq	r8!, {ip}^
    1fc4:	00021000 	andeq	r1, r2, r0
    1fc8:	00000091 	muleq	r0, r1, r0
	...
    1fd4:	087a0000 	ldmdaeq	sl!, {}^	; <UNPREDICTABLE>
    1fd8:	08bc1000 	ldmeq	ip!, {ip}
    1fdc:	00021000 	andeq	r1, r2, r0
    1fe0:	08bc0491 	ldmeq	ip!, {r0, r4, r7, sl}
    1fe4:	08da1000 	ldmeq	sl, {ip}^
    1fe8:	00011000 	andeq	r1, r1, r0
    1fec:	00000054 	andeq	r0, r0, r4, asr r0
	...
    1ff8:	00087a00 	andeq	r7, r8, r0, lsl #20
    1ffc:	0008e210 	andeq	lr, r8, r0, lsl r2
    2000:	91000210 	tstls	r0, r0, lsl r2
    2004:	0008e208 	andeq	lr, r8, r8, lsl #4
    2008:	0008f810 	andeq	pc, r8, r0, lsl r8	; <UNPREDICTABLE>
    200c:	91000210 	tstls	r0, r0, lsl r2
    2010:	00000008 	andeq	r0, r0, r8
	...
    201c:	00087a00 	andeq	r7, r8, r0, lsl #20
    2020:	0008e210 	andeq	lr, r8, r0, lsl r2
    2024:	91000210 	tstls	r0, r0, lsl r2
    2028:	0008e20c 	andeq	lr, r8, ip, lsl #4
    202c:	0008f810 	andeq	pc, r8, r0, lsl r8	; <UNPREDICTABLE>
    2030:	91000210 	tstls	r0, r0, lsl r2
    2034:	0000000c 	andeq	r0, r0, ip
    2038:	00000000 	andeq	r0, r0, r0
    203c:	00000100 	andeq	r0, r0, r0, lsl #2
    2040:	92000000 	andls	r0, r0, #0
    2044:	9e100008 	cdpls	0, 1, cr0, cr0, cr8, {0}
    2048:	01100008 	tsteq	r0, r8
    204c:	089e5200 	ldmeq	lr, {r9, ip, lr}
    2050:	08bc1000 	ldmeq	ip!, {ip}
    2054:	00021000 	andeq	r1, r2, r0
    2058:	08bc5491 	ldmeq	ip!, {r0, r4, r7, sl, ip, lr}
    205c:	08f81000 	ldmeq	r8!, {ip}^
    2060:	00041000 	andeq	r1, r4, r0
    2064:	9f5201f3 	svcls	0x005201f3
	...
    2070:	089e0000 	ldmeq	lr, {}	; <UNPREDICTABLE>
    2074:	08bc1000 	ldmeq	ip!, {ip}
    2078:	00011000 	andeq	r1, r1, r0
    207c:	00000058 	andeq	r0, r0, r8, asr r0
	...
    2088:	00085600 	andeq	r5, r8, r0, lsl #12
    208c:	00085a10 	andeq	r5, r8, r0, lsl sl
    2090:	50000110 	andpl	r0, r0, r0, lsl r1
    2094:	1000085a 	andne	r0, r0, sl, asr r8
    2098:	1000087a 	andne	r0, r0, sl, ror r8
    209c:	00510001 	subseq	r0, r1, r1
    20a0:	00000000 	andeq	r0, r0, r0
    20a4:	01000000 	mrseq	r0, (UNDEF: 0)
    20a8:	00000000 	andeq	r0, r0, r0
    20ac:	00085800 	andeq	r5, r8, r0, lsl #16
    20b0:	00085c10 	andeq	r5, r8, r0, lsl ip
    20b4:	30000210 	andcc	r0, r0, r0, lsl r2
    20b8:	00085c9f 	muleq	r8, pc, ip	; <UNPREDICTABLE>
    20bc:	00086010 	andeq	r6, r8, r0, lsl r0
    20c0:	50000110 	andpl	r0, r0, r0, lsl r1
    20c4:	1000086c 	andne	r0, r0, ip, ror #16
    20c8:	1000087a 	andne	r0, r0, sl, ror r8
    20cc:	00500001 	subseq	r0, r0, r1
	...
    20d8:	70000000 	andvc	r0, r0, r0
    20dc:	72100008 	andsvc	r0, r0, #8
    20e0:	01100008 	tsteq	r0, r8
    20e4:	08725300 	ldmdaeq	r2!, {r8, r9, ip, lr}^
    20e8:	08741000 	ldmdaeq	r4!, {ip}^
    20ec:	00031000 	andeq	r1, r3, r0
    20f0:	009f3073 	addseq	r3, pc, r3, ror r0	; <UNPREDICTABLE>
	...
    2100:	02000000 	andeq	r0, r0, #0
    2104:	00007d00 	andeq	r7, r0, r0, lsl #26
    2108:	00000000 	andeq	r0, r0, r0
    210c:	02000000 	andeq	r0, r0, #0
    2110:	00087d00 	andeq	r7, r8, r0, lsl #26
    2114:	00000000 	andeq	r0, r0, r0
    2118:	02000000 	andeq	r0, r0, #0
    211c:	00007d00 	andeq	r7, r0, r0, lsl #26
	...
    2134:	50000100 	andpl	r0, r0, r0, lsl #2
	...
    2140:	01f30004 	mvnseq	r0, r4
    2144:	00009f50 	andeq	r9, r0, r0, asr pc
    2148:	00000000 	andeq	r0, r0, r0
    214c:	00010000 	andeq	r0, r1, r0
    2150:	00000050 	andeq	r0, r0, r0, asr r0
	...
    2164:	01000000 	mrseq	r0, (UNDEF: 0)
    2168:	00005100 	andeq	r5, r0, r0, lsl #2
    216c:	00000000 	andeq	r0, r0, r0
    2170:	00040000 	andeq	r0, r4, r0
    2174:	9f5101f3 	svcls	0x005101f3
	...
    2180:	00510001 	subseq	r0, r1, r1
	...
    2198:	52000100 	andpl	r0, r0, #0, 2
	...
    21a4:	01f30004 	mvnseq	r0, r4
    21a8:	00009f52 	andeq	r9, r0, r2, asr pc
    21ac:	00000000 	andeq	r0, r0, r0
    21b0:	00010000 	andeq	r0, r1, r0
    21b4:	00000052 	andeq	r0, r0, r2, asr r0
	...
    21c8:	01000000 	mrseq	r0, (UNDEF: 0)
    21cc:	00005300 	andeq	r5, r0, r0, lsl #6
    21d0:	00000000 	andeq	r0, r0, r0
    21d4:	00040000 	andeq	r0, r4, r0
    21d8:	9f5301f3 	svcls	0x005301f3
	...
    21e4:	00530001 	subseq	r0, r3, r1
    21e8:	00000000 	andeq	r0, r0, r0
    21ec:	98000000 	stmdals	r0, {}	; <UNPREDICTABLE>
    21f0:	9e100019 	mrcls	0, 0, r0, cr0, cr9, {0}
    21f4:	02100019 	andseq	r0, r0, #25
    21f8:	9e007d00 	cdpls	13, 0, cr7, cr0, cr0, {0}
    21fc:	a4100019 	ldrge	r0, [r0], #-25	; 0xffffffe7
    2200:	02100019 	andseq	r0, r0, #25
    2204:	00087d00 	andeq	r7, r8, r0, lsl #26
	...
    2210:	98000000 	stmdals	r0, {}	; <UNPREDICTABLE>
    2214:	a1100019 	tstge	r0, r9, lsl r0
    2218:	01100019 	tsteq	r0, r9, lsl r0
    221c:	19a15000 	stmibne	r1!, {ip, lr}
    2220:	19a41000 	stmibne	r4!, {ip}
    2224:	00041000 	andeq	r1, r4, r0
    2228:	9f5001f3 	svcls	0x005001f3
	...
    2238:	10001998 	mulne	r0, r8, r9
    223c:	100019a1 	andne	r1, r0, r1, lsr #19
    2240:	a1510001 	cmpge	r1, r1
    2244:	a4100019 	ldrge	r0, [r0], #-25	; 0xffffffe7
    2248:	04100019 	ldreq	r0, [r0], #-25	; 0xffffffe7
    224c:	5101f300 	mrspl	pc, SP_irq	; <UNPREDICTABLE>
    2250:	0000009f 	muleq	r0, pc, r0	; <UNPREDICTABLE>
	...
    225c:	00199800 	andseq	r9, r9, r0, lsl #16
    2260:	0019a110 	andseq	sl, r9, r0, lsl r1
    2264:	52000110 	andpl	r0, r0, #16, 2
    2268:	100019a1 	andne	r1, r0, r1, lsr #19
    226c:	100019a4 	andne	r1, r0, r4, lsr #19
    2270:	01f30004 	mvnseq	r0, r4
    2274:	00009f52 	andeq	r9, r0, r2, asr pc
	...
    2280:	19980000 	ldmibne	r8, {}	; <UNPREDICTABLE>
    2284:	19a11000 	stmibne	r1!, {ip}
    2288:	00011000 	andeq	r1, r1, r0
    228c:	0019a153 	andseq	sl, r9, r3, asr r1
    2290:	0019a410 	andseq	sl, r9, r0, lsl r4
    2294:	f3000410 	vqshl.u8	d0, d0, d0
    2298:	009f5301 	addseq	r5, pc, r1, lsl #6
	...
    22a8:	02000000 	andeq	r0, r0, #0
    22ac:	00007d00 	andeq	r7, r0, r0, lsl #26
    22b0:	00000000 	andeq	r0, r0, r0
    22b4:	02000000 	andeq	r0, r0, #0
    22b8:	00087d00 	andeq	r7, r8, r0, lsl #26
	...
    22cc:	01000000 	mrseq	r0, (UNDEF: 0)
    22d0:	00005000 	andeq	r5, r0, r0
    22d4:	00000000 	andeq	r0, r0, r0
    22d8:	00010000 	andeq	r0, r1, r0
    22dc:	00000054 	andeq	r0, r0, r4, asr r0
	...
    22ec:	7d000200 	sfmvc	f0, 4, [r0, #-0]
	...
    22f8:	7d000200 	sfmvc	f0, 4, [r0, #-0]
    22fc:	00000008 	andeq	r0, r0, r8
	...
    2310:	50000100 	andpl	r0, r0, r0, lsl #2
	...
    231c:	00510001 	subseq	r0, r1, r1
    2320:	00000000 	andeq	r0, r0, r0
    2324:	01000000 	mrseq	r0, (UNDEF: 0)
	...
    2330:	53000100 	movwpl	r0, #256	; 0x100
	...
    233c:	00000100 	andeq	r0, r0, r0, lsl #2
    2340:	00000000 	andeq	r0, r0, r0
    2344:	00010000 	andeq	r0, r1, r0
    2348:	00000053 	andeq	r0, r0, r3, asr r0
    234c:	00000000 	andeq	r0, r0, r0
    2350:	00010000 	andeq	r0, r1, r0
    2354:	00000000 	andeq	r0, r0, r0
    2358:	01000000 	mrseq	r0, (UNDEF: 0)
    235c:	00005000 	andeq	r5, r0, r0
    2360:	00000000 	andeq	r0, r0, r0
    2364:	01000000 	mrseq	r0, (UNDEF: 0)
	...
    2370:	00500001 	subseq	r0, r0, r1
    2374:	00000000 	andeq	r0, r0, r0
    2378:	4c000000 	stcmi	0, cr0, [r0], {-0}
    237c:	4e10001a 	mrcmi	0, 0, r0, cr0, cr10, {0}
    2380:	0210001a 	andseq	r0, r0, #26
    2384:	4e007d00 	cdpmi	13, 0, cr7, cr0, cr0, {0}
    2388:	0810001a 	ldmdaeq	r0, {r1, r3, r4}
    238c:	0210001c 	andseq	r0, r0, #28
    2390:	00187d00 	andseq	r7, r8, r0, lsl #26
	...
    239c:	4c000000 	stcmi	0, cr0, [r0], {-0}
    23a0:	9810001a 	ldmdals	r0, {r1, r3, r4}
    23a4:	0110001a 	tsteq	r0, sl, lsl r0
    23a8:	1a985000 	bne	fe6163b0 <__StackTop+0xc65f63b0>
    23ac:	1c081000 	stcne	0, cr1, [r8], {-0}
    23b0:	00011000 	andeq	r1, r1, r0
    23b4:	00000055 	andeq	r0, r0, r5, asr r0
	...
    23c0:	4c000000 	stcmi	0, cr0, [r0], {-0}
    23c4:	9b10001a 	blls	402434 <__ROM_SIZE+0x382434>
    23c8:	0110001a 	tsteq	r0, sl, lsl r0
    23cc:	1a9b5100 	bne	fe6d67d4 <__StackTop+0xc66b67d4>
    23d0:	1b3c1000 	blne	f063d8 <__ROM_SIZE+0xe863d8>
    23d4:	00011000 	andeq	r1, r1, r0
    23d8:	001b3c56 	andseq	r3, fp, r6, asr ip
    23dc:	001c0810 	andseq	r0, ip, r0, lsl r8
    23e0:	f3000410 	vqshl.u8	d0, d0, d0
    23e4:	009f5101 	addseq	r5, pc, r1, lsl #2
    23e8:	00000000 	andeq	r0, r0, r0
    23ec:	03000000 	movweq	r0, #0
    23f0:	52000000 	andpl	r0, r0, #0
    23f4:	3e10001a 	mrccc	0, 0, r0, cr0, cr10, {0}
    23f8:	0210001b 	andseq	r0, r0, #27
    23fc:	3e9f3000 	cdpcc	0, 9, cr3, cr15, cr0, {0}
    2400:	0810001b 	ldmdaeq	r0, {r0, r1, r3, r4}
    2404:	0110001c 	tsteq	r0, ip, lsl r0
    2408:	00005600 	andeq	r5, r0, r0, lsl #12
    240c:	00000000 	andeq	r0, r0, r0
    2410:	00040000 	andeq	r0, r4, r0
    2414:	1a520000 	bne	148241c <__ROM_SIZE+0x140241c>
    2418:	1a981000 	bne	fe606420 <__StackTop+0xc65e6420>
    241c:	00011000 	andeq	r1, r1, r0
    2420:	001a9850 	andseq	r9, sl, r0, asr r8
    2424:	001c0810 	andseq	r0, ip, r0, lsl r8
    2428:	55000110 	strpl	r0, [r0, #-272]	; 0xfffffef0
	...
    2434:	01000005 	tsteq	r0, r5
    2438:	00000001 	andeq	r0, r0, r1
    243c:	10001a52 	andne	r1, r0, r2, asr sl
    2440:	10001b54 	andne	r1, r0, r4, asr fp
    2444:	9f300002 	svcls	0x00300002
    2448:	10001b60 	andne	r1, r0, r0, ror #22
    244c:	10001b72 	andne	r1, r0, r2, ror fp
    2450:	72530001 	subsvc	r0, r3, #1
    2454:	7610001b 			; <UNDEFINED> instruction: 0x7610001b
    2458:	0310001b 	tsteq	r0, #27
    245c:	9f7f7300 	svcls	0x007f7300
    2460:	10001b76 	andne	r1, r0, r6, ror fp
    2464:	10001b90 	mulne	r0, r0, fp
    2468:	00570001 	subseq	r0, r7, r1
    246c:	00000000 	andeq	r0, r0, r0
    2470:	05000000 	streq	r0, [r0, #-0]
    2474:	52000000 	andpl	r0, r0, #0
    2478:	5410001a 	ldrpl	r0, [r0], #-26	; 0xffffffe6
    247c:	0210001b 	andseq	r0, r0, #27
    2480:	7e9f3000 	cdpvc	0, 9, cr3, cr15, cr0, {0}
    2484:	8110001b 	tsthi	r0, fp, lsl r0
    2488:	0110001b 	tsteq	r0, fp, lsl r0
    248c:	00005000 	andeq	r5, r0, r0
    2490:	00000000 	andeq	r0, r0, r0
    2494:	00020000 	andeq	r0, r2, r0
    2498:	1b500000 	blne	14024a0 <__ROM_SIZE+0x13824a0>
    249c:	1b541000 	blne	15064a4 <__ROM_SIZE+0x14864a4>
    24a0:	00021000 	andeq	r1, r2, r0
    24a4:	1b549f40 	blne	152a1ac <__ROM_SIZE+0x14aa1ac>
    24a8:	1c081000 	stcne	0, cr1, [r8], {-0}
    24ac:	00011000 	andeq	r1, r1, r0
    24b0:	00000054 	andeq	r0, r0, r4, asr r0
	...
    24bc:	001a1400 	andseq	r1, sl, r0, lsl #8
    24c0:	001a1a10 	andseq	r1, sl, r0, lsl sl
    24c4:	50000110 	andpl	r0, r0, r0, lsl r1
    24c8:	10001a1a 	andne	r1, r0, sl, lsl sl
    24cc:	10001a4a 	andne	r1, r0, sl, asr #20
    24d0:	01f30004 	mvnseq	r0, r4
    24d4:	00009f50 	andeq	r9, r0, r0, asr pc
	...
    24e0:	10001a18 	andne	r1, r0, r8, lsl sl
    24e4:	10001a4a 	andne	r1, r0, sl, asr #20
    24e8:	00530001 	subseq	r0, r3, r1
	...
    2504:	1e000000 	cdpne	0, 0, cr0, cr0, cr0, {0}
    2508:	3810001a 	ldmdacc	r0, {r1, r3, r4}
    250c:	0110001a 	tsteq	r0, sl, lsl r0
    2510:	1a385000 	bne	e16518 <__ROM_SIZE+0xd96518>
    2514:	1a3a1000 	bne	e8651c <__ROM_SIZE+0xe0651c>
    2518:	000a1000 	andeq	r1, sl, r0
    251c:	405001f3 	ldrshmi	r0, [r0], #-19	; 0xffffffed
    2520:	f8000a25 			; <UNDEFINED> instruction: 0xf8000a25
    2524:	1a3a9f1a 	bne	eaa194 <__ROM_SIZE+0xe2a194>
    2528:	1a3c1000 	bne	f06530 <__ROM_SIZE+0xe86530>
    252c:	00011000 	andeq	r1, r1, r0
    2530:	001a3c50 	andseq	r3, sl, r0, asr ip
    2534:	001a3e10 	andseq	r3, sl, r0, lsl lr
    2538:	f3000a10 	vpmin.u8	d0, d0, d0
    253c:	25405001 	strbcs	r5, [r0, #-1]
    2540:	1af8000a 	bne	ffe02570 <__StackTop+0xc7de2570>
    2544:	001a3e9f 	mulseq	sl, pc, lr	; <UNPREDICTABLE>
    2548:	001a4010 	andseq	r4, sl, r0, lsl r0
    254c:	50000110 	andpl	r0, r0, r0, lsl r1
    2550:	10001a40 	andne	r1, r0, r0, asr #20
    2554:	10001a42 	andne	r1, r0, r2, asr #20
    2558:	01f3000a 	mvnseq	r0, sl
    255c:	0a254050 	beq	9526a4 <__ROM_SIZE+0x8d26a4>
    2560:	9f1af800 	svcls	0x001af800
    2564:	10001a42 	andne	r1, r0, r2, asr #20
    2568:	10001a44 	andne	r1, r0, r4, asr #20
    256c:	44500001 	ldrbmi	r0, [r0], #-1
    2570:	4610001a 			; <UNDEFINED> instruction: 0x4610001a
    2574:	0a10001a 	beq	4025e4 <__ROM_SIZE+0x3825e4>
    2578:	5001f300 	andpl	pc, r1, r0, lsl #6
    257c:	000a2540 	andeq	r2, sl, r0, asr #10
    2580:	469f1af8 			; <UNDEFINED> instruction: 0x469f1af8
    2584:	4810001a 	ldmdami	r0, {r1, r3, r4}
    2588:	0110001a 	tsteq	r0, sl, lsl r0
    258c:	1a485000 	bne	1216594 <__ROM_SIZE+0x1196594>
    2590:	1a4a1000 	bne	1286598 <__ROM_SIZE+0x1206598>
    2594:	000a1000 	andeq	r1, sl, r0
    2598:	405001f3 	ldrshmi	r0, [r0], #-19	; 0xffffffed
    259c:	f8000a25 			; <UNDEFINED> instruction: 0xf8000a25
    25a0:	00009f1a 	andeq	r9, r0, sl, lsl pc
    25a4:	00000000 	andeq	r0, r0, r0
    25a8:	19e80000 	stmibne	r8!, {}^	; <UNPREDICTABLE>
    25ac:	19ea1000 	stmibne	sl!, {ip}^
    25b0:	00021000 	andeq	r1, r2, r0
    25b4:	19ea007d 	stmibne	sl!, {r0, r2, r3, r4, r5, r6}^
    25b8:	1a121000 	bne	4865c0 <__ROM_SIZE+0x4065c0>
    25bc:	00021000 	andeq	r1, r2, r0
    25c0:	1a12087d 	bne	4847bc <__ROM_SIZE+0x4047bc>
    25c4:	1a141000 	bne	5065cc <__ROM_SIZE+0x4865cc>
    25c8:	00021000 	andeq	r1, r2, r0
    25cc:	0000007d 	andeq	r0, r0, sp, ror r0
	...
    25d8:	19e80000 	stmibne	r8!, {}^	; <UNPREDICTABLE>
    25dc:	1a081000 	bne	2065e4 <__ROM_SIZE+0x1865e4>
    25e0:	00011000 	andeq	r1, r1, r0
    25e4:	001a0850 	andseq	r0, sl, r0, asr r8
    25e8:	001a1410 	andseq	r1, sl, r0, lsl r4
    25ec:	f3000410 	vqshl.u8	d0, d0, d0
    25f0:	009f5001 	addseq	r5, pc, r1
    25f4:	00000000 	andeq	r0, r0, r0
    25f8:	01000000 	mrseq	r0, (UNDEF: 0)
    25fc:	00000000 	andeq	r0, r0, r0
    2600:	0019ee00 	andseq	lr, r9, r0, lsl #28
    2604:	001a0c10 	andseq	r0, sl, r0, lsl ip
    2608:	30000210 	andcc	r0, r0, r0, lsl r2
    260c:	001a0c9f 	mulseq	sl, pc, ip	; <UNPREDICTABLE>
    2610:	001a1010 	andseq	r1, sl, r0, lsl r0
    2614:	70000810 	andvc	r0, r0, r0, lsl r8
    2618:	73244000 			; <UNDEFINED> instruction: 0x73244000
    261c:	109f2100 	addsne	r2, pc, r0, lsl #2
    2620:	1410001a 	ldrne	r0, [r0], #-26	; 0xffffffe6
    2624:	0110001a 	tsteq	r0, sl, lsl r0
    2628:	00005000 	andeq	r5, r0, r0
    262c:	00000000 	andeq	r0, r0, r0
    2630:	00030000 	andeq	r0, r3, r0
    2634:	19ee0000 	stmibne	lr!, {}^	; <UNPREDICTABLE>
    2638:	19f01000 	ldmibne	r0!, {ip}^
    263c:	00021000 	andeq	r1, r2, r0
    2640:	19f09f30 	ldmibne	r0!, {r4, r5, r8, r9, sl, fp, ip, pc}^
    2644:	1a0c1000 	bne	30664c <__ROM_SIZE+0x28664c>
    2648:	00011000 	andeq	r1, r1, r0
    264c:	00000053 	andeq	r0, r0, r3, asr r0
	...
    265c:	7d000200 	sfmvc	f0, 4, [r0, #-0]
	...
    2668:	7d000200 	sfmvc	f0, 4, [r0, #-0]
    266c:	00000018 	andeq	r0, r0, r8, lsl r0
    2670:	00000000 	andeq	r0, r0, r0
	...

Disassembly of section .debug_aranges:

00000000 <.debug_aranges>:
   0:	00000034 	andeq	r0, r0, r4, lsr r0
   4:	00000002 	andeq	r0, r0, r2
   8:	00040000 	andeq	r0, r4, r0
   c:	00000000 	andeq	r0, r0, r0
  10:	10000800 	andne	r0, r0, r0, lsl #16
  14:	00000002 	andeq	r0, r0, r2
  18:	00000000 	andeq	r0, r0, r0
  1c:	00000010 	andeq	r0, r0, r0, lsl r0
  20:	00000000 	andeq	r0, r0, r0
  24:	00000010 	andeq	r0, r0, r0, lsl r0
  28:	10000804 	andne	r0, r0, r4, lsl #16
  2c:	00000024 	andeq	r0, r0, r4, lsr #32
	...
  38:	00000024 	andeq	r0, r0, r4, lsr #32
  3c:	01d70002 	bicseq	r0, r7, r2
  40:	00040000 	andeq	r0, r4, r0
	...
  4c:	00000010 	andeq	r0, r0, r0, lsl r0
  50:	10000828 	andne	r0, r0, r8, lsr #16
  54:	0000002c 	andeq	r0, r0, ip, lsr #32
	...
  60:	000000a4 	andeq	r0, r0, r4, lsr #1
  64:	06c00002 	strbeq	r0, [r0], r2
  68:	00040000 	andeq	r0, r4, r0
	...
  74:	00000008 	andeq	r0, r0, r8
  78:	10000854 	andne	r0, r0, r4, asr r8
  7c:	00000002 	andeq	r0, r0, r2
  80:	00000000 	andeq	r0, r0, r0
  84:	0000000e 	andeq	r0, r0, lr
  88:	10000856 	andne	r0, r0, r6, asr r8
  8c:	00000024 	andeq	r0, r0, r4, lsr #32
  90:	1000087a 	andne	r0, r0, sl, ror r8
  94:	0000007e 	andeq	r0, r0, lr, ror r0
  98:	100008f8 	strdne	r0, [r0], -r8
  9c:	00000138 	andeq	r0, r0, r8, lsr r1
  a0:	10000a30 	andne	r0, r0, r0, lsr sl
  a4:	00000094 	muleq	r0, r4, r0
  a8:	10000ac4 	andne	r0, r0, r4, asr #21
  ac:	000000c6 	andeq	r0, r0, r6, asr #1
  b0:	10000b90 	mulne	r0, r0, fp
  b4:	000003ea 	andeq	r0, r0, sl, ror #7
  b8:	10000f80 	andne	r0, r0, r0, lsl #31
  bc:	00000396 	muleq	r0, r6, r3
  c0:	10001318 	andne	r1, r0, r8, lsl r3
  c4:	00000680 	andeq	r0, r0, r0, lsl #13
  c8:	10001998 	mulne	r0, r8, r9
  cc:	0000000c 	andeq	r0, r0, ip
  d0:	100019a4 	andne	r1, r0, r4, lsr #19
  d4:	0000002c 	andeq	r0, r0, ip, lsr #32
  d8:	00000000 	andeq	r0, r0, r0
  dc:	0000002c 	andeq	r0, r0, ip, lsr #32
  e0:	00000000 	andeq	r0, r0, r0
  e4:	00000028 	andeq	r0, r0, r8, lsr #32
  e8:	00000000 	andeq	r0, r0, r0
  ec:	00000020 	andeq	r0, r0, r0, lsr #32
  f0:	00000000 	andeq	r0, r0, r0
  f4:	0000001c 	andeq	r0, r0, ip, lsl r0
  f8:	00000000 	andeq	r0, r0, r0
  fc:	00000030 	andeq	r0, r0, r0, lsr r0
	...
 108:	0000002c 	andeq	r0, r0, ip, lsr #32
 10c:	22850002 	addcs	r0, r5, #2
 110:	00040000 	andeq	r0, r4, r0
 114:	00000000 	andeq	r0, r0, r0
 118:	100019d0 	ldrdne	r1, [r0], -r0
 11c:	0000000c 	andeq	r0, r0, ip
 120:	100019dc 	ldrdne	r1, [r0], -ip
 124:	0000000c 	andeq	r0, r0, ip
 128:	00000000 	andeq	r0, r0, r0
 12c:	00000014 	andeq	r0, r0, r4, lsl r0
	...
 138:	00000044 	andeq	r0, r0, r4, asr #32
 13c:	239d0002 	orrscs	r0, sp, #2
 140:	00040000 	andeq	r0, r4, r0
 144:	00000000 	andeq	r0, r0, r0
 148:	100019e8 	andne	r1, r0, r8, ror #19
 14c:	0000002c 	andeq	r0, r0, ip, lsr #32
 150:	10001a14 	andne	r1, r0, r4, lsl sl
 154:	00000036 	andeq	r0, r0, r6, lsr r0
 158:	00000000 	andeq	r0, r0, r0
 15c:	00000016 	andeq	r0, r0, r6, lsl r0
 160:	00000000 	andeq	r0, r0, r0
 164:	00000074 	andeq	r0, r0, r4, ror r0
 168:	10001a4c 	andne	r1, r0, ip, asr #20
 16c:	000001bc 			; <UNDEFINED> instruction: 0x000001bc
 170:	00000000 	andeq	r0, r0, r0
 174:	00000014 	andeq	r0, r0, r4, lsl r0
	...
 180:	0000001c 	andeq	r0, r0, ip, lsl r0
 184:	2c480002 	mcrrcs	0, 0, r0, r8, cr2
 188:	00040000 	andeq	r0, r4, r0
 18c:	00000000 	andeq	r0, r0, r0
 190:	10001c08 	andne	r1, r0, r8, lsl #24
 194:	00000070 	andeq	r0, r0, r0, ror r0
	...
 1a0:	0000001c 	andeq	r0, r0, ip, lsl r0
 1a4:	2c6e0002 	stclcs	0, cr0, [lr], #-8
 1a8:	00040000 	andeq	r0, r4, r0
 1ac:	00000000 	andeq	r0, r0, r0
 1b0:	10001c78 	andne	r1, r0, r8, ror ip
 1b4:	0000001c 	andeq	r0, r0, ip, lsl r0
	...

Disassembly of section .debug_ranges:

00000000 <.debug_ranges>:
   0:	10000800 	andne	r0, r0, r0, lsl #16
   4:	10000802 	andne	r0, r0, r2, lsl #16
   8:	00000001 	andeq	r0, r0, r1
   c:	00000001 	andeq	r0, r0, r1
  10:	00000001 	andeq	r0, r0, r1
  14:	00000001 	andeq	r0, r0, r1
  18:	10000804 	andne	r0, r0, r4, lsl #16
  1c:	10000828 	andne	r0, r0, r8, lsr #16
	...
  28:	00000001 	andeq	r0, r0, r1
  2c:	00000001 	andeq	r0, r0, r1
  30:	10000828 	andne	r0, r0, r8, lsr #16
  34:	10000854 	andne	r0, r0, r4, asr r8
	...
  40:	1000089a 	mulne	r0, sl, r8
  44:	1000089c 	mulne	r0, ip, r8
  48:	1000089e 	mulne	r0, lr, r8
  4c:	100008bc 			; <UNDEFINED> instruction: 0x100008bc
	...
  58:	10000a4e 	andne	r0, r0, lr, asr #20
  5c:	10000a68 	andne	r0, r0, r8, ror #20
  60:	10000a70 	andne	r0, r0, r0, ror sl
  64:	10000a74 	andne	r0, r0, r4, ror sl
  68:	10000a74 	andne	r0, r0, r4, ror sl
  6c:	10000aa2 	andne	r0, r0, r2, lsr #21
	...
  78:	10000afa 	strdne	r0, [r0], -sl
  7c:	10000b1c 	andne	r0, r0, ip, lsl fp
  80:	10000b2a 	andne	r0, r0, sl, lsr #22
  84:	10000b30 	andne	r0, r0, r0, lsr fp
  88:	10000b30 	andne	r0, r0, r0, lsr fp
  8c:	10000b58 	andne	r0, r0, r8, asr fp
	...
  98:	1000132c 	andne	r1, r0, ip, lsr #6
  9c:	1000132e 	andne	r1, r0, lr, lsr #6
  a0:	100017d8 	ldrdne	r1, [r0], -r8
  a4:	1000184a 	andne	r1, r0, sl, asr #16
	...
  b0:	100015aa 	andne	r1, r0, sl, lsr #11
  b4:	100015dc 	ldrdne	r1, [r0], -ip
  b8:	10001730 	andne	r1, r0, r0, lsr r7
  bc:	1000174a 	andne	r1, r0, sl, asr #14
	...
  c8:	100015fa 	strdne	r1, [r0], -sl
  cc:	10001630 	andne	r1, r0, r0, lsr r6
  d0:	100016b2 			; <UNDEFINED> instruction: 0x100016b2
  d4:	100016ce 	andne	r1, r0, lr, asr #13
	...
  e0:	10001638 	andne	r1, r0, r8, lsr r6
  e4:	10001676 	andne	r1, r0, r6, ror r6
  e8:	10001678 	andne	r1, r0, r8, ror r6
  ec:	10001680 	andne	r1, r0, r0, lsl #13
	...
  f8:	00000001 	andeq	r0, r0, r1
  fc:	00000001 	andeq	r0, r0, r1
 100:	10000854 	andne	r0, r0, r4, asr r8
 104:	10000856 	andne	r0, r0, r6, asr r8
 108:	00000001 	andeq	r0, r0, r1
 10c:	00000001 	andeq	r0, r0, r1
 110:	10000856 	andne	r0, r0, r6, asr r8
 114:	1000087a 	andne	r0, r0, sl, ror r8
 118:	1000087a 	andne	r0, r0, sl, ror r8
 11c:	100008f8 	strdne	r0, [r0], -r8
 120:	100008f8 	strdne	r0, [r0], -r8
 124:	10000a30 	andne	r0, r0, r0, lsr sl
 128:	10000a30 	andne	r0, r0, r0, lsr sl
 12c:	10000ac4 	andne	r0, r0, r4, asr #21
 130:	10000ac4 	andne	r0, r0, r4, asr #21
 134:	10000b8a 	andne	r0, r0, sl, lsl #23
 138:	10000b90 	mulne	r0, r0, fp
 13c:	10000f7a 	andne	r0, r0, sl, ror pc
 140:	10000f80 	andne	r0, r0, r0, lsl #31
 144:	10001316 	andne	r1, r0, r6, lsl r3
 148:	10001318 	andne	r1, r0, r8, lsl r3
 14c:	10001998 	mulne	r0, r8, r9
 150:	10001998 	mulne	r0, r8, r9
 154:	100019a4 	andne	r1, r0, r4, lsr #19
 158:	100019a4 	andne	r1, r0, r4, lsr #19
 15c:	100019d0 	ldrdne	r1, [r0], -r0
 160:	00000001 	andeq	r0, r0, r1
 164:	00000001 	andeq	r0, r0, r1
 168:	00000001 	andeq	r0, r0, r1
 16c:	00000001 	andeq	r0, r0, r1
 170:	00000001 	andeq	r0, r0, r1
 174:	00000001 	andeq	r0, r0, r1
 178:	00000001 	andeq	r0, r0, r1
 17c:	00000001 	andeq	r0, r0, r1
 180:	00000001 	andeq	r0, r0, r1
 184:	00000001 	andeq	r0, r0, r1
	...
 190:	100019d0 	ldrdne	r1, [r0], -r0
 194:	100019dc 	ldrdne	r1, [r0], -ip
 198:	100019dc 	ldrdne	r1, [r0], -ip
 19c:	100019e8 	andne	r1, r0, r8, ror #19
 1a0:	00000001 	andeq	r0, r0, r1
 1a4:	00000001 	andeq	r0, r0, r1
	...
 1b0:	100019e8 	andne	r1, r0, r8, ror #19
 1b4:	10001a14 	andne	r1, r0, r4, lsl sl
 1b8:	10001a14 	andne	r1, r0, r4, lsl sl
 1bc:	10001a4a 	andne	r1, r0, sl, asr #20
 1c0:	00000001 	andeq	r0, r0, r1
 1c4:	00000001 	andeq	r0, r0, r1
 1c8:	00000001 	andeq	r0, r0, r1
 1cc:	00000001 	andeq	r0, r0, r1
 1d0:	10001a4c 	andne	r1, r0, ip, asr #20
 1d4:	10001c08 	andne	r1, r0, r8, lsl #24
 1d8:	00000001 	andeq	r0, r0, r1
 1dc:	00000001 	andeq	r0, r0, r1
	...

Disassembly of section .debug_line:

00000000 <.debug_line>:
       0:	000000d9 	ldrdeq	r0, [r0], -r9
       4:	004d0003 	subeq	r0, sp, r3
       8:	01020000 	mrseq	r0, (UNDEF: 2)
       c:	000d0efb 	strdeq	r0, [sp], -fp
      10:	01010101 	tsteq	r1, r1, lsl #2
      14:	01000000 	mrseq	r0, (UNDEF: 0)
      18:	2e010000 	cdpcs	0, 0, cr0, cr1, cr0, {0}
      1c:	6f432f2e 	svcvs	0x00432f2e
      20:	492f6572 	stmdbmi	pc!, {r1, r4, r5, r6, r8, sl, sp, lr}	; <UNPREDICTABLE>
      24:	0000636e 	andeq	r6, r0, lr, ror #6
      28:	6e69616d 	powvsez	f6, f1, #5.0
      2c:	0000632e 	andeq	r6, r0, lr, lsr #6
      30:	61750000 	cmnvs	r5, r0
      34:	682e7472 	stmdavs	lr!, {r1, r4, r5, r6, sl, ip, sp, lr}
      38:	00000100 	andeq	r0, r0, r0, lsl #2
      3c:	6e697270 	mcrvs	2, 3, r7, cr9, cr0, {3}
      40:	682e6674 	stmdavs	lr!, {r2, r4, r5, r6, r9, sl, sp, lr}
      44:	00000100 	andeq	r0, r0, r0, lsl #2
      48:	6975623c 	ldmdbvs	r5!, {r2, r3, r4, r5, r9, sp, lr}^
      4c:	692d746c 	pushvs	{r2, r3, r5, r6, sl, ip, sp, lr}
      50:	00003e6e 	andeq	r3, r0, lr, ror #28
      54:	05000000 	streq	r0, [r0, #-0]
      58:	02050023 	andeq	r0, r5, #35	; 0x23
      5c:	10000800 	andne	r0, r0, r0, lsl #16
      60:	14010518 	strne	r0, [r1], #-1304	; 0xfffffae8
      64:	01000102 	tsteq	r0, r2, lsl #2
      68:	00260501 	eoreq	r0, r6, r1, lsl #10
      6c:	00000205 	andeq	r0, r0, r5, lsl #4
      70:	0a030000 	beq	c0078 <__ROM_SIZE+0x40078>
      74:	21050501 	tstcs	r5, r1, lsl #10
      78:	3d060105 	stfccs	f0, [r6, #-20]	; 0xffffffec
      7c:	01000402 	tsteq	r0, r2, lsl #8
      80:	001c0501 	andseq	r0, ip, r1, lsl #10
      84:	00000205 	andeq	r0, r0, r5, lsl #4
      88:	0e030000 	cdpeq	0, 0, cr0, cr3, cr0, {0}
      8c:	21050501 	tstcs	r5, r1, lsl #10
      90:	3d060105 	stfccs	f0, [r6, #-20]	; 0xffffffec
      94:	01000402 	tsteq	r0, r2, lsl #8
      98:	00100501 	andseq	r0, r0, r1, lsl #10
      9c:	08040205 	stmdaeq	r4, {r0, r2, r9}
      a0:	12031000 	andne	r1, r3, #0
      a4:	21050501 	tstcs	r5, r1, lsl #10
      a8:	09053013 	stmdbeq	r5, {r0, r1, r4, ip, sp}
      ac:	05053906 	streq	r3, [r5, #-2310]	; 0xfffff6fa
      b0:	01040200 	mrseq	r0, R12_usr
      b4:	09052506 	stmdbeq	r5, {r1, r2, r8, sl, sp}
      b8:	01040200 	mrseq	r0, R12_usr
      bc:	04020013 	streq	r0, [r2], #-19	; 0xffffffed
      c0:	02002101 	andeq	r2, r0, #1073741824	; 0x40000000
      c4:	20060104 	andcs	r0, r6, r4, lsl #2
      c8:	02000b05 	andeq	r0, r0, #5120	; 0x1400
      cc:	3a060104 	bcc	1804e4 <__ROM_SIZE+0x1004e4>
      d0:	02000905 	andeq	r0, r0, #81920	; 0x14000
      d4:	14060104 	strne	r0, [r6], #-260	; 0xfffffefc
      d8:	01000602 	tsteq	r0, r2, lsl #12
      dc:	0001c301 	andeq	ip, r1, r1, lsl #6
      e0:	73000300 	movwvc	r0, #768	; 0x300
      e4:	02000001 	andeq	r0, r0, #1
      e8:	0d0efb01 	vstreq	d15, [lr, #-4]
      ec:	01010100 	mrseq	r0, (UNDEF: 17)
      f0:	00000001 	andeq	r0, r0, r1
      f4:	01000001 	tsteq	r0, r1
      f8:	755c3a63 	ldrbvc	r3, [ip, #-2659]	; 0xfffff59d
      fc:	73726573 	cmnvc	r2, #482344960	; 0x1cc00000
     100:	6469785c 	strbtvs	r7, [r9], #-2140	; 0xfffff7a4
     104:	705c6e6f 	subsvc	r6, ip, pc, ror #28
     108:	72676f72 	rsbvc	r6, r7, #456	; 0x1c8
     10c:	615c6d61 	cmpvs	ip, r1, ror #26
     110:	675f6d72 			; <UNDEFINED> instruction: 0x675f6d72
     114:	675c6363 	ldrbvs	r6, [ip, -r3, ror #6]
     118:	612d6363 			; <UNDEFINED> instruction: 0x612d6363
     11c:	6e2d6d72 	mcrvs	13, 1, r6, cr13, cr2, {3}
     120:	2d656e6f 	stclcs	14, cr6, [r5, #-444]!	; 0xfffffe44
     124:	69626165 	stmdbvs	r2!, {r0, r2, r5, r6, r8, sp, lr}^
     128:	2e30312d 	rsfcssp	f3, f0, #5.0
     12c:	30322d33 	eorscc	r2, r2, r3, lsr sp
     130:	312e3132 			; <UNDEFINED> instruction: 0x312e3132
     134:	72615c30 	rsbvc	r5, r1, #48, 24	; 0x3000
     138:	6f6e2d6d 	svcvs	0x006e2d6d
     13c:	652d656e 	strvs	r6, [sp, #-1390]!	; 0xfffffa92
     140:	5c696261 	sfmpl	f6, 2, [r9], #-388	; 0xfffffe7c
     144:	6c636e69 	stclvs	14, cr6, [r3], #-420	; 0xfffffe5c
     148:	5c656475 	cfstrdpl	mvd6, [r5], #-468	; 0xfffffe2c
     14c:	6863616d 	stmdavs	r3!, {r0, r2, r3, r5, r6, r8, sp, lr}^
     150:	00656e69 	rsbeq	r6, r5, r9, ror #28
     154:	755c3a63 	ldrbvc	r3, [ip, #-2659]	; 0xfffff59d
     158:	73726573 	cmnvc	r2, #482344960	; 0x1cc00000
     15c:	6469785c 	strbtvs	r7, [r9], #-2140	; 0xfffff7a4
     160:	705c6e6f 	subsvc	r6, ip, pc, ror #28
     164:	72676f72 	rsbvc	r6, r7, #456	; 0x1c8
     168:	615c6d61 	cmpvs	ip, r1, ror #26
     16c:	675f6d72 			; <UNDEFINED> instruction: 0x675f6d72
     170:	675c6363 	ldrbvs	r6, [ip, -r3, ror #6]
     174:	612d6363 			; <UNDEFINED> instruction: 0x612d6363
     178:	6e2d6d72 	mcrvs	13, 1, r6, cr13, cr2, {3}
     17c:	2d656e6f 	stclcs	14, cr6, [r5, #-444]!	; 0xfffffe44
     180:	69626165 	stmdbvs	r2!, {r0, r2, r5, r6, r8, sp, lr}^
     184:	2e30312d 	rsfcssp	f3, f0, #5.0
     188:	30322d33 	eorscc	r2, r2, r3, lsr sp
     18c:	312e3132 			; <UNDEFINED> instruction: 0x312e3132
     190:	72615c30 	rsbvc	r5, r1, #48, 24	; 0x3000
     194:	6f6e2d6d 	svcvs	0x006e2d6d
     198:	652d656e 	strvs	r6, [sp, #-1390]!	; 0xfffffa92
     19c:	5c696261 	sfmpl	f6, 2, [r9], #-388	; 0xfffffe7c
     1a0:	6c636e69 	stclvs	14, cr6, [r3], #-420	; 0xfffffe5c
     1a4:	5c656475 	cfstrdpl	mvd6, [r5], #-468	; 0xfffffe2c
     1a8:	00737973 	rsbseq	r7, r3, r3, ror r9
     1ac:	442f2e2e 	strtmi	r2, [pc], #-3630	; 1b4 <__STACKSEAL_SIZE+0x1b4>
     1b0:	65766972 	ldrbvs	r6, [r6, #-2418]!	; 0xfffff68e
     1b4:	432f7372 			; <UNDEFINED> instruction: 0x432f7372
     1b8:	5349534d 	movtpl	r5, #37709	; 0x934d
     1bc:	432f355f 			; <UNDEFINED> instruction: 0x432f355f
     1c0:	5349534d 	movtpl	r5, #37709	; 0x934d
     1c4:	726f432f 	rsbvc	r4, pc, #-1140850688	; 0xbc000000
     1c8:	6e492f65 	cdpvs	15, 4, cr2, cr9, cr5, {3}
     1cc:	64756c63 	ldrbtvs	r6, [r5], #-3171	; 0xfffff39d
     1d0:	2e2e0065 	cdpcs	0, 2, cr0, cr14, cr5, {3}
     1d4:	6972442f 	ldmdbvs	r2!, {r0, r1, r2, r3, r5, sl, lr}^
     1d8:	73726576 	cmnvc	r2, #494927872	; 0x1d800000
     1dc:	534d432f 	movtpl	r4, #54063	; 0xd32f
     1e0:	355f5349 	ldrbcc	r5, [pc, #-841]	; fffffe9f <__StackTop+0xc7fdfe9f>
     1e4:	7665442f 	strbtvc	r4, [r5], -pc, lsr #8
     1e8:	2f656369 	svccs	0x00656369
     1ec:	2f4d5241 	svccs	0x004d5241
     1f0:	434d5241 	movtmi	r5, #53825	; 0xd241
     1f4:	2f33334d 	svccs	0x0033334d
     1f8:	6c636e49 	stclvs	14, cr6, [r3], #-292	; 0xfffffedc
     1fc:	00656475 	rsbeq	r6, r5, r5, ror r4
     200:	73797300 	cmnvc	r9, #0, 6
     204:	5f6d6574 	svcpl	0x006d6574
     208:	434d5241 	movtmi	r5, #53825	; 0xd241
     20c:	2e33334d 	cdpcs	3, 3, cr3, cr3, cr13, {2}
     210:	00000063 	andeq	r0, r0, r3, rrx
     214:	65645f00 	strbvs	r5, [r4, #-3840]!	; 0xfffff100
     218:	6c756166 	ldfvse	f6, [r5], #-408	; 0xfffffe68
     21c:	79745f74 	ldmdbvc	r4!, {r2, r4, r5, r6, r8, r9, sl, fp, ip, lr}^
     220:	2e736570 	mrccs	5, 3, r6, cr3, cr0, {3}
     224:	00010068 	andeq	r0, r1, r8, rrx
     228:	74735f00 	ldrbtvc	r5, [r3], #-3840	; 0xfffff100
     22c:	746e6964 	strbtvc	r6, [lr], #-2404	; 0xfffff69c
     230:	0200682e 	andeq	r6, r0, #3014656	; 0x2e0000
     234:	6f630000 	svcvs	0x00630000
     238:	635f6572 	cmpvs	pc, #478150656	; 0x1c800000
     23c:	2e33336d 	cdpcs	3, 3, cr3, cr3, cr13, {3}
     240:	00030068 	andeq	r0, r3, r8, rrx
     244:	73797300 	cmnvc	r9, #0, 6
     248:	5f6d6574 	svcpl	0x006d6574
     24c:	434d5241 	movtmi	r5, #53825	; 0xd241
     250:	2e33334d 	cdpcs	3, 3, cr3, cr3, cr13, {2}
     254:	00040068 	andeq	r0, r4, r8, rrx
     258:	01050000 	mrseq	r0, (UNDEF: 5)
     25c:	00020500 	andeq	r0, r2, r0, lsl #10
     260:	03000000 	movweq	r0, #0
     264:	050100c4 	streq	r0, [r1, #-196]	; 0xffffff3c
     268:	13051303 	movwne	r1, #21251	; 0x5303
     26c:	01050106 	tsteq	r5, r6, lsl #2
     270:	0005023d 	andeq	r0, r5, sp, lsr r2
     274:	01050101 	tsteq	r5, r1, lsl #2
     278:	28020500 	stmdacs	r2, {r8, sl}
     27c:	03100008 	tsteq	r0, #8
     280:	050100cc 	streq	r0, [r1, #-204]	; 0xffffff34
     284:	0d051503 	cfstr32eq	mvfx1, [r5, #-12]
     288:	03050106 	movweq	r0, #20742	; 0x5106
     28c:	0e054006 	cdpeq	0, 0, cr4, cr5, cr6, {0}
     290:	03050106 	movweq	r0, #20742	; 0x5106
     294:	660c0306 	strvs	r0, [ip], -r6, lsl #6
     298:	01061305 	tsteq	r6, r5, lsl #6
     29c:	023d0105 	eorseq	r0, sp, #1073741825	; 0x40000001
     2a0:	0101000a 	tsteq	r1, sl
     2a4:	0000120d 	andeq	r1, r0, sp, lsl #4
     2a8:	01a10003 			; <UNDEFINED> instruction: 0x01a10003
     2ac:	01020000 	mrseq	r0, (UNDEF: 2)
     2b0:	000d0efb 	strdeq	r0, [sp], -fp
     2b4:	01010101 	tsteq	r1, r1, lsl #2
     2b8:	01000000 	mrseq	r0, (UNDEF: 0)
     2bc:	2e010000 	cdpcs	0, 0, cr0, cr1, cr0, {0}
     2c0:	6f432f2e 	svcvs	0x00432f2e
     2c4:	532f6572 			; <UNDEFINED> instruction: 0x532f6572
     2c8:	63006372 	movwvs	r6, #882	; 0x372
     2cc:	73755c3a 	cmnvc	r5, #14848	; 0x3a00
     2d0:	5c737265 	lfmpl	f7, 2, [r3], #-404	; 0xfffffe6c
     2d4:	6f646978 	svcvs	0x00646978
     2d8:	72705c6e 	rsbsvc	r5, r0, #28160	; 0x6e00
     2dc:	6172676f 	cmnvs	r2, pc, ror #14
     2e0:	72615c6d 	rsbvc	r5, r1, #27904	; 0x6d00
     2e4:	63675f6d 	cmnvs	r7, #436	; 0x1b4
     2e8:	63675c63 	cmnvs	r7, #25344	; 0x6300
     2ec:	72612d63 	rsbvc	r2, r1, #6336	; 0x18c0
     2f0:	6f6e2d6d 	svcvs	0x006e2d6d
     2f4:	652d656e 	strvs	r6, [sp, #-1390]!	; 0xfffffa92
     2f8:	2d696261 	sfmcs	f6, 2, [r9, #-388]!	; 0xfffffe7c
     2fc:	332e3031 			; <UNDEFINED> instruction: 0x332e3031
     300:	3230322d 	eorscc	r3, r0, #-805306366	; 0xd0000002
     304:	30312e31 	eorscc	r2, r1, r1, lsr lr
     308:	6d72615c 	ldfvse	f6, [r2, #-368]!	; 0xfffffe90
     30c:	6e6f6e2d 	cdpvs	14, 6, cr6, cr15, cr13, {1}
     310:	61652d65 	cmnvs	r5, r5, ror #26
     314:	695c6962 	ldmdbvs	ip, {r1, r5, r6, r8, fp, sp, lr}^
     318:	756c636e 	strbvc	r6, [ip, #-878]!	; 0xfffffc92
     31c:	6d5c6564 	cfldr64vs	mvdx6, [ip, #-400]	; 0xfffffe70
     320:	69686361 	stmdbvs	r8!, {r0, r5, r6, r8, r9, sp, lr}^
     324:	6300656e 	movwvs	r6, #1390	; 0x56e
     328:	73755c3a 	cmnvc	r5, #14848	; 0x3a00
     32c:	5c737265 	lfmpl	f7, 2, [r3], #-404	; 0xfffffe6c
     330:	6f646978 	svcvs	0x00646978
     334:	72705c6e 	rsbsvc	r5, r0, #28160	; 0x6e00
     338:	6172676f 	cmnvs	r2, pc, ror #14
     33c:	72615c6d 	rsbvc	r5, r1, #27904	; 0x6d00
     340:	63675f6d 	cmnvs	r7, #436	; 0x1b4
     344:	63675c63 	cmnvs	r7, #25344	; 0x6300
     348:	72612d63 	rsbvc	r2, r1, #6336	; 0x18c0
     34c:	6f6e2d6d 	svcvs	0x006e2d6d
     350:	652d656e 	strvs	r6, [sp, #-1390]!	; 0xfffffa92
     354:	2d696261 	sfmcs	f6, 2, [r9, #-388]!	; 0xfffffe7c
     358:	332e3031 			; <UNDEFINED> instruction: 0x332e3031
     35c:	3230322d 	eorscc	r3, r0, #-805306366	; 0xd0000002
     360:	30312e31 	eorscc	r2, r1, r1, lsr lr
     364:	6d72615c 	ldfvse	f6, [r2, #-368]!	; 0xfffffe90
     368:	6e6f6e2d 	cdpvs	14, 6, cr6, cr15, cr13, {1}
     36c:	61652d65 	cmnvs	r5, r5, ror #26
     370:	695c6962 	ldmdbvs	ip, {r1, r5, r6, r8, fp, sp, lr}^
     374:	756c636e 	strbvc	r6, [ip, #-878]!	; 0xfffffc92
     378:	735c6564 	cmpvc	ip, #100, 10	; 0x19000000
     37c:	63007379 	movwvs	r7, #889	; 0x379
     380:	73755c3a 	cmnvc	r5, #14848	; 0x3a00
     384:	5c737265 	lfmpl	f7, 2, [r3], #-404	; 0xfffffe6c
     388:	6f646978 	svcvs	0x00646978
     38c:	72705c6e 	rsbsvc	r5, r0, #28160	; 0x6e00
     390:	6172676f 	cmnvs	r2, pc, ror #14
     394:	72615c6d 	rsbvc	r5, r1, #27904	; 0x6d00
     398:	63675f6d 	cmnvs	r7, #436	; 0x1b4
     39c:	63675c63 	cmnvs	r7, #25344	; 0x6300
     3a0:	72612d63 	rsbvc	r2, r1, #6336	; 0x18c0
     3a4:	6f6e2d6d 	svcvs	0x006e2d6d
     3a8:	652d656e 	strvs	r6, [sp, #-1390]!	; 0xfffffa92
     3ac:	2d696261 	sfmcs	f6, 2, [r9, #-388]!	; 0xfffffe7c
     3b0:	332e3031 			; <UNDEFINED> instruction: 0x332e3031
     3b4:	3230322d 	eorscc	r3, r0, #-805306366	; 0xd0000002
     3b8:	30312e31 	eorscc	r2, r1, r1, lsr lr
     3bc:	62696c5c 	rsbvs	r6, r9, #92, 24	; 0x5c00
     3c0:	6363675c 	cmnvs	r3, #92, 14	; 0x1700000
     3c4:	6d72615c 	ldfvse	f6, [r2, #-368]!	; 0xfffffe90
     3c8:	6e6f6e2d 	cdpvs	14, 6, cr6, cr15, cr13, {1}
     3cc:	61652d65 	cmnvs	r5, r5, ror #26
     3d0:	315c6962 	cmpcc	ip, r2, ror #18
     3d4:	2e332e30 	mrccs	14, 1, r2, cr3, cr0, {1}
     3d8:	6e695c31 	mcrvs	12, 3, r5, cr9, cr1, {1}
     3dc:	64756c63 	ldrbtvs	r6, [r5], #-3171	; 0xfffff39d
     3e0:	2e2e0065 	cdpcs	0, 2, cr0, cr14, cr5, {3}
     3e4:	726f432f 	rsbvc	r4, pc, #-1140850688	; 0xbc000000
     3e8:	6e492f65 	cdpvs	15, 4, cr2, cr9, cr5, {3}
     3ec:	70000063 	andvc	r0, r0, r3, rrx
     3f0:	746e6972 	strbtvc	r6, [lr], #-2418	; 0xfffff68e
     3f4:	00632e66 	rsbeq	r2, r3, r6, ror #28
     3f8:	5f000001 	svcpl	0x00000001
     3fc:	61666564 	cmnvs	r6, r4, ror #10
     400:	5f746c75 	svcpl	0x00746c75
     404:	65707974 	ldrbvs	r7, [r0, #-2420]!	; 0xfffff68c
     408:	00682e73 	rsbeq	r2, r8, r3, ror lr
     40c:	5f000002 	svcpl	0x00000002
     410:	69647473 	stmdbvs	r4!, {r0, r1, r4, r5, r6, sl, ip, sp, lr}^
     414:	682e746e 	stmdavs	lr!, {r1, r2, r3, r5, r6, sl, ip, sp, lr}
     418:	00000300 	andeq	r0, r0, r0, lsl #6
     41c:	61647473 	smcvs	18243	; 0x4743
     420:	682e6772 	stmdavs	lr!, {r1, r4, r5, r6, r8, r9, sl, sp, lr}
     424:	00000400 	andeq	r0, r0, r0, lsl #8
     428:	64647473 	strbtvs	r7, [r4], #-1139	; 0xfffffb8d
     42c:	682e6665 	stmdavs	lr!, {r0, r2, r5, r6, r9, sl, sp, lr}
     430:	00000400 	andeq	r0, r0, r0, lsl #8
     434:	6975623c 	ldmdbvs	r5!, {r2, r3, r4, r5, r9, sp, lr}^
     438:	692d746c 	pushvs	{r2, r3, r5, r6, sl, ip, sp, lr}
     43c:	00003e6e 	andeq	r3, r0, lr, ror #28
     440:	72700000 	rsbsvc	r0, r0, #0
     444:	66746e69 	ldrbtvs	r6, [r4], -r9, ror #28
     448:	0500682e 	streq	r6, [r0, #-2094]	; 0xfffff7d2
     44c:	05000000 	streq	r0, [r0, #-0]
     450:	02050001 	andeq	r0, r5, #1
     454:	00000000 	andeq	r0, r0, r0
     458:	01018503 	tsteq	r1, r3, lsl #10
     45c:	05130305 	ldreq	r0, [r3, #-773]	; 0xfffffcfb
     460:	05010606 	streq	r0, [r1, #-1542]	; 0xfffff9fa
     464:	052f0605 	streq	r0, [pc, #-1541]!	; fffffe67 <__StackTop+0xc7fdfe67>
     468:	0501061a 	streq	r0, [r1, #-1562]	; 0xfffff9e6
     46c:	01022201 	tsteq	r2, r1, lsl #4
     470:	05010100 	streq	r0, [r1, #-256]	; 0xffffff00
     474:	02050001 	andeq	r0, r5, #1
     478:	10000854 	andne	r0, r0, r4, asr r8
     47c:	01018e03 	tsteq	r1, r3, lsl #28
     480:	05130305 	ldreq	r0, [r3, #-773]	; 0xfffffcfb
     484:	22050114 	andcs	r0, r5, #20, 2
     488:	012d0501 			; <UNDEFINED> instruction: 0x012d0501
     48c:	13060105 	movwne	r0, #24837	; 0x6105
     490:	01000102 	tsteq	r0, r2, lsl #2
     494:	00010501 	andeq	r0, r1, r1, lsl #10
     498:	00000205 	andeq	r0, r0, r5, lsl #4
     49c:	9f030000 	svcls	0x00030000
     4a0:	03050101 	movweq	r0, #20737	; 0x5101
     4a4:	010e0513 	tsteq	lr, r3, lsl r5
     4a8:	05130305 	ldreq	r0, [r3, #-773]	; 0xfffffcfb
     4ac:	05010606 	streq	r0, [r1, #-1542]	; 0xfffff9fa
     4b0:	05051e01 	streq	r1, [r5, #-3585]	; 0xfffff1ff
     4b4:	21052406 	tstcs	r5, r6, lsl #8
     4b8:	06050106 	streq	r0, [r5], -r6, lsl #2
     4bc:	01052020 	tsteq	r5, r0, lsr #32
     4c0:	01022022 	tsteq	r2, r2, lsr #32
     4c4:	05010100 	streq	r0, [r1, #-256]	; 0xffffff00
     4c8:	02050001 	andeq	r0, r5, #1
     4cc:	10000856 	andne	r0, r0, r6, asr r8
     4d0:	0101bc03 	tsteq	r1, r3, lsl #24
     4d4:	03050106 	movweq	r0, #20742	; 0x5106
     4d8:	05132106 	ldreq	r2, [r3, #-262]	; 0xfffffefa
     4dc:	05110610 	ldreq	r0, [r1, #-1552]	; 0xfffff9f0
     4e0:	05052109 	streq	r2, [r5, #-265]	; 0xfffffef7
     4e4:	0b052106 	bleq	148904 <__ROM_SIZE+0xc8904>
     4e8:	2a050106 	bcs	140908 <__ROM_SIZE+0xc0908>
     4ec:	2e22052e 	cfsh64cs	mvdx0, mvdx2, #30
     4f0:	05201105 	streq	r1, [r0, #-261]!	; 0xfffffefb
     4f4:	09052e07 	stmdbeq	r5, {r0, r1, r2, r9, sl, fp, sp}
     4f8:	15051f06 	strne	r1, [r5, #-3846]	; 0xfffff0fa
     4fc:	0a050106 	beq	14091c <__ROM_SIZE+0xc091c>
     500:	06140520 	ldreq	r0, [r4], -r0, lsr #10
     504:	05207603 	streq	r7, [r0, #-1539]!	; 0xfffff9fd
     508:	16051403 	strne	r1, [r5], -r3, lsl #8
     50c:	20200106 	eorcs	r0, r0, r6, lsl #2
     510:	051a0905 	ldreq	r0, [sl, #-2309]	; 0xfffff6fb
     514:	05310603 	ldreq	r0, [r1, #-1539]!	; 0xfffff9fd
     518:	02130601 	andseq	r0, r3, #1048576	; 0x100000
     51c:	01010001 	tsteq	r1, r1
     520:	05000105 	streq	r0, [r0, #-261]	; 0xfffffefb
     524:	00087a02 	andeq	r7, r8, r2, lsl #20
     528:	01c70310 	biceq	r0, r7, r0, lsl r3
     52c:	05010601 	streq	r0, [r1, #-1537]	; 0xfffff9ff
     530:	15bb0603 	ldrne	r0, [fp, #1539]!	; 0x603
     534:	01060605 	tsteq	r6, r5, lsl #12
     538:	3d110520 	cfldr32cc	mvfx0, [r1, #-128]	; 0xffffff80
     53c:	02001a05 	andeq	r1, r0, #20480	; 0x5000
     540:	2e060104 	adfcss	f0, f6, f4
     544:	02000505 	andeq	r0, r0, #20971520	; 0x1400000
     548:	01060104 	tsteq	r6, r4, lsl #2
     54c:	02000705 	andeq	r0, r0, #1310720	; 0x140000
     550:	2f060304 	svccs	0x00060304
     554:	03040200 	movweq	r0, #16896	; 0x4200
     558:	25052e06 	strcs	r2, [r5, #-3590]	; 0xfffff1fa
     55c:	03040200 	movweq	r0, #16896	; 0x4200
     560:	26054906 	strcs	r4, [r5], -r6, lsl #18
     564:	03040200 	movweq	r0, #16896	; 0x4200
     568:	07050106 	streq	r0, [r5, -r6, lsl #2]
     56c:	03040200 	movweq	r0, #16896	; 0x4200
     570:	0402002f 	streq	r0, [r2], #-47	; 0xffffffd1
     574:	02002e03 	andeq	r2, r0, #3, 28	; 0x30
     578:	053c0304 	ldreq	r0, [ip, #-772]!	; 0xfffffcfc
     57c:	06180605 	ldreq	r0, [r8], -r5, lsl #12
     580:	09052e20 	stmdbeq	r5, {r5, r9, sl, fp, sp}
     584:	03056506 	movweq	r6, #21766	; 0x5506
     588:	06060533 			; <UNDEFINED> instruction: 0x06060533
     58c:	51010501 	tstpl	r1, r1, lsl #10
     590:	03060b05 	movweq	r0, #27397	; 0x6b05
     594:	10054a7a 	andne	r4, r5, sl, ror sl
     598:	0b050106 	bleq	1409b8 <__ROM_SIZE+0xc09b8>
     59c:	0607052e 	streq	r0, [r7], -lr, lsr #10
     5a0:	0220062f 	eoreq	r0, r0, #49283072	; 0x2f00000
     5a4:	01010006 	tsteq	r1, r6
     5a8:	05000105 	streq	r0, [r0, #-261]	; 0xfffffefb
     5ac:	0008f802 	andeq	pc, r8, r2, lsl #16
     5b0:	01e30310 	mvneq	r0, r0, lsl r3
     5b4:	05010601 	streq	r0, [r1, #-1537]	; 0xfffff9ff
     5b8:	05ca0603 	strbeq	r0, [sl, #1539]	; 0x603
     5bc:	05010606 	streq	r0, [r1, #-1542]	; 0xfffff9fa
     5c0:	053d0605 	ldreq	r0, [sp, #-1541]!	; 0xfffff9fb
     5c4:	05010608 	streq	r0, [r1, #-1544]	; 0xfffff9f8
     5c8:	0402000f 	streq	r0, [r2], #-15
     5cc:	2a052001 	bcs	1485d8 <__ROM_SIZE+0xc85d8>
     5d0:	02040200 	andeq	r0, r4, #0, 4
     5d4:	0037053c 	eorseq	r0, r7, ip, lsr r5
     5d8:	3c030402 	cfstrscc	mvf0, [r3], {2}
     5dc:	3d060705 	stccc	7, cr0, [r6, #-20]	; 0xffffffec
     5e0:	01060c05 	tsteq	r6, r5, lsl #24
     5e4:	06070520 	streq	r0, [r7], -r0, lsr #10
     5e8:	06120523 	ldreq	r0, [r2], -r3, lsr #10
     5ec:	4a0e0501 	bmi	3819f8 <__ROM_SIZE+0x3019f8>
     5f0:	1f060b05 	svcne	0x00060b05
     5f4:	02001905 	andeq	r1, r0, #81920	; 0x14000
     5f8:	2e060104 	adfcss	f0, f6, f4
     5fc:	31060b05 	tstcc	r6, r5, lsl #22
     600:	02002405 	andeq	r2, r0, #83886080	; 0x5000000
     604:	3c060104 	stfccs	f0, [r6], {4}
     608:	02003505 	andeq	r3, r0, #20971520	; 0x1400000
     60c:	052e0204 	streq	r0, [lr, #-516]!	; 0xfffffdfc
     610:	052f0607 	streq	r0, [pc, #-1543]!	; 11 <__STACKSEAL_SIZE+0x11>
     614:	05010612 	streq	r0, [r1, #-1554]	; 0xfffff9ee
     618:	05204a0e 	streq	r4, [r0, #-2574]!	; 0xfffff5f2
     61c:	05250603 	streq	r0, [r5, #-1539]!	; 0xfffff9fd
     620:	05010606 	streq	r0, [r1, #-1542]	; 0xfffff9fa
     624:	053d0605 	ldreq	r0, [sp, #-1541]!	; 0xfffff9fb
     628:	05010608 	streq	r0, [r1, #-1544]	; 0xfffff9f8
     62c:	04020024 	streq	r0, [r2], #-36	; 0xffffffdc
     630:	2b053c01 	blcs	14f63c <__ROM_SIZE+0xcf63c>
     634:	02040200 	andeq	r0, r4, #0, 4
     638:	003d0520 	eorseq	r0, sp, r0, lsr #10
     63c:	2e030402 	cdpcs	4, 0, cr0, cr3, cr2, {0}
     640:	34060505 	strcc	r0, [r6], #-1285	; 0xfffffafb
     644:	01060805 	tsteq	r6, r5, lsl #16
     648:	3f060a05 	svccc	0x00060a05
     64c:	01060d05 	tsteq	r6, r5, lsl #26
     650:	3f060a05 	svccc	0x00060a05
     654:	01060d05 	tsteq	r6, r5, lsl #26
     658:	3f060505 	svccc	0x00060505
     65c:	01060805 	tsteq	r6, r5, lsl #16
     660:	2f060705 	svccs	0x00060705
     664:	01061205 	tsteq	r6, r5, lsl #4
     668:	054a0e05 	strbeq	r0, [sl, #-3589]	; 0xfffff1fb
     66c:	05240603 	streq	r0, [r4, #-1539]!	; 0xfffff9fd
     670:	05010606 	streq	r0, [r1, #-1542]	; 0xfffff9fa
     674:	052f0605 	streq	r0, [pc, #-1541]!	; 77 <__STACKSEAL_SIZE+0x77>
     678:	05010608 	streq	r0, [r1, #-1544]	; 0xfffff9f8
     67c:	053d0607 	ldreq	r0, [sp, #-1543]!	; 0xfffff9f9
     680:	05010612 	streq	r0, [r1, #-1554]	; 0xfffff9ee
     684:	03054a0e 	movweq	r4, #23054	; 0x5a0e
     688:	200a0306 	andcs	r0, sl, r6, lsl #6
     68c:	01060a05 	tsteq	r6, r5, lsl #20
     690:	05670105 	strbeq	r0, [r7, #-261]!	; 0xfffffefb
     694:	60030607 	andvs	r0, r3, r7, lsl #12
     698:	0a05133c 	beq	145390 <__ROM_SIZE+0xc5390>
     69c:	052e0106 	streq	r0, [lr, #-262]!	; 0xfffffefa
     6a0:	0402000f 	streq	r0, [r2], #-15
     6a4:	0a052001 	beq	1486b0 <__ROM_SIZE+0xc86b0>
     6a8:	0609053b 			; <UNDEFINED> instruction: 0x0609053b
     6ac:	060c0530 			; <UNDEFINED> instruction: 0x060c0530
     6b0:	0a052001 	beq	1486bc <__ROM_SIZE+0xc86bc>
     6b4:	0017051e 	andseq	r0, r7, lr, lsl r5
     6b8:	33010402 	movwcc	r0, #5122	; 0x1402
     6bc:	02003505 	andeq	r3, r0, #20971520	; 0x1400000
     6c0:	053c0204 	ldreq	r0, [ip, #-516]!	; 0xfffffdfc
     6c4:	052f0607 	streq	r0, [pc, #-1543]!	; c5 <__STACKSEAL_SIZE+0xc5>
     6c8:	05010612 	streq	r0, [r1, #-1554]	; 0xfffff9ee
     6cc:	12054a0e 	andne	r4, r5, #57344	; 0xe000
     6d0:	001c0520 	andseq	r0, ip, r0, lsr #10
     6d4:	22010402 	andcs	r0, r1, #33554432	; 0x2000000
     6d8:	02003905 	andeq	r3, r0, #81920	; 0x14000
     6dc:	053c0204 	ldreq	r0, [ip, #-516]!	; 0xfffffdfc
     6e0:	052f0607 	streq	r0, [pc, #-1543]!	; e1 <__STACKSEAL_SIZE+0xe1>
     6e4:	05010612 	streq	r0, [r1, #-1554]	; 0xfffff9ee
     6e8:	12054a0e 	andne	r4, r5, #57344	; 0xe000
     6ec:	001b0520 	andseq	r0, fp, r0, lsr #10
     6f0:	22010402 	andcs	r0, r1, #33554432	; 0x2000000
     6f4:	2f060705 	svccs	0x00060705
     6f8:	01061205 	tsteq	r6, r5, lsl #4
     6fc:	204a0e05 	subcs	r0, sl, r5, lsl #28
     700:	03060a05 	movweq	r0, #27141	; 0x6a05
     704:	0d05200b 	stceq	0, cr2, [r5, #-44]	; 0xffffffd4
     708:	07050106 	streq	r0, [r5, -r6, lsl #2]
     70c:	12053d06 	andne	r3, r5, #384	; 0x180
     710:	0e050106 	adfeqs	f0, f5, f6
     714:	0a05204a 	beq	148844 <__ROM_SIZE+0xc8844>
     718:	0d052206 	sfmeq	f2, 4, [r5, #-24]	; 0xffffffe8
     71c:	07050106 	streq	r0, [r5, -r6, lsl #2]
     720:	12053d06 	andne	r3, r5, #384	; 0x180
     724:	0e050106 	adfeqs	f0, f5, f6
     728:	0102204a 	tsteq	r2, sl, asr #32
     72c:	05010100 	streq	r0, [r1, #-256]	; 0xffffff00
     730:	02050001 	andeq	r0, r5, #1
     734:	10000a30 	andne	r0, r0, r0, lsr sl
     738:	01029903 	tsteq	r2, r3, lsl #18
     73c:	03050106 	movweq	r0, #20742	; 0x5106
     740:	15135906 	ldrne	r5, [r3, #-2310]	; 0xfffff6fa
     744:	01060605 	tsteq	r6, r5, lsl #12
     748:	21060505 	tstcs	r6, r5, lsl #10
     74c:	01060b05 	tsteq	r6, r5, lsl #22
     750:	32060305 	andcc	r0, r6, #335544320	; 0x14000000
     754:	01060605 	tsteq	r6, r5, lsl #12
     758:	02002205 	andeq	r2, r0, #1342177280	; 0x50000000
     75c:	053c0104 	ldreq	r0, [ip, #-260]!	; 0xfffffefc
     760:	04020012 	streq	r0, [r2], #-18	; 0xffffffee
     764:	02004d01 	andeq	r4, r0, #1, 26	; 0x40
     768:	052e0104 	streq	r0, [lr, #-260]!	; 0xfffffefc
     76c:	0402000e 	streq	r0, [r2], #-14
     770:	12052e08 	andne	r2, r5, #8, 28	; 0x80
     774:	08040200 	stmdaeq	r4, {r9}
     778:	0007052e 	andeq	r0, r7, lr, lsr #10
     77c:	06080402 	streq	r0, [r8], -r2, lsl #8
     780:	000d0559 	andeq	r0, sp, r9, asr r5
     784:	06080402 	streq	r0, [r8], -r2, lsl #8
     788:	04020001 	streq	r0, [r2], #-1
     78c:	02002e08 	andeq	r2, r0, #8, 28	; 0x80
     790:	13060804 	movwne	r0, #26628	; 0x6804
     794:	02000505 	andeq	r0, r0, #20971520	; 0x1400000
     798:	01060804 	tsteq	r6, r4, lsl #16
     79c:	02001405 	andeq	r1, r0, #83886080	; 0x5000000
     7a0:	052e0104 	streq	r0, [lr, #-260]!	; 0xfffffefc
     7a4:	0d052c0e 	stceq	12, cr2, [r5, #-56]	; 0xffffffc8
     7a8:	05052021 	streq	r2, [r5, #-33]	; 0xffffffdf
     7ac:	07050f06 	streq	r0, [r5, -r6, lsl #30]
     7b0:	06270513 			; <UNDEFINED> instruction: 0x06270513
     7b4:	4a120501 	bmi	481bc0 <__ROM_SIZE+0x401bc0>
     7b8:	2f060705 	svccs	0x00060705
     7bc:	01061205 	tsteq	r6, r5, lsl #4
     7c0:	02005505 	andeq	r5, r0, #20971520	; 0x1400000
     7c4:	3c3c0204 	lfmcc	f0, 4, [ip], #-16
     7c8:	07040200 	streq	r0, [r4, -r0, lsl #4]
     7cc:	04020020 	streq	r0, [r2], #-32	; 0xffffffe0
     7d0:	12052007 	andne	r2, r5, #7
     7d4:	07040200 	streq	r0, [r4, -r0, lsl #4]
     7d8:	5855052e 	ldmdapl	r5, {r1, r2, r3, r5, r8, sl}^
     7dc:	030a052e 	movweq	r0, #42286	; 0xa52e
     7e0:	03050175 	movweq	r0, #20853	; 0x5175
     7e4:	20100306 	andscs	r0, r0, r6, lsl #6
     7e8:	01060a05 	tsteq	r6, r5, lsl #20
     7ec:	2ed70105 	cdpcs	1, 13, cr0, cr7, cr5, {0}
     7f0:	05010100 	streq	r0, [r1, #-256]	; 0xffffff00
     7f4:	02050001 	andeq	r0, r5, #1
     7f8:	10000ac4 	andne	r0, r0, r4, asr #21
     7fc:	0102b203 	tsteq	r2, r3, lsl #4
     800:	03050106 	movweq	r0, #20742	; 0x5106
     804:	1513d706 	ldrne	sp, [r3, #-1798]	; 0xfffff8fa
     808:	01060605 	tsteq	r6, r5, lsl #12
     80c:	0605052e 	streq	r0, [r5], -lr, lsr #10
     810:	060b0521 	streq	r0, [fp], -r1, lsr #10
     814:	06030501 	streq	r0, [r3], -r1, lsl #10
     818:	06060532 			; <UNDEFINED> instruction: 0x06060532
     81c:	00220501 	eoreq	r0, r2, r1, lsl #10
     820:	3c010402 	cfstrscc	mvf0, [r1], {2}
     824:	02001205 	andeq	r1, r0, #1342177280	; 0x50000000
     828:	055b0104 	ldrbeq	r0, [fp, #-260]	; 0xfffffefc
     82c:	0402000e 	streq	r0, [r2], #-14
     830:	12053c08 	andne	r3, r5, #8, 24	; 0x800
     834:	08040200 	stmdaeq	r4, {r9}
     838:	0402002e 	streq	r0, [r2], #-46	; 0xffffffd2
     83c:	07052e08 	streq	r2, [r5, -r8, lsl #28]
     840:	08040200 	stmdaeq	r4, {r9}
     844:	0d054b06 	vstreq	d4, [r5, #-24]	; 0xffffffe8
     848:	08040200 	stmdaeq	r4, {r9}
     84c:	02000106 	andeq	r0, r0, #-2147483647	; 0x80000001
     850:	00660804 	rsbeq	r0, r6, r4, lsl #16
     854:	06080402 	streq	r0, [r8], -r2, lsl #8
     858:	00050513 	andeq	r0, r5, r3, lsl r5
     85c:	06080402 	streq	r0, [r8], -r2, lsl #8
     860:	00140501 	andseq	r0, r4, r1, lsl #10
     864:	4a010402 	bmi	41874 <__RAM_SIZE+0x21874>
     868:	053a0e05 	ldreq	r0, [sl, #-3589]!	; 0xfffff1fb
     86c:	052e210d 	streq	r2, [lr, #-269]!	; 0xfffffef3
     870:	050f0605 	streq	r0, [pc, #-1541]	; 273 <__STACKSEAL_SIZE+0x273>
     874:	27051307 	strcs	r1, [r5, -r7, lsl #6]
     878:	12050106 	andne	r0, r5, #-2147483647	; 0x80000001
     87c:	06070566 	streq	r0, [r7], -r6, ror #10
     880:	06120521 	ldreq	r0, [r2], -r1, lsr #10
     884:	00550501 	subseq	r0, r5, r1, lsl #10
     888:	2e020402 	cdpcs	4, 0, cr0, cr2, cr2, {0}
     88c:	0402003c 	streq	r0, [r2], #-60	; 0xffffffc4
     890:	12052007 	andne	r2, r5, #7
     894:	07040200 	streq	r0, [r4, -r0, lsl #4]
     898:	3c55052e 	cfldr64cc	mvdx0, [r5], {46}	; 0x2e
     89c:	030a052e 	movweq	r0, #42286	; 0xa52e
     8a0:	03050175 	movweq	r0, #20853	; 0x5175
     8a4:	2e100306 	cdpcs	3, 1, cr0, cr0, cr6, {0}
     8a8:	01060a05 	tsteq	r6, r5, lsl #20
     8ac:	3d080105 	stfccs	f0, [r8, #-20]	; 0xffffffec
     8b0:	0101003c 	tsteq	r1, ip, lsr r0
     8b4:	05000105 	streq	r0, [r0, #-261]	; 0xfffffefb
     8b8:	000b9002 	andeq	r9, fp, r2
     8bc:	03d30310 	bicseq	r0, r3, #16, 6	; 0x40000000
     8c0:	05010601 	streq	r0, [r1, #-1537]	; 0xfffff9ff
     8c4:	05920603 	ldreq	r0, [r2, #1539]	; 0x603
     8c8:	2e010606 	cfmadd32cs	mvax0, mvfx0, mvfx1, mvfx6
     8cc:	052e2020 	streq	r2, [lr, #-32]!	; 0xffffffe0
     8d0:	04020018 	streq	r0, [r2], #-24	; 0xffffffe8
     8d4:	2d053c01 	stccs	12, cr3, [r5, #-4]
     8d8:	02040200 	andeq	r0, r4, #0, 4
     8dc:	0603059e 			; <UNDEFINED> instruction: 0x0603059e
     8e0:	060513b1 			; <UNDEFINED> instruction: 0x060513b1
     8e4:	03050106 	movweq	r0, #20742	; 0x5106
     8e8:	0605cd06 	streq	ip, [r5], -r6, lsl #26
     8ec:	0a050106 	beq	140d0c <__ROM_SIZE+0xc0d0c>
     8f0:	06030559 			; <UNDEFINED> instruction: 0x06030559
     8f4:	05131733 	ldreq	r1, [r3, #-1843]	; 0xfffff8cd
     8f8:	053c060e 	ldreq	r0, [ip, #-1550]!	; 0xfffff9f2
     8fc:	052f0603 	streq	r0, [pc, #-1539]!	; 301 <__STACKSEAL_SIZE+0x301>
     900:	05010614 	streq	r0, [r1, #-1556]	; 0xfffff9ec
     904:	03052e2c 	movweq	r2, #24108	; 0x5e2c
     908:	2d055a06 	vstrcs	s10, [r5, #-24]	; 0xffffffe8
     90c:	2e2e0106 	sufcse	f0, f6, f6
     910:	05582605 	ldrbeq	r2, [r8, #-1541]	; 0xfffff9fb
     914:	5205744b 	andpl	r7, r5, #1258291200	; 0x4b000000
     918:	74410566 	strbvc	r0, [r1], #-1382	; 0xfffffa9a
     91c:	054a0705 	strbeq	r0, [sl, #-1797]	; 0xfffff8fb
     920:	053e0603 	ldreq	r0, [lr, #-1539]!	; 0xfffff9fd
     924:	2e010617 	mcrcs	6, 0, r0, cr1, cr7, {0}
     928:	05742b05 	ldrbeq	r2, [r4, #-2821]!	; 0xfffff4fb
     92c:	03054a08 	movweq	r4, #23048	; 0x5a08
     930:	1c053d06 	stcne	13, cr3, [r5], {6}
     934:	054a0106 	strbeq	r0, [sl, #-262]	; 0xfffffefa
     938:	10055837 	andne	r5, r5, r7, lsr r8
     93c:	0603059e 			; <UNDEFINED> instruction: 0x0603059e
     940:	06100567 	ldreq	r0, [r0], -r7, ror #10
     944:	06030501 	streq	r0, [r3], -r1, lsl #10
     948:	061c0567 	ldreq	r0, [ip], -r7, ror #10
     94c:	2e240501 	cfsh64cs	mvdx0, mvdx4, #1
     950:	84060305 	strhi	r0, [r6], #-773	; 0xfffffcfb
     954:	01061305 	tsteq	r6, r5, lsl #6
     958:	581c053c 	ldmdapl	ip, {r2, r3, r4, r5, r8, sl}
     95c:	203c0582 	eorscs	r0, ip, r2, lsl #11
     960:	05663705 	strbeq	r3, [r6, #-1797]!	; 0xfffff8fb
     964:	2b056631 	blcs	15a230 <__ROM_SIZE+0xda230>
     968:	6626054a 	strtvs	r0, [r6], -sl, asr #10
     96c:	05662005 	strbeq	r2, [r6, #-5]!
     970:	0f056617 	svceq	0x00056617
     974:	4a0a054a 	bmi	281ea4 <__ROM_SIZE+0x201ea4>
     978:	84060305 	strhi	r0, [r6], #-773	; 0xfffffcfb
     97c:	01060605 	tsteq	r6, r5, lsl #12
     980:	59060505 	stmdbpl	r6, {r0, r2, r8, sl}
     984:	01060b05 	tsteq	r6, r5, lsl #22
     988:	21060505 	tstcs	r6, r5, lsl #10
     98c:	01060c05 	tsteq	r6, r5, lsl #24
     990:	86060305 	strhi	r0, [r6], -r5, lsl #6
     994:	01062b05 	tsteq	r6, r5, lsl #22
     998:	2e2e4405 	cdpcs	4, 2, cr4, cr14, cr5, {0}
     99c:	02000305 	andeq	r0, r0, #335544320	; 0x14000000
     9a0:	23060404 	movwcs	r0, #25604	; 0x6404
     9a4:	02000605 	andeq	r0, r0, #5242880	; 0x500000
     9a8:	01060404 	tsteq	r6, r4, lsl #8
     9ac:	4c060505 	cfstr32mi	mvfx0, [r6], {5}
     9b0:	01060805 	tsteq	r6, r5, lsl #16
     9b4:	02001905 	andeq	r1, r0, #81920	; 0x14000
     9b8:	05ac0104 	streq	r0, [ip, #260]!	; 0x104
     9bc:	05910607 	ldreq	r0, [r1, #1543]	; 0x607
     9c0:	0501060a 	streq	r0, [r1, #-1546]	; 0xfffff9f6
     9c4:	053d0609 	ldreq	r0, [sp, #-1545]!	; 0xfffff9f7
     9c8:	05010625 	streq	r0, [r1, #-1573]	; 0xfffff9db
     9cc:	052e202e 	streq	r2, [lr, #-46]!	; 0xffffffd2
     9d0:	51030605 	tstpl	r3, r5, lsl #12
     9d4:	060c0520 	streq	r0, [ip], -r0, lsr #10
     9d8:	03010501 	movweq	r0, #5377	; 0x1501
     9dc:	3cf200e4 	ldclcc	0, cr0, [r2], #912	; 0x390
     9e0:	03060505 	movweq	r0, #25861	; 0x6505
     9e4:	052e7fa2 	streq	r7, [lr, #-4002]!	; 0xfffff05e
     9e8:	9e01060b 	cfmadd32ls	mvax0, mvfx0, mvfx1, mvfx11
     9ec:	22034405 	andcs	r4, r3, #83886080	; 0x5000000
     9f0:	0e052020 	cdpeq	0, 0, cr2, cr5, cr0, {1}
     9f4:	05200a03 	streq	r0, [r0, #-2563]!	; 0xfffff5fd
     9f8:	05300607 	ldreq	r0, [r0, #-1543]!	; 0xfffff9f9
     9fc:	0501060d 	streq	r0, [r1, #-1549]	; 0xfffff9f3
     a00:	134c0607 	movtne	r0, #50695	; 0xc607
     a04:	11061005 	tstne	r6, r5
     a08:	06030521 	streq	r0, [r3], -r1, lsr #10
     a0c:	13200b03 			; <UNDEFINED> instruction: 0x13200b03
     a10:	01060605 	tsteq	r6, r5, lsl #12
     a14:	3e060505 	cfsh32cc	mvfx0, mvfx6, #5
     a18:	01060c05 	tsteq	r6, r5, lsl #24
     a1c:	0607052e 	streq	r0, [r7], -lr, lsr #10
     a20:	05207603 	streq	r7, [r0, #-1539]!	; 0xfffff9fd
     a24:	0501060a 	streq	r0, [r1, #-1546]	; 0xfffff9f6
     a28:	04020016 	streq	r0, [r2], #-22	; 0xffffffea
     a2c:	09053c01 	stmdbeq	r5, {r0, sl, fp, ip, sp}
     a30:	3c063d06 	stccc	13, cr3, [r6], {6}
     a34:	0c030c05 	stceq	12, cr0, [r3], {5}
     a38:	05013402 	streq	r3, [r1, #-1026]	; 0xfffffbfe
     a3c:	05300603 	ldreq	r0, [r0, #-1539]!	; 0xfffff9fd
     a40:	05010606 	streq	r0, [r1, #-1542]	; 0xfffff9fa
     a44:	0402001c 	streq	r0, [r2], #-28	; 0xffffffe4
     a48:	0c054a01 			; <UNDEFINED> instruction: 0x0c054a01
     a4c:	06030522 	streq	r0, [r3], -r2, lsr #10
     a50:	06060532 			; <UNDEFINED> instruction: 0x06060532
     a54:	06050501 	streq	r0, [r5], -r1, lsl #10
     a58:	06120521 	ldreq	r0, [r2], -r1, lsr #10
     a5c:	2e0b0501 	cfsh32cs	mvfx0, mvfx11, #1
     a60:	6a060305 	bvs	18167c <__ROM_SIZE+0x10167c>
     a64:	06090513 			; <UNDEFINED> instruction: 0x06090513
     a68:	04020001 	streq	r0, [r2], #-1
     a6c:	03058204 	movweq	r8, #20996	; 0x5204
     a70:	04040200 	streq	r0, [r4], #-512	; 0xfffffe00
     a74:	05230806 	streq	r0, [r3, #-2054]!	; 0xfffff7fa
     a78:	04020006 	streq	r0, [r2], #-6
     a7c:	05010604 	streq	r0, [r1, #-1540]	; 0xfffff9fc
     a80:	003e0605 	eorseq	r0, lr, r5, lsl #12
     a84:	06040402 	streq	r0, [r4], -r2, lsl #8
     a88:	04020066 	streq	r0, [r2], #-102	; 0xffffff9a
     a8c:	02002e04 	andeq	r2, r0, #4, 28	; 0x40
     a90:	5a060404 	bpl	181aa8 <__ROM_SIZE+0x101aa8>
     a94:	02004705 	andeq	r4, r0, #1310720	; 0x140000
     a98:	01060404 	tsteq	r6, r4, lsl #8
     a9c:	02000b05 	andeq	r0, r0, #5120	; 0x1400
     aa0:	004a0404 	subeq	r0, sl, r4, lsl #8
     aa4:	3c040402 	cfstrscc	mvf0, [r4], {2}
     aa8:	02000505 	andeq	r0, r0, #20971520	; 0x1400000
     aac:	d8060404 	stmdale	r6, {r2, sl}
     ab0:	02000805 	andeq	r0, r0, #327680	; 0x50000
     ab4:	01060404 	tsteq	r6, r4, lsl #8
     ab8:	04040200 	streq	r0, [r4], #-512	; 0xfffffe00
     abc:	00090566 	andeq	r0, r9, r6, ror #10
     ac0:	03010402 	movweq	r0, #5122	; 0x1402
     ac4:	02002077 	andeq	r2, r0, #119	; 0x77
     ac8:	05740104 	ldrbeq	r0, [r4, #-260]!	; 0xfffffefc
     acc:	27052505 	strcs	r2, [r5, -r5, lsl #10]
     ad0:	02040200 	andeq	r0, r4, #0, 4
     ad4:	02004106 	andeq	r4, r0, #-2147483647	; 0x80000001
     ad8:	20060204 	andcs	r0, r6, r4, lsl #4
     adc:	02000d05 	andeq	r0, r0, #320	; 0x140
     ae0:	58060104 	stmdapl	r6, {r2, r8}
     ae4:	02001205 	andeq	r1, r0, #1342177280	; 0x50000000
     ae8:	01060104 	tsteq	r6, r4, lsl #2
     aec:	02000d05 	andeq	r0, r0, #320	; 0x140
     af0:	002e0104 	eoreq	r0, lr, r4, lsl #2
     af4:	2e010402 	cdpcs	4, 0, cr0, cr1, cr2, {0}
     af8:	01000202 	tsteq	r0, r2, lsl #4
     afc:	00010501 	andeq	r0, r1, r1, lsl #10
     b00:	0f800205 	svceq	0x00800205
     b04:	d3031000 	movwle	r1, #12288	; 0x3000
     b08:	01060102 	tsteq	r6, r2, lsl #2
     b0c:	bb060305 	bllt	181728 <__ROM_SIZE+0x101728>
     b10:	15151313 	ldrne	r1, [r5, #-787]	; 0xfffffced
     b14:	01060605 	tsteq	r6, r5, lsl #12
     b18:	20202020 	eorcs	r2, r0, r0, lsr #32
     b1c:	4c060305 	stcmi	3, cr0, [r6], {5}
     b20:	01060605 	tsteq	r6, r5, lsl #12
     b24:	a0060305 	andge	r0, r6, r5, lsl #6
     b28:	01060605 	tsteq	r6, r5, lsl #12
     b2c:	95060305 	strls	r0, [r6, #-773]	; 0xfffffcfb
     b30:	01060605 	tsteq	r6, r5, lsl #12
     b34:	02002205 	andeq	r2, r0, #1342177280	; 0x50000000
     b38:	05900104 	ldreq	r0, [r0, #260]	; 0x104
     b3c:	09030603 	stmdbeq	r3, {r0, r1, r9, sl}
     b40:	06051390 			; <UNDEFINED> instruction: 0x06051390
     b44:	08050106 	stmdaeq	r5, {r1, r2, r8}
     b48:	06030581 	streq	r0, [r3], -r1, lsl #11
     b4c:	06060535 			; <UNDEFINED> instruction: 0x06060535
     b50:	4b0a0501 	blmi	281f5c <__ROM_SIZE+0x201f5c>
     b54:	23060905 	movwcs	r0, #26885	; 0x6905
     b58:	02002a05 	andeq	r2, r0, #20480	; 0x5000
     b5c:	2e060104 	adfcss	f0, f6, f4
     b60:	2f060505 	svccs	0x00060505
     b64:	01061005 	tsteq	r6, r5
     b68:	67060505 	strvs	r0, [r6, -r5, lsl #10]
     b6c:	01060905 	tsteq	r6, r5, lsl #18
     b70:	201f0c05 	andscs	r0, pc, r5, lsl #24
     b74:	03060505 	movweq	r0, #25861	; 0x6505
     b78:	0c052063 	stceq	0, cr2, [r5], {99}	; 0x63
     b7c:	05050106 	streq	r0, [r5, #-262]	; 0xfffffefa
     b80:	0c05e606 	stceq	6, cr14, [r5], {6}
     b84:	05050106 	streq	r0, [r5, #-262]	; 0xfffffefa
     b88:	0c05e606 	stceq	6, cr14, [r5], {6}
     b8c:	02000106 	andeq	r0, r0, #-2147483647	; 0x80000001
     b90:	20580404 	subscs	r0, r8, r4, lsl #8
     b94:	08040200 	stmdaeq	r4, {r9}
     b98:	0505c820 	streq	ip, [r5, #-2080]	; 0xfffff7e0
     b9c:	0c055006 	stceq	0, cr5, [r5], {6}
     ba0:	05050106 	streq	r0, [r5, #-262]	; 0xfffffefa
     ba4:	d6090306 	strle	r0, [r9], -r6, lsl #6
     ba8:	060b0513 			; <UNDEFINED> instruction: 0x060b0513
     bac:	810e0501 	tsthi	lr, r1, lsl #10
     bb0:	05420a05 	strbeq	r0, [r2, #-2565]	; 0xfffff5fb
     bb4:	05360603 	ldreq	r0, [r6, #-1539]!	; 0xfffff9fd
     bb8:	05010607 	streq	r0, [r1, #-1543]	; 0xfffff9f9
     bbc:	05590603 	ldrbeq	r0, [r9, #-1539]	; 0xfffff9fd
     bc0:	2e010617 	mcrcs	6, 0, r0, cr1, cr7, {0}
     bc4:	05662705 	strbeq	r2, [r6, #-1797]!	; 0xfffff8fb
     bc8:	0305580a 	movweq	r5, #22538	; 0x580a
     bcc:	11058306 	tstne	r5, r6, lsl #6
     bd0:	052e0106 	streq	r0, [lr, #-262]!	; 0xfffffefa
     bd4:	05210603 	streq	r0, [r1, #-1539]!	; 0xfffff9fd
     bd8:	2e01060e 	cfmadd32cs	mvax0, mvfx0, mvfx1, mvfx14
     bdc:	052e0805 	streq	r0, [lr, #-2053]!	; 0xfffff7fb
     be0:	05840603 	streq	r0, [r4, #1539]	; 0x603
     be4:	20010606 	andcs	r0, r1, r6, lsl #12
     be8:	4b060505 	blmi	182004 <__ROM_SIZE+0x102004>
     bec:	060e0522 	streq	r0, [lr], -r2, lsr #10
     bf0:	58080501 	stmdapl	r8, {r0, r8, sl}
     bf4:	59060705 	stmdbpl	r6, {r0, r2, r8, r9, sl}
     bf8:	060c0513 			; <UNDEFINED> instruction: 0x060c0513
     bfc:	0603051f 			; <UNDEFINED> instruction: 0x0603051f
     c00:	05200b03 	streq	r0, [r0, #-2819]!	; 0xfffff4fd
     c04:	05010606 	streq	r0, [r1, #-1542]	; 0xfffff9fa
     c08:	05210605 	streq	r0, [r1, #-1541]!	; 0xfffff9fb
     c0c:	05010614 	streq	r0, [r1, #-1556]	; 0xfffff9ec
     c10:	0558580a 	ldrbeq	r5, [r8, #-2058]	; 0xfffff7f6
     c14:	05210605 	streq	r0, [r1, #-1541]!	; 0xfffff9fb
     c18:	05010608 	streq	r0, [r1, #-1544]	; 0xfffff9f8
     c1c:	04020018 	streq	r0, [r2], #-24	; 0xffffffe8
     c20:	29055802 	stmdbcs	r5, {r1, fp, ip, lr}
     c24:	03040200 	movweq	r0, #16896	; 0x4200
     c28:	06070582 	streq	r0, [r7], -r2, lsl #11
     c2c:	0520063f 	streq	r0, [r0, #-1599]!	; 0xfffff9c1
     c30:	74030608 	strvc	r0, [r3], #-1544	; 0xfffff9f8
     c34:	060b0520 	streq	r0, [fp], -r0, lsr #10
     c38:	06080501 	streq	r0, [r8], -r1, lsl #10
     c3c:	060b0584 	streq	r0, [fp], -r4, lsl #11
     c40:	00190501 	andseq	r0, r9, r1, lsl #10
     c44:	20010402 	andcs	r0, r1, r2, lsl #8
     c48:	3e060505 	cfsh32cc	mvfx0, mvfx6, #5
     c4c:	0b052006 	bleq	148c6c <__ROM_SIZE+0xc8c6c>
     c50:	200e0306 	andcs	r0, lr, r6, lsl #6
     c54:	212f0705 			; <UNDEFINED> instruction: 0x212f0705
     c58:	01062705 	tsteq	r6, r5, lsl #14
     c5c:	05900e05 	ldreq	r0, [r0, #3589]	; 0xe05
     c60:	12052014 	andne	r2, r5, #20
     c64:	06070520 	streq	r0, [r7], -r0, lsr #10
     c68:	060a0567 	streq	r0, [sl], -r7, ror #10
     c6c:	2e120501 	cfmul32cs	mvfx0, mvfx2, mvfx1
     c70:	2e1f0e05 	cdpcs	14, 1, cr0, cr15, cr5, {0}
     c74:	26060b05 	strcs	r0, [r6], -r5, lsl #22
     c78:	02003505 	andeq	r3, r0, #20971520	; 0x1400000
     c7c:	2e060104 	adfcss	f0, f6, f4
     c80:	02002c05 	andeq	r2, r0, #1280	; 0x500
     c84:	05200104 	streq	r0, [r0, #-260]!	; 0xfffffefc
     c88:	05210607 	streq	r0, [r1, #-1543]!	; 0xfffff9f9
     c8c:	05010612 	streq	r0, [r1, #-1554]	; 0xfffff9ee
     c90:	0e056535 	mcreq	5, 0, r6, cr5, cr5, {1}
     c94:	05052021 	streq	r2, [r5, #-33]	; 0xffffffdf
     c98:	08052206 	stmdaeq	r5, {r1, r2, r9, sp}
     c9c:	07050106 	streq	r0, [r5, -r6, lsl #2]
     ca0:	12053006 	andne	r3, r5, #6
     ca4:	0e050106 	adfeqs	f0, f5, f6
     ca8:	09052066 	stmdbeq	r5, {r1, r2, r5, r6, sp}
     cac:	05051706 	streq	r1, [r5, #-1798]	; 0xfffff8fa
     cb0:	0625052f 	strteq	r0, [r5], -pc, lsr #10
     cb4:	ac0c0501 	cfstr32ge	mvfx0, [ip], {1}
     cb8:	05201205 	streq	r1, [r0, #-517]!	; 0xfffffdfb
     cbc:	05052010 	streq	r2, [r5, #-16]
     cc0:	11056706 	tstne	r5, r6, lsl #14
     cc4:	08050106 	stmdaeq	r5, {r1, r2, r8}
     cc8:	1f0c0520 	svcne	0x000c0520
     ccc:	0305c808 	movweq	ip, #22536	; 0x5808
     cd0:	1d052706 	stcne	7, cr2, [r5, #-24]	; 0xffffffe8
     cd4:	06050106 	streq	r0, [r5], -r6, lsl #2
     cd8:	0603053c 			; <UNDEFINED> instruction: 0x0603053c
     cdc:	052e0903 	streq	r0, [lr, #-2307]!	; 0xfffff6fd
     ce0:	05010606 	streq	r0, [r1, #-1542]	; 0xfffff9fa
     ce4:	052f0605 	streq	r0, [pc, #-1541]!	; 6e7 <__STACKSEAL_SIZE+0x6e7>
     ce8:	05010608 	streq	r0, [r1, #-1544]	; 0xfffff9f8
     cec:	053d0607 	ldreq	r0, [sp, #-1543]!	; 0xfffff9f9
     cf0:	05010612 	streq	r0, [r1, #-1554]	; 0xfffff9ee
     cf4:	0305660e 	movweq	r6, #22030	; 0x560e
     cf8:	200a0306 	andcs	r0, sl, r6, lsl #6
     cfc:	01060a05 	tsteq	r6, r5, lsl #20
     d00:	05c90105 	strbeq	r0, [r9, #261]	; 0x105
     d04:	6b030605 	blvs	c2520 <__ROM_SIZE+0x42520>
     d08:	06080558 			; <UNDEFINED> instruction: 0x06080558
     d0c:	000f0501 	andeq	r0, pc, r1, lsl #10
     d10:	2e010402 	cdpcs	4, 0, cr0, cr1, cr2, {0}
     d14:	02001c05 	andeq	r1, r0, #1280	; 0x500
     d18:	052e0204 	streq	r0, [lr, #-516]!	; 0xfffffdfc
     d1c:	054b0607 	strbeq	r0, [fp, #-1543]	; 0xfffff9f9
     d20:	3c01060c 	stccc	6, cr0, [r1], {12}
     d24:	31060705 	tstcc	r6, r5, lsl #14
     d28:	01061205 	tsteq	r6, r5, lsl #4
     d2c:	05660e05 	strbeq	r0, [r6, #-3589]!	; 0xfffff1fb
     d30:	051f060b 	ldreq	r0, [pc, #-1547]	; 72d <__STACKSEAL_SIZE+0x72d>
     d34:	0402001a 	streq	r0, [r2], #-26	; 0xffffffe6
     d38:	002e0601 	eoreq	r0, lr, r1, lsl #12
     d3c:	3c010402 	cfstrscc	mvf0, [r1], {2}
     d40:	03060a05 	movweq	r0, #27141	; 0x6a05
     d44:	0d054a09 	vstreq	s8, [r5, #-36]	; 0xffffffdc
     d48:	07050106 	streq	r0, [r5, -r6, lsl #2]
     d4c:	12054b06 	andne	r4, r5, #6144	; 0x1800
     d50:	0e050106 	adfeqs	f0, f5, f6
     d54:	0a052066 	beq	148ef4 <__ROM_SIZE+0xc8ef4>
     d58:	0d052206 	sfmeq	f2, 4, [r5, #-24]	; 0xffffffe8
     d5c:	07050106 	streq	r0, [r5, -r6, lsl #2]
     d60:	12054b06 	andne	r4, r5, #6144	; 0x1800
     d64:	0e050106 	adfeqs	f0, f5, f6
     d68:	01022066 	tsteq	r2, r6, rrx
     d6c:	05010100 	streq	r0, [r1, #-256]	; 0xffffff00
     d70:	02050001 	andeq	r0, r5, #1
     d74:	10001318 	andne	r1, r0, r8, lsl r3
     d78:	0104c103 	tsteq	r4, r3, lsl #2
     d7c:	03050106 	movweq	r0, #20742	; 0x5106
     d80:	14136706 	ldrne	r6, [r3], #-1798	; 0xfffff8fa
     d84:	01060605 	tsteq	r6, r5, lsl #12
     d88:	d3030905 	movwle	r0, #14597	; 0x3905
     d8c:	06204a01 	strteq	r4, [r0], -r1, lsl #20
     d90:	017eb203 	cmneq	lr, r3, lsl #4
     d94:	01060a05 	tsteq	r6, r5, lsl #20
     d98:	052e0905 	streq	r0, [lr, #-2309]!	; 0xfffff6fb
     d9c:	053f0605 	ldreq	r0, [pc, #-1541]!	; 79f <__STACKSEAL_SIZE+0x79f>
     da0:	05010608 	streq	r0, [r1, #-1544]	; 0xfffff9f8
     da4:	06300607 	ldrteq	r0, [r0], -r7, lsl #12
     da8:	054b0620 	strbeq	r0, [fp, #-1568]	; 0xfffff9e0
     dac:	0501060d 	streq	r0, [r1, #-1549]	; 0xfffff9f3
     db0:	063d0607 	ldrteq	r0, [sp], -r7, lsl #12
     db4:	24062210 	strcs	r2, [r6], #-528	; 0xfffffdf0
     db8:	01060d05 	tsteq	r6, r5, lsl #26
     dbc:	32060505 	andcc	r0, r6, #20971520	; 0x1400000
     dc0:	01060b05 	tsteq	r6, r5, lsl #22
     dc4:	21060505 	tstcs	r6, r5, lsl #10
     dc8:	05130705 	ldreq	r0, [r3, #-1797]	; 0xfffff8fb
     dcc:	0501060f 	streq	r0, [r1, #-1551]	; 0xfffff9f1
     dd0:	0d052e07 	stceq	14, cr2, [r5, #-28]	; 0xffffffe4
     dd4:	0505ec06 	streq	lr, [r5, #-3078]	; 0xfffff3fa
     dd8:	14051315 	strne	r1, [r5], #-789	; 0xfffffceb
     ddc:	017ccd03 	cmneq	ip, r3, lsl #26
     de0:	05140305 	ldreq	r0, [r4, #-773]	; 0xfffffcfb
     de4:	3c010616 	stccc	6, cr0, [r1], {22}
     de8:	b1030805 	tstlt	r3, r5, lsl #16
     dec:	0a050103 	beq	141200 <__ROM_SIZE+0xc1200>
     df0:	0d053106 	stfeqs	f3, [r5, #-24]	; 0xffffffe8
     df4:	0b050106 	bleq	141214 <__ROM_SIZE+0xc1214>
     df8:	0605052a 	streq	r0, [r5], -sl, lsr #10
     dfc:	132e1103 			; <UNDEFINED> instruction: 0x132e1103
     e00:	01060905 	tsteq	r6, r5, lsl #18
     e04:	052e0805 	streq	r0, [lr, #-2053]!	; 0xfffff7fb
     e08:	05052d0f 	streq	r2, [r5, #-3343]	; 0xfffff2f1
     e0c:	2e0f0306 	cdpcs	3, 0, cr0, cr15, cr6, {0}
     e10:	01060d05 	tsteq	r6, r5, lsl #26
     e14:	052e0505 	streq	r0, [lr, #-1285]!	; 0xfffffafb
     e18:	56030613 			; <UNDEFINED> instruction: 0x56030613
     e1c:	061905e4 	ldreq	r0, [r9], -r4, ror #11
     e20:	062b0501 	strteq	r0, [fp], -r1, lsl #10
     e24:	0631052e 	ldrteq	r0, [r1], -lr, lsr #10
     e28:	06350501 	ldrteq	r0, [r5], -r1, lsl #10
     e2c:	013d052e 	teqeq	sp, lr, lsr #10
     e30:	05190d05 	ldreq	r0, [r9, #-3333]	; 0xfffff2fb
     e34:	207a0313 	rsbscs	r0, sl, r3, lsl r3
     e38:	01061905 	tsteq	r6, r5, lsl #18
     e3c:	2e062b05 	vmlacs.f64	d2, d6, d5
     e40:	01063105 	tsteq	r6, r5, lsl #2
     e44:	2e063505 	cfsh32cs	mvfx3, mvfx6, #5
     e48:	05013d05 	streq	r3, [r1, #-3333]	; 0xfffff2fb
     e4c:	1305180d 	movwne	r1, #22541	; 0x580d
     e50:	0619051b 			; <UNDEFINED> instruction: 0x0619051b
     e54:	062b0501 	strteq	r0, [fp], -r1, lsl #10
     e58:	0631052e 	ldrteq	r0, [r1], -lr, lsr #10
     e5c:	06350501 	ldrteq	r0, [r5], -r1, lsl #10
     e60:	013d052e 	teqeq	sp, lr, lsr #10
     e64:	05170d05 	ldreq	r0, [r7, #-3333]	; 0xfffff2fb
     e68:	19051c13 	stmdbne	r5, {r0, r1, r4, sl, fp, ip}
     e6c:	2b050106 	blcs	14128c <__ROM_SIZE+0xc128c>
     e70:	31052e06 	tstcc	r5, r6, lsl #28
     e74:	35050106 	strcc	r0, [r5, #-262]	; 0xfffffefa
     e78:	3d052e06 	stccc	14, cr2, [r5, #-24]	; 0xffffffe8
     e7c:	160d0501 	strne	r0, [sp], -r1, lsl #10
     e80:	051d1305 	ldreq	r1, [sp, #-773]	; 0xfffffcfb
     e84:	05010619 	streq	r0, [r1, #-1561]	; 0xfffff9e7
     e88:	052e062b 	streq	r0, [lr, #-1579]!	; 0xfffff9d5
     e8c:	05010631 	streq	r0, [r1, #-1585]	; 0xfffff9cf
     e90:	052e0635 	streq	r0, [lr, #-1589]!	; 0xfffff9cb
     e94:	0d05013d 	stfeqs	f0, [r5, #-244]	; 0xffffff0c
     e98:	25070515 	strcs	r0, [r7, #-1301]	; 0xfffffaeb
     e9c:	01060f05 	tsteq	r6, r5, lsl #30
     ea0:	0607054a 	streq	r0, [r7], -sl, asr #10
     ea4:	06110523 	ldreq	r0, [r1], -r3, lsr #10
     ea8:	06070501 	streq	r0, [r7], -r1, lsl #10
     eac:	060a054b 	streq	r0, [sl], -fp, asr #10
     eb0:	06090501 	streq	r0, [r9], -r1, lsl #10
     eb4:	060f0533 			; <UNDEFINED> instruction: 0x060f0533
     eb8:	06070501 	streq	r0, [r7], -r1, lsl #10
     ebc:	060d0522 	streq	r0, [sp], -r2, lsr #10
     ec0:	06090501 	streq	r0, [r9], -r1, lsl #10
     ec4:	054a7a03 	strbeq	r7, [sl, #-2563]	; 0xfffff5fd
     ec8:	0501060f 	streq	r0, [r1, #-1551]	; 0xfffff9f1
     ecc:	052f0609 	streq	r0, [pc, #-1545]!	; 8cb <__Vectors_Size+0x10b>
     ed0:	2e01061f 	mcrcs	6, 0, r0, cr1, cr15, {0}
     ed4:	06070520 	streq	r0, [r7], -r0, lsr #10
     ed8:	05010b03 	streq	r0, [r1, #-2819]	; 0xfffff4fd
     edc:	0501060d 	streq	r0, [r1, #-1549]	; 0xfffff9f3
     ee0:	052f0607 	streq	r0, [pc, #-1543]!	; 8e1 <__Vectors_Size+0x121>
     ee4:	0501060d 	streq	r0, [r1, #-1549]	; 0xfffff9f3
     ee8:	052f0607 	streq	r0, [pc, #-1543]!	; 8e9 <__Vectors_Size+0x129>
     eec:	0501060b 	streq	r0, [r1, #-1547]	; 0xfffff9f5
     ef0:	b9030614 	stmdblt	r3, {r2, r4, r9, sl}
     ef4:	0305207c 	movweq	r2, #20604	; 0x507c
     ef8:	06160514 			; <UNDEFINED> instruction: 0x06160514
     efc:	0a053c01 	beq	14ff08 <__ROM_SIZE+0xcff08>
     f00:	0103c503 	tsteq	r3, r3, lsl #10
     f04:	31060c05 	tstcc	r6, r5, lsl #24
     f08:	01060f05 	tsteq	r6, r5, lsl #30
     f0c:	052e7903 	streq	r7, [lr, #-2307]!	; 0xfffff6fd
     f10:	05410609 	strbeq	r0, [r1, #-1545]	; 0xfffff9f7
     f14:	4a010615 	bmi	42770 <__RAM_SIZE+0x22770>
     f18:	23060905 	movwcs	r0, #26885	; 0x6905
     f1c:	01061305 	tsteq	r6, r5, lsl #6
     f20:	4b060905 	blmi	18333c <__ROM_SIZE+0x10333c>
     f24:	01063305 	tsteq	r6, r5, lsl #6
     f28:	2f060905 	svccs	0x00060905
     f2c:	01060f05 	tsteq	r6, r5, lsl #30
     f30:	0609054a 	streq	r0, [r9], -sl, asr #10
     f34:	060f0519 			; <UNDEFINED> instruction: 0x060f0519
     f38:	06090501 	streq	r0, [r9], -r1, lsl #10
     f3c:	060f052f 	streq	r0, [pc], -pc, lsr #10
     f40:	06090501 	streq	r0, [r9], -r1, lsl #10
     f44:	060d052f 	streq	r0, [sp], -pc, lsr #10
     f48:	200c0501 	andcs	r0, ip, r1, lsl #10
     f4c:	052c0f05 	streq	r0, [ip, #-3845]!	; 0xfffff0fb
     f50:	0531060b 	ldreq	r0, [r1, #-1547]!	; 0xfffff9f5
     f54:	05010611 	streq	r0, [r1, #-1553]	; 0xfffff9ef
     f58:	052f060b 	streq	r0, [pc, #-1547]!	; 955 <__Vectors_Size+0x195>
     f5c:	05010611 	streq	r0, [r1, #-1553]	; 0xfffff9ef
     f60:	05400609 	strbeq	r0, [r0, #-1545]	; 0xfffff9f7
     f64:	0501060f 	streq	r0, [r1, #-1551]	; 0xfffff9f1
     f68:	052f0609 	streq	r0, [pc, #-1545]!	; 967 <__Vectors_Size+0x1a7>
     f6c:	0501060f 	streq	r0, [r1, #-1551]	; 0xfffff9f1
     f70:	052f0609 	streq	r0, [pc, #-1545]!	; 96f <__Vectors_Size+0x1af>
     f74:	0501060d 	streq	r0, [r1, #-1549]	; 0xfffff9f3
     f78:	0f05200c 	svceq	0x0005200c
     f7c:	060b052c 	streq	r0, [fp], -ip, lsr #10
     f80:	06110531 			; <UNDEFINED> instruction: 0x06110531
     f84:	060b0501 	streq	r0, [fp], -r1, lsl #10
     f88:	0611052f 	ldreq	r0, [r1], -pc, lsr #10
     f8c:	06090501 	streq	r0, [r9], -r1, lsl #10
     f90:	060f0541 	streq	r0, [pc], -r1, asr #10
     f94:	06090501 	streq	r0, [r9], -r1, lsl #10
     f98:	060f052f 	streq	r0, [pc], -pc, lsr #10
     f9c:	06090501 	streq	r0, [r9], -r1, lsl #10
     fa0:	0305052f 	movweq	r0, #21807	; 0x552f
     fa4:	0d05010f 	stfeqs	f0, [r5, #-60]	; 0xffffffc4
     fa8:	05050106 	streq	r0, [r5, #-262]	; 0xfffffefa
     fac:	0609052e 	streq	r0, [r9], -lr, lsr #10
     fb0:	5b027403 	blpl	9dfc4 <__ROM_SIZE+0x1dfc4>
     fb4:	060f0501 	streq	r0, [pc], -r1, lsl #10
     fb8:	06090501 	streq	r0, [r9], -r1, lsl #10
     fbc:	060f052f 	streq	r0, [pc], -pc, lsr #10
     fc0:	06090501 	streq	r0, [r9], -r1, lsl #10
     fc4:	0f05222f 	svceq	0x0005222f
     fc8:	09050106 	stmdbeq	r5, {r1, r2, r8}
     fcc:	0f052f06 	svceq	0x00052f06
     fd0:	09050106 	stmdbeq	r5, {r1, r2, r8}
     fd4:	0f032f06 	svceq	0x00032f06
     fd8:	0c051320 	stceq	3, cr1, [r5], {32}
     fdc:	1c050106 	stfnes	f0, [r5], {6}
     fe0:	01040200 	mrseq	r0, R12_usr
     fe4:	060e052e 	streq	r0, [lr], -lr, lsr #10
     fe8:	06110531 			; <UNDEFINED> instruction: 0x06110531
     fec:	060e0501 	streq	r0, [lr], -r1, lsl #10
     ff0:	06110531 			; <UNDEFINED> instruction: 0x06110531
     ff4:	060b0501 	streq	r0, [fp], -r1, lsl #10
     ff8:	11051332 	tstne	r5, r2, lsr r3
     ffc:	10050106 	andne	r0, r5, r6, lsl #2
    1000:	2e77032d 	cdpcs	3, 7, cr0, cr7, cr13, {1}
    1004:	03060905 	movweq	r0, #26885	; 0x6905
    1008:	0c05200d 	stceq	0, cr2, [r5], {13}
    100c:	09050106 	stmdbeq	r5, {r1, r2, r8}
    1010:	0c053306 	stceq	3, cr3, [r5], {6}
    1014:	1e050106 	adfnes	f0, f5, f6
    1018:	01040200 	mrseq	r0, R12_usr
    101c:	060b052e 	streq	r0, [fp], -lr, lsr #10
    1020:	0611052f 	ldreq	r0, [r1], -pc, lsr #10
    1024:	06090501 	streq	r0, [r9], -r1, lsl #10
    1028:	060c0532 			; <UNDEFINED> instruction: 0x060c0532
    102c:	060b0501 	streq	r0, [fp], -r1, lsl #10
    1030:	0611053d 			; <UNDEFINED> instruction: 0x0611053d
    1034:	06090501 	streq	r0, [r9], -r1, lsl #10
    1038:	060c0532 			; <UNDEFINED> instruction: 0x060c0532
    103c:	001e0501 	andseq	r0, lr, r1, lsl #10
    1040:	2e010402 	cdpcs	4, 0, cr0, cr1, cr2, {0}
    1044:	03060b05 	movweq	r0, #27397	; 0x6b05
    1048:	0e052e13 	mcreq	14, 0, r2, cr5, cr3, {0}
    104c:	10050106 	andne	r0, r5, r6, lsl #2
    1050:	13054f06 	movwne	r4, #24326	; 0x5f06
    1054:	0d050106 	stfeqs	f0, [r5, #-24]	; 0xffffffe8
    1058:	67054e06 	strvs	r4, [r5, -r6, lsl #28]
    105c:	4e050106 	adfmis	f0, f5, f6
    1060:	000d054a 	andeq	r0, sp, sl, asr #10
    1064:	06080402 	streq	r0, [r8], -r2, lsl #8
    1068:	0013054b 	andseq	r0, r3, fp, asr #10
    106c:	06080402 	streq	r0, [r8], -r2, lsl #8
    1070:	04020001 	streq	r0, [r2], #-1
    1074:	02007408 	andeq	r7, r0, #8, 8	; 0x8000000
    1078:	004a0804 	subeq	r0, sl, r4, lsl #16
    107c:	4a080402 	bmi	20208c <__ROM_SIZE+0x18208c>
    1080:	08040200 	stmdaeq	r4, {r9}
    1084:	04020020 	streq	r0, [r2], #-32	; 0xffffffe0
    1088:	10052008 	andne	r2, r5, r8
    108c:	31014703 	tstcc	r1, r3, lsl #14
    1090:	060b0531 			; <UNDEFINED> instruction: 0x060b0531
    1094:	06110536 			; <UNDEFINED> instruction: 0x06110536
    1098:	0b052e01 	bleq	14c8a4 <__ROM_SIZE+0xcc8a4>
    109c:	20100306 	andscs	r0, r0, r6, lsl #6
    10a0:	01060e05 	tsteq	r6, r5, lsl #28
    10a4:	42061005 	andmi	r1, r6, #5
    10a8:	01061305 	tsteq	r6, r5, lsl #6
    10ac:	41060d05 	tstmi	r6, r5, lsl #26
    10b0:	01064c05 	tsteq	r6, r5, lsl #24
    10b4:	053c3c05 	ldreq	r3, [ip, #-3077]!	; 0xfffff3fb
    10b8:	0402000d 	streq	r0, [r2], #-13
    10bc:	054b0608 	strbeq	r0, [fp, #-1544]	; 0xfffff9f8
    10c0:	04020038 	streq	r0, [r2], #-56	; 0xffffffc8
    10c4:	05010608 	streq	r0, [r1, #-1544]	; 0xfffff9f8
    10c8:	04020013 	streq	r0, [r2], #-19	; 0xffffffed
    10cc:	02004a08 	andeq	r4, r0, #8, 20	; 0x8000
    10d0:	00740804 	rsbseq	r0, r4, r4, lsl #16
    10d4:	3c080402 	cfstrscc	mvf0, [r8], {2}
    10d8:	08040200 	stmdaeq	r4, {r9}
    10dc:	04020058 	streq	r0, [r2], #-88	; 0xffffffa8
    10e0:	09052008 	stmdbeq	r5, {r3, sp}
    10e4:	01120306 	tsteq	r2, r6, lsl #6
    10e8:	01060f05 	tsteq	r6, r5, lsl #30
    10ec:	3d060905 	vstrcc.16	s0, [r6, #-10]	; <UNPREDICTABLE>
    10f0:	63030d05 	movwvs	r0, #15621	; 0x3d05
    10f4:	061d0520 	ldreq	r0, [sp], -r0, lsr #10
    10f8:	060d0501 	streq	r0, [sp], -r1, lsl #10
    10fc:	063d0583 	ldrteq	r0, [sp], -r3, lsl #11
    1100:	4a130501 	bmi	4c250c <__ROM_SIZE+0x44250c>
    1104:	20ac582e 	adccs	r5, ip, lr, lsr #16
    1108:	05203d05 	streq	r3, [r0, #-3333]!	; 0xfffff2fb
    110c:	054e060d 	strbeq	r0, [lr, #-1549]	; 0xfffff9f3
    1110:	05010618 	streq	r0, [r1, #-1560]	; 0xfffff9e8
    1114:	054b060d 	strbeq	r0, [fp, #-1549]	; 0xfffff9f3
    1118:	05010638 	streq	r0, [r1, #-1592]	; 0xfffff9c8
    111c:	589e4a13 	ldmpl	lr, {r0, r1, r4, r9, fp, lr}
    1120:	01810520 	orreq	r0, r1, r0, lsr #10
    1124:	02040200 	andeq	r0, r4, #0, 4
    1128:	3c710523 	cfldr64cc	mvdx0, [r1], #-140	; 0xffffff74
    112c:	053c6605 	ldreq	r6, [ip, #-1541]!	; 0xfffff9fb
    1130:	583c0181 	ldmdapl	ip!, {r0, r7, r8}
    1134:	1a060d05 	bne	184550 <__ROM_SIZE+0x104550>
    1138:	01061305 	tsteq	r6, r5, lsl #6
    113c:	20584a08 	subscs	r4, r8, r8, lsl #20
    1140:	24060d05 	strcs	r0, [r6], #-3333	; 0xfffff2fb
    1144:	01061305 	tsteq	r6, r5, lsl #6
    1148:	0520909e 	streq	r9, [r0, #-158]!	; 0xffffff62
    114c:	020001ae 	andeq	r0, r0, #-2147483605	; 0x8000002b
    1150:	05230204 	streq	r0, [r3, #-516]!	; 0xfffffdfc
    1154:	053c0195 	ldreq	r0, [ip, #-405]!	; 0xfffffe6b
    1158:	585801ae 	ldmdapl	r8, {r1, r2, r3, r5, r7, r8}^
    115c:	03060905 	movweq	r0, #26885	; 0x6905
    1160:	0c05010a 	stfeqs	f0, [r5], {10}
    1164:	09050106 	stmdbeq	r5, {r1, r2, r8}
    1168:	0f052f06 	svceq	0x00052f06
    116c:	09050106 	stmdbeq	r5, {r1, r2, r8}
    1170:	05670806 	strbeq	r0, [r7, #-2054]!	; 0xfffff7fa
    1174:	0501060f 	streq	r0, [r1, #-1551]	; 0xfffff9f1
    1178:	053d0609 	ldreq	r0, [sp, #-1545]!	; 0xfffff9f7
    117c:	0402001d 	streq	r0, [r2], #-29	; 0xffffffe3
    1180:	23051d01 	movwcs	r1, #23809	; 0x5d01
    1184:	01040200 	mrseq	r0, R12_usr
    1188:	02000106 	andeq	r0, r0, #-2147483647	; 0x80000001
    118c:	052e0104 	streq	r0, [lr, #-260]!	; 0xfffffefc
    1190:	09030609 	stmdbeq	r3, {r0, r3, r9, sl}
    1194:	060c0520 	streq	r0, [ip], -r0, lsr #10
    1198:	001d0501 	andseq	r0, sp, r1, lsl #10
    119c:	2e020402 	cdpcs	4, 0, cr0, cr2, cr2, {0}
    11a0:	02003105 	andeq	r3, r0, #1073741825	; 0x40000001
    11a4:	2e060304 	cdpcs	3, 0, cr0, cr6, cr4, {0}
    11a8:	02003705 	andeq	r3, r0, #1310720	; 0x140000
    11ac:	01060304 	tsteq	r6, r4, lsl #6
    11b0:	2f060905 	svccs	0x00060905
    11b4:	01060c05 	tsteq	r6, r5, lsl #24
    11b8:	02001d05 	andeq	r1, r0, #320	; 0x140
    11bc:	052e0204 	streq	r0, [lr, #-516]!	; 0xfffffdfc
    11c0:	04020031 	streq	r0, [r2], #-49	; 0xffffffcf
    11c4:	052e0603 	streq	r0, [lr, #-1539]!	; 0xfffff9fd
    11c8:	04020037 	streq	r0, [r2], #-55	; 0xffffffc9
    11cc:	05010603 	streq	r0, [r1, #-1539]	; 0xfffff9fd
    11d0:	052f0609 	streq	r0, [pc, #-1545]!	; bcf <__Vectors_Size+0x40f>
    11d4:	0501060f 	streq	r0, [r1, #-1551]	; 0xfffff9f1
    11d8:	67080609 	strvs	r0, [r8, -r9, lsl #12]
    11dc:	01060f05 	tsteq	r6, r5, lsl #30
    11e0:	3d060905 	vstrcc.16	s0, [r6, #-10]	; <UNPREDICTABLE>
    11e4:	0c051424 	cfstrseq	mvf1, [r5], {36}	; 0x24
    11e8:	052e0106 	streq	r0, [lr, #-262]!	; 0xfffffefa
    11ec:	09051e16 	stmdbeq	r5, {r1, r2, r4, r9, sl, fp, ip}
    11f0:	13053606 	movwne	r3, #22022	; 0x5606
    11f4:	09050106 	stmdbeq	r5, {r1, r2, r8}
    11f8:	5a062e3c 	bpl	18caf0 <__ROM_SIZE+0x10caf0>
    11fc:	01060c05 	tsteq	r6, r5, lsl #24
    1200:	25060905 	strcs	r0, [r6, #-2309]	; 0xfffff6fb
    1204:	01060f05 	tsteq	r6, r5, lsl #30
    1208:	3d060905 	vstrcc.16	s0, [r6, #-10]	; <UNPREDICTABLE>
    120c:	74030d05 	strvc	r0, [r3], #-3333	; 0xfffff2fb
    1210:	052e062e 	streq	r0, [lr, #-1582]!	; 0xfffff9d2
    1214:	0d054913 	vstreq.16	s8, [r5, #-38]	; 0xffffffda	; <UNPREDICTABLE>
    1218:	06110521 	ldreq	r0, [r1], -r1, lsr #10
    121c:	0613051f 			; <UNDEFINED> instruction: 0x0613051f
    1220:	2e110501 	cfmul32cs	mvfx0, mvfx1, mvfx1
    1224:	2b16052e 	blcs	5826e4 <__ROM_SIZE+0x5026e4>
    1228:	053c2e3c 	ldreq	r2, [ip, #-3644]!	; 0xfffff1c4
    122c:	0c03060d 	stceq	6, cr0, [r3], {13}
    1230:	05200620 	streq	r0, [r0, #-1568]!	; 0xfffff9e0
    1234:	0d054913 	vstreq.16	s8, [r5, #-38]	; 0xffffffda	; <UNPREDICTABLE>
    1238:	06110521 	ldreq	r0, [r1], -r1, lsr #10
    123c:	0613051f 			; <UNDEFINED> instruction: 0x0613051f
    1240:	2e110501 	cfmul32cs	mvfx0, mvfx1, mvfx1
    1244:	09052e2e 	stmdbeq	r5, {r1, r2, r3, r5, r9, sl, fp, sp}
    1248:	01090306 	tsteq	r9, r6, lsl #6
    124c:	01061505 	tsteq	r6, r5, lsl #10
    1250:	59060905 	stmdbpl	r6, {r0, r2, r8, fp}
    1254:	01061a05 	tsteq	r6, r5, lsl #20
    1258:	03062605 	movweq	r2, #26117	; 0x6605
    125c:	05747b90 	ldrbeq	r7, [r4, #-2960]!	; 0xfffff470
    1260:	1e050122 	adfnesp	f0, f5, f2
    1264:	11052e06 	tstne	r5, r6, lsl #28
    1268:	03052006 	movweq	r2, #20486	; 0x5006
    126c:	1e052e06 	cdpne	14, 0, cr2, cr5, cr6, {0}
    1270:	20140520 	andscs	r0, r4, r0, lsr #10
    1274:	2f060305 	svccs	0x00060305
    1278:	01061b05 	tsteq	r6, r5, lsl #22
    127c:	0609052e 	streq	r0, [r9], -lr, lsr #10
    1280:	0104f103 	tsteq	r4, r3, lsl #2	; <UNPREDICTABLE>
    1284:	01060c05 	tsteq	r6, r5, lsl #24
    1288:	4b060b05 	blmi	183ea4 <__ROM_SIZE+0x103ea4>
    128c:	01060d05 	tsteq	r6, r5, lsl #26
    1290:	3e060905 	vmlacc.f16	s0, s12, s10	; <UNPREDICTABLE>
    1294:	01060c05 	tsteq	r6, r5, lsl #24
    1298:	20202e4a 	eorcs	r2, r0, sl, asr #28
    129c:	2e1b1a05 	vnmlscs.f32	s2, s22, s10
    12a0:	060d052e 	streq	r0, [sp], -lr, lsr #10
    12a4:	052e0635 	streq	r0, [lr, #-1589]!	; 0xfffff9cb
    12a8:	0d054913 	vstreq.16	s8, [r5, #-38]	; 0xffffffda	; <UNPREDICTABLE>
    12ac:	06110521 	ldreq	r0, [r1], -r1, lsr #10
    12b0:	0613051f 			; <UNDEFINED> instruction: 0x0613051f
    12b4:	20110501 	andscs	r0, r1, r1, lsl #10
    12b8:	3c2e1305 	stccc	3, cr1, [lr], #-20	; 0xffffffec
    12bc:	25450520 	strbcs	r0, [r5, #-1312]	; 0xfffffae0
    12c0:	21060b05 	tstcs	r6, r5, lsl #22
    12c4:	01061205 	tsteq	r6, r5, lsl #4
    12c8:	202e0b05 	eorcs	r0, lr, r5, lsl #22
    12cc:	49060f05 	stmdbmi	r6, {r0, r2, r8, r9, sl, fp}
    12d0:	01061105 	tsteq	r6, r5, lsl #2
    12d4:	052e0f05 	streq	r0, [lr, #-3845]!	; 0xfffff0fb
    12d8:	0402001a 	streq	r0, [r2], #-26	; 0xffffffe6
    12dc:	45052001 	strmi	r2, [r5, #-1]
    12e0:	02040200 	andeq	r0, r4, #0, 4
    12e4:	0039052e 	eorseq	r0, r9, lr, lsr #10
    12e8:	20020402 	andcs	r0, r2, r2, lsl #8
    12ec:	05320c05 	ldreq	r0, [r2, #-3077]!	; 0xfffff3fb
    12f0:	052e0609 	streq	r0, [lr, #-1545]!	; 0xfffff9f7
    12f4:	0501060c 	streq	r0, [r1, #-1548]	; 0xfffff9f4
    12f8:	05330609 	ldreq	r0, [r3, #-1545]!	; 0xfffff9f7
    12fc:	0501060f 	streq	r0, [r1, #-1551]	; 0xfffff9f1
    1300:	063d0609 	ldrteq	r0, [sp], -r9, lsl #12
    1304:	0d052e20 	stceq	14, cr2, [r5, #-128]	; 0xffffff80
    1308:	20061c06 	andcs	r1, r6, r6, lsl #24
    130c:	05491305 	strbeq	r1, [r9, #-773]	; 0xfffffcfb
    1310:	1105210d 	tstne	r5, sp, lsl #2
    1314:	13051f06 	movwne	r1, #24326	; 0x5f06
    1318:	11050106 	tstne	r5, r6, lsl #2
    131c:	20202e2e 	eorcs	r2, r0, lr, lsr #28
    1320:	03060905 	movweq	r0, #26885	; 0x6905
    1324:	05130109 	ldreq	r0, [r3, #-265]	; 0xfffffef7
    1328:	0501060f 	streq	r0, [r1, #-1551]	; 0xfffff9f1
    132c:	13300609 	teqne	r0, #9437184	; 0x900000
    1330:	05170b05 	ldreq	r0, [r7, #-2821]	; 0xfffff4fb
    1334:	05010651 	streq	r0, [r1, #-1617]	; 0xfffff9af
    1338:	09054a11 	stmdbeq	r5, {r0, r4, r9, fp, lr}
    133c:	05160806 	ldreq	r0, [r6, #-2054]	; 0xfffff7fa
    1340:	0501060f 	streq	r0, [r1, #-1551]	; 0xfffff9f1
    1344:	063d0609 	ldrteq	r0, [sp], -r9, lsl #12
    1348:	06160620 	ldreq	r0, [r6], -r0, lsr #12
    134c:	05590620 	ldrbeq	r0, [r9, #-1568]	; 0xfffff9e0
    1350:	0501060f 	streq	r0, [r1, #-1551]	; 0xfffff9f1
    1354:	063d0609 	ldrteq	r0, [sp], -r9, lsl #12
    1358:	23062210 	movwcs	r2, #25104	; 0x6210
    135c:	4b062006 	blmi	18937c <__ROM_SIZE+0x10937c>
    1360:	01060f05 	tsteq	r6, r5, lsl #30
    1364:	3d060905 	vstrcc.16	s0, [r6, #-10]	; <UNPREDICTABLE>
    1368:	03221006 			; <UNDEFINED> instruction: 0x03221006
    136c:	05207df8 	streq	r7, [r0, #-3576]!	; 0xfffff208
    1370:	8d030603 	stchi	6, cr0, [r3, #-12]
    1374:	02002e02 	andeq	r2, r0, #2, 28
    1378:	2e060104 	adfcss	f0, f6, f4
    137c:	0402002e 	streq	r0, [r2], #-46	; 0xffffffd2
    1380:	02002004 	andeq	r2, r0, #4
    1384:	4d060404 	cfstrsmi	mvf0, [r6, #-16]
    1388:	02000105 	andeq	r0, r0, #1073741825	; 0x40000001
    138c:	13060404 	movwne	r0, #25604	; 0x6404
    1390:	04040200 	streq	r0, [r4], #-512	; 0xfffffe00
    1394:	0003024a 	andeq	r0, r3, sl, asr #4
    1398:	01050101 	tsteq	r5, r1, lsl #2
    139c:	98020500 	stmdals	r2, {r8, sl}
    13a0:	03100019 	tsteq	r0, #25
    13a4:	05010195 	streq	r0, [r1, #-405]	; 0xfffffe6b
    13a8:	11051303 	tstne	r5, r3, lsl #6
    13ac:	011c0501 	tsteq	ip, r1, lsl #10
    13b0:	05130305 	ldreq	r0, [r3, #-773]	; 0xfffffcfb
    13b4:	05010606 	streq	r0, [r1, #-1542]	; 0xfffff9fa
    13b8:	05052c01 	streq	r2, [r5, #-3073]	; 0xfffff3ff
    13bc:	01052306 	tsteq	r5, r6, lsl #6
    13c0:	01023006 	tsteq	r2, r6
    13c4:	05010100 	streq	r0, [r1, #-256]	; 0xffffff00
    13c8:	02050001 	andeq	r0, r5, #1
    13cc:	100019a4 	andne	r1, r0, r4, lsr #19
    13d0:	0106de03 	tsteq	r6, r3, lsl #28
    13d4:	03050106 	movweq	r0, #20742	; 0x5106
    13d8:	21136706 	tstcs	r3, r6, lsl #14
    13dc:	06130513 			; <UNDEFINED> instruction: 0x06130513
    13e0:	06030501 	streq	r0, [r3], -r1, lsl #10
    13e4:	01051375 	tsteq	r5, r5, ror r3
    13e8:	08021306 	stmdaeq	r2, {r1, r2, r8, r9, ip}
    13ec:	05010100 	streq	r0, [r1, #-256]	; 0xffffff00
    13f0:	02050001 	andeq	r0, r5, #1
    13f4:	00000000 	andeq	r0, r0, r0
    13f8:	0106e903 	tsteq	r6, r3, lsl #18
    13fc:	03050106 	movweq	r0, #20742	; 0x5106
    1400:	21137506 	tstcs	r3, r6, lsl #10
    1404:	01061305 	tsteq	r6, r5, lsl #6
    1408:	0603054a 	streq	r0, [r3], -sl, asr #10
    140c:	0105132f 	tsteq	r5, pc, lsr #6
    1410:	08021306 	stmdaeq	r2, {r1, r2, r8, r9, ip}
    1414:	05010100 	streq	r0, [r1, #-256]	; 0xffffff00
    1418:	02050001 	andeq	r0, r5, #1
    141c:	00000000 	andeq	r0, r0, r0
    1420:	0106f303 	tsteq	r6, r3, lsl #6	; <UNPREDICTABLE>
    1424:	03050106 	movweq	r0, #20742	; 0x5106
    1428:	21137506 	tstcs	r3, r6, lsl #10
    142c:	01061305 	tsteq	r6, r5, lsl #6
    1430:	0305202e 	movweq	r2, #20526	; 0x502e
    1434:	05132f06 	ldreq	r2, [r3, #-3846]	; 0xfffff0fa
    1438:	02130601 	andseq	r0, r3, #1048576	; 0x100000
    143c:	01010007 	tsteq	r1, r7
    1440:	05000105 	streq	r0, [r0, #-261]	; 0xfffffefb
    1444:	00000002 	andeq	r0, r0, r2
    1448:	06fd0300 	ldrbteq	r0, [sp], r0, lsl #6
    144c:	05010601 	streq	r0, [r1, #-1537]	; 0xfffff9ff
    1450:	133d0603 	teqne	sp, #3145728	; 0x300000
    1454:	01060a05 	tsteq	r6, r5, lsl #20
    1458:	0105204a 	tsteq	r5, sl, asr #32
    145c:	0006022f 	andeq	r0, r6, pc, lsr #4
    1460:	01050101 	tsteq	r5, r1, lsl #2
    1464:	00020500 	andeq	r0, r2, r0, lsl #10
    1468:	03000000 	movweq	r0, #0
    146c:	06010784 	streq	r0, [r1], -r4, lsl #15
    1470:	06030501 	streq	r0, [r3], -r1, lsl #10
    1474:	060a052f 	streq	r0, [sl], -pc, lsr #10
    1478:	20202e01 	eorcs	r2, r0, r1, lsl #28
    147c:	2f010520 	svccs	0x00010520
    1480:	01000502 	tsteq	r0, r2, lsl #10
    1484:	00010501 	andeq	r0, r1, r1, lsl #10
    1488:	00000205 	andeq	r0, r0, r5, lsl #4
    148c:	8a030000 	bhi	c1494 <__ROM_SIZE+0x41494>
    1490:	01060107 	tsteq	r6, r7, lsl #2
    1494:	67060305 	strvs	r0, [r6, -r5, lsl #6]
    1498:	1b052113 	blne	1498ec <__ROM_SIZE+0xc98ec>
    149c:	03050106 	movweq	r0, #20742	; 0x5106
    14a0:	13052f06 	movwne	r2, #24326	; 0x5f06
    14a4:	05580106 	ldrbeq	r0, [r8, #-262]	; 0xfffffefa
    14a8:	132f0603 			; <UNDEFINED> instruction: 0x132f0603
    14ac:	13060105 	movwne	r0, #24837	; 0x6105
    14b0:	01000802 	tsteq	r0, r2, lsl #16
    14b4:	0001cf01 	andeq	ip, r1, r1, lsl #30
    14b8:	5d000300 	stcpl	3, cr0, [r0, #-0]
    14bc:	02000001 	andeq	r0, r0, #1
    14c0:	0d0efb01 	vstreq	d15, [lr, #-4]
    14c4:	01010100 	mrseq	r0, (UNDEF: 17)
    14c8:	00000001 	andeq	r0, r0, r1
    14cc:	01000001 	tsteq	r0, r1
    14d0:	432f2e2e 			; <UNDEFINED> instruction: 0x432f2e2e
    14d4:	2f65726f 	svccs	0x0065726f
    14d8:	00637253 	rsbeq	r7, r3, r3, asr r2
    14dc:	755c3a63 	ldrbvc	r3, [ip, #-2659]	; 0xfffff59d
    14e0:	73726573 	cmnvc	r2, #482344960	; 0x1cc00000
    14e4:	6469785c 	strbtvs	r7, [r9], #-2140	; 0xfffff7a4
    14e8:	705c6e6f 	subsvc	r6, ip, pc, ror #28
    14ec:	72676f72 	rsbvc	r6, r7, #456	; 0x1c8
    14f0:	615c6d61 	cmpvs	ip, r1, ror #26
    14f4:	675f6d72 			; <UNDEFINED> instruction: 0x675f6d72
    14f8:	675c6363 	ldrbvs	r6, [ip, -r3, ror #6]
    14fc:	612d6363 			; <UNDEFINED> instruction: 0x612d6363
    1500:	6e2d6d72 	mcrvs	13, 1, r6, cr13, cr2, {3}
    1504:	2d656e6f 	stclcs	14, cr6, [r5, #-444]!	; 0xfffffe44
    1508:	69626165 	stmdbvs	r2!, {r0, r2, r5, r6, r8, sp, lr}^
    150c:	2e30312d 	rsfcssp	f3, f0, #5.0
    1510:	30322d33 	eorscc	r2, r2, r3, lsr sp
    1514:	312e3132 			; <UNDEFINED> instruction: 0x312e3132
    1518:	72615c30 	rsbvc	r5, r1, #48, 24	; 0x3000
    151c:	6f6e2d6d 	svcvs	0x006e2d6d
    1520:	652d656e 	strvs	r6, [sp, #-1390]!	; 0xfffffa92
    1524:	5c696261 	sfmpl	f6, 2, [r9], #-388	; 0xfffffe7c
    1528:	6c636e69 	stclvs	14, cr6, [r3], #-420	; 0xfffffe5c
    152c:	5c656475 	cfstrdpl	mvd6, [r5], #-468	; 0xfffffe2c
    1530:	6863616d 	stmdavs	r3!, {r0, r2, r3, r5, r6, r8, sp, lr}^
    1534:	00656e69 	rsbeq	r6, r5, r9, ror #28
    1538:	755c3a63 	ldrbvc	r3, [ip, #-2659]	; 0xfffff59d
    153c:	73726573 	cmnvc	r2, #482344960	; 0x1cc00000
    1540:	6469785c 	strbtvs	r7, [r9], #-2140	; 0xfffff7a4
    1544:	705c6e6f 	subsvc	r6, ip, pc, ror #28
    1548:	72676f72 	rsbvc	r6, r7, #456	; 0x1c8
    154c:	615c6d61 	cmpvs	ip, r1, ror #26
    1550:	675f6d72 			; <UNDEFINED> instruction: 0x675f6d72
    1554:	675c6363 	ldrbvs	r6, [ip, -r3, ror #6]
    1558:	612d6363 			; <UNDEFINED> instruction: 0x612d6363
    155c:	6e2d6d72 	mcrvs	13, 1, r6, cr13, cr2, {3}
    1560:	2d656e6f 	stclcs	14, cr6, [r5, #-444]!	; 0xfffffe44
    1564:	69626165 	stmdbvs	r2!, {r0, r2, r5, r6, r8, sp, lr}^
    1568:	2e30312d 	rsfcssp	f3, f0, #5.0
    156c:	30322d33 	eorscc	r2, r2, r3, lsr sp
    1570:	312e3132 			; <UNDEFINED> instruction: 0x312e3132
    1574:	72615c30 	rsbvc	r5, r1, #48, 24	; 0x3000
    1578:	6f6e2d6d 	svcvs	0x006e2d6d
    157c:	652d656e 	strvs	r6, [sp, #-1390]!	; 0xfffffa92
    1580:	5c696261 	sfmpl	f6, 2, [r9], #-388	; 0xfffffe7c
    1584:	6c636e69 	stclvs	14, cr6, [r3], #-420	; 0xfffffe5c
    1588:	5c656475 	cfstrdpl	mvd6, [r5], #-468	; 0xfffffe2c
    158c:	00737973 	rsbseq	r7, r3, r3, ror r9
    1590:	755c3a63 	ldrbvc	r3, [ip, #-2659]	; 0xfffff59d
    1594:	73726573 	cmnvc	r2, #482344960	; 0x1cc00000
    1598:	6469785c 	strbtvs	r7, [r9], #-2140	; 0xfffff7a4
    159c:	705c6e6f 	subsvc	r6, ip, pc, ror #28
    15a0:	72676f72 	rsbvc	r6, r7, #456	; 0x1c8
    15a4:	615c6d61 	cmpvs	ip, r1, ror #26
    15a8:	675f6d72 			; <UNDEFINED> instruction: 0x675f6d72
    15ac:	675c6363 	ldrbvs	r6, [ip, -r3, ror #6]
    15b0:	612d6363 			; <UNDEFINED> instruction: 0x612d6363
    15b4:	6e2d6d72 	mcrvs	13, 1, r6, cr13, cr2, {3}
    15b8:	2d656e6f 	stclcs	14, cr6, [r5, #-444]!	; 0xfffffe44
    15bc:	69626165 	stmdbvs	r2!, {r0, r2, r5, r6, r8, sp, lr}^
    15c0:	2e30312d 	rsfcssp	f3, f0, #5.0
    15c4:	30322d33 	eorscc	r2, r2, r3, lsr sp
    15c8:	312e3132 			; <UNDEFINED> instruction: 0x312e3132
    15cc:	72615c30 	rsbvc	r5, r1, #48, 24	; 0x3000
    15d0:	6f6e2d6d 	svcvs	0x006e2d6d
    15d4:	652d656e 	strvs	r6, [sp, #-1390]!	; 0xfffffa92
    15d8:	5c696261 	sfmpl	f6, 2, [r9], #-388	; 0xfffffe7c
    15dc:	6c636e69 	stclvs	14, cr6, [r3], #-420	; 0xfffffe5c
    15e0:	00656475 	rsbeq	r6, r5, r5, ror r4
    15e4:	72617500 	rsbvc	r7, r1, #0, 10
    15e8:	00632e74 	rsbeq	r2, r3, r4, ror lr
    15ec:	5f000001 	svcpl	0x00000001
    15f0:	61666564 	cmnvs	r6, r4, ror #10
    15f4:	5f746c75 	svcpl	0x00746c75
    15f8:	65707974 	ldrbvs	r7, [r0, #-2420]!	; 0xfffff68c
    15fc:	00682e73 	rsbeq	r2, r8, r3, ror lr
    1600:	5f000002 	svcpl	0x00000002
    1604:	69647473 	stmdbvs	r4!, {r0, r1, r4, r5, r6, sl, ip, sp, lr}^
    1608:	682e746e 	stmdavs	lr!, {r1, r2, r3, r5, r6, sl, ip, sp, lr}
    160c:	00000300 	andeq	r0, r0, r0, lsl #6
    1610:	69647473 	stmdbvs	r4!, {r0, r1, r4, r5, r6, sl, ip, sp, lr}^
    1614:	00682e6f 	rsbeq	r2, r8, pc, ror #28
    1618:	00000004 	andeq	r0, r0, r4
    161c:	05001305 	streq	r1, [r0, #-773]	; 0xfffffcfb
    1620:	0019d002 	andseq	sp, r9, r2
    1624:	01180310 	tsteq	r8, r0, lsl r3
    1628:	05130505 	ldreq	r0, [r3, #-1285]	; 0xfffffafb
    162c:	05010619 	streq	r0, [r1, #-1561]	; 0xfffff9e7
    1630:	052f0605 	streq	r0, [pc, #-1541]!	; 1033 <__HEAP_SIZE+0x33>
    1634:	02130601 	andseq	r0, r3, #1048576	; 0x100000
    1638:	01010004 	tsteq	r1, r4
    163c:	05001605 	streq	r1, [r0, #-1541]	; 0xfffff9fb
    1640:	0019dc02 	andseq	sp, r9, r2, lsl #24
    1644:	011d0310 	tsteq	sp, r0, lsl r3
    1648:	05130505 	ldreq	r0, [r3, #-1285]	; 0xfffffafb
    164c:	0501061b 	streq	r0, [r1, #-1563]	; 0xfffff9e5
    1650:	03023d01 	movweq	r3, #11521	; 0x2d01
    1654:	05010100 	streq	r0, [r1, #-256]	; 0xffffff00
    1658:	02050024 	andeq	r0, r5, #36	; 0x24
    165c:	00000000 	andeq	r0, r0, r0
    1660:	06012103 	streq	r2, [r1], -r3, lsl #2
    1664:	06050501 	streq	r0, [r5], -r1, lsl #10
    1668:	060b052f 	streq	r0, [fp], -pc, lsr #10
    166c:	06090501 	streq	r0, [r9], -r1, lsl #10
    1670:	0f052f21 	svceq	0x00052f21
    1674:	0b050106 	bleq	141a94 <__ROM_SIZE+0xc1a94>
    1678:	0c051e06 	stceq	14, cr1, [r5], {6}
    167c:	0b050106 	bleq	141a9c <__ROM_SIZE+0xc1a9c>
    1680:	32010520 	andcc	r0, r1, #32, 10	; 0x8000000
    1684:	01010020 	tsteq	r1, r0, lsr #32
    1688:	000004a8 	andeq	r0, r0, r8, lsr #9
    168c:	01ec0003 	mvneq	r0, r3
    1690:	01020000 	mrseq	r0, (UNDEF: 2)
    1694:	000d0efb 	strdeq	r0, [sp], -fp
    1698:	01010101 	tsteq	r1, r1, lsl #2
    169c:	01000000 	mrseq	r0, (UNDEF: 0)
    16a0:	2e010000 	cdpcs	0, 0, cr0, cr1, cr0, {0}
    16a4:	2e2e2f2e 	cdpcs	15, 2, cr2, cr14, cr14, {1}
    16a8:	2f2e2e2f 	svccs	0x002e2e2f
    16ac:	7562696c 	strbvc	r6, [r2, #-2412]!	; 0xfffff694
    16b0:	736c6974 	cmnvc	ip, #116, 18	; 0x1d0000
    16b4:	7561662f 	strbvc	r6, [r1, #-1583]!	; 0xfffff9d1
    16b8:	642d746c 	strtvs	r7, [sp], #-1132	; 0xfffffb94
    16bc:	2f706d75 	svccs	0x00706d75
    16c0:	00637273 	rsbeq	r7, r3, r3, ror r2
    16c4:	442f2e2e 	strtmi	r2, [pc], #-3630	; 16cc <__HEAP_SIZE+0x6cc>
    16c8:	65766972 	ldrbvs	r6, [r6, #-2418]!	; 0xfffff68e
    16cc:	432f7372 			; <UNDEFINED> instruction: 0x432f7372
    16d0:	5349534d 	movtpl	r5, #37709	; 0x934d
    16d4:	432f355f 			; <UNDEFINED> instruction: 0x432f355f
    16d8:	5349534d 	movtpl	r5, #37709	; 0x934d
    16dc:	726f432f 	rsbvc	r4, pc, #-1140850688	; 0xbc000000
    16e0:	6e492f65 	cdpvs	15, 4, cr2, cr9, cr5, {3}
    16e4:	64756c63 	ldrbtvs	r6, [r5], #-3171	; 0xfffff39d
    16e8:	3a630065 	bcc	18c1884 <__ROM_SIZE+0x1841884>
    16ec:	6573755c 	ldrbvs	r7, [r3, #-1372]!	; 0xfffffaa4
    16f0:	785c7372 	ldmdavc	ip, {r1, r4, r5, r6, r8, r9, ip, sp, lr}^
    16f4:	6e6f6469 	cdpvs	4, 6, cr6, cr15, cr9, {3}
    16f8:	6f72705c 	svcvs	0x0072705c
    16fc:	6d617267 	sfmvs	f7, 2, [r1, #-412]!	; 0xfffffe64
    1700:	6d72615c 	ldfvse	f6, [r2, #-368]!	; 0xfffffe90
    1704:	6363675f 	cmnvs	r3, #24903680	; 0x17c0000
    1708:	6363675c 	cmnvs	r3, #92, 14	; 0x1700000
    170c:	6d72612d 	ldfvse	f6, [r2, #-180]!	; 0xffffff4c
    1710:	6e6f6e2d 	cdpvs	14, 6, cr6, cr15, cr13, {1}
    1714:	61652d65 	cmnvs	r5, r5, ror #26
    1718:	312d6962 			; <UNDEFINED> instruction: 0x312d6962
    171c:	2d332e30 	ldccs	14, cr2, [r3, #-192]!	; 0xffffff40
    1720:	31323032 	teqcc	r2, r2, lsr r0
    1724:	5c30312e 	ldfpls	f3, [r0], #-184	; 0xffffff48
    1728:	2d6d7261 	sfmcs	f7, 2, [sp, #-388]!	; 0xfffffe7c
    172c:	656e6f6e 	strbvs	r6, [lr, #-3950]!	; 0xfffff092
    1730:	6261652d 	rsbvs	r6, r1, #188743680	; 0xb400000
    1734:	6e695c69 	cdpvs	12, 6, cr5, cr9, cr9, {3}
    1738:	64756c63 	ldrbtvs	r6, [r5], #-3171	; 0xfffff39d
    173c:	616d5c65 	cmnvs	sp, r5, ror #24
    1740:	6e696863 	cdpvs	8, 6, cr6, cr9, cr3, {3}
    1744:	3a630065 	bcc	18c18e0 <__ROM_SIZE+0x18418e0>
    1748:	6573755c 	ldrbvs	r7, [r3, #-1372]!	; 0xfffffaa4
    174c:	785c7372 	ldmdavc	ip, {r1, r4, r5, r6, r8, r9, ip, sp, lr}^
    1750:	6e6f6469 	cdpvs	4, 6, cr6, cr15, cr9, {3}
    1754:	6f72705c 	svcvs	0x0072705c
    1758:	6d617267 	sfmvs	f7, 2, [r1, #-412]!	; 0xfffffe64
    175c:	6d72615c 	ldfvse	f6, [r2, #-368]!	; 0xfffffe90
    1760:	6363675f 	cmnvs	r3, #24903680	; 0x17c0000
    1764:	6363675c 	cmnvs	r3, #92, 14	; 0x1700000
    1768:	6d72612d 	ldfvse	f6, [r2, #-180]!	; 0xffffff4c
    176c:	6e6f6e2d 	cdpvs	14, 6, cr6, cr15, cr13, {1}
    1770:	61652d65 	cmnvs	r5, r5, ror #26
    1774:	312d6962 			; <UNDEFINED> instruction: 0x312d6962
    1778:	2d332e30 	ldccs	14, cr2, [r3, #-192]!	; 0xffffff40
    177c:	31323032 	teqcc	r2, r2, lsr r0
    1780:	5c30312e 	ldfpls	f3, [r0], #-184	; 0xffffff48
    1784:	2d6d7261 	sfmcs	f7, 2, [sp, #-388]!	; 0xfffffe7c
    1788:	656e6f6e 	strbvs	r6, [lr, #-3950]!	; 0xfffff092
    178c:	6261652d 	rsbvs	r6, r1, #188743680	; 0xb400000
    1790:	6e695c69 	cdpvs	12, 6, cr5, cr9, cr9, {3}
    1794:	64756c63 	ldrbtvs	r6, [r5], #-3171	; 0xfffff39d
    1798:	79735c65 	ldmdbvc	r3!, {r0, r2, r5, r6, sl, fp, ip, lr}^
    179c:	2e2e0073 	mcrcs	0, 1, r0, cr14, cr3, {3}
    17a0:	2f2e2e2f 	svccs	0x002e2e2f
    17a4:	6c2f2e2e 	stcvs	14, cr2, [pc], #-184	; 16f4 <__HEAP_SIZE+0x6f4>
    17a8:	74756269 	ldrbtvc	r6, [r5], #-617	; 0xfffffd97
    17ac:	2f736c69 	svccs	0x00736c69
    17b0:	6c756166 	ldfvse	f6, [r5], #-408	; 0xfffffe68
    17b4:	75642d74 	strbvc	r2, [r4, #-3444]!	; 0xfffff28c
    17b8:	692f706d 	stmdbvs	pc!, {r0, r2, r3, r5, r6, ip, sp, lr}	; <UNPREDICTABLE>
    17bc:	6300636e 	movwvs	r6, #878	; 0x36e
    17c0:	73755c3a 	cmnvc	r5, #14848	; 0x3a00
    17c4:	5c737265 	lfmpl	f7, 2, [r3], #-404	; 0xfffffe6c
    17c8:	6f646978 	svcvs	0x00646978
    17cc:	72705c6e 	rsbsvc	r5, r0, #28160	; 0x6e00
    17d0:	6172676f 	cmnvs	r2, pc, ror #14
    17d4:	72615c6d 	rsbvc	r5, r1, #27904	; 0x6d00
    17d8:	63675f6d 	cmnvs	r7, #436	; 0x1b4
    17dc:	63675c63 	cmnvs	r7, #25344	; 0x6300
    17e0:	72612d63 	rsbvc	r2, r1, #6336	; 0x18c0
    17e4:	6f6e2d6d 	svcvs	0x006e2d6d
    17e8:	652d656e 	strvs	r6, [sp, #-1390]!	; 0xfffffa92
    17ec:	2d696261 	sfmcs	f6, 2, [r9, #-388]!	; 0xfffffe7c
    17f0:	332e3031 			; <UNDEFINED> instruction: 0x332e3031
    17f4:	3230322d 	eorscc	r3, r0, #-805306366	; 0xd0000002
    17f8:	30312e31 	eorscc	r2, r1, r1, lsr lr
    17fc:	6d72615c 	ldfvse	f6, [r2, #-368]!	; 0xfffffe90
    1800:	6e6f6e2d 	cdpvs	14, 6, cr6, cr15, cr13, {1}
    1804:	61652d65 	cmnvs	r5, r5, ror #26
    1808:	695c6962 	ldmdbvs	ip, {r1, r5, r6, r8, fp, sp, lr}^
    180c:	756c636e 	strbvc	r6, [ip, #-878]!	; 0xfffffc92
    1810:	00006564 	andeq	r6, r0, r4, ror #10
    1814:	6c756166 	ldfvse	f6, [r5], #-408	; 0xfffffe68
    1818:	75642d74 	strbvc	r2, [r4, #-3444]!	; 0xfffff28c
    181c:	632e706d 			; <UNDEFINED> instruction: 0x632e706d
    1820:	00000100 	andeq	r0, r0, r0, lsl #2
    1824:	69736d63 	ldmdbvs	r3!, {r0, r1, r5, r6, r8, sl, fp, sp, lr}^
    1828:	63675f73 	cmnvs	r7, #460	; 0x1cc
    182c:	00682e63 	rsbeq	r2, r8, r3, ror #28
    1830:	5f000002 	svcpl	0x00000002
    1834:	61666564 	cmnvs	r6, r4, ror #10
    1838:	5f746c75 	svcpl	0x00746c75
    183c:	65707974 	ldrbvs	r7, [r0, #-2420]!	; 0xfffff68c
    1840:	00682e73 	rsbeq	r2, r8, r3, ror lr
    1844:	5f000003 	svcpl	0x00000003
    1848:	69647473 	stmdbvs	r4!, {r0, r1, r4, r5, r6, sl, ip, sp, lr}^
    184c:	682e746e 	stmdavs	lr!, {r1, r2, r3, r5, r6, sl, ip, sp, lr}
    1850:	00000400 	andeq	r0, r0, r0, lsl #8
    1854:	6c756166 	ldfvse	f6, [r5], #-408	; 0xfffffe68
    1858:	75642d74 	strbvc	r2, [r4, #-3444]!	; 0xfffff28c
    185c:	682e706d 	stmdavs	lr!, {r0, r2, r3, r5, r6, ip, sp, lr}
    1860:	00000500 	andeq	r0, r0, r0, lsl #10
    1864:	69647473 	stmdbvs	r4!, {r0, r1, r4, r5, r6, sl, ip, sp, lr}^
    1868:	00682e6f 	rsbeq	r2, r8, pc, ror #28
    186c:	3c000006 	stccc	0, cr0, [r0], {6}
    1870:	6c697562 	cfstr64vs	mvdx7, [r9], #-392	; 0xfffffe78
    1874:	6e692d74 	mcrvs	13, 3, r2, cr9, cr4, {3}
    1878:	0000003e 	andeq	r0, r0, lr, lsr r0
    187c:	38050000 	stmdacc	r5, {}	; <UNPREDICTABLE>
    1880:	e8020500 	stmda	r2, {r8, sl}
    1884:	03100019 	tsteq	r0, #25
    1888:	060100cc 	streq	r0, [r1], -ip, asr #1
    188c:	06050501 	streq	r0, [r5], -r1, lsl #10
    1890:	060e0521 	streq	r0, [lr], -r1, lsr #10
    1894:	06050501 	streq	r0, [r5], -r1, lsl #10
    1898:	0a05132f 	beq	14655c <__ROM_SIZE+0xc655c>
    189c:	06050501 	streq	r0, [r5], -r1, lsl #10
    18a0:	00090501 	andeq	r0, r9, r1, lsl #10
    18a4:	06030402 	streq	r0, [r3], -r2, lsl #8
    18a8:	00140521 	andseq	r0, r4, r1, lsr #10
    18ac:	06030402 	streq	r0, [r3], -r2, lsl #8
    18b0:	00120501 	andseq	r0, r2, r1, lsl #10
    18b4:	2e030402 	cdpcs	4, 0, cr0, cr3, cr2, {0}
    18b8:	02003d05 	andeq	r3, r0, #320	; 0x140
    18bc:	57060304 	strpl	r0, [r6, -r4, lsl #6]
    18c0:	02003e05 	andeq	r3, r0, #5, 28	; 0x50
    18c4:	01060304 	tsteq	r6, r4, lsl #6
    18c8:	02001505 	andeq	r1, r0, #20971520	; 0x1400000
    18cc:	20060104 	andcs	r0, r6, r4, lsl #2
    18d0:	02000505 	andeq	r0, r0, #20971520	; 0x1400000
    18d4:	01060104 	tsteq	r6, r4, lsl #2
    18d8:	22053106 	andcs	r3, r5, #-2147483647	; 0x80000001
    18dc:	052f0106 	streq	r0, [pc, #-262]!	; 17de <__HEAP_SIZE+0x7de>
    18e0:	052f0605 	streq	r0, [pc, #-1541]!	; 12e3 <__HEAP_SIZE+0x2e3>
    18e4:	2e130601 	cfmsub32cs	mvax0, mvfx0, mvfx3, mvfx1
    18e8:	01000202 	tsteq	r0, r2, lsl #4
    18ec:	00330501 	eorseq	r0, r3, r1, lsl #10
    18f0:	1a140205 	bne	50210c <__ROM_SIZE+0x48210c>
    18f4:	d7031000 	strle	r1, [r3, -r0]
    18f8:	05050100 	streq	r0, [r5, #-256]	; 0xffffff00
    18fc:	060e0516 			; <UNDEFINED> instruction: 0x060e0516
    1900:	06050501 	streq	r0, [r5], -r1, lsl #10
    1904:	0632052f 	ldrteq	r0, [r2], -pc, lsr #10
    1908:	200e0501 	andcs	r0, lr, r1, lsl #10
    190c:	2f060505 	svccs	0x00060505
    1910:	01060805 	tsteq	r6, r5, lsl #16
    1914:	02002605 	andeq	r2, r0, #5242880	; 0x500000
    1918:	053c0104 	ldreq	r0, [ip, #-260]!	; 0xfffffefc
    191c:	053f0605 	ldreq	r0, [pc, #-1541]!	; 131f <__HEAP_SIZE+0x31f>
    1920:	05010608 	streq	r0, [r1, #-1544]	; 0xfffff9f8
    1924:	04020026 	streq	r0, [r2], #-38	; 0xffffffda
    1928:	0c053c01 	stceq	12, cr3, [r5], {1}
    192c:	1005203f 	andne	r2, r5, pc, lsr r0
    1930:	2020201b 	eorcs	r2, r0, fp, lsl r0
    1934:	05202023 	streq	r2, [r0, #-35]!	; 0xffffffdd
    1938:	01022301 	tsteq	r2, r1, lsl #6
    193c:	05010100 	streq	r0, [r1, #-256]	; 0xffffff00
    1940:	02050025 	andeq	r0, r5, #37	; 0x25
    1944:	00000000 	andeq	r0, r0, r0
    1948:	0101b703 	tsteq	r1, r3, lsl #14
    194c:	13130505 	tstne	r3, #20971520	; 0x1400000
    1950:	1f050204 	svcne	0x00050204
    1954:	01069103 	tsteq	r6, r3, lsl #2
    1958:	14140305 	ldrne	r0, [r4], #-773	; 0xfffffcfb
    195c:	0401062f 	streq	r0, [r1], #-1583	; 0xfffff9d1
    1960:	06050501 	streq	r0, [r5], -r1, lsl #10
    1964:	0179eb03 	cmneq	r9, r3, lsl #22
    1968:	01063c05 	tsteq	r6, r5, lsl #24
    196c:	1f050204 	svcne	0x00050204
    1970:	06f20306 	ldrbteq	r0, [r2], r6, lsl #6
    1974:	1403053c 	strne	r0, [r3], #-1340	; 0xfffffac4
    1978:	01062f14 	tsteq	r6, r4, lsl pc
    197c:	03061f05 	movweq	r1, #28421	; 0x6f05
    1980:	03052031 	movweq	r2, #20529	; 0x5031
    1984:	062f1414 			; <UNDEFINED> instruction: 0x062f1414
    1988:	05010401 	streq	r0, [r1, #-1025]	; 0xfffffbff
    198c:	78d40301 	ldmvc	r4, {r0, r8, r9}^
    1990:	00010201 	andeq	r0, r1, r1, lsl #4
    1994:	1c050101 	stfnes	f0, [r5], {1}
    1998:	00020500 	andeq	r0, r2, r0, lsl #10
    199c:	03000000 	movweq	r0, #0
    19a0:	050100c1 	streq	r0, [r1, #-193]	; 0xffffff3f
    19a4:	673d2105 	ldrvs	r2, [sp, -r5, lsl #2]!
    19a8:	593d5959 	ldmdbpl	sp!, {r0, r3, r4, r6, r8, fp, ip, lr}
    19ac:	06010559 			; <UNDEFINED> instruction: 0x06010559
    19b0:	0015024b 	andseq	r0, r5, fp, asr #4
    19b4:	43050101 	movwmi	r0, #20737	; 0x5101
    19b8:	4c020500 	cfstr32mi	mvfx0, [r2], {-0}
    19bc:	0310001a 	tsteq	r0, #26
    19c0:	060100e6 	streq	r0, [r1], -r6, ror #1
    19c4:	06050501 	streq	r0, [r5], -r1, lsl #10
    19c8:	1313133d 	tstne	r3, #-201326592	; 0xf4000000
    19cc:	1d051413 	cfstrsne	mvf1, [r5, #-76]	; 0xffffffb4
    19d0:	16050106 	strne	r0, [r5], -r6, lsl #2
    19d4:	06050520 	streq	r0, [r5], -r0, lsr #10
    19d8:	0616052f 	ldreq	r0, [r6], -pc, lsr #10
    19dc:	06050501 	streq	r0, [r5], -r1, lsl #10
    19e0:	0616052f 	ldreq	r0, [r6], -pc, lsr #10
    19e4:	06050501 	streq	r0, [r5], -r1, lsl #10
    19e8:	0616052f 	ldreq	r0, [r6], -pc, lsr #10
    19ec:	06050501 	streq	r0, [r5], -r1, lsl #10
    19f0:	0616052f 	ldreq	r0, [r6], -pc, lsr #10
    19f4:	06050501 	streq	r0, [r5], -r1, lsl #10
    19f8:	0616052f 	ldreq	r0, [r6], -pc, lsr #10
    19fc:	06050501 	streq	r0, [r5], -r1, lsl #10
    1a00:	0616052f 	ldreq	r0, [r6], -pc, lsr #10
    1a04:	06050501 	streq	r0, [r5], -r1, lsl #10
    1a08:	0616052f 	ldreq	r0, [r6], -pc, lsr #10
    1a0c:	06050501 	streq	r0, [r5], -r1, lsl #10
    1a10:	0616052f 	ldreq	r0, [r6], -pc, lsr #10
    1a14:	06050501 	streq	r0, [r5], -r1, lsl #10
    1a18:	0616052f 	ldreq	r0, [r6], -pc, lsr #10
    1a1c:	06050501 	streq	r0, [r5], -r1, lsl #10
    1a20:	0616052f 	ldreq	r0, [r6], -pc, lsr #10
    1a24:	06050501 	streq	r0, [r5], -r1, lsl #10
    1a28:	0616052f 	ldreq	r0, [r6], -pc, lsr #10
    1a2c:	06050501 	streq	r0, [r5], -r1, lsl #10
    1a30:	0616052f 	ldreq	r0, [r6], -pc, lsr #10
    1a34:	06050501 	streq	r0, [r5], -r1, lsl #10
    1a38:	0616052f 	ldreq	r0, [r6], -pc, lsr #10
    1a3c:	06050501 	streq	r0, [r5], -r1, lsl #10
    1a40:	0616052f 	ldreq	r0, [r6], -pc, lsr #10
    1a44:	06050501 	streq	r0, [r5], -r1, lsl #10
    1a48:	0616052f 	ldreq	r0, [r6], -pc, lsr #10
    1a4c:	06050501 	streq	r0, [r5], -r1, lsl #10
    1a50:	062e0630 			; <UNDEFINED> instruction: 0x062e0630
    1a54:	4b3d3d2f 	blmi	f50f18 <__ROM_SIZE+0xed0f18>
    1a58:	4b4b4b4b 	blmi	12d478c <__ROM_SIZE+0x125478c>
    1a5c:	4b4b4b4b 	blmi	12d4790 <__ROM_SIZE+0x1254790>
    1a60:	4b4b4b4b 	blmi	12d4794 <__ROM_SIZE+0x1254794>
    1a64:	3d4b4b4b 	vstrcc	d20, [fp, #-300]	; 0xfffffed4
    1a68:	0616054c 	ldreq	r0, [r6], -ip, asr #10
    1a6c:	20390501 	eorscs	r0, r9, r1, lsl #10
    1a70:	052e1305 	streq	r1, [lr, #-773]!	; 0xfffffcfb
    1a74:	68210605 	stmdavs	r1!, {r0, r2, r9, sl}
    1a78:	010a053d 	tsteq	sl, sp, lsr r5
    1a7c:	01060e05 	tsteq	r6, r5, lsl #28
    1a80:	05200505 	streq	r0, [r0, #-1285]!	; 0xfffffafb
    1a84:	04020053 	streq	r0, [r2], #-83	; 0xffffffad
    1a88:	05200602 	streq	r0, [r0, #-1538]!	; 0xfffff9fe
    1a8c:	04020057 	streq	r0, [r2], #-87	; 0xffffffa9
    1a90:	05010602 	streq	r0, [r1, #-1538]	; 0xfffff9fe
    1a94:	04020024 	streq	r0, [r2], #-36	; 0xffffffdc
    1a98:	05200601 	streq	r0, [r0, #-1537]!	; 0xfffff9ff
    1a9c:	04020005 	streq	r0, [r2], #-5
    1aa0:	05010601 	streq	r0, [r1, #-1537]	; 0xfffff9ff
    1aa4:	053d0609 	ldreq	r0, [sp, #-1545]!	; 0xfffff9f7
    1aa8:	0501060c 	streq	r0, [r1, #-1548]	; 0xfffff9f4
    1aac:	05300609 	ldreq	r0, [r0, #-1545]!	; 0xfffff9f7
    1ab0:	05010613 	streq	r0, [r1, #-1555]	; 0xfffff9ed
    1ab4:	2f05200c 	svccs	0x0005200c
    1ab8:	01040200 	mrseq	r0, R12_usr
    1abc:	0026052e 	eoreq	r0, r6, lr, lsr #10
    1ac0:	20010402 	andcs	r0, r1, r2, lsl #8
    1ac4:	32060905 	andcc	r0, r6, #81920	; 0x14000
    1ac8:	01060c05 	tsteq	r6, r5, lsl #24
    1acc:	40060905 	andmi	r0, r6, r5, lsl #18
    1ad0:	060c0514 			; <UNDEFINED> instruction: 0x060c0514
    1ad4:	06090501 	streq	r0, [r9], -r1, lsl #10
    1ad8:	060c0530 			; <UNDEFINED> instruction: 0x060c0530
    1adc:	06090501 	streq	r0, [r9], -r1, lsl #10
    1ae0:	060e0524 	streq	r0, [lr], -r4, lsr #10
    1ae4:	06090501 	streq	r0, [r9], -r1, lsl #10
    1ae8:	060e053e 			; <UNDEFINED> instruction: 0x060e053e
    1aec:	2e0c0501 	cfsh32cs	mvfx0, mvfx12, #1
    1af0:	32060905 	andcc	r0, r6, #81920	; 0x14000
    1af4:	05055806 	streq	r5, [r5, #-2054]	; 0xfffff7fa
    1af8:	02001406 	andeq	r1, r0, #100663296	; 0x6000000
    1afc:	053d0104 	ldreq	r0, [sp, #-260]!	; 0xfffffefc
    1b00:	0402000d 	streq	r0, [r2], #-13
    1b04:	0a050101 	beq	141f10 <__ROM_SIZE+0xc1f10>
    1b08:	01040200 	mrseq	r0, R12_usr
    1b0c:	00390201 	eorseq	r0, r9, r1, lsl #4
    1b10:	20050101 	andcs	r0, r5, r1, lsl #2
    1b14:	00020500 	andeq	r0, r2, r0, lsl #10
    1b18:	03000000 	movweq	r0, #0
    1b1c:	050101bd 	streq	r0, [r1, #-445]	; 0xfffffe43
    1b20:	13052105 	movwne	r2, #20741	; 0x5105
    1b24:	05050106 	streq	r0, [r5, #-262]	; 0xfffffefa
    1b28:	20063d06 	andcs	r3, r6, r6, lsl #26
    1b2c:	022f0105 	eoreq	r0, pc, #1073741825	; 0x40000001
    1b30:	01010003 	tsteq	r1, r3
    1b34:	00000074 	andeq	r0, r0, r4, ror r0
    1b38:	00280003 	eoreq	r0, r8, r3
    1b3c:	01020000 	mrseq	r0, (UNDEF: 2)
    1b40:	000d0efb 	strdeq	r0, [sp], -fp
    1b44:	01010101 	tsteq	r1, r1, lsl #2
    1b48:	01000000 	mrseq	r0, (UNDEF: 0)
    1b4c:	00010000 	andeq	r0, r1, r0
    1b50:	72617473 	rsbvc	r7, r1, #1929379840	; 0x73000000
    1b54:	5f707574 	svcpl	0x00707574
    1b58:	434d5241 	movtmi	r5, #53825	; 0xd241
    1b5c:	2e33334d 	cdpcs	3, 3, cr3, cr3, cr13, {2}
    1b60:	00000073 	andeq	r0, r0, r3, ror r0
    1b64:	05000000 	streq	r0, [r0, #-0]
    1b68:	001c0802 	andseq	r0, ip, r2, lsl #16
    1b6c:	00d30310 	sbcseq	r0, r3, r0, lsl r3
    1b70:	21302101 	teqcs	r0, r1, lsl #2
    1b74:	2130362f 	teqcs	r0, pc, lsr #12
    1b78:	21212123 			; <UNDEFINED> instruction: 0x21212123
    1b7c:	21232121 			; <UNDEFINED> instruction: 0x21232121
    1b80:	22212121 	eorcs	r2, r1, #1073741832	; 0x40000008
    1b84:	23212321 			; <UNDEFINED> instruction: 0x23212321
    1b88:	21212121 			; <UNDEFINED> instruction: 0x21212121
    1b8c:	21212321 			; <UNDEFINED> instruction: 0x21212321
    1b90:	23212221 			; <UNDEFINED> instruction: 0x23212221
    1b94:	032e0e03 			; <UNDEFINED> instruction: 0x032e0e03
    1b98:	af032009 	svcge	0x00032009
    1b9c:	03312e7f 	teqeq	r1, #2032	; 0x7f0
    1ba0:	032f2e0c 			; <UNDEFINED> instruction: 0x032f2e0c
    1ba4:	022f2e15 	eoreq	r2, pc, #336	; 0x150
    1ba8:	01010002 	tsteq	r1, r2
    1bac:	0000006b 	andeq	r0, r0, fp, rrx
    1bb0:	004e0003 	subeq	r0, lr, r3
    1bb4:	01020000 	mrseq	r0, (UNDEF: 2)
    1bb8:	000d0efb 	strdeq	r0, [sp], -fp
    1bbc:	01010101 	tsteq	r1, r1, lsl #2
    1bc0:	01000000 	mrseq	r0, (UNDEF: 0)
    1bc4:	2e010000 	cdpcs	0, 0, cr0, cr1, cr0, {0}
    1bc8:	2e2e2f2e 	cdpcs	15, 2, cr2, cr14, cr14, {1}
    1bcc:	2f2e2e2f 	svccs	0x002e2e2f
    1bd0:	7562696c 	strbvc	r6, [r2, #-2412]!	; 0xfffff694
    1bd4:	736c6974 	cmnvc	ip, #116, 18	; 0x1d0000
    1bd8:	7561662f 	strbvc	r6, [r1, #-1583]!	; 0xfffff9d1
    1bdc:	642d746c 	strtvs	r7, [sp], #-1132	; 0xfffffb94
    1be0:	2f706d75 	svccs	0x00706d75
    1be4:	2f757063 	svccs	0x00757063
    1be8:	74726f63 	ldrbtvc	r6, [r2], #-3939	; 0xfffff09d
    1bec:	6d2d7865 	stcvs	8, cr7, [sp, #-404]!	; 0xfffffe6c
    1bf0:	00003333 	andeq	r3, r0, r3, lsr r3
    1bf4:	6c756166 	ldfvse	f6, [r5], #-408	; 0xfffffe68
    1bf8:	63672d74 	cmnvs	r7, #116, 26	; 0x1d00
    1bfc:	00732e63 	rsbseq	r2, r3, r3, ror #28
    1c00:	00000001 	andeq	r0, r0, r1
    1c04:	78020500 	stmdavc	r2, {r8, sl}
    1c08:	0310001c 	tsteq	r0, #28
    1c0c:	212f0115 			; <UNDEFINED> instruction: 0x212f0115
    1c10:	212f2f2f 			; <UNDEFINED> instruction: 0x212f2f2f
    1c14:	02021f21 	andeq	r1, r2, #33, 30	; 0x84
    1c18:	Address 0x00001c18 is out of bounds.


Disassembly of section .debug_str:

00000000 <.debug_str>:
   0:	676e6f6c 	strbvs	r6, [lr, -ip, ror #30]!
   4:	6e6f6c20 	cdpvs	12, 6, cr6, cr15, cr0, {1}
   8:	6e692067 	cdpvs	0, 6, cr2, cr9, cr7, {3}
   c:	616d0074 	smcvs	53252	; 0xd004
  10:	632e6e69 			; <UNDEFINED> instruction: 0x632e6e69
  14:	615f5f00 	cmpvs	pc, r0, lsl #30
  18:	69626165 	stmdbvs	r2!, {r0, r2, r5, r6, r8, sp, lr}^
  1c:	776e755f 			; <UNDEFINED> instruction: 0x776e755f
  20:	5f646e69 	svcpl	0x00646e69
  24:	5f707063 	svcpl	0x00707063
  28:	00307270 	eorseq	r7, r0, r0, ror r2
  2c:	75625f5f 	strbvc	r5, [r2, #-3935]!	; 0xfffff0a1
  30:	69746c69 	ldmdbvs	r4!, {r0, r3, r5, r6, sl, fp, sp, lr}^
  34:	75705f6e 	ldrbvc	r5, [r0, #-3950]!	; 0xfffff092
  38:	6c007374 	stcvs	3, cr7, [r0], {116}	; 0x74
  3c:	20676e6f 	rsbcs	r6, r7, pc, ror #28
  40:	676e6f6c 	strbvs	r6, [lr, -ip, ror #30]!
  44:	736e7520 	cmnvc	lr, #32, 10	; 0x8000000
  48:	656e6769 	strbvs	r6, [lr, #-1897]!	; 0xfffff897
  4c:	6e692064 	cdpvs	0, 6, cr2, cr9, cr4, {3}
  50:	3a430074 	bcc	10c0228 <__ROM_SIZE+0x1040228>
  54:	6573555c 	ldrbvs	r5, [r3, #-1372]!	; 0xfffffaa4
  58:	785c7372 	ldmdavc	ip, {r1, r4, r5, r6, r8, r9, ip, sp, lr}^
  5c:	6e6f6469 	cdpvs	4, 6, cr6, cr15, cr9, {3}
  60:	646f635c 	strbtvs	r6, [pc], #-860	; 68 <__STACKSEAL_SIZE+0x68>
  64:	69675c65 	stmdbvs	r7!, {r0, r2, r5, r6, sl, fp, ip, lr}^
  68:	62756874 	rsbsvs	r6, r5, #116, 16	; 0x740000
  6c:	6d65715c 	stfvse	f7, [r5, #-368]!	; 0xfffffe90
  70:	69732d75 	ldmdbvs	r3!, {r0, r2, r4, r5, r6, r8, sl, fp, sp}^
  74:	616c756d 	cmnvs	ip, sp, ror #10
  78:	5c726f74 	ldclpl	15, cr6, [r2], #-464	; 0xfffffe30
  7c:	72616f62 	rsbvc	r6, r1, #392	; 0x188
  80:	6d5c7364 	ldclvs	3, cr7, [ip, #-400]	; 0xfffffe70
  84:	2d327370 	ldccs	3, cr7, [r2, #-448]!	; 0xfffffe40
  88:	30356e61 	eorscc	r6, r5, r1, ror #28
  8c:	43475c35 	movtmi	r5, #31797	; 0x7c35
  90:	65532d43 	ldrbvs	r2, [r3, #-3395]	; 0xfffff2bd
  94:	65727563 	ldrbvs	r7, [r2, #-1379]!	; 0xfffffa9d
  98:	66654400 	strbtvs	r4, [r5], -r0, lsl #8
  9c:	746c7561 	strbtvc	r7, [ip], #-1377	; 0xfffffa9f
  a0:	6e61485f 	mcrvs	8, 3, r4, cr1, cr15, {2}
  a4:	72656c64 	rsbvc	r6, r5, #100, 24	; 0x6400
  a8:	736e7500 	cmnvc	lr, #0, 10
  ac:	656e6769 	strbvs	r6, [lr, #-1897]!	; 0xfffff897
  b0:	68632064 	stmdavs	r3!, {r2, r5, r6, sp}^
  b4:	63007261 	movwvs	r7, #609	; 0x261
  b8:	746e756f 	strbtvc	r7, [lr], #-1391	; 0xfffffa91
  bc:	72617500 	rsbvc	r7, r1, #0, 10
  c0:	6e695f74 	mcrvs	15, 3, r5, cr9, cr4, {3}
  c4:	73007469 	movwvc	r7, #1129	; 0x469
  c8:	74726f68 	ldrbtvc	r6, [r2], #-3944	; 0xfffff098
  cc:	736e7520 	cmnvc	lr, #32, 10	; 0x8000000
  d0:	656e6769 	strbvs	r6, [lr, #-1897]!	; 0xfffff897
  d4:	6e692064 	cdpvs	0, 6, cr2, cr9, cr4, {3}
  d8:	6f6c0074 	svcvs	0x006c0074
  dc:	6420676e 	strtvs	r6, [r0], #-1902	; 0xfffff892
  e0:	6c62756f 	cfstr64vs	mvdx7, [r2], #-444	; 0xfffffe44
  e4:	616d0065 	cmnvs	sp, r5, rrx
  e8:	48006e69 	stmdami	r0, {r0, r3, r5, r6, r9, sl, fp, sp, lr}
  ec:	46647261 	strbtmi	r7, [r4], -r1, ror #4
  f0:	746c7561 	strbtvc	r7, [ip], #-1377	; 0xfffffa9f
  f4:	6e61485f 	mcrvs	8, 3, r4, cr1, cr15, {2}
  f8:	72656c64 	rsbvc	r6, r5, #100, 24	; 0x6400
  fc:	67654c5f 			; <UNDEFINED> instruction: 0x67654c5f
 100:	79636e65 	stmdbvc	r3!, {r0, r2, r5, r6, r9, sl, fp, sp, lr}^
 104:	554e4700 	strbpl	r4, [lr, #-1792]	; 0xfffff900
 108:	37314320 	ldrcc	r4, [r1, -r0, lsr #6]!
 10c:	2e303120 	rsfcssp	f3, f0, f0
 110:	20312e33 	eorscs	r2, r1, r3, lsr lr
 114:	31323032 	teqcc	r2, r2, lsr r0
 118:	34323830 	ldrtcc	r3, [r2], #-2096	; 0xfffff7d0
 11c:	65722820 	ldrbvs	r2, [r2, #-2080]!	; 0xfffff7e0
 120:	7361656c 	cmnvc	r1, #108, 10	; 0x1b000000
 124:	2d202965 			; <UNDEFINED> instruction: 0x2d202965
 128:	7570636d 	ldrbvc	r6, [r0, #-877]!	; 0xfffffc93
 12c:	726f633d 	rsbvc	r6, pc, #-201326592	; 0xf4000000
 130:	2d786574 	cfldr64cs	mvdx6, [r8, #-464]!	; 0xfffffe30
 134:	2033336d 	eorscs	r3, r3, sp, ror #6
 138:	70666d2d 	rsbvc	r6, r6, sp, lsr #26
 13c:	70663d75 	rsbvc	r3, r6, r5, ror sp
 140:	732d3576 			; <UNDEFINED> instruction: 0x732d3576
 144:	31642d70 	smccc	17104	; 0x42d0
 148:	6d2d2036 	stcvs	0, cr2, [sp, #-216]!	; 0xffffff28
 14c:	616f6c66 	cmnvs	pc, r6, ror #24
 150:	62612d74 	rsbvs	r2, r1, #116, 26	; 0x1d00
 154:	61683d69 	cmnvs	r8, r9, ror #26
 158:	2d206472 	cfstrscs	mvf6, [r0, #-456]!	; 0xfffffe38
 15c:	7568746d 	strbvc	r7, [r8, #-1133]!	; 0xfffffb93
 160:	2d20626d 	sfmcs	f6, 4, [r0, #-436]!	; 0xfffffe4c
 164:	6372616d 	cmnvs	r2, #1073741851	; 0x4000001b
 168:	72613d68 	rsbvc	r3, r1, #104, 26	; 0x1a00
 16c:	2d38766d 	ldccs	6, cr7, [r8, #-436]!	; 0xfffffe4c
 170:	616d2e6d 	cmnvs	sp, sp, ror #28
 174:	642b6e69 	strtvs	r6, [fp], #-3689	; 0xfffff197
 178:	662b7073 			; <UNDEFINED> instruction: 0x662b7073
 17c:	672d2070 			; <UNDEFINED> instruction: 0x672d2070
 180:	64672d20 	strbtvs	r2, [r7], #-3360	; 0xfffff2e0
 184:	66726177 			; <UNDEFINED> instruction: 0x66726177
 188:	2d20322d 	sfmcs	f3, 4, [r0, #-180]!	; 0xffffff4c
 18c:	2d20674f 	stccs	7, cr6, [r0, #-316]!	; 0xfffffec4
 190:	74616466 	strbtvc	r6, [r1], #-1126	; 0xfffffb9a
 194:	65732d61 	ldrbvs	r2, [r3, #-3425]!	; 0xfffff29f
 198:	6f697463 	svcvs	0x00697463
 19c:	2d20736e 	stccs	3, cr7, [r0, #-440]!	; 0xfffffe48
 1a0:	6e756666 	cdpvs	6, 7, cr6, cr5, cr6, {3}
 1a4:	6f697463 	svcvs	0x00697463
 1a8:	65732d6e 	ldrbvs	r2, [r3, #-3438]!	; 0xfffff292
 1ac:	6f697463 	svcvs	0x00697463
 1b0:	2d20736e 	stccs	3, cr7, [r0, #-440]!	; 0xfffffe48
 1b4:	2d6f6e66 	stclcs	14, cr6, [pc, #-408]!	; 24 <__STACKSEAL_SIZE+0x24>
 1b8:	65637865 	strbvs	r7, [r3, #-2149]!	; 0xfffff79b
 1bc:	6f697470 	svcvs	0x00697470
 1c0:	7300736e 	movwvc	r7, #878	; 0x36e
 1c4:	74726f68 	ldrbtvc	r6, [r2], #-3944	; 0xfffff098
 1c8:	746e6920 	strbtvc	r6, [lr], #-2336	; 0xfffff6e0
 1cc:	665f5f00 	ldrbvs	r5, [pc], -r0, lsl #30
 1d0:	5f636e75 	svcpl	0x00636e75
 1d4:	5f5f005f 	svcpl	0x005f005f
 1d8:	746e6975 	strbtvc	r6, [lr], #-2421	; 0xfffff68b
 1dc:	00745f38 	rsbseq	r5, r4, r8, lsr pc
 1e0:	52495453 	subpl	r5, r9, #1392508928	; 0x53000000
 1e4:	49434400 	stmdbmi	r3, {sl, lr}^
 1e8:	4341564d 	movtmi	r5, #5709	; 0x164d
 1ec:	494c4300 	stmdbmi	ip, {r8, r9, lr}^
 1f0:	43005244 	movwmi	r5, #580	; 0x244
 1f4:	44495550 	strbmi	r5, [r9], #-1360	; 0xfffffab0
 1f8:	49504200 	ldmdbmi	r0, {r9, lr}^
 1fc:	004c4c41 	subeq	r4, ip, r1, asr #24
 200:	505f4449 	subspl	r4, pc, r9, asr #8
 204:	44005246 	strmi	r5, [r0], #-582	; 0xfffffdba
 208:	53494343 	movtpl	r4, #37699	; 0x9343
 20c:	79530057 	ldmdbvc	r3, {r0, r1, r2, r4, r6}^
 210:	6d657473 	cfstrdvs	mvd7, [r5, #-460]!	; 0xfffffe34
 214:	65726f43 	ldrbvs	r6, [r2, #-3907]!	; 0xfffff0bd
 218:	636f6c43 	cmnvs	pc, #17152	; 0x4300
 21c:	6470556b 	ldrbtvs	r5, [r0], #-1387	; 0xfffffa95
 220:	00657461 	rsbeq	r7, r5, r1, ror #8
 224:	4d5f4449 	cfldrdmi	mvd4, [pc, #-292]	; 108 <__STACKSEAL_SIZE+0x108>
 228:	0052464d 	subseq	r4, r2, sp, asr #12
 22c:	41494349 	cmpmi	r9, r9, asr #6
 230:	00554c4c 	subseq	r4, r5, ip, asr #24
 234:	52414642 	subpl	r4, r1, #69206016	; 0x4200000
 238:	755f5f00 	ldrbvc	r5, [pc, #-3840]	; fffff340 <__StackTop+0xc7fdf340>
 23c:	33746e69 	cmncc	r4, #1680	; 0x690
 240:	00745f32 	rsbseq	r5, r4, r2, lsr pc
 244:	5f424353 	svcpl	0x00424353
 248:	65707954 	ldrbvs	r7, [r0, #-2388]!	; 0xfffff6ac
 24c:	5f444900 	svcpl	0x00444900
 250:	00524644 	subseq	r4, r2, r4, asr #12
 254:	4d434344 	stclmi	3, cr4, [r3, #-272]	; 0xfffffef0
 258:	00434156 	subeq	r4, r3, r6, asr r1
 25c:	45535343 	ldrbmi	r5, [r3, #-835]	; 0xfffffcbd
 260:	5300524c 	movwpl	r5, #588	; 0x24c
 264:	65747379 	ldrbvs	r7, [r4, #-889]!	; 0xfffffc87
 268:	726f436d 	rsbvc	r4, pc, #-1275068415	; 0xb4000001
 26c:	6f6c4365 	svcvs	0x006c4365
 270:	44006b63 	strmi	r6, [r0], #-2915	; 0xfffff49d
 274:	564d4343 	strbpl	r4, [sp], -r3, asr #6
 278:	5f005541 	svcpl	0x00005541
 27c:	6365565f 	cmnvs	r5, #99614720	; 0x5f00000
 280:	73726f74 	cmnvc	r2, #116, 30	; 0x1d0
 284:	4f545600 	svcmi	0x00545600
 288:	46530052 			; <UNDEFINED> instruction: 0x46530052
 28c:	49005241 	stmdbmi	r0, {r0, r6, r9, ip, lr}
 290:	00525343 	subseq	r5, r2, r3, asr #6
 294:	43524941 	cmpmi	r2, #1064960	; 0x104000
 298:	46440052 			; <UNDEFINED> instruction: 0x46440052
 29c:	4d005253 	sfmmi	f5, 4, [r0, #-332]	; 0xfffffeb4
 2a0:	5241464d 	subpl	r4, r1, #80740352	; 0x4d00000
 2a4:	53434300 	movtpl	r4, #13056	; 0x3300
 2a8:	00524449 	subseq	r4, r2, r9, asr #8
 2ac:	52534643 	subspl	r4, r3, #70254592	; 0x4300000
 2b0:	41534e00 	cmpmi	r3, r0, lsl #28
 2b4:	4d005243 	sfmmi	f5, 4, [r0, #-268]	; 0xfffffef4
 2b8:	30524656 	subscc	r4, r2, r6, asr r6
 2bc:	46564d00 	ldrbmi	r4, [r6], -r0, lsl #26
 2c0:	4d003152 	stfmis	f3, [r0, #-328]	; 0xfffffeb8
 2c4:	32524656 	subscc	r4, r2, #90177536	; 0x5600000
 2c8:	53455200 	movtpl	r5, #20992	; 0x5200
 2cc:	45565245 	ldrbmi	r5, [r6, #-581]	; 0xfffffdbb
 2d0:	52003344 	andpl	r3, r0, #68, 6	; 0x10000001
 2d4:	52455345 	subpl	r5, r5, #335544321	; 0x14000001
 2d8:	34444556 	strbcc	r4, [r4], #-1366	; 0xfffffaaa
 2dc:	53455200 	movtpl	r5, #20992	; 0x5200
 2e0:	45565245 	ldrbmi	r5, [r6, #-581]	; 0xfffffdbb
 2e4:	52003544 	andpl	r3, r0, #68, 10	; 0x11000000
 2e8:	52455345 	subpl	r5, r5, #335544321	; 0x14000001
 2ec:	36444556 			; <UNDEFINED> instruction: 0x36444556
 2f0:	53455200 	movtpl	r5, #20992	; 0x5200
 2f4:	45565245 	ldrbmi	r5, [r6, #-581]	; 0xfffffdbb
 2f8:	53003744 	movwpl	r3, #1860	; 0x744
 2fc:	65747379 	ldrbvs	r7, [r4, #-889]!	; 0xfffffc87
 300:	696e496d 	stmdbvs	lr!, {r0, r2, r3, r5, r6, r8, fp, lr}^
 304:	48530074 	ldmdami	r3, {r2, r4, r5, r6}^
 308:	00525343 	subseq	r5, r2, r3, asr #6
 30c:	49434344 	stmdbmi	r3, {r2, r6, r8, r9, lr}^
 310:	4341564d 	movtmi	r5, #5709	; 0x164d
 314:	49434900 	stmdbmi	r3, {r8, fp, lr}^
 318:	5541564d 	strbpl	r5, [r1, #-1613]	; 0xfffff9b3
 31c:	49434400 	stmdbmi	r3, {sl, lr}^
 320:	41005753 	tstmi	r0, r3, asr r7
 324:	00525346 	subseq	r5, r2, r6, asr #6
 328:	52534653 	subspl	r4, r3, #87031808	; 0x5300000
 32c:	43434400 	movtmi	r4, #13312	; 0x3400
 330:	73005753 	movwvc	r5, #1875	; 0x753
 334:	65747379 	ldrbvs	r7, [r4, #-889]!	; 0xfffffc87
 338:	52415f6d 	subpl	r5, r1, #436	; 0x1b4
 33c:	334d434d 	movtcc	r4, #54093	; 0xd34d
 340:	00632e33 	rsbeq	r2, r3, r3, lsr lr
 344:	52504853 	subspl	r4, r0, #5439488	; 0x530000
 348:	43455600 	movtmi	r5, #22016	; 0x5600
 34c:	5f524f54 	svcpl	0x00524f54
 350:	4c424154 	stfmie	f4, [r2], {84}	; 0x54
 354:	79545f45 	ldmdbvc	r4, {r0, r2, r6, r8, r9, sl, fp, ip, lr}^
 358:	49006570 	stmdbmi	r0, {r4, r5, r6, r8, sl, sp, lr}
 35c:	46415f44 	strbmi	r5, [r1], -r4, asr #30
 360:	44490052 	strbmi	r0, [r9], #-82	; 0xffffffae
 364:	4153495f 	cmpmi	r3, pc, asr r9
 368:	50430052 	subpl	r0, r3, r2, asr r0
 36c:	00524341 	subseq	r4, r2, r1, asr #6
 370:	52534648 	subspl	r4, r3, #72, 12	; 0x4800000
 374:	74757000 	ldrbtvc	r7, [r5], #-0
 378:	72616863 	rsbvc	r6, r1, #6488064	; 0x630000
 37c:	615f5f00 	cmpvs	pc, r0, lsl #30
 380:	69626165 	stmdbvs	r2!, {r0, r2, r5, r6, r8, sp, lr}^
 384:	6432695f 	ldrtvs	r6, [r2], #-2399	; 0xfffff6a1
 388:	776f7000 	strbvc	r7, [pc, -r0]!
 38c:	65003031 	strvs	r3, [r0, #-49]	; 0xffffffcf
 390:	00327078 	eorseq	r7, r2, r8, ror r0
 394:	5f74756f 	svcpl	0x0074756f
 398:	5f746366 	svcpl	0x00746366
 39c:	70617277 	rsbvc	r7, r1, r7, ror r2
 3a0:	70786500 	rsbsvc	r6, r8, r0, lsl #10
 3a4:	006c6176 	rsbeq	r6, ip, r6, ror r1
 3a8:	69727076 	ldmdbvs	r2!, {r1, r2, r4, r5, r6, ip, sp, lr}^
 3ac:	0066746e 	rsbeq	r7, r6, lr, ror #8
 3b0:	657a6973 	ldrbvs	r6, [sl, #-2419]!	; 0xfffff68d
 3b4:	6d00745f 	cfstrsvs	mvf7, [r0, #-380]	; 0xfffffe84
 3b8:	69776e69 	ldmdbvs	r7!, {r0, r3, r5, r6, r9, sl, fp, sp, lr}^
 3bc:	00687464 	rsbeq	r7, r8, r4, ror #8
 3c0:	65615f5f 	strbvs	r5, [r1, #-3935]!	; 0xfffff0a1
 3c4:	5f696261 	svcpl	0x00696261
 3c8:	76696464 	strbtvc	r6, [r9], -r4, ror #8
 3cc:	74655f00 	strbtvc	r5, [r5], #-3840	; 0xfffff100
 3d0:	5f00616f 	svcpl	0x0000616f
 3d4:	5f74756f 	svcpl	0x0074756f
 3d8:	72616863 	rsbvc	r6, r1, #6488064	; 0x630000
 3dc:	78616d00 	stmdavc	r1!, {r8, sl, fp, sp, lr}^
 3e0:	657a6973 	ldrbvs	r6, [sl, #-2419]!	; 0xfffff68d
 3e4:	6f687700 	svcvs	0x00687700
 3e8:	5f00656c 	svcpl	0x0000656c
 3ec:	6165615f 	cmnvs	r5, pc, asr r1
 3f0:	645f6962 	ldrbvs	r6, [pc], #-2402	; 3f8 <__STACKSEAL_SIZE+0x3f8>
 3f4:	007a6932 	rsbseq	r6, sl, r2, lsr r9
 3f8:	74756f5f 	ldrbtvc	r6, [r5], #-3935	; 0xfffff0a1
 3fc:	6675625f 			; <UNDEFINED> instruction: 0x6675625f
 400:	00726566 	rsbseq	r6, r2, r6, ror #10
 404:	63617266 	cmnvs	r1, #1610612742	; 0x60000006
 408:	6c617600 	stclvs	6, cr7, [r1], #-0
 40c:	5f006575 	svcpl	0x00006575
 410:	5f74756f 	svcpl	0x0074756f
 414:	00746366 	rsbseq	r6, r4, r6, ror #6
 418:	65615f5f 	strbvs	r5, [r1, #-3935]!	; 0xfffff0a1
 41c:	5f696261 	svcpl	0x00696261
 420:	69753264 	ldmdbvs	r5!, {r2, r5, r6, r9, ip, sp}^
 424:	7473007a 	ldrbtvc	r0, [r3], #-122	; 0xffffff86
 428:	5f747261 	svcpl	0x00747261
 42c:	00786469 	rsbseq	r6, r8, r9, ror #8
 430:	70746366 	rsbsvc	r6, r4, r6, ror #6
 434:	746e6972 	strbtvc	r6, [lr], #-2418	; 0xfffff68e
 438:	656e0066 	strbvs	r0, [lr, #-102]!	; 0xffffff9a
 43c:	69746167 	ldmdbvs	r4!, {r0, r1, r2, r5, r6, r8, sp, lr}^
 440:	5f006576 	svcpl	0x00006576
 444:	6165615f 	cmnvs	r5, pc, asr r1
 448:	645f6962 	ldrbvs	r6, [pc], #-2402	; 450 <__STACKSEAL_SIZE+0x450>
 44c:	00646461 	rsbeq	r6, r4, r1, ror #8
 450:	61765f5f 	cmnvs	r6, pc, asr pc
 454:	73696c5f 	cmnvc	r9, #24320	; 0x5f00
 458:	2e2e0074 	mcrcs	0, 1, r0, cr14, cr4, {3}
 45c:	726f432f 	rsbvc	r4, pc, #-1140850688	; 0xbc000000
 460:	72532f65 	subsvc	r2, r3, #404	; 0x194
 464:	72702f63 	rsbsvc	r2, r0, #396	; 0x18c
 468:	66746e69 	ldrbtvs	r6, [r4], -r9, ror #28
 46c:	5f00632e 	svcpl	0x0000632e
 470:	616f746e 	cmnvs	pc, lr, ror #8
 474:	726f665f 	rsbvc	r6, pc, #99614720	; 0x5f00000
 478:	0074616d 	rsbseq	r6, r4, sp, ror #2
 47c:	6f74665f 	svcvs	0x0074665f
 480:	765f0061 	ldrbvc	r0, [pc], -r1, rrx
 484:	72706e73 	rsbsvc	r6, r0, #1840	; 0x730
 488:	66746e69 	ldrbtvs	r6, [r4], -r9, ror #28
 48c:	756f5f00 	strbvc	r5, [pc, #-3840]!	; fffff594 <__StackTop+0xc7fdf594>
 490:	756e5f74 	strbvc	r5, [lr, #-3956]!	; 0xfffff08c
 494:	6f006c6c 	svcvs	0x00006c6c
 498:	665f7475 			; <UNDEFINED> instruction: 0x665f7475
 49c:	745f7463 	ldrbvc	r7, [pc], #-1123	; 4a4 <__STACKSEAL_SIZE+0x4a4>
 4a0:	00657079 	rsbeq	r7, r5, r9, ror r0
 4a4:	65615f5f 	strbvs	r5, [r1, #-3935]!	; 0xfffff0a1
 4a8:	5f696261 	svcpl	0x00696261
 4ac:	706d6364 	rsbvc	r6, sp, r4, ror #6
 4b0:	5f006567 	svcpl	0x00006567
 4b4:	616f746e 	cmnvs	pc, lr, ror #8
 4b8:	6e6f6c5f 	mcrvs	12, 3, r6, cr15, cr15, {2}
 4bc:	70730067 	rsbsvc	r0, r3, r7, rrx
 4c0:	746e6972 	strbtvc	r6, [lr], #-2418	; 0xfffff68e
 4c4:	5f5f0066 	svcpl	0x005f0066
 4c8:	62616561 	rsbvs	r6, r1, #406847488	; 0x18400000
 4cc:	69755f69 	ldmdbvs	r5!, {r0, r3, r5, r6, r8, r9, sl, fp, ip, lr}^
 4d0:	66006432 			; <UNDEFINED> instruction: 0x66006432
 4d4:	7367616c 	cmnvc	r7, #108, 2
 4d8:	615f5f00 	cmpvs	pc, r0, lsl #30
 4dc:	69626165 	stmdbvs	r2!, {r0, r2, r5, r6, r8, sp, lr}^
 4e0:	6d63645f 	cfstrdvs	mvd6, [r3, #-380]!	; 0xfffffe84
 4e4:	00746770 	rsbseq	r6, r4, r0, ror r7
 4e8:	6c78616d 	ldfvse	f6, [r8], #-436	; 0xfffffe4c
 4ec:	5f006e65 	svcpl	0x00006e65
 4f0:	696f7461 	stmdbvs	pc!, {r0, r5, r6, sl, ip, sp, lr}^	; <UNPREDICTABLE>
 4f4:	74735f00 	ldrbtvc	r5, [r3], #-3840	; 0xfffff100
 4f8:	656c6e72 	strbvs	r6, [ip, #-3698]!	; 0xfffff18e
 4fc:	00735f6e 	rsbseq	r5, r3, lr, ror #30
 500:	70615f5f 	rsbvc	r5, r1, pc, asr pc
 504:	615f5f00 	cmpvs	pc, r0, lsl #30
 508:	69626165 	stmdbvs	r2!, {r0, r2, r5, r6, r8, sp, lr}^
 50c:	756d645f 	strbvc	r6, [sp, #-1119]!	; 0xfffffba1
 510:	425f006c 	subsmi	r0, pc, #108	; 0x6c
 514:	006c6f6f 	rsbeq	r6, ip, pc, ror #30
 518:	69755f5f 	ldmdbvs	r5!, {r0, r1, r2, r3, r4, r6, r8, r9, sl, fp, ip, lr}^
 51c:	3436746e 	ldrtcc	r7, [r6], #-1134	; 0xfffffb92
 520:	5f00745f 	svcpl	0x0000745f
 524:	645f7369 	ldrbvs	r7, [pc], #-873	; 52c <__STACKSEAL_SIZE+0x52c>
 528:	74696769 	strbtvc	r6, [r9], #-1897	; 0xfffff897
 52c:	6e6f6300 	cdpvs	3, 6, cr6, cr15, cr0, {0}
 530:	5f5f0076 	svcpl	0x005f0076
 534:	62616561 	rsbvs	r6, r1, #406847488	; 0x18400000
 538:	63645f69 	cmnvs	r4, #420	; 0x1a4
 53c:	7165706d 	cmnvc	r5, sp, rrx
 540:	755f5f00 	ldrbvc	r5, [pc, #-3840]	; fffff648 <__StackTop+0xc7fdf648>
 544:	70746e69 	rsbsvc	r6, r4, r9, ror #28
 548:	745f7274 	ldrbvc	r7, [pc], #-628	; 550 <__STACKSEAL_SIZE+0x550>
 54c:	61686300 	cmnvs	r8, r0, lsl #6
 550:	74636172 	strbtvc	r6, [r3], #-370	; 0xfffffe8e
 554:	5f007265 	svcpl	0x00007265
 558:	5f74756f 	svcpl	0x0074756f
 55c:	00766572 	rsbseq	r6, r6, r2, ror r5
 560:	65615f5f 	strbvs	r5, [r1, #-3935]!	; 0xfffff0a1
 564:	5f696261 	svcpl	0x00696261
 568:	62757364 	rsbsvs	r7, r5, #100, 6	; 0x90000001
 56c:	615f5f00 	cmpvs	pc, r0, lsl #30
 570:	69626165 	stmdbvs	r2!, {r0, r2, r5, r6, r8, sp, lr}^
 574:	646c755f 	strbtvs	r7, [ip], #-1375	; 0xfffffaa1
 578:	6f6d7669 	svcvs	0x006d7669
 57c:	5f5f0064 	svcpl	0x005f0064
 580:	62616561 	rsbvs	r6, r1, #406847488	; 0x18400000
 584:	63645f69 	cmnvs	r4, #420	; 0x1a4
 588:	656c706d 	strbvs	r7, [ip, #-109]!	; 0xffffff93
 58c:	74756f00 	ldrbtvc	r6, [r5], #-3840	; 0xfffff100
 590:	7463665f 	strbtvc	r6, [r3], #-1631	; 0xfffff9a1
 594:	6172775f 	cmnvs	r2, pc, asr r7
 598:	79745f70 	ldmdbvc	r4!, {r4, r5, r6, r8, r9, sl, fp, ip, lr}^
 59c:	70006570 	andvc	r6, r0, r0, ror r5
 5a0:	00636572 	rsbeq	r6, r3, r2, ror r5
 5a4:	64697766 	strbtvs	r7, [r9], #-1894	; 0xfffff89a
 5a8:	5f006874 	svcpl	0x00006874
 5ac:	756e675f 	strbvc	r6, [lr, #-1887]!	; 0xfffff8a1
 5b0:	61765f63 	cmnvs	r6, r3, ror #30
 5b4:	73696c5f 	cmnvc	r9, #24320	; 0x5f00
 5b8:	5f5f0074 	svcpl	0x005f0074
 5bc:	62616561 	rsbvs	r6, r1, #406847488	; 0x18400000
 5c0:	63645f69 	cmnvs	r4, #420	; 0x1a4
 5c4:	746c706d 	strbtvc	r7, [ip], #-109	; 0xffffff93
 5c8:	746e5f00 	strbtvc	r5, [lr], #-3840	; 0xfffff100
 5cc:	6c5f616f 	ldfvse	f6, [pc], {111}	; 0x6f
 5d0:	5f676e6f 	svcpl	0x00676e6f
 5d4:	676e6f6c 	strbvs	r6, [lr, -ip, ror #30]!
 5d8:	5f736900 	svcpl	0x00736900
 5dc:	62006c6c 	andvs	r6, r0, #108, 24	; 0x6c00
 5e0:	00657361 	rsbeq	r7, r5, r1, ror #6
 5e4:	63657270 	cmnvs	r5, #112, 4
 5e8:	6f697369 	svcvs	0x00697369
 5ec:	6964006e 	stmdbvs	r4!, {r1, r2, r3, r5, r6}^
 5f0:	73006666 	movwvc	r6, #1638	; 0x666
 5f4:	6e697274 	mcrvs	2, 3, r7, cr9, cr4, {3}
 5f8:	2e2e0067 	cdpcs	0, 2, cr0, cr14, cr7, {3}
 5fc:	726f432f 	rsbvc	r4, pc, #-1140850688	; 0xbc000000
 600:	72532f65 	subsvc	r2, r3, #404	; 0x194
 604:	61752f63 	cmnvs	r5, r3, ror #30
 608:	632e7472 			; <UNDEFINED> instruction: 0x632e7472
 60c:	72617500 	rsbvc	r7, r1, #0, 10
 610:	65735f74 	ldrbvs	r5, [r3, #-3956]!	; 0xfffff08c
 614:	5f00646e 	svcpl	0x0000646e
 618:	7465675f 	strbtvc	r6, [r5], #-1887	; 0xfffff8a1
 61c:	4e4f435f 	mcrmi	3, 2, r4, cr15, cr15, {2}
 620:	4c4f5254 	sfmmi	f5, 2, [pc], {84}	; 0x54
 624:	675f5f00 	ldrbvs	r5, [pc, -r0, lsl #30]
 628:	505f7465 	subspl	r7, pc, r5, ror #8
 62c:	66005053 			; <UNDEFINED> instruction: 0x66005053
 630:	74735f64 	ldrbtvc	r5, [r3], #-3940	; 0xfffff09c
 634:	5f6b6361 	svcpl	0x006b6361
 638:	7466656c 	strbtvc	r6, [r6], #-1388	; 0xfffffa94
 63c:	63706f00 	cmnvs	r0, #0, 30
 640:	5f65646f 	svcpl	0x0065646f
 644:	625f7369 	subsvs	r7, pc, #-1543503871	; 0xa4000001
 648:	726f5f6c 	rsbvc	r5, pc, #108, 30	; 0x1b0
 64c:	786c625f 	stmdavc	ip!, {r0, r1, r2, r3, r4, r6, r9, sp, lr}^
 650:	61747300 	cmnvs	r4, r0, lsl #6
 654:	665f6b63 	ldrbvs	r6, [pc], -r3, ror #22
 658:	656d6172 	strbvs	r6, [sp, #-370]!	; 0xfffffe8e
 65c:	5f00745f 	svcpl	0x0000745f
 660:	6e69755f 	mcrvs	5, 3, r7, cr9, cr15, {2}
 664:	5f363174 	svcpl	0x00363174
 668:	735f0074 	cmpvc	pc, #116	; 0x74
 66c:	63617473 	cmnvs	r1, #1929379840	; 0x73000000
 670:	6166006b 	cmnvs	r6, fp, rrx
 674:	5f746c75 	svcpl	0x00746c75
 678:	706d7564 	rsbvc	r7, sp, r4, ror #10
 67c:	63706f5f 	cmnvs	r0, #380	; 0x17c
 680:	0065646f 	rsbeq	r6, r5, pc, ror #8
 684:	7473655f 	ldrbtvc	r6, [r3], #-1375	; 0xfffffaa1
 688:	006b6361 	rsbeq	r6, fp, r1, ror #6
 68c:	75736572 	ldrbvc	r6, [r3, #-1394]!	; 0xfffffa8e
 690:	6600746c 	strvs	r7, [r0], -ip, ror #8
 694:	746c7561 	strbtvc	r7, [ip], #-1377	; 0xfffffa9f
 698:	6d75645f 	cfldrdvs	mvd6, [r5, #-380]!	; 0xfffffe84
 69c:	70735f70 	rsbsvc	r5, r3, r0, ror pc
 6a0:	6e696c00 	cdpvs	12, 6, cr6, cr9, cr0, {0}
 6a4:	0072656b 	rsbseq	r6, r2, fp, ror #10
 6a8:	6c756166 	ldfvse	f6, [r5], #-408	; 0xfffffe68
 6ac:	75645f74 	strbvc	r5, [r4, #-3956]!	; 0xfffff08c
 6b0:	695f706d 	ldmdbvs	pc, {r0, r2, r3, r5, r6, ip, sp, lr}^	; <UNPREDICTABLE>
 6b4:	0074696e 	rsbseq	r6, r4, lr, ror #18
 6b8:	63617473 	cmnvs	r1, #1929379840	; 0x73000000
 6bc:	72665f6b 	rsbvc	r5, r6, #428	; 0x1ac
 6c0:	5f656d61 	svcpl	0x00656d61
 6c4:	756e616d 	strbvc	r6, [lr, #-365]!	; 0xfffffe93
 6c8:	745f6c61 	ldrbvc	r6, [pc], #-3169	; 6d0 <__STACKSEAL_SIZE+0x6d0>
 6cc:	5f646600 	svcpl	0x00646600
 6d0:	63617473 	cmnvs	r1, #1929379840	; 0x73000000
 6d4:	73755f6b 	cmnvc	r5, #428	; 0x1ac
 6d8:	6f006465 	svcvs	0x00006465
 6dc:	646f6370 	strbtvs	r6, [pc], #-880	; 6e4 <__STACKSEAL_SIZE+0x6e4>
 6e0:	6f003165 	svcvs	0x00003165
 6e4:	646f6370 	strbtvs	r6, [pc], #-880	; 6ec <__STACKSEAL_SIZE+0x6ec>
 6e8:	73003265 	movwvc	r3, #613	; 0x265
 6ec:	6b636174 	blvs	18d8cc4 <__ROM_SIZE+0x1858cc4>
 6f0:	6172665f 	cmnvs	r2, pc, asr r6
 6f4:	6d5f656d 	cfldr64vs	mvdx6, [pc, #-436]	; 548 <__STACKSEAL_SIZE+0x548>
 6f8:	61756e61 	cmnvs	r5, r1, ror #28
 6fc:	7473006c 	ldrbtvc	r0, [r3], #-108	; 0xffffff94
 700:	5f6b6361 	svcpl	0x006b6361
 704:	6d617266 	sfmvs	f7, 2, [r1, #-408]!	; 0xfffffe68
 708:	74730065 	ldrbtvc	r0, [r3], #-101	; 0xffffff9b
 70c:	5f6b6361 	svcpl	0x006b6361
 710:	6d617266 	sfmvs	f7, 2, [r1, #-408]!	; 0xfffffe68
 714:	78655f65 	stmdavc	r5!, {r0, r2, r5, r6, r8, r9, sl, fp, ip, lr}^
 718:	74706563 	ldrbtvc	r6, [r0], #-1379	; 0xfffffa9d
 71c:	2e00745f 	cfmvsrcs	mvf0, r7
 720:	2e2e2f2e 	cdpcs	15, 2, cr2, cr14, cr14, {1}
 724:	2f2e2e2f 	svccs	0x002e2e2f
 728:	7562696c 	strbvc	r6, [r2, #-2412]!	; 0xfffff694
 72c:	736c6974 	cmnvc	ip, #116, 18	; 0x1d0000
 730:	7561662f 	strbvc	r6, [r1, #-1583]!	; 0xfffff9d1
 734:	642d746c 	strtvs	r7, [sp], #-1132	; 0xfffffb94
 738:	2f706d75 	svccs	0x00706d75
 73c:	2f637273 	svccs	0x00637273
 740:	6c756166 	ldfvse	f6, [r5], #-408	; 0xfffffe68
 744:	75642d74 	strbvc	r2, [r4, #-3444]!	; 0xfffff28c
 748:	632e706d 			; <UNDEFINED> instruction: 0x632e706d
 74c:	61747300 	cmnvs	r4, r0, lsl #6
 750:	665f6b63 	ldrbvs	r6, [pc], -r3, ror #22
 754:	656d6172 	strbvs	r6, [sp, #-370]!	; 0xfffffe8e
 758:	6378655f 	cmnvs	r8, #398458880	; 0x17c00000
 75c:	00747065 	rsbseq	r7, r4, r5, rrx
 760:	6c756166 	ldfvse	f6, [r5], #-408	; 0xfffffe68
 764:	75645f74 	strbvc	r5, [r4, #-3956]!	; 0xfffff08c
 768:	685f706d 	ldmdavs	pc, {r0, r2, r3, r5, r6, ip, sp, lr}^	; <UNPREDICTABLE>
 76c:	6c646e61 	stclvs	14, cr6, [r4], #-388	; 0xfffffe7c
 770:	63007265 	movwvs	r7, #613	; 0x265
 774:	72746e6f 	rsbsvc	r6, r4, #1776	; 0x6f0
 778:	725f6c6f 	subsvc	r6, pc, #28416	; 0x6f00
 77c:	66006765 	strvs	r6, [r0], -r5, ror #14
 780:	746c7561 	strbtvc	r7, [ip], #-1377	; 0xfffffa9f
 784:	6d75645f 	cfldrdvs	mvd6, [r5, #-380]!	; 0xfffffe84
 788:	65725f70 	ldrbvs	r5, [r2, #-3952]!	; 0xfffff090
 78c:	74736967 	ldrbtvc	r6, [r3], #-2407	; 0xfffff699
 790:	5f007265 	svcpl	0x00007265
 794:	78657473 	stmdavc	r5!, {r0, r1, r4, r5, r6, sl, ip, sp, lr}^
 798:	74690074 	strbtvc	r0, [r9], #-116	; 0xffffff8c
 79c:	5f007265 	svcpl	0x00007265
 7a0:	7465675f 	strbtvc	r6, [r5], #-1887	; 0xfffff8a1
 7a4:	50534d5f 	subspl	r4, r3, pc, asr sp
 7a8:	74655f00 	strbtvc	r5, [r5], #-3840	; 0xfffff100
 7ac:	00747865 	rsbseq	r7, r4, r5, ror #16
 7b0:	665f6466 	ldrbvs	r6, [pc], -r6, ror #8
 7b4:	656d6172 	strbvs	r6, [sp, #-370]!	; 0xfffffe8e
 7b8:	7a69735f 	bvc	1a5d53c <__ROM_SIZE+0x19dd53c>
 7bc:	74730065 	ldrbtvc	r0, [r3], #-101	; 0xffffff9b
 7c0:	75747261 	ldrbvc	r7, [r4, #-609]!	; 0xfffffd9f
 7c4:	52415f70 	subpl	r5, r1, #112, 30	; 0x1c0
 7c8:	334d434d 	movtcc	r4, #54093	; 0xd34d
 7cc:	00732e33 	rsbseq	r2, r3, r3, lsr lr
 7d0:	20554e47 	subscs	r4, r5, r7, asr #28
 7d4:	32205341 	eorcc	r5, r0, #67108865	; 0x4000001
 7d8:	2e36332e 	cdpcs	3, 3, cr3, cr6, cr14, {1}
 7dc:	2e2e0031 	mcrcs	0, 1, r0, cr14, cr1, {1}
 7e0:	2f2e2e2f 	svccs	0x002e2e2f
 7e4:	6c2f2e2e 	stcvs	14, cr2, [pc], #-184	; 734 <__STACKSEAL_SIZE+0x734>
 7e8:	74756269 	ldrbtvc	r6, [r5], #-617	; 0xfffffd97
 7ec:	2f736c69 	svccs	0x00736c69
 7f0:	6c756166 	ldfvse	f6, [r5], #-408	; 0xfffffe68
 7f4:	75642d74 	strbvc	r2, [r4, #-3444]!	; 0xfffff28c
 7f8:	632f706d 			; <UNDEFINED> instruction: 0x632f706d
 7fc:	632f7570 			; <UNDEFINED> instruction: 0x632f7570
 800:	6574726f 	ldrbvs	r7, [r4, #-623]!	; 0xfffffd91
 804:	336d2d78 	cmncc	sp, #120, 26	; 0x1e00
 808:	61662f33 	cmnvs	r6, r3, lsr pc
 80c:	2d746c75 	ldclcs	12, cr6, [r4, #-468]!	; 0xfffffe2c
 810:	2e636367 	cdpcs	3, 6, cr6, cr3, cr7, {3}
 814:	Address 0x00000814 is out of bounds.


Disassembly of section .debug_frame:

00000000 <.debug_frame>:
   0:	0000000c 	andeq	r0, r0, ip
   4:	ffffffff 			; <UNDEFINED> instruction: 0xffffffff
   8:	7c020001 	stcvc	0, cr0, [r2], {1}
   c:	000d0c0e 	andeq	r0, sp, lr, lsl #24
  10:	0000000c 	andeq	r0, r0, ip
  14:	00000000 	andeq	r0, r0, r0
  18:	10000800 	andne	r0, r0, r0, lsl #16
  1c:	00000002 	andeq	r0, r0, r2
  20:	00000014 	andeq	r0, r0, r4, lsl r0
	...
  2c:	00000010 	andeq	r0, r0, r0, lsl r0
  30:	83080e41 	movwhi	r0, #36417	; 0x8e41
  34:	00018e02 	andeq	r8, r1, r2, lsl #28
  38:	00000014 	andeq	r0, r0, r4, lsl r0
	...
  44:	00000010 	andeq	r0, r0, r0, lsl r0
  48:	83080e41 	movwhi	r0, #36417	; 0x8e41
  4c:	00018e02 	andeq	r8, r1, r2, lsl #28
  50:	00000014 	andeq	r0, r0, r4, lsl r0
  54:	00000000 	andeq	r0, r0, r0
  58:	10000804 	andne	r0, r0, r4, lsl #16
  5c:	00000024 	andeq	r0, r0, r4, lsr #32
  60:	84080e41 	strhi	r0, [r8], #-3649	; 0xfffff1bf
  64:	00018e02 	andeq	r8, r1, r2, lsl #28
  68:	0000000c 	andeq	r0, r0, ip
  6c:	ffffffff 			; <UNDEFINED> instruction: 0xffffffff
  70:	7c020001 	stcvc	0, cr0, [r2], {1}
  74:	000d0c0e 	andeq	r0, sp, lr, lsl #24
  78:	0000000c 	andeq	r0, r0, ip
  7c:	00000068 	andeq	r0, r0, r8, rrx
  80:	00000000 	andeq	r0, r0, r0
  84:	00000010 	andeq	r0, r0, r0, lsl r0
  88:	0000000c 	andeq	r0, r0, ip
  8c:	00000068 	andeq	r0, r0, r8, rrx
  90:	10000828 	andne	r0, r0, r8, lsr #16
  94:	0000002c 	andeq	r0, r0, ip, lsr #32
  98:	0000000c 	andeq	r0, r0, ip
  9c:	ffffffff 			; <UNDEFINED> instruction: 0xffffffff
  a0:	7c020001 	stcvc	0, cr0, [r2], {1}
  a4:	000d0c0e 	andeq	r0, sp, lr, lsl #24
  a8:	0000000c 	andeq	r0, r0, ip
  ac:	00000098 	muleq	r0, r8, r0
  b0:	00000000 	andeq	r0, r0, r0
  b4:	00000008 	andeq	r0, r0, r8
  b8:	0000000c 	andeq	r0, r0, ip
  bc:	00000098 	muleq	r0, r8, r0
  c0:	10000854 	andne	r0, r0, r4, asr r8
  c4:	00000002 	andeq	r0, r0, r2
  c8:	00000018 	andeq	r0, r0, r8, lsl r0
  cc:	00000098 	muleq	r0, r8, r0
  d0:	00000000 	andeq	r0, r0, r0
  d4:	0000000e 	andeq	r0, r0, lr
  d8:	83080e42 	movwhi	r0, #36418	; 0x8e42
  dc:	44018e02 	strmi	r8, [r1], #-3586	; 0xfffff1fe
  e0:	cec3000e 	cdpgt	0, 12, cr0, cr3, cr14, {0}
  e4:	0000000c 	andeq	r0, r0, ip
  e8:	00000098 	muleq	r0, r8, r0
  ec:	10000856 	andne	r0, r0, r6, asr r8
  f0:	00000024 	andeq	r0, r0, r4, lsr #32
  f4:	0000002c 	andeq	r0, r0, ip, lsr #32
  f8:	00000098 	muleq	r0, r8, r0
  fc:	1000087a 	andne	r0, r0, sl, ror r8
 100:	0000007e 	andeq	r0, r0, lr, ror r0
 104:	84240e42 	strthi	r0, [r4], #-3650	; 0xfffff1be
 108:	86088509 	strhi	r8, [r8], -r9, lsl #10
 10c:	88068707 	stmdahi	r6, {r0, r1, r2, r8, r9, sl, pc}
 110:	8a048905 	bhi	12252c <__ROM_SIZE+0xa252c>
 114:	8e028b03 	vmlahi.f64	d8, d2, d3
 118:	300e4101 	andcc	r4, lr, r1, lsl #2
 11c:	240e0a6f 	strcs	r0, [lr], #-2671	; 0xfffff591
 120:	00000b42 	andeq	r0, r0, r2, asr #22
 124:	00000028 	andeq	r0, r0, r8, lsr #32
 128:	00000098 	muleq	r0, r8, r0
 12c:	100008f8 	strdne	r0, [r0], -r8
 130:	00000138 	andeq	r0, r0, r8, lsr r1
 134:	841c0e42 	ldrhi	r0, [ip], #-3650	; 0xfffff1be
 138:	86068507 	strhi	r8, [r6], -r7, lsl #10
 13c:	88048705 	stmdahi	r4, {r0, r2, r8, r9, sl, pc}
 140:	8e028903 	vmlahi.f16	s16, s4, s6	; <UNPREDICTABLE>
 144:	300e4101 	andcc	r4, lr, r1, lsl #2
 148:	0e0a5b02 	vmlaeq.f64	d5, d10, d2
 14c:	000b421c 	andeq	r4, fp, ip, lsl r2
 150:	00000020 	andeq	r0, r0, r0, lsr #32
 154:	00000098 	muleq	r0, r8, r0
 158:	10000a30 	andne	r0, r0, r0, lsr sl
 15c:	00000094 	muleq	r0, r4, r0
 160:	84140e41 	ldrhi	r0, [r4], #-3649	; 0xfffff1bf
 164:	86048505 	strhi	r8, [r4], -r5, lsl #10
 168:	8e028703 	cdphi	7, 0, cr8, cr2, cr3, {0}
 16c:	580e4101 	stmdapl	lr, {r0, r8, lr}
 170:	140e4702 	strne	r4, [lr], #-1794	; 0xfffff8fe
 174:	00000028 	andeq	r0, r0, r8, lsr #32
 178:	00000098 	muleq	r0, r8, r0
 17c:	10000ac4 	andne	r0, r0, r4, asr #21
 180:	000000c6 	andeq	r0, r0, r6, asr #1
 184:	84240e42 	strthi	r0, [r4], #-3650	; 0xfffff1be
 188:	86088509 	strhi	r8, [r8], -r9, lsl #10
 18c:	88068707 	stmdahi	r6, {r0, r1, r2, r8, r9, sl, pc}
 190:	8a048905 	bhi	1225ac <__ROM_SIZE+0xa25ac>
 194:	8e028b03 	vmlahi.f64	d8, d2, d3
 198:	780e4101 	stmdavc	lr, {r0, r8, lr}
 19c:	240e5e02 	strcs	r5, [lr], #-3586	; 0xfffff1fe
 1a0:	0000003c 	andeq	r0, r0, ip, lsr r0
 1a4:	00000098 	muleq	r0, r8, r0
 1a8:	10000b90 	mulne	r0, r0, fp
 1ac:	000003ea 	andeq	r0, r0, sl, ror #7
 1b0:	84240e42 	strthi	r0, [r4], #-3650	; 0xfffff1be
 1b4:	86088509 	strhi	r8, [r8], -r9, lsl #10
 1b8:	88068707 	stmdahi	r6, {r0, r1, r2, r8, r9, sl, pc}
 1bc:	8a048905 	bhi	1225d8 <__ROM_SIZE+0xa25d8>
 1c0:	8e028b03 	vmlahi.f64	d8, d2, d3
 1c4:	2c0e4201 	sfmcs	f4, 4, [lr], {1}
 1c8:	050b5005 	streq	r5, [fp, #-5]
 1cc:	0e410a51 			; <UNDEFINED> instruction: 0x0e410a51
 1d0:	01250370 			; <UNDEFINED> instruction: 0x01250370
 1d4:	422c0e0a 	eormi	r0, ip, #10, 28	; 0xa0
 1d8:	51065006 	tstpl	r6, r6
 1dc:	0b42240e 	bleq	108921c <__ROM_SIZE+0x100921c>
 1e0:	00000040 	andeq	r0, r0, r0, asr #32
 1e4:	00000098 	muleq	r0, r8, r0
 1e8:	10000f80 	andne	r0, r0, r0, lsl #31
 1ec:	00000396 	muleq	r0, r6, r3
 1f0:	84240e42 	strthi	r0, [r4], #-3650	; 0xfffff1be
 1f4:	86088509 	strhi	r8, [r8], -r9, lsl #10
 1f8:	88068707 	stmdahi	r6, {r0, r1, r2, r8, r9, sl, pc}
 1fc:	8a048905 	bhi	122618 <__ROM_SIZE+0xa2618>
 200:	8e028b03 	vmlahi.f64	d8, d2, d3
 204:	2c0e4201 	sfmcs	f4, 4, [lr], {1}
 208:	050b5005 	streq	r5, [fp, #-5]
 20c:	0e410a51 			; <UNDEFINED> instruction: 0x0e410a51
 210:	8d030180 	stfhis	f0, [r3, #-512]	; 0xfffffe00
 214:	2c0e0a01 			; <UNDEFINED> instruction: 0x2c0e0a01
 218:	06500642 	ldrbeq	r0, [r0], -r2, asr #12
 21c:	42240e51 	eormi	r0, r4, #1296	; 0x510
 220:	0000000b 	andeq	r0, r0, fp
 224:	0000002c 	andeq	r0, r0, ip, lsr #32
 228:	00000098 	muleq	r0, r8, r0
 22c:	10001318 	andne	r1, r0, r8, lsl r3
 230:	00000680 	andeq	r0, r0, r0, lsl #13
 234:	84240e42 	strthi	r0, [r4], #-3650	; 0xfffff1be
 238:	86088509 	strhi	r8, [r8], -r9, lsl #10
 23c:	88068707 	stmdahi	r6, {r0, r1, r2, r8, r9, sl, pc}
 240:	8a048905 	bhi	12265c <__ROM_SIZE+0xa265c>
 244:	8e028b03 	vmlahi.f64	d8, d2, d3
 248:	600e4101 	andvs	r4, lr, r1, lsl #2
 24c:	0e033803 	cdpeq	8, 0, cr3, cr3, cr3, {0}
 250:	00000024 	andeq	r0, r0, r4, lsr #32
 254:	00000014 	andeq	r0, r0, r4, lsl r0
 258:	00000098 	muleq	r0, r8, r0
 25c:	10001998 	mulne	r0, r8, r9
 260:	0000000c 	andeq	r0, r0, ip
 264:	83080e43 	movwhi	r0, #36419	; 0x8e43
 268:	00018e02 	andeq	r8, r1, r2, lsl #28
 26c:	00000030 	andeq	r0, r0, r0, lsr r0
 270:	00000098 	muleq	r0, r8, r0
 274:	100019a4 	andne	r1, r0, r4, lsr #19
 278:	0000002c 	andeq	r0, r0, ip, lsr #32
 27c:	80100e41 	andshi	r0, r0, r1, asr #28
 280:	82038104 	andhi	r8, r3, #4, 2
 284:	41018302 	tstmi	r1, r2, lsl #6
 288:	058e140e 	streq	r1, [lr, #1038]	; 0x40e
 28c:	4c280e41 	stcmi	14, cr0, [r8], #-260	; 0xfffffefc
 290:	ce42140e 	cdpgt	4, 4, cr1, cr2, cr14, {0}
 294:	c341100e 	movtgt	r1, #4110	; 0x100e
 298:	0ec0c1c2 	acseqdm	f4, f2
 29c:	00000000 	andeq	r0, r0, r0
 2a0:	0000002c 	andeq	r0, r0, ip, lsr #32
 2a4:	00000098 	muleq	r0, r8, r0
 2a8:	00000000 	andeq	r0, r0, r0
 2ac:	0000002c 	andeq	r0, r0, ip, lsr #32
 2b0:	810c0e41 	tsthi	ip, r1, asr #28
 2b4:	83028203 	movwhi	r8, #8707	; 0x2203
 2b8:	100e4101 	andne	r4, lr, r1, lsl #2
 2bc:	0e41048e 	cdpeq	4, 4, cr0, cr1, cr14, {4}
 2c0:	100e4c20 	andne	r4, lr, r0, lsr #24
 2c4:	0c0ece42 	stceq	14, cr12, [lr], {66}	; 0x42
 2c8:	c1c2c341 	bicgt	ip, r2, r1, asr #6
 2cc:	0000000e 	andeq	r0, r0, lr
 2d0:	0000002c 	andeq	r0, r0, ip, lsr #32
 2d4:	00000098 	muleq	r0, r8, r0
 2d8:	00000000 	andeq	r0, r0, r0
 2dc:	00000028 	andeq	r0, r0, r8, lsr #32
 2e0:	82080e41 	andhi	r0, r8, #1040	; 0x410
 2e4:	41018302 	tstmi	r1, r2, lsl #6
 2e8:	0484100e 	streq	r1, [r4], #14
 2ec:	0e41038e 	cdpeq	3, 4, cr0, cr1, cr14, {4}
 2f0:	100e4b20 	andne	r4, lr, r0, lsr #22
 2f4:	0ec4ce42 	cdpeq	14, 12, cr12, cr4, cr2, {2}
 2f8:	c2c34108 	sbcgt	r4, r3, #8, 2
 2fc:	0000000e 	andeq	r0, r0, lr
 300:	00000018 	andeq	r0, r0, r8, lsl r0
 304:	00000098 	muleq	r0, r8, r0
 308:	00000000 	andeq	r0, r0, r0
 30c:	00000020 	andeq	r0, r0, r0, lsr #32
 310:	8e040e41 	cdphi	14, 0, cr0, cr4, cr1, {2}
 314:	180e4101 	stmdane	lr, {r0, r8, lr}
 318:	00040e49 	andeq	r0, r4, r9, asr #28
 31c:	00000018 	andeq	r0, r0, r8, lsl r0
 320:	00000098 	muleq	r0, r8, r0
 324:	00000000 	andeq	r0, r0, r0
 328:	0000001c 	andeq	r0, r0, ip, lsl r0
 32c:	8e040e41 	cdphi	14, 0, cr0, cr4, cr1, {2}
 330:	100e4101 	andne	r4, lr, r1, lsl #2
 334:	00040e48 	andeq	r0, r4, r8, asr #28
 338:	00000028 	andeq	r0, r0, r8, lsr #32
 33c:	00000098 	muleq	r0, r8, r0
 340:	00000000 	andeq	r0, r0, r0
 344:	00000030 	andeq	r0, r0, r0, lsr r0
 348:	82080e41 	andhi	r0, r8, #1040	; 0x410
 34c:	41018302 	tstmi	r1, r2, lsl #6
 350:	038e0c0e 	orreq	r0, lr, #3584	; 0xe00
 354:	4e280e41 	cdpmi	14, 2, cr0, cr8, cr1, {2}
 358:	ce420c0e 	cdpgt	12, 4, cr0, cr2, cr14, {0}
 35c:	c341080e 	movtgt	r0, #6158	; 0x180e
 360:	00000ec2 	andeq	r0, r0, r2, asr #29
 364:	0000000c 	andeq	r0, r0, ip
 368:	ffffffff 			; <UNDEFINED> instruction: 0xffffffff
 36c:	7c020001 	stcvc	0, cr0, [r2], {1}
 370:	000d0c0e 	andeq	r0, sp, lr, lsl #24
 374:	0000000c 	andeq	r0, r0, ip
 378:	00000364 	andeq	r0, r0, r4, ror #6
 37c:	100019d0 	ldrdne	r1, [r0], -r0
 380:	0000000c 	andeq	r0, r0, ip
 384:	0000000c 	andeq	r0, r0, ip
 388:	00000364 	andeq	r0, r0, r4, ror #6
 38c:	100019dc 	ldrdne	r1, [r0], -ip
 390:	0000000c 	andeq	r0, r0, ip
 394:	00000014 	andeq	r0, r0, r4, lsl r0
 398:	00000364 	andeq	r0, r0, r4, ror #6
 39c:	00000000 	andeq	r0, r0, r0
 3a0:	00000014 	andeq	r0, r0, r4, lsl r0
 3a4:	84080e41 	strhi	r0, [r8], #-3649	; 0xfffff1bf
 3a8:	00018e02 	andeq	r8, r1, r2, lsl #28
 3ac:	0000000c 	andeq	r0, r0, ip
 3b0:	ffffffff 			; <UNDEFINED> instruction: 0xffffffff
 3b4:	7c020001 	stcvc	0, cr0, [r2], {1}
 3b8:	000d0c0e 	andeq	r0, sp, lr, lsl #24
 3bc:	00000014 	andeq	r0, r0, r4, lsl r0
 3c0:	000003ac 	andeq	r0, r0, ip, lsr #7
 3c4:	100019e8 	andne	r1, r0, r8, ror #19
 3c8:	0000002c 	andeq	r0, r0, ip, lsr #32
 3cc:	54080e41 	strpl	r0, [r8], #-3649	; 0xfffff1bf
 3d0:	0000000e 	andeq	r0, r0, lr
 3d4:	0000000c 	andeq	r0, r0, ip
 3d8:	000003ac 	andeq	r0, r0, ip, lsr #7
 3dc:	10001a14 	andne	r1, r0, r4, lsl sl
 3e0:	00000036 	andeq	r0, r0, r6, lsr r0
 3e4:	0000000c 	andeq	r0, r0, ip
 3e8:	000003ac 	andeq	r0, r0, ip, lsr #7
 3ec:	00000000 	andeq	r0, r0, r0
 3f0:	00000016 	andeq	r0, r0, r6, lsl r0
 3f4:	0000001c 	andeq	r0, r0, ip, lsl r0
 3f8:	000003ac 	andeq	r0, r0, ip, lsr #7
 3fc:	00000000 	andeq	r0, r0, r0
 400:	00000074 	andeq	r0, r0, r4, ror r0
 404:	83180e41 	tsthi	r8, #1040	; 0x410
 408:	85058406 	strhi	r8, [r5, #-1030]	; 0xfffffbfa
 40c:	87038604 	strhi	r8, [r3, -r4, lsl #12]
 410:	00018e02 	andeq	r8, r1, r2, lsl #28
 414:	0000001c 	andeq	r0, r0, ip, lsl r0
 418:	000003ac 	andeq	r0, r0, ip, lsr #7
 41c:	10001a4c 	andne	r1, r0, ip, asr #20
 420:	000001bc 			; <UNDEFINED> instruction: 0x000001bc
 424:	83180e41 	tsthi	r8, #1040	; 0x410
 428:	85058406 	strhi	r8, [r5, #-1030]	; 0xfffffbfa
 42c:	87038604 	strhi	r8, [r3, -r4, lsl #12]
 430:	00018e02 	andeq	r8, r1, r2, lsl #28
 434:	00000014 	andeq	r0, r0, r4, lsl r0
 438:	000003ac 	andeq	r0, r0, ip, lsr #7
 43c:	00000000 	andeq	r0, r0, r0
 440:	00000014 	andeq	r0, r0, r4, lsl r0
 444:	83080e41 	movwhi	r0, #36417	; 0x8e41
 448:	00018e02 	andeq	r8, r1, r2, lsl #28
 44c:	0000000c 	andeq	r0, r0, ip
 450:	ffffffff 			; <UNDEFINED> instruction: 0xffffffff
 454:	7c020001 	stcvc	0, cr0, [r2], {1}
 458:	000d0c0e 	andeq	r0, sp, lr, lsl #24
 45c:	0000000c 	andeq	r0, r0, ip
 460:	0000044c 	andeq	r0, r0, ip, asr #8
 464:	10001c94 	mulne	r0, r4, ip
 468:	00000010 	andeq	r0, r0, r0, lsl r0
 46c:	0000000c 	andeq	r0, r0, ip
 470:	ffffffff 			; <UNDEFINED> instruction: 0xffffffff
 474:	7c020001 	stcvc	0, cr0, [r2], {1}
 478:	000d0c0e 	andeq	r0, sp, lr, lsl #24
 47c:	00000018 	andeq	r0, r0, r8, lsl r0
 480:	0000046c 	andeq	r0, r0, ip, ror #8
 484:	10001ca4 	andne	r1, r0, r4, lsr #25
 488:	000000dc 	ldrdeq	r0, [r0], -ip
 48c:	84100e41 	ldrhi	r0, [r0], #-3649	; 0xfffff1bf
 490:	86038504 	strhi	r8, [r3], -r4, lsl #10
 494:	00018e02 	andeq	r8, r1, r2, lsl #28
 498:	0000000c 	andeq	r0, r0, ip
 49c:	0000046c 	andeq	r0, r0, ip, ror #8
 4a0:	10001d80 	andne	r1, r0, r0, lsl #27
 4a4:	00000010 	andeq	r0, r0, r0, lsl r0
 4a8:	0000000c 	andeq	r0, r0, ip
 4ac:	ffffffff 			; <UNDEFINED> instruction: 0xffffffff
 4b0:	7c020001 	stcvc	0, cr0, [r2], {1}
 4b4:	000d0c0e 	andeq	r0, sp, lr, lsl #24
 4b8:	0000001c 	andeq	r0, r0, ip, lsl r0
 4bc:	000004a8 	andeq	r0, r0, r8, lsr #9
 4c0:	10001d90 	mulne	r0, r0, sp
 4c4:	000000a4 	andeq	r0, r0, r4, lsr #1
 4c8:	83180e41 	tsthi	r8, #1040	; 0x410
 4cc:	85058406 	strhi	r8, [r5, #-1030]	; 0xfffffbfa
 4d0:	87038604 	strhi	r8, [r3, -r4, lsl #12]
 4d4:	00018e02 	andeq	r8, r1, r2, lsl #28
 4d8:	0000000c 	andeq	r0, r0, ip
 4dc:	000004a8 	andeq	r0, r0, r8, lsr #9
 4e0:	00000000 	andeq	r0, r0, r0
 4e4:	00000010 	andeq	r0, r0, r0, lsl r0
 4e8:	0000000c 	andeq	r0, r0, ip
 4ec:	ffffffff 			; <UNDEFINED> instruction: 0xffffffff
 4f0:	7c020001 	stcvc	0, cr0, [r2], {1}
 4f4:	000d0c0e 	andeq	r0, sp, lr, lsl #24
 4f8:	00000018 	andeq	r0, r0, r8, lsl r0
 4fc:	000004e8 	andeq	r0, r0, r8, ror #9
 500:	10001e34 	andne	r1, r0, r4, lsr lr
 504:	000000dc 	ldrdeq	r0, [r0], -ip
 508:	84100e42 	ldrhi	r0, [r0], #-3650	; 0xfffff1be
 50c:	86038504 	strhi	r8, [r3], -r4, lsl #10
 510:	00018e02 	andeq	r8, r1, r2, lsl #28
 514:	0000000c 	andeq	r0, r0, ip
 518:	ffffffff 			; <UNDEFINED> instruction: 0xffffffff
 51c:	7c020001 	stcvc	0, cr0, [r2], {1}
 520:	000d0c0e 	andeq	r0, sp, lr, lsl #24
 524:	0000001c 	andeq	r0, r0, ip, lsl r0
 528:	00000514 	andeq	r0, r0, r4, lsl r5
 52c:	10001f10 	andne	r1, r0, r0, lsl pc
 530:	00000108 	andeq	r0, r0, r8, lsl #2
 534:	84180e43 	ldrhi	r0, [r8], #-3651	; 0xfffff1bd
 538:	86058506 	strhi	r8, [r5], -r6, lsl #10
 53c:	88038704 	stmdahi	r3, {r2, r8, r9, sl, pc}
 540:	00018e02 	andeq	r8, r1, r2, lsl #28
 544:	00000018 	andeq	r0, r0, r8, lsl r0
 548:	00000514 	andeq	r0, r0, r4, lsl r5
 54c:	10002018 	andne	r2, r0, r8, lsl r0
 550:	00000078 	andeq	r0, r0, r8, ror r0
 554:	83100e41 	tsthi	r0, #1040	; 0x410
 558:	85038404 	strhi	r8, [r3, #-1028]	; 0xfffffbfc
 55c:	00018e02 	andeq	r8, r1, r2, lsl #28
 560:	0000000c 	andeq	r0, r0, ip
 564:	00000514 	andeq	r0, r0, r4, lsl r5
 568:	00000000 	andeq	r0, r0, r0
 56c:	00000024 	andeq	r0, r0, r4, lsr #32
 570:	0000000c 	andeq	r0, r0, ip
 574:	ffffffff 			; <UNDEFINED> instruction: 0xffffffff
 578:	7c020001 	stcvc	0, cr0, [r2], {1}
 57c:	000d0c0e 	andeq	r0, sp, lr, lsl #24
 580:	00000014 	andeq	r0, r0, r4, lsl r0
 584:	00000570 	andeq	r0, r0, r0, ror r5
 588:	10002090 	mulne	r0, r0, r0
 58c:	00000048 	andeq	r0, r0, r8, asr #32
 590:	84080e42 	strhi	r0, [r8], #-3650	; 0xfffff1be
 594:	00018e02 	andeq	r8, r1, r2, lsl #28
 598:	0000000c 	andeq	r0, r0, ip
 59c:	00000570 	andeq	r0, r0, r0, ror r5
 5a0:	100020d8 	ldrdne	r2, [r0], -r8
 5a4:	0000000c 	andeq	r0, r0, ip
 5a8:	00000014 	andeq	r0, r0, r4, lsl r0
 5ac:	00000570 	andeq	r0, r0, r0, ror r5
 5b0:	00000000 	andeq	r0, r0, r0
 5b4:	00000018 	andeq	r0, r0, r8, lsl r0
 5b8:	83080e41 	movwhi	r0, #36417	; 0x8e41
 5bc:	00018e02 	andeq	r8, r1, r2, lsl #28
 5c0:	00000014 	andeq	r0, r0, r4, lsl r0
 5c4:	00000570 	andeq	r0, r0, r0, ror r5
 5c8:	00000000 	andeq	r0, r0, r0
 5cc:	00000018 	andeq	r0, r0, r8, lsl r0
 5d0:	83080e41 	movwhi	r0, #36417	; 0x8e41
 5d4:	00018e02 	andeq	r8, r1, r2, lsl #28
 5d8:	00000018 	andeq	r0, r0, r8, lsl r0
 5dc:	00000570 	andeq	r0, r0, r0, ror r5
 5e0:	100020e4 	andne	r2, r0, r4, ror #1
 5e4:	0000002c 	andeq	r0, r0, ip, lsr #32
 5e8:	84100e41 	ldrhi	r0, [r0], #-3649	; 0xfffff1bf
 5ec:	86038504 	strhi	r8, [r3], -r4, lsl #10
 5f0:	00018e02 	andeq	r8, r1, r2, lsl #28
 5f4:	0000000c 	andeq	r0, r0, ip
 5f8:	00000570 	andeq	r0, r0, r0, ror r5
 5fc:	00000000 	andeq	r0, r0, r0
 600:	0000000c 	andeq	r0, r0, ip
 604:	0000000c 	andeq	r0, r0, ip
 608:	00000570 	andeq	r0, r0, r0, ror r5
 60c:	10002110 	andne	r2, r0, r0, lsl r1
 610:	0000000c 	andeq	r0, r0, ip
 614:	0000000c 	andeq	r0, r0, ip
 618:	00000570 	andeq	r0, r0, r0, ror r5
 61c:	1000211c 	andne	r2, r0, ip, lsl r1
 620:	0000000c 	andeq	r0, r0, ip
 624:	0000000c 	andeq	r0, r0, ip
 628:	00000570 	andeq	r0, r0, r0, ror r5
 62c:	10002128 	andne	r2, r0, r8, lsr #2
 630:	0000000c 	andeq	r0, r0, ip
 634:	0000000c 	andeq	r0, r0, ip
 638:	00000570 	andeq	r0, r0, r0, ror r5
 63c:	10002134 	andne	r2, r0, r4, lsr r1
 640:	0000000c 	andeq	r0, r0, ip
 644:	0000001c 	andeq	r0, r0, ip, lsl r0
 648:	00000570 	andeq	r0, r0, r0, ror r5
 64c:	10002140 	andne	r2, r0, r0, asr #2
 650:	00000070 	andeq	r0, r0, r0, ror r0
 654:	84080e41 	strhi	r0, [r8], #-3649	; 0xfffff1bf
 658:	47018e02 	strmi	r8, [r1, -r2, lsl #28]
 65c:	0ec4ce0a 	cdpeq	14, 12, cr12, cr4, cr10, {0}
 660:	000b4200 	andeq	r4, fp, r0, lsl #4
 664:	0000001c 	andeq	r0, r0, ip, lsl r0
 668:	00000570 	andeq	r0, r0, r0, ror r5
 66c:	100021b0 			; <UNDEFINED> instruction: 0x100021b0
 670:	0000008c 	andeq	r0, r0, ip, lsl #1
 674:	83180e41 	tsthi	r8, #1040	; 0x410
 678:	85058406 	strhi	r8, [r5, #-1030]	; 0xfffffbfa
 67c:	87038604 	strhi	r8, [r3, -r4, lsl #12]
 680:	00018e02 	andeq	r8, r1, r2, lsl #28
 684:	00000018 	andeq	r0, r0, r8, lsl r0
 688:	00000570 	andeq	r0, r0, r0, ror r5
 68c:	00000000 	andeq	r0, r0, r0
 690:	0000001c 	andeq	r0, r0, ip, lsl r0
 694:	83080e41 	movwhi	r0, #36417	; 0x8e41
 698:	47018e02 	strmi	r8, [r1, -r2, lsl #28]
 69c:	000ec3ce 	andeq	ip, lr, lr, asr #7
 6a0:	00000018 	andeq	r0, r0, r8, lsl r0
 6a4:	00000570 	andeq	r0, r0, r0, ror r5
 6a8:	00000000 	andeq	r0, r0, r0
 6ac:	0000001c 	andeq	r0, r0, ip, lsl r0
 6b0:	83080e41 	movwhi	r0, #36417	; 0x8e41
 6b4:	47018e02 	strmi	r8, [r1, -r2, lsl #28]
 6b8:	000ec3ce 	andeq	ip, lr, lr, asr #7
 6bc:	0000000c 	andeq	r0, r0, ip
 6c0:	ffffffff 			; <UNDEFINED> instruction: 0xffffffff
 6c4:	7c020001 	stcvc	0, cr0, [r2], {1}
 6c8:	000d0c0e 	andeq	r0, sp, lr, lsl #24
 6cc:	0000001c 	andeq	r0, r0, ip, lsl r0
 6d0:	000006bc 			; <UNDEFINED> instruction: 0x000006bc
 6d4:	00000000 	andeq	r0, r0, r0
 6d8:	0000003a 	andeq	r0, r0, sl, lsr r0
 6dc:	84180e42 	ldrhi	r0, [r8], #-3650	; 0xfffff1be
 6e0:	86058506 	strhi	r8, [r5], -r6, lsl #10
 6e4:	88038704 	stmdahi	r3, {r2, r8, r9, sl, pc}
 6e8:	00018e02 	andeq	r8, r1, r2, lsl #28
 6ec:	00000020 	andeq	r0, r0, r0, lsr #32
 6f0:	000006bc 			; <UNDEFINED> instruction: 0x000006bc
 6f4:	1000223c 	andne	r2, r0, ip, lsr r2
 6f8:	0000003e 	andeq	r0, r0, lr, lsr r0
 6fc:	83200e42 			; <UNDEFINED> instruction: 0x83200e42
 700:	85078408 	strhi	r8, [r7, #-1032]	; 0xfffffbf8
 704:	87058606 	strhi	r8, [r5, -r6, lsl #12]
 708:	89038804 	stmdbhi	r3, {r2, fp, pc}
 70c:	00018e02 	andeq	r8, r1, r2, lsl #28
 710:	0000000c 	andeq	r0, r0, ip
 714:	ffffffff 			; <UNDEFINED> instruction: 0xffffffff
 718:	7c020001 	stcvc	0, cr0, [r2], {1}
 71c:	000d0c0e 	andeq	r0, sp, lr, lsl #24
 720:	0000000c 	andeq	r0, r0, ip
 724:	00000710 	andeq	r0, r0, r0, lsl r7
 728:	00000000 	andeq	r0, r0, r0
 72c:	00000002 	andeq	r0, r0, r2
 730:	0000000c 	andeq	r0, r0, ip
 734:	00000710 	andeq	r0, r0, r0, lsl r7
 738:	1000227a 	andne	r2, r0, sl, ror r2
 73c:	00000002 	andeq	r0, r0, r2
 740:	0000000c 	andeq	r0, r0, ip
 744:	00000710 	andeq	r0, r0, r0, lsl r7
 748:	00000000 	andeq	r0, r0, r0
 74c:	00000002 	andeq	r0, r0, r2
 750:	0000000c 	andeq	r0, r0, ip
 754:	00000710 	andeq	r0, r0, r0, lsl r7
 758:	00000000 	andeq	r0, r0, r0
 75c:	00000002 	andeq	r0, r0, r2
 760:	0000000c 	andeq	r0, r0, ip
 764:	00000710 	andeq	r0, r0, r0, lsl r7
 768:	00000000 	andeq	r0, r0, r0
 76c:	00000002 	andeq	r0, r0, r2
 770:	0000000c 	andeq	r0, r0, ip
 774:	00000710 	andeq	r0, r0, r0, lsl r7
 778:	1000227c 	andne	r2, r0, ip, ror r2
 77c:	00000002 	andeq	r0, r0, r2
 780:	0000000c 	andeq	r0, r0, ip
 784:	00000710 	andeq	r0, r0, r0, lsl r7
 788:	00000000 	andeq	r0, r0, r0
 78c:	00000004 	andeq	r0, r0, r4
 790:	0000000c 	andeq	r0, r0, ip
 794:	00000710 	andeq	r0, r0, r0, lsl r7
 798:	00000000 	andeq	r0, r0, r0
 79c:	00000004 	andeq	r0, r0, r4
 7a0:	0000000c 	andeq	r0, r0, ip
 7a4:	00000710 	andeq	r0, r0, r0, lsl r7
 7a8:	00000000 	andeq	r0, r0, r0
 7ac:	00000002 	andeq	r0, r0, r2
 7b0:	0000000c 	andeq	r0, r0, ip
 7b4:	00000710 	andeq	r0, r0, r0, lsl r7
 7b8:	1000227e 	andne	r2, r0, lr, ror r2
 7bc:	00000002 	andeq	r0, r0, r2
 7c0:	0000000c 	andeq	r0, r0, ip
 7c4:	ffffffff 			; <UNDEFINED> instruction: 0xffffffff
 7c8:	7c020001 	stcvc	0, cr0, [r2], {1}
 7cc:	000d0c0e 	andeq	r0, sp, lr, lsl #24
 7d0:	00000020 	andeq	r0, r0, r0, lsr #32
 7d4:	000007c0 	andeq	r0, r0, r0, asr #15
 7d8:	10002280 	andne	r2, r0, r0, lsl #5
 7dc:	0000004a 	andeq	r0, r0, sl, asr #32
 7e0:	84100e41 	ldrhi	r0, [r0], #-3649	; 0xfffff1bf
 7e4:	86038504 	strhi	r8, [r3], -r4, lsl #10
 7e8:	44018e02 	strmi	r8, [r1], #-3586	; 0xfffff1fe
 7ec:	0e5f680e 	cdpeq	8, 5, cr6, cr15, cr14, {0}
 7f0:	00000010 	andeq	r0, r0, r0, lsl r0
 7f4:	00000020 	andeq	r0, r0, r0, lsr #32
 7f8:	000007c0 	andeq	r0, r0, r0, asr #15
 7fc:	100022cc 	andne	r2, r0, ip, asr #5
 800:	00000080 	andeq	r0, r0, r0, lsl #1
 804:	84180e42 	ldrhi	r0, [r8], #-3650	; 0xfffff1be
 808:	86038504 	strhi	r8, [r3], -r4, lsl #10
 80c:	4b018e02 	blmi	6401c <__RAM_SIZE+0x4401c>
 810:	41100e0a 	tstmi	r0, sl, lsl #28
 814:	0000000b 	andeq	r0, r0, fp
 818:	0000000c 	andeq	r0, r0, ip
 81c:	ffffffff 			; <UNDEFINED> instruction: 0xffffffff
 820:	7c020001 	stcvc	0, cr0, [r2], {1}
 824:	000d0c0e 	andeq	r0, sp, lr, lsl #24
 828:	00000024 	andeq	r0, r0, r4, lsr #32
 82c:	00000818 	andeq	r0, r0, r8, lsl r8
 830:	1000234c 	andne	r2, r0, ip, asr #6
 834:	00000098 	muleq	r0, r8, r0
 838:	84180e41 	ldrhi	r0, [r8], #-3649	; 0xfffff1bf
 83c:	8e028503 	cfsh32hi	mvfx8, mvfx2, #3
 840:	0e0a5201 	cdpeq	2, 0, cr5, cr10, cr1, {0}
 844:	c5ce420c 	strbgt	r4, [lr, #524]	; 0x20c
 848:	42000ec4 	andmi	r0, r0, #196, 28	; 0xc40
 84c:	0c0e710b 	stfeqs	f7, [lr], {11}
 850:	0000000c 	andeq	r0, r0, ip
 854:	ffffffff 			; <UNDEFINED> instruction: 0xffffffff
 858:	7c020001 	stcvc	0, cr0, [r2], {1}
 85c:	000d0c0e 	andeq	r0, sp, lr, lsl #24
 860:	00000018 	andeq	r0, r0, r8, lsl r0
 864:	00000850 	andeq	r0, r0, r0, asr r8
 868:	100023e4 	andne	r2, r0, r4, ror #7
 86c:	00000040 	andeq	r0, r0, r0, asr #32
 870:	84100e41 	ldrhi	r0, [r0], #-3649	; 0xfffff1bf
 874:	86038504 	strhi	r8, [r3], -r4, lsl #10
 878:	00018e02 	andeq	r8, r1, r2, lsl #28
 87c:	0000001c 	andeq	r0, r0, ip, lsl r0
 880:	00000850 	andeq	r0, r0, r0, asr r8
 884:	10002424 	andne	r2, r0, r4, lsr #8
 888:	000000e8 	andeq	r0, r0, r8, ror #1
 88c:	84180e42 	ldrhi	r0, [r8], #-3650	; 0xfffff1be
 890:	86058506 	strhi	r8, [r5], -r6, lsl #10
 894:	88038704 	stmdahi	r3, {r2, r8, r9, sl, pc}
 898:	00018e02 	andeq	r8, r1, r2, lsl #28
 89c:	0000000c 	andeq	r0, r0, ip
 8a0:	ffffffff 			; <UNDEFINED> instruction: 0xffffffff
 8a4:	7c020001 	stcvc	0, cr0, [r2], {1}
 8a8:	000d0c0e 	andeq	r0, sp, lr, lsl #24
 8ac:	00000018 	andeq	r0, r0, r8, lsl r0
 8b0:	0000089c 	muleq	r0, ip, r8
 8b4:	1000250c 	andne	r2, r0, ip, lsl #10
 8b8:	00000020 	andeq	r0, r0, r0, lsr #32
 8bc:	83100e41 	tsthi	r0, #1040	; 0x410
 8c0:	85038404 	strhi	r8, [r3, #-1028]	; 0xfffffbfc
 8c4:	00018e02 	andeq	r8, r1, r2, lsl #28
 8c8:	0000000c 	andeq	r0, r0, ip
 8cc:	ffffffff 			; <UNDEFINED> instruction: 0xffffffff
 8d0:	7c020001 	stcvc	0, cr0, [r2], {1}
 8d4:	000d0c0e 	andeq	r0, sp, lr, lsl #24
 8d8:	00000014 	andeq	r0, r0, r4, lsl r0
 8dc:	000008c8 	andeq	r0, r0, r8, asr #17
 8e0:	1000252c 	andne	r2, r0, ip, lsr #10
 8e4:	00000022 	andeq	r0, r0, r2, lsr #32
 8e8:	84080e41 	strhi	r0, [r8], #-3649	; 0xfffff1bf
 8ec:	00018e02 	andeq	r8, r1, r2, lsl #28
 8f0:	0000000c 	andeq	r0, r0, ip
 8f4:	000008c8 	andeq	r0, r0, r8, asr #17
 8f8:	00000000 	andeq	r0, r0, r0
 8fc:	00000004 	andeq	r0, r0, r4
 900:	00000024 	andeq	r0, r0, r4, lsr #32
 904:	000008c8 	andeq	r0, r0, r8, asr #17
 908:	1000254e 	andne	r2, r0, lr, asr #10
 90c:	00000038 	andeq	r0, r0, r8, lsr r0
 910:	84180e42 	ldrhi	r0, [r8], #-3650	; 0xfffff1be
 914:	86058506 	strhi	r8, [r5], -r6, lsl #10
 918:	88038704 	stmdahi	r3, {r2, r8, r9, sl, pc}
 91c:	58018e02 	stmdapl	r1, {r1, r9, sl, fp, pc}
 920:	c6c7c8ce 	strbgt	ip, [r7], lr, asr #17
 924:	000ec4c5 	andeq	ip, lr, r5, asr #9
 928:	00000014 	andeq	r0, r0, r4, lsl r0
 92c:	000008c8 	andeq	r0, r0, r8, asr #17
 930:	10002586 	andne	r2, r0, r6, lsl #11
 934:	00000024 	andeq	r0, r0, r4, lsr #32
 938:	84080e41 	strhi	r0, [r8], #-3649	; 0xfffff1bf
 93c:	00018e02 	andeq	r8, r1, r2, lsl #28
 940:	0000000c 	andeq	r0, r0, ip
 944:	000008c8 	andeq	r0, r0, r8, asr #17
 948:	100025aa 	andne	r2, r0, sl, lsr #11
 94c:	00000008 	andeq	r0, r0, r8
 950:	0000000c 	andeq	r0, r0, ip
 954:	ffffffff 			; <UNDEFINED> instruction: 0xffffffff
 958:	7c020001 	stcvc	0, cr0, [r2], {1}
 95c:	000d0c0e 	andeq	r0, sp, lr, lsl #24
 960:	00000018 	andeq	r0, r0, r8, lsl r0
 964:	00000950 	andeq	r0, r0, r0, asr r9
 968:	100025b4 			; <UNDEFINED> instruction: 0x100025b4
 96c:	00000024 	andeq	r0, r0, r4, lsr #32
 970:	83100e41 	tsthi	r0, #1040	; 0x410
 974:	85038404 	strhi	r8, [r3, #-1028]	; 0xfffffbfc
 978:	00018e02 	andeq	r8, r1, r2, lsl #28
 97c:	0000000c 	andeq	r0, r0, ip
 980:	ffffffff 			; <UNDEFINED> instruction: 0xffffffff
 984:	7c020001 	stcvc	0, cr0, [r2], {1}
 988:	000d0c0e 	andeq	r0, sp, lr, lsl #24
 98c:	00000018 	andeq	r0, r0, r8, lsl r0
 990:	0000097c 	andeq	r0, r0, ip, ror r9
 994:	100025d8 	ldrdne	r2, [r0], -r8
 998:	00000020 	andeq	r0, r0, r0, lsr #32
 99c:	83100e41 	tsthi	r0, #1040	; 0x410
 9a0:	85038404 	strhi	r8, [r3, #-1028]	; 0xfffffbfc
 9a4:	00018e02 	andeq	r8, r1, r2, lsl #28
 9a8:	0000000c 	andeq	r0, r0, ip
 9ac:	ffffffff 			; <UNDEFINED> instruction: 0xffffffff
 9b0:	7c020001 	stcvc	0, cr0, [r2], {1}
 9b4:	000d0c0e 	andeq	r0, sp, lr, lsl #24
 9b8:	00000018 	andeq	r0, r0, r8, lsl r0
 9bc:	000009a8 	andeq	r0, r0, r8, lsr #19
 9c0:	100025f8 	strdne	r2, [r0], -r8
 9c4:	00000024 	andeq	r0, r0, r4, lsr #32
 9c8:	83100e41 	tsthi	r0, #1040	; 0x410
 9cc:	85038404 	strhi	r8, [r3, #-1028]	; 0xfffffbfc
 9d0:	00018e02 	andeq	r8, r1, r2, lsl #28
 9d4:	0000000c 	andeq	r0, r0, ip
 9d8:	ffffffff 			; <UNDEFINED> instruction: 0xffffffff
 9dc:	7c020001 	stcvc	0, cr0, [r2], {1}
 9e0:	000d0c0e 	andeq	r0, sp, lr, lsl #24
 9e4:	00000018 	andeq	r0, r0, r8, lsl r0
 9e8:	000009d4 	ldrdeq	r0, [r0], -r4
 9ec:	1000261c 	andne	r2, r0, ip, lsl r6
 9f0:	00000020 	andeq	r0, r0, r0, lsr #32
 9f4:	83100e41 	tsthi	r0, #1040	; 0x410
 9f8:	85038404 	strhi	r8, [r3, #-1028]	; 0xfffffbfc
 9fc:	00018e02 	andeq	r8, r1, r2, lsl #28
 a00:	0000000c 	andeq	r0, r0, ip
 a04:	ffffffff 			; <UNDEFINED> instruction: 0xffffffff
 a08:	7c020001 	stcvc	0, cr0, [r2], {1}
 a0c:	000d0c0e 	andeq	r0, sp, lr, lsl #24
 a10:	00000018 	andeq	r0, r0, r8, lsl r0
 a14:	00000a00 	andeq	r0, r0, r0, lsl #20
 a18:	1000263c 	andne	r2, r0, ip, lsr r6
 a1c:	00000024 	andeq	r0, r0, r4, lsr #32
 a20:	83100e41 	tsthi	r0, #1040	; 0x410
 a24:	85038404 	strhi	r8, [r3, #-1028]	; 0xfffffbfc
 a28:	00018e02 	andeq	r8, r1, r2, lsl #28
 a2c:	0000000c 	andeq	r0, r0, ip
 a30:	ffffffff 			; <UNDEFINED> instruction: 0xffffffff
 a34:	7c020001 	stcvc	0, cr0, [r2], {1}
 a38:	000d0c0e 	andeq	r0, sp, lr, lsl #24
 a3c:	0000000c 	andeq	r0, r0, ip
 a40:	00000a2c 	andeq	r0, r0, ip, lsr #20
 a44:	10002660 	andne	r2, r0, r0, ror #12
 a48:	0000000c 	andeq	r0, r0, ip
 a4c:	0000000c 	andeq	r0, r0, ip
 a50:	00000a2c 	andeq	r0, r0, ip, lsr #20
 a54:	1000266c 	andne	r2, r0, ip, ror #12
 a58:	0000000c 	andeq	r0, r0, ip
 a5c:	0000000c 	andeq	r0, r0, ip
 a60:	ffffffff 			; <UNDEFINED> instruction: 0xffffffff
 a64:	7c020001 	stcvc	0, cr0, [r2], {1}
 a68:	000d0c0e 	andeq	r0, sp, lr, lsl #24
 a6c:	00000018 	andeq	r0, r0, r8, lsl r0
 a70:	00000a5c 	andeq	r0, r0, ip, asr sl
 a74:	10002678 	andne	r2, r0, r8, ror r6
 a78:	00000024 	andeq	r0, r0, r4, lsr #32
 a7c:	83100e41 	tsthi	r0, #1040	; 0x410
 a80:	85038404 	strhi	r8, [r3, #-1028]	; 0xfffffbfc
 a84:	00018e02 	andeq	r8, r1, r2, lsl #28
 a88:	0000000c 	andeq	r0, r0, ip
 a8c:	ffffffff 			; <UNDEFINED> instruction: 0xffffffff
 a90:	7c020001 	stcvc	0, cr0, [r2], {1}
 a94:	000d0c0e 	andeq	r0, sp, lr, lsl #24
 a98:	00000020 	andeq	r0, r0, r0, lsr #32
 a9c:	00000a88 	andeq	r0, r0, r8, lsl #21
 aa0:	00000000 	andeq	r0, r0, r0
 aa4:	0000001a 	andeq	r0, r0, sl, lsl r0
 aa8:	83100e41 	tsthi	r0, #1040	; 0x410
 aac:	85038404 	strhi	r8, [r3, #-1028]	; 0xfffffbfc
 ab0:	4a018e02 	bmi	642c0 <__RAM_SIZE+0x442c0>
 ab4:	c3c4c5ce 	bicgt	ip, r4, #864026624	; 0x33800000
 ab8:	0000000e 	andeq	r0, r0, lr
 abc:	00000024 	andeq	r0, r0, r4, lsr #32
 ac0:	00000a88 	andeq	r0, r0, r8, lsl #21
 ac4:	00000000 	andeq	r0, r0, r0
 ac8:	000000b8 	strheq	r0, [r0], -r8
 acc:	84100e44 	ldrhi	r0, [r0], #-3652	; 0xfffff1bc
 ad0:	86038504 	strhi	r8, [r3], -r4, lsl #10
 ad4:	7f018e02 	svcvc	0x00018e02
 ad8:	c5c6ce0a 	strbgt	ip, [r6, #3594]	; 0xe0a
 adc:	42000ec4 	andmi	r0, r0, #196, 28	; 0xc40
 ae0:	0000000b 	andeq	r0, r0, fp
 ae4:	0000000c 	andeq	r0, r0, ip
 ae8:	ffffffff 			; <UNDEFINED> instruction: 0xffffffff
 aec:	7c020001 	stcvc	0, cr0, [r2], {1}
 af0:	000d0c0e 	andeq	r0, sp, lr, lsl #24
 af4:	0000000c 	andeq	r0, r0, ip
 af8:	00000ae4 	andeq	r0, r0, r4, ror #21
 afc:	1000269c 	mulne	r0, ip, r6
 b00:	00000010 	andeq	r0, r0, r0, lsl r0
 b04:	0000000c 	andeq	r0, r0, ip
 b08:	ffffffff 			; <UNDEFINED> instruction: 0xffffffff
 b0c:	7c020001 	stcvc	0, cr0, [r2], {1}
 b10:	000d0c0e 	andeq	r0, sp, lr, lsl #24
 b14:	0000000c 	andeq	r0, r0, ip
 b18:	00000b04 	andeq	r0, r0, r4, lsl #22
 b1c:	100026ac 	andne	r2, r0, ip, lsr #13
 b20:	00000010 	andeq	r0, r0, r0, lsl r0
 b24:	0000000c 	andeq	r0, r0, ip
 b28:	ffffffff 			; <UNDEFINED> instruction: 0xffffffff
 b2c:	7c020001 	stcvc	0, cr0, [r2], {1}
 b30:	000d0c0e 	andeq	r0, sp, lr, lsl #24
 b34:	0000000c 	andeq	r0, r0, ip
 b38:	00000b24 	andeq	r0, r0, r4, lsr #22
 b3c:	100026bc 			; <UNDEFINED> instruction: 0x100026bc
 b40:	00000010 	andeq	r0, r0, r0, lsl r0
 b44:	0000000c 	andeq	r0, r0, ip
 b48:	ffffffff 			; <UNDEFINED> instruction: 0xffffffff
 b4c:	7c020001 	stcvc	0, cr0, [r2], {1}
 b50:	000d0c0e 	andeq	r0, sp, lr, lsl #24
 b54:	0000000c 	andeq	r0, r0, ip
 b58:	00000b44 	andeq	r0, r0, r4, asr #22
 b5c:	100026cc 	andne	r2, r0, ip, asr #13
 b60:	00000010 	andeq	r0, r0, r0, lsl r0
 b64:	0000000c 	andeq	r0, r0, ip
 b68:	ffffffff 			; <UNDEFINED> instruction: 0xffffffff
 b6c:	7c020001 	stcvc	0, cr0, [r2], {1}
 b70:	000d0c0e 	andeq	r0, sp, lr, lsl #24
 b74:	0000000c 	andeq	r0, r0, ip
 b78:	00000b64 	andeq	r0, r0, r4, ror #22
 b7c:	100026dc 	ldrdne	r2, [r0], -ip
 b80:	00000010 	andeq	r0, r0, r0, lsl r0
 b84:	0000000c 	andeq	r0, r0, ip
 b88:	ffffffff 			; <UNDEFINED> instruction: 0xffffffff
 b8c:	7c020001 	stcvc	0, cr0, [r2], {1}
 b90:	000d0c0e 	andeq	r0, sp, lr, lsl #24
 b94:	0000000c 	andeq	r0, r0, ip
 b98:	00000b84 	andeq	r0, r0, r4, lsl #23
 b9c:	100026ec 	andne	r2, r0, ip, ror #13
 ba0:	00000020 	andeq	r0, r0, r0, lsr #32
 ba4:	0000000c 	andeq	r0, r0, ip
 ba8:	ffffffff 			; <UNDEFINED> instruction: 0xffffffff
 bac:	7c020001 	stcvc	0, cr0, [r2], {1}
 bb0:	000d0c0e 	andeq	r0, sp, lr, lsl #24
 bb4:	0000000c 	andeq	r0, r0, ip
 bb8:	00000ba4 	andeq	r0, r0, r4, lsr #23
 bbc:	1000270c 	andne	r2, r0, ip, lsl #14
 bc0:	00000010 	andeq	r0, r0, r0, lsl r0
 bc4:	0000000c 	andeq	r0, r0, ip
 bc8:	ffffffff 			; <UNDEFINED> instruction: 0xffffffff
 bcc:	7c020001 	stcvc	0, cr0, [r2], {1}
 bd0:	000d0c0e 	andeq	r0, sp, lr, lsl #24
 bd4:	0000001c 	andeq	r0, r0, ip, lsl r0
 bd8:	00000bc4 	andeq	r0, r0, r4, asr #23
 bdc:	1000271c 	andne	r2, r0, ip, lsl r7
 be0:	00000282 	andeq	r0, r0, r2, lsl #5
 be4:	0c0e470a 	stceq	7, cr4, [lr], {10}
 be8:	02850384 	addeq	r0, r5, #132, 6	; 0x10000002
 bec:	3a03018e 	bcc	c122c <__ROM_SIZE+0x4122c>
 bf0:	00000b01 	andeq	r0, r0, r1, lsl #22
 bf4:	00000018 	andeq	r0, r0, r8, lsl r0
 bf8:	00000bc4 	andeq	r0, r0, r4, asr #23
 bfc:	100029a0 	andne	r2, r0, r0, lsr #19
 c00:	0000001e 	andeq	r0, r0, lr, lsl r0
 c04:	0c0e460a 	stceq	6, cr4, [lr], {10}
 c08:	02850384 	addeq	r0, r5, #132, 6	; 0x10000002
 c0c:	0b49018e 	bleq	124124c <__ROM_SIZE+0x11c124c>
 c10:	00000018 	andeq	r0, r0, r8, lsl r0
 c14:	00000bc4 	andeq	r0, r0, r4, asr #23
 c18:	100029c0 	andne	r2, r0, r0, asr #19
 c1c:	00000022 	andeq	r0, r0, r2, lsr #32
 c20:	0c0e460a 	stceq	6, cr4, [lr], {10}
 c24:	02850384 	addeq	r0, r5, #132, 6	; 0x10000002
 c28:	0b4b018e 	bleq	12c1268 <__ROM_SIZE+0x1241268>
 c2c:	00000018 	andeq	r0, r0, r8, lsl r0
 c30:	00000bc4 	andeq	r0, r0, r4, asr #23
 c34:	100029e4 	andne	r2, r0, r4, ror #19
 c38:	00000042 	andeq	r0, r0, r2, asr #32
 c3c:	0c0e5a0a 			; <UNDEFINED> instruction: 0x0c0e5a0a
 c40:	02850384 	addeq	r0, r5, #132, 6	; 0x10000002
 c44:	0b47018e 	bleq	11c1284 <__ROM_SIZE+0x1141284>
 c48:	00000024 	andeq	r0, r0, r4, lsr #32
 c4c:	00000bc4 	andeq	r0, r0, r4, asr #23
 c50:	10002a28 	andne	r2, r0, r8, lsr #20
 c54:	0000006a 	andeq	r0, r0, sl, rrx
 c58:	0e450a0a 	vmlaeq.f32	s1, s10, s20
 c5c:	8503840c 	strhi	r8, [r3, #-1036]	; 0xfffffbf4
 c60:	43018e02 	movwmi	r8, #7682	; 0x1e02
 c64:	0c0e450b 	cfstr32eq	mvfx4, [lr], {11}
 c68:	02850384 	addeq	r0, r5, #132, 6	; 0x10000002
 c6c:	0b68018e 	bleq	1a012ac <__ROM_SIZE+0x19812ac>
 c70:	0000000c 	andeq	r0, r0, ip
 c74:	ffffffff 			; <UNDEFINED> instruction: 0xffffffff
 c78:	7c020001 	stcvc	0, cr0, [r2], {1}
 c7c:	000d0c0e 	andeq	r0, sp, lr, lsl #24
 c80:	0000001c 	andeq	r0, r0, ip, lsl r0
 c84:	00000c70 	andeq	r0, r0, r0, ror ip
 c88:	10002a94 	mulne	r0, r4, sl
 c8c:	00000254 	andeq	r0, r0, r4, asr r2
 c90:	100e410a 	andne	r4, lr, sl, lsl #2
 c94:	03850484 	orreq	r0, r5, #132, 8	; 0x84000000
 c98:	018e0286 	orreq	r0, lr, r6, lsl #5
 c9c:	0b012903 	bleq	4b0b0 <__RAM_SIZE+0x2b0b0>
 ca0:	0000001c 	andeq	r0, r0, ip, lsl r0
 ca4:	00000c70 	andeq	r0, r0, r0, ror ip
 ca8:	10002ce8 	andne	r2, r0, r8, ror #25
 cac:	000001d0 	ldrdeq	r0, [r0], -r0	; <UNPREDICTABLE>
 cb0:	100e410a 	andne	r4, lr, sl, lsl #2
 cb4:	03850484 	orreq	r0, r5, #132, 8	; 0x84000000
 cb8:	018e0286 	orreq	r0, lr, r6, lsl #5
 cbc:	000be702 	andeq	lr, fp, r2, lsl #14
 cc0:	0000000c 	andeq	r0, r0, ip
 cc4:	ffffffff 			; <UNDEFINED> instruction: 0xffffffff
 cc8:	7c020001 	stcvc	0, cr0, [r2], {1}
 ccc:	000d0c0e 	andeq	r0, sp, lr, lsl #24
 cd0:	0000001c 	andeq	r0, r0, ip, lsl r0
 cd4:	00000cc0 	andeq	r0, r0, r0, asr #25
 cd8:	10002eb8 			; <UNDEFINED> instruction: 0x10002eb8
 cdc:	0000008a 	andeq	r0, r0, sl, lsl #1
 ce0:	040e4c0a 	streq	r4, [lr], #-3082	; 0xfffff3f6
 ce4:	0e410a4a 	vmlseq.f32	s1, s2, s20
 ce8:	520b5b00 	andpl	r5, fp, #0, 22
 cec:	0b41000e 	bleq	1040d2c <__ROM_SIZE+0xfc0d2c>
 cf0:	00000018 	andeq	r0, r0, r8, lsl r0
 cf4:	00000cc0 	andeq	r0, r0, r0, asr #25
 cf8:	10002f44 	andne	r2, r0, r4, asr #30
 cfc:	00000020 	andeq	r0, r0, r0, lsr #32
 d00:	080e490a 	stmdaeq	lr, {r1, r3, r8, fp, lr}
 d04:	018e0280 	orreq	r0, lr, r0, lsl #5
 d08:	00000b47 	andeq	r0, r0, r7, asr #22
 d0c:	00000014 	andeq	r0, r0, r4, lsl r0
 d10:	00000cc0 	andeq	r0, r0, r0, asr #25
 d14:	10002f64 	andne	r2, r0, r4, ror #30
 d18:	00000012 	andeq	r0, r0, r2, lsl r0
 d1c:	080e420a 	stmdaeq	lr, {r1, r3, r9, lr}
 d20:	0b47028e 	bleq	11c1760 <__ROM_SIZE+0x1141760>
 d24:	00000014 	andeq	r0, r0, r4, lsl r0
 d28:	00000cc0 	andeq	r0, r0, r0, asr #25
 d2c:	10002f78 	andne	r2, r0, r8, ror pc
 d30:	00000012 	andeq	r0, r0, r2, lsl r0
 d34:	080e420a 	stmdaeq	lr, {r1, r3, r9, lr}
 d38:	0b47028e 	bleq	11c1778 <__ROM_SIZE+0x1141778>
 d3c:	00000014 	andeq	r0, r0, r4, lsl r0
 d40:	00000cc0 	andeq	r0, r0, r0, asr #25
 d44:	10002f8c 	andne	r2, r0, ip, lsl #31
 d48:	00000012 	andeq	r0, r0, r2, lsl r0
 d4c:	080e420a 	stmdaeq	lr, {r1, r3, r9, lr}
 d50:	0b47028e 	bleq	11c1790 <__ROM_SIZE+0x1141790>
 d54:	00000014 	andeq	r0, r0, r4, lsl r0
 d58:	00000cc0 	andeq	r0, r0, r0, asr #25
 d5c:	10002fa0 	andne	r2, r0, r0, lsr #31
 d60:	00000012 	andeq	r0, r0, r2, lsl r0
 d64:	080e420a 	stmdaeq	lr, {r1, r3, r9, lr}
 d68:	0b47028e 	bleq	11c17a8 <__ROM_SIZE+0x11417a8>
 d6c:	00000014 	andeq	r0, r0, r4, lsl r0
 d70:	00000cc0 	andeq	r0, r0, r0, asr #25
 d74:	10002fb4 			; <UNDEFINED> instruction: 0x10002fb4
 d78:	00000012 	andeq	r0, r0, r2, lsl r0
 d7c:	080e420a 	stmdaeq	lr, {r1, r3, r9, lr}
 d80:	0b47028e 	bleq	11c17c0 <__ROM_SIZE+0x11417c0>
 d84:	0000000c 	andeq	r0, r0, ip
 d88:	ffffffff 			; <UNDEFINED> instruction: 0xffffffff
 d8c:	7c020001 	stcvc	0, cr0, [r2], {1}
 d90:	000d0c0e 	andeq	r0, sp, lr, lsl #24
 d94:	00000010 	andeq	r0, r0, r0, lsl r0
 d98:	00000d84 	andeq	r0, r0, r4, lsl #27
 d9c:	10002fc8 	andne	r2, r0, r8, asr #31
 da0:	0000004e 	andeq	r0, r0, lr, asr #32
 da4:	000b670a 	andeq	r6, fp, sl, lsl #14
 da8:	0000000c 	andeq	r0, r0, ip
 dac:	ffffffff 			; <UNDEFINED> instruction: 0xffffffff
 db0:	7c020001 	stcvc	0, cr0, [r2], {1}
 db4:	000d0c0e 	andeq	r0, sp, lr, lsl #24
 db8:	00000010 	andeq	r0, r0, r0, lsl r0
 dbc:	00000da8 	andeq	r0, r0, r8, lsr #27
 dc0:	10003018 	andne	r3, r0, r8, lsl r0
 dc4:	00000040 	andeq	r0, r0, r0, asr #32
 dc8:	000b600a 	andeq	r6, fp, sl
 dcc:	0000000c 	andeq	r0, r0, ip
 dd0:	ffffffff 			; <UNDEFINED> instruction: 0xffffffff
 dd4:	7c020001 	stcvc	0, cr0, [r2], {1}
 dd8:	000d0c0e 	andeq	r0, sp, lr, lsl #24
 ddc:	00000018 	andeq	r0, r0, r8, lsl r0
 de0:	00000dcc 	andeq	r0, r0, ip, asr #27
 de4:	10003058 	andne	r3, r0, r8, asr r0
 de8:	00000030 	andeq	r0, r0, r0, lsr r0
 dec:	8e100e50 	mrchi	14, 0, r0, cr0, cr0, {2}
 df0:	0ece4703 	cdpeq	7, 12, cr4, cr14, cr3, {0}
 df4:	00000010 	andeq	r0, r0, r0, lsl r0
 df8:	0000000c 	andeq	r0, r0, ip
 dfc:	ffffffff 			; <UNDEFINED> instruction: 0xffffffff
 e00:	7c020001 	stcvc	0, cr0, [r2], {1}
 e04:	000d0c0e 	andeq	r0, sp, lr, lsl #24
 e08:	00000024 	andeq	r0, r0, r4, lsr #32
 e0c:	00000df8 	strdeq	r0, [r0], -r8
 e10:	10003088 	andne	r3, r0, r8, lsl #1
 e14:	000002ec 	andeq	r0, r0, ip, ror #5
 e18:	84240e42 	strthi	r0, [r4], #-3650	; 0xfffff1be
 e1c:	86088509 	strhi	r8, [r8], -r9, lsl #10
 e20:	88068707 	stmdahi	r6, {r0, r1, r2, r8, r9, sl, pc}
 e24:	8a048905 	bhi	123240 <__ROM_SIZE+0xa3240>
 e28:	8e028b03 	vmlahi.f64	d8, d2, d3
 e2c:	00000001 	andeq	r0, r0, r1

Disassembly of section .stab:

00000000 <.stab>:
   0:	00000001 	andeq	r0, r0, r1
   4:	000c0000 	andeq	r0, ip, r0
   8:	0000014d 	andeq	r0, r0, sp, asr #2
   c:	00000009 	andeq	r0, r0, r9
  10:	0000001e 	andeq	r0, r0, lr, lsl r0
  14:	00000000 	andeq	r0, r0, r0
  18:	00000038 	andeq	r0, r0, r8, lsr r0
  1c:	00000001 	andeq	r0, r0, r1
  20:	00000000 	andeq	r0, r0, r0
  24:	0000003f 	andeq	r0, r0, pc, lsr r0
  28:	0000001e 	andeq	r0, r0, lr, lsl r0
  2c:	00000000 	andeq	r0, r0, r0
  30:	0000006e 	andeq	r0, r0, lr, rrx
  34:	00000001 	andeq	r0, r0, r1
  38:	00000000 	andeq	r0, r0, r0
  3c:	00000075 	andeq	r0, r0, r5, ror r0
  40:	0000001e 	andeq	r0, r0, lr, lsl r0
  44:	00000000 	andeq	r0, r0, r0
  48:	000000a5 	andeq	r0, r0, r5, lsr #1
  4c:	00000001 	andeq	r0, r0, r1
  50:	00000000 	andeq	r0, r0, r0
  54:	000000ad 	andeq	r0, r0, sp, lsr #1
  58:	0000001e 	andeq	r0, r0, lr, lsl r0
  5c:	00000000 	andeq	r0, r0, r0
  60:	000000dc 	ldrdeq	r0, [r0], -ip
  64:	00000001 	andeq	r0, r0, r1
  68:	00000000 	andeq	r0, r0, r0
  6c:	000000e3 	andeq	r0, r0, r3, ror #1
  70:	0000001e 	andeq	r0, r0, lr, lsl r0
  74:	00000000 	andeq	r0, r0, r0
  78:	00000111 	andeq	r0, r0, r1, lsl r1
  7c:	00000001 	andeq	r0, r0, r1
  80:	00000000 	andeq	r0, r0, r0
  84:	00000117 	andeq	r0, r0, r7, lsl r1
  88:	0000001e 	andeq	r0, r0, lr, lsl r0
  8c:	00000000 	andeq	r0, r0, r0
  90:	00000146 	andeq	r0, r0, r6, asr #2
  94:	00000001 	andeq	r0, r0, r1
  98:	00000000 	andeq	r0, r0, r0

Disassembly of section .stabstr:

00000000 <.stabstr>:
   0:	6f6c6300 	svcvs	0x006c6300
   4:	632e6573 			; <UNDEFINED> instruction: 0x632e6573
   8:	6c635f00 	stclvs	15, cr5, [r3], #-0
   c:	2065736f 	rsbcs	r7, r5, pc, ror #6
  10:	6e207369 	cdpvs	3, 2, cr7, cr0, cr9, {3}
  14:	6920746f 	stmdbvs	r0!, {r0, r1, r2, r3, r5, r6, sl, ip, sp, lr}
  18:	656c706d 	strbvs	r7, [ip, #-109]!	; 0xffffff93
  1c:	746e656d 	strbtvc	r6, [lr], #-1389	; 0xfffffa93
  20:	61206465 			; <UNDEFINED> instruction: 0x61206465
  24:	7720646e 	strvc	r6, [r0, -lr, ror #8]!
  28:	206c6c69 	rsbcs	r6, ip, r9, ror #24
  2c:	61776c61 	cmnvs	r7, r1, ror #24
  30:	66207379 			; <UNDEFINED> instruction: 0x66207379
  34:	006c6961 	rsbeq	r6, ip, r1, ror #18
  38:	6f6c635f 	svcvs	0x006c635f
  3c:	5f006573 	svcpl	0x00006573
  40:	61747366 	cmnvs	r4, r6, ror #6
  44:	73692074 	cmnvc	r9, #116	; 0x74
  48:	746f6e20 	strbtvc	r6, [pc], #-3616	; 50 <__STACKSEAL_SIZE+0x50>
  4c:	706d6920 	rsbvc	r6, sp, r0, lsr #18
  50:	656d656c 	strbvs	r6, [sp, #-1388]!	; 0xfffffa94
  54:	6465746e 	strbtvs	r7, [r5], #-1134	; 0xfffffb92
  58:	646e6120 	strbtvs	r6, [lr], #-288	; 0xfffffee0
  5c:	6c697720 	stclvs	7, cr7, [r9], #-128	; 0xffffff80
  60:	6c61206c 	stclvs	0, cr2, [r1], #-432	; 0xfffffe50
  64:	73796177 	cmnvc	r9, #-1073741795	; 0xc000001d
  68:	69616620 	stmdbvs	r1!, {r5, r9, sl, sp, lr}^
  6c:	665f006c 	ldrbvs	r0, [pc], -ip, rrx
  70:	74617473 	strbtvc	r7, [r1], #-1139	; 0xfffffb8d
  74:	73695f00 	cmnvc	r9, #0, 30
  78:	79747461 	ldmdbvc	r4!, {r0, r5, r6, sl, ip, sp, lr}^
  7c:	20736920 	rsbscs	r6, r3, r0, lsr #18
  80:	20746f6e 	rsbscs	r6, r4, lr, ror #30
  84:	6c706d69 	ldclvs	13, cr6, [r0], #-420	; 0xfffffe5c
  88:	6e656d65 	cdpvs	13, 6, cr6, cr5, cr5, {3}
  8c:	20646574 	rsbcs	r6, r4, r4, ror r5
  90:	20646e61 	rsbcs	r6, r4, r1, ror #28
  94:	6c6c6977 			; <UNDEFINED> instruction: 0x6c6c6977
  98:	776c6120 	strbvc	r6, [ip, -r0, lsr #2]!
  9c:	20737961 	rsbscs	r7, r3, r1, ror #18
  a0:	6c696166 	stfvse	f6, [r9], #-408	; 0xfffffe68
  a4:	73695f00 	cmnvc	r9, #0, 30
  a8:	79747461 	ldmdbvc	r4!, {r0, r5, r6, sl, ip, sp, lr}^
  ac:	736c5f00 	cmnvc	ip, #0, 30
  b0:	206b6565 	rsbcs	r6, fp, r5, ror #10
  b4:	6e207369 	cdpvs	3, 2, cr7, cr0, cr9, {3}
  b8:	6920746f 	stmdbvs	r0!, {r0, r1, r2, r3, r5, r6, sl, ip, sp, lr}
  bc:	656c706d 	strbvs	r7, [ip, #-109]!	; 0xffffff93
  c0:	746e656d 	strbtvc	r6, [lr], #-1389	; 0xfffffa93
  c4:	61206465 			; <UNDEFINED> instruction: 0x61206465
  c8:	7720646e 	strvc	r6, [r0, -lr, ror #8]!
  cc:	206c6c69 	rsbcs	r6, ip, r9, ror #24
  d0:	61776c61 	cmnvs	r7, r1, ror #24
  d4:	66207379 			; <UNDEFINED> instruction: 0x66207379
  d8:	006c6961 	rsbeq	r6, ip, r1, ror #18
  dc:	65736c5f 	ldrbvs	r6, [r3, #-3167]!	; 0xfffff3a1
  e0:	5f006b65 	svcpl	0x00006b65
  e4:	64616572 	strbtvs	r6, [r1], #-1394	; 0xfffffa8e
  e8:	20736920 	rsbscs	r6, r3, r0, lsr #18
  ec:	20746f6e 	rsbscs	r6, r4, lr, ror #30
  f0:	6c706d69 	ldclvs	13, cr6, [r0], #-420	; 0xfffffe5c
  f4:	6e656d65 	cdpvs	13, 6, cr6, cr5, cr5, {3}
  f8:	20646574 	rsbcs	r6, r4, r4, ror r5
  fc:	20646e61 	rsbcs	r6, r4, r1, ror #28
 100:	6c6c6977 			; <UNDEFINED> instruction: 0x6c6c6977
 104:	776c6120 	strbvc	r6, [ip, -r0, lsr #2]!
 108:	20737961 	rsbscs	r7, r3, r1, ror #18
 10c:	6c696166 	stfvse	f6, [r9], #-408	; 0xfffffe68
 110:	65725f00 	ldrbvs	r5, [r2, #-3840]!	; 0xfffff100
 114:	5f006461 	svcpl	0x00006461
 118:	74697277 	strbtvc	r7, [r9], #-631	; 0xfffffd89
 11c:	73692065 	cmnvc	r9, #101	; 0x65
 120:	746f6e20 	strbtvc	r6, [pc], #-3616	; 128 <__STACKSEAL_SIZE+0x128>
 124:	706d6920 	rsbvc	r6, sp, r0, lsr #18
 128:	656d656c 	strbvs	r6, [sp, #-1388]!	; 0xfffffa94
 12c:	6465746e 	strbtvs	r7, [r5], #-1134	; 0xfffffb92
 130:	646e6120 	strbtvs	r6, [lr], #-288	; 0xfffffee0
 134:	6c697720 	stclvs	7, cr7, [r9], #-128	; 0xffffff80
 138:	6c61206c 	stclvs	0, cr2, [r1], #-432	; 0xfffffe50
 13c:	73796177 	cmnvc	r9, #-1073741795	; 0xc000001d
 140:	69616620 	stmdbvs	r1!, {r5, r9, sl, sp, lr}^
 144:	775f006c 	ldrbvc	r0, [pc, -ip, rrx]
 148:	65746972 	ldrbvs	r6, [r4, #-2418]!	; 0xfffff68e
	...
